ARM GAS  C:\Users\user\AppData\Local\Temp\ccJR9XQi.s 			page 1


   1              		.syntax unified
   2              		.cpu cortex-m4
   3              		.eabi_attribute 27, 1
   4              		.fpu fpv4-sp-d16
   5              		.eabi_attribute 20, 1
   6              		.eabi_attribute 21, 1
   7              		.eabi_attribute 23, 3
   8              		.eabi_attribute 24, 1
   9              		.eabi_attribute 25, 1
  10              		.eabi_attribute 26, 1
  11              		.eabi_attribute 30, 1
  12              		.eabi_attribute 34, 1
  13              		.eabi_attribute 18, 4
  14              		.thumb
  15              		.syntax unified
  16              		.file	"DISPLAY.c"
  17              		.text
  18              	.Ltext0:
  19              		.cfi_sections	.debug_frame
  20              		.section	.text.UpdateDisplay,"ax",%progbits
  21              		.align	2
  22              		.global	UpdateDisplay
  23              		.thumb
  24              		.thumb_func
  25              		.type	UpdateDisplay, %function
  26              	UpdateDisplay:
  27              	.LFB604:
  28              		.file 1 "DISPLAY.c"
   1:DISPLAY.c     **** /* ========================================
   2:DISPLAY.c     ****  *
   3:DISPLAY.c     ****  * Copyright YOUR COMPANY, THE YEAR
   4:DISPLAY.c     ****  * All Rights Reserved
   5:DISPLAY.c     ****  * UNPUBLISHED, LICENSED SOFTWARE.
   6:DISPLAY.c     ****  *
   7:DISPLAY.c     ****  * CONFIDENTIAL AND PROPRIETARY INFORMATION
   8:DISPLAY.c     ****  * WHICH IS THE PROPERTY OF your company.
   9:DISPLAY.c     ****  *
  10:DISPLAY.c     ****  * ========================================
  11:DISPLAY.c     **** 
  12:DISPLAY.c     **** 
  13:DISPLAY.c     **** */
  14:DISPLAY.c     **** 
  15:DISPLAY.c     **** #include "CAPSENS.h"
  16:DISPLAY.c     **** #include "DISPLAY.h"
  17:DISPLAY.c     **** 
  18:DISPLAY.c     **** 
  19:DISPLAY.c     **** 
  20:DISPLAY.c     **** void UpdateDisplay(cy_eink_update_t updateMethod, bool powerCycle)
  21:DISPLAY.c     **** {
  29              		.loc 1 21 0
  30              		.cfi_startproc
  31              		@ args = 0, pretend = 0, frame = 0
  32              		@ frame_needed = 0, uses_anonymous_args = 0
  33              	.LVL0:
  34 0000 F8B5     		push	{r3, r4, r5, r6, r7, lr}
  35              		.cfi_def_cfa_offset 24
  36              		.cfi_offset 3, -24
ARM GAS  C:\Users\user\AppData\Local\Temp\ccJR9XQi.s 			page 2


  37              		.cfi_offset 4, -20
  38              		.cfi_offset 5, -16
  39              		.cfi_offset 6, -12
  40              		.cfi_offset 7, -8
  41              		.cfi_offset 14, -4
  42 0002 0646     		mov	r6, r0
  43 0004 0F46     		mov	r7, r1
  22:DISPLAY.c     ****     cy_eink_frame_t* pEmwinBuffer;
  23:DISPLAY.c     **** 
  24:DISPLAY.c     ****     /* Get the pointer to Emwin's display buffer */
  25:DISPLAY.c     ****    pEmwinBuffer = (cy_eink_frame_t*)LCD_GetDisplayBuffer();
  44              		.loc 1 25 0
  45 0006 FFF7FEFF 		bl	LCD_GetDisplayBuffer
  46              	.LVL1:
  47 000a 0546     		mov	r5, r0
  48              	.LVL2:
  26:DISPLAY.c     **** 
  27:DISPLAY.c     ****     /* Update the EInk display */
  28:DISPLAY.c     ****     Cy_EINK_ShowFrame(imageBufferCache, pEmwinBuffer, updateMethod, powerCycle);
  49              		.loc 1 28 0
  50 000c 064C     		ldr	r4, .L3
  51 000e 3B46     		mov	r3, r7
  52 0010 3246     		mov	r2, r6
  53 0012 0146     		mov	r1, r0
  54 0014 2046     		mov	r0, r4
  55              	.LVL3:
  56 0016 FFF7FEFF 		bl	Cy_EINK_ShowFrame
  57              	.LVL4:
  29:DISPLAY.c     **** 
  30:DISPLAY.c     ****     /* Copy the EmWin display buffer to the imageBuffer cache*/
  31:DISPLAY.c     ****     memcpy(imageBufferCache, pEmwinBuffer, CY_EINK_FRAME_SIZE);
  58              		.loc 1 31 0
  59 001a 41F2B062 		movw	r2, #5808
  60 001e 2946     		mov	r1, r5
  61 0020 2046     		mov	r0, r4
  62 0022 FFF7FEFF 		bl	memcpy
  63              	.LVL5:
  64 0026 F8BD     		pop	{r3, r4, r5, r6, r7, pc}
  65              	.LVL6:
  66              	.L4:
  67              		.align	2
  68              	.L3:
  69 0028 00000000 		.word	imageBufferCache
  70              		.cfi_endproc
  71              	.LFE604:
  72              		.size	UpdateDisplay, .-UpdateDisplay
  73              		.section	.text.maximum_1,"ax",%progbits
  74              		.align	2
  75              		.global	maximum_1
  76              		.thumb
  77              		.thumb_func
  78              		.type	maximum_1, %function
  79              	maximum_1:
  80              	.LFB605:
  32:DISPLAY.c     **** }
  33:DISPLAY.c     **** 
  34:DISPLAY.c     **** uint32_t maximum_1(uint32_t arr[], int n){   
ARM GAS  C:\Users\user\AppData\Local\Temp\ccJR9XQi.s 			page 3


  81              		.loc 1 34 0
  82              		.cfi_startproc
  83              		@ args = 0, pretend = 0, frame = 0
  84              		@ frame_needed = 0, uses_anonymous_args = 0
  85              		@ link register save eliminated.
  86              	.LVL7:
  87 0000 10B4     		push	{r4}
  88              		.cfi_def_cfa_offset 4
  89              		.cfi_offset 4, -4
  90 0002 0446     		mov	r4, r0
  35:DISPLAY.c     ****     int i;
  36:DISPLAY.c     ****     // Initialize maximum element
  37:DISPLAY.c     ****     uint32_t max = arr[0];
  91              		.loc 1 37 0
  92 0004 0068     		ldr	r0, [r0]
  93              	.LVL8:
  38:DISPLAY.c     ****     // Traverse array elements from second and
  39:DISPLAY.c     ****     // compare every element with current max 
  40:DISPLAY.c     ****     for (i = 1; i < n; i++){
  94              		.loc 1 40 0
  95 0006 0123     		movs	r3, #1
  96 0008 05E0     		b	.L6
  97              	.LVL9:
  98              	.L8:
  41:DISPLAY.c     ****         if (arr[i] > max){
  99              		.loc 1 41 0
 100 000a 54F82320 		ldr	r2, [r4, r3, lsl #2]
 101 000e 9042     		cmp	r0, r2
 102 0010 00D2     		bcs	.L7
  42:DISPLAY.c     ****             max = arr[i];}}
 103              		.loc 1 42 0
 104 0012 1046     		mov	r0, r2
 105              	.LVL10:
 106              	.L7:
  40:DISPLAY.c     ****         if (arr[i] > max){
 107              		.loc 1 40 0 discriminator 2
 108 0014 0133     		adds	r3, r3, #1
 109              	.LVL11:
 110              	.L6:
  40:DISPLAY.c     ****         if (arr[i] > max){
 111              		.loc 1 40 0 is_stmt 0 discriminator 1
 112 0016 8B42     		cmp	r3, r1
 113 0018 F7DB     		blt	.L8
  43:DISPLAY.c     ****     return max;
  44:DISPLAY.c     **** }
 114              		.loc 1 44 0 is_stmt 1
 115 001a 5DF8044B 		ldr	r4, [sp], #4
 116              		.cfi_restore 4
 117              		.cfi_def_cfa_offset 0
 118              	.LVL12:
 119 001e 7047     		bx	lr
 120              		.cfi_endproc
 121              	.LFE605:
 122              		.size	maximum_1, .-maximum_1
 123              		.section	.text.minimum_1,"ax",%progbits
 124              		.align	2
 125              		.global	minimum_1
ARM GAS  C:\Users\user\AppData\Local\Temp\ccJR9XQi.s 			page 4


 126              		.thumb
 127              		.thumb_func
 128              		.type	minimum_1, %function
 129              	minimum_1:
 130              	.LFB606:
  45:DISPLAY.c     **** uint32_t minimum_1(uint32_t arr[], int n)      
  46:DISPLAY.c     **** {
 131              		.loc 1 46 0
 132              		.cfi_startproc
 133              		@ args = 0, pretend = 0, frame = 0
 134              		@ frame_needed = 0, uses_anonymous_args = 0
 135              		@ link register save eliminated.
 136              	.LVL13:
 137 0000 10B4     		push	{r4}
 138              		.cfi_def_cfa_offset 4
 139              		.cfi_offset 4, -4
 140 0002 0446     		mov	r4, r0
  47:DISPLAY.c     ****     int i;
  48:DISPLAY.c     ****     // Initialize maximum element
  49:DISPLAY.c     ****     uint32_t min = arr[0];
 141              		.loc 1 49 0
 142 0004 0068     		ldr	r0, [r0]
 143              	.LVL14:
  50:DISPLAY.c     ****     // Traverse array elements from second and
  51:DISPLAY.c     ****     // compare every element with current max 
  52:DISPLAY.c     ****     for (i = 1; i < n; i++){
 144              		.loc 1 52 0
 145 0006 0123     		movs	r3, #1
 146 0008 05E0     		b	.L12
 147              	.LVL15:
 148              	.L14:
  53:DISPLAY.c     ****         if (arr[i] < min){
 149              		.loc 1 53 0
 150 000a 54F82320 		ldr	r2, [r4, r3, lsl #2]
 151 000e 9042     		cmp	r0, r2
 152 0010 00D9     		bls	.L13
  54:DISPLAY.c     ****             min = arr[i];}}
 153              		.loc 1 54 0
 154 0012 1046     		mov	r0, r2
 155              	.LVL16:
 156              	.L13:
  52:DISPLAY.c     ****         if (arr[i] < min){
 157              		.loc 1 52 0 discriminator 2
 158 0014 0133     		adds	r3, r3, #1
 159              	.LVL17:
 160              	.L12:
  52:DISPLAY.c     ****         if (arr[i] < min){
 161              		.loc 1 52 0 is_stmt 0 discriminator 1
 162 0016 8B42     		cmp	r3, r1
 163 0018 F7DB     		blt	.L14
  55:DISPLAY.c     ****     return min;
  56:DISPLAY.c     **** }
 164              		.loc 1 56 0 is_stmt 1
 165 001a 5DF8044B 		ldr	r4, [sp], #4
 166              		.cfi_restore 4
 167              		.cfi_def_cfa_offset 0
 168              	.LVL18:
ARM GAS  C:\Users\user\AppData\Local\Temp\ccJR9XQi.s 			page 5


 169 001e 7047     		bx	lr
 170              		.cfi_endproc
 171              	.LFE606:
 172              		.size	minimum_1, .-minimum_1
 173              		.section	.text.drawGraph,"ax",%progbits
 174              		.align	2
 175              		.global	drawGraph
 176              		.thumb
 177              		.thumb_func
 178              		.type	drawGraph, %function
 179              	drawGraph:
 180              	.LFB607:
  57:DISPLAY.c     **** 
  58:DISPLAY.c     **** void drawGraph(uint32_t donnees[1300], uint8_t espacement, int size ){   //size est déclarer comme
 181              		.loc 1 58 0
 182              		.cfi_startproc
 183              		@ args = 0, pretend = 0, frame = 0
 184              		@ frame_needed = 0, uses_anonymous_args = 0
 185              	.LVL19:
 186 0000 2DE9F843 		push	{r3, r4, r5, r6, r7, r8, r9, lr}
 187              		.cfi_def_cfa_offset 32
 188              		.cfi_offset 3, -32
 189              		.cfi_offset 4, -28
 190              		.cfi_offset 5, -24
 191              		.cfi_offset 6, -20
 192              		.cfi_offset 7, -16
 193              		.cfi_offset 8, -12
 194              		.cfi_offset 9, -8
 195              		.cfi_offset 14, -4
 196 0004 0746     		mov	r7, r0
 197 0006 8846     		mov	r8, r1
 198 0008 1546     		mov	r5, r2
  59:DISPLAY.c     ****     
  60:DISPLAY.c     ****     GUI_SetPenSize(1);
 199              		.loc 1 60 0
 200 000a 0120     		movs	r0, #1
 201              	.LVL20:
 202 000c FFF7FEFF 		bl	GUI_SetPenSize
 203              	.LVL21:
  61:DISPLAY.c     ****     
  62:DISPLAY.c     ****     uint32_t maximum=0; 
  63:DISPLAY.c     ****     uint32_t minimum=0;
  64:DISPLAY.c     ****     maximum = (maximum_1(donnees, size))/5;
 204              		.loc 1 64 0
 205 0010 2946     		mov	r1, r5
 206 0012 3846     		mov	r0, r7
 207 0014 FFF7FEFF 		bl	maximum_1
 208              	.LVL22:
 209 0018 394C     		ldr	r4, .L25
 210 001a A4FB0036 		umull	r3, r6, r4, r0
 211 001e B608     		lsrs	r6, r6, #2
 212              	.LVL23:
  65:DISPLAY.c     ****     minimum= (minimum_1(donnees, size))/5; 
 213              		.loc 1 65 0
 214 0020 2946     		mov	r1, r5
 215 0022 3846     		mov	r0, r7
 216 0024 FFF7FEFF 		bl	minimum_1
ARM GAS  C:\Users\user\AppData\Local\Temp\ccJR9XQi.s 			page 6


 217              	.LVL24:
 218 0028 A4FB0034 		umull	r3, r4, r4, r0
 219 002c A408     		lsrs	r4, r4, #2
 220              	.LVL25:
  66:DISPLAY.c     ****     sprintf(buffer,"%d\n\r", minimum);
 221              		.loc 1 66 0
 222 002e DFF8FC90 		ldr	r9, .L25+44
 223 0032 2246     		mov	r2, r4
 224 0034 3349     		ldr	r1, .L25+4
 225 0036 4846     		mov	r0, r9
 226 0038 FFF7FEFF 		bl	sprintf
 227              	.LVL26:
 228              	.LBB26:
 229              	.LBB27:
 230              	.LBB28:
 231              		.file 2 "Generated_Source\\PSoC6\\pdl\\drivers/peripheral/scb/cy_scb_uart.h"
   1:Generated_Source\PSoC6\pdl\drivers/peripheral/scb/cy_scb_uart.h **** /***************************************************************************//**
   2:Generated_Source\PSoC6\pdl\drivers/peripheral/scb/cy_scb_uart.h **** * \file cy_scb_uart.h
   3:Generated_Source\PSoC6\pdl\drivers/peripheral/scb/cy_scb_uart.h **** * \version 2.20
   4:Generated_Source\PSoC6\pdl\drivers/peripheral/scb/cy_scb_uart.h **** *
   5:Generated_Source\PSoC6\pdl\drivers/peripheral/scb/cy_scb_uart.h **** * Provides UART API declarations of the SCB driver.
   6:Generated_Source\PSoC6\pdl\drivers/peripheral/scb/cy_scb_uart.h **** *
   7:Generated_Source\PSoC6\pdl\drivers/peripheral/scb/cy_scb_uart.h **** ********************************************************************************
   8:Generated_Source\PSoC6\pdl\drivers/peripheral/scb/cy_scb_uart.h **** * \copyright
   9:Generated_Source\PSoC6\pdl\drivers/peripheral/scb/cy_scb_uart.h **** * Copyright 2016-2018, Cypress Semiconductor Corporation.  All rights reserved.
  10:Generated_Source\PSoC6\pdl\drivers/peripheral/scb/cy_scb_uart.h **** * You may use this file only in accordance with the license, terms, conditions,
  11:Generated_Source\PSoC6\pdl\drivers/peripheral/scb/cy_scb_uart.h **** * disclaimers, and limitations in the end user license agreement accompanying
  12:Generated_Source\PSoC6\pdl\drivers/peripheral/scb/cy_scb_uart.h **** * the software package with which this file was provided.
  13:Generated_Source\PSoC6\pdl\drivers/peripheral/scb/cy_scb_uart.h **** *******************************************************************************/
  14:Generated_Source\PSoC6\pdl\drivers/peripheral/scb/cy_scb_uart.h **** 
  15:Generated_Source\PSoC6\pdl\drivers/peripheral/scb/cy_scb_uart.h **** /**
  16:Generated_Source\PSoC6\pdl\drivers/peripheral/scb/cy_scb_uart.h **** * \addtogroup group_scb_uart
  17:Generated_Source\PSoC6\pdl\drivers/peripheral/scb/cy_scb_uart.h **** * \{
  18:Generated_Source\PSoC6\pdl\drivers/peripheral/scb/cy_scb_uart.h **** * Driver API for UART
  19:Generated_Source\PSoC6\pdl\drivers/peripheral/scb/cy_scb_uart.h **** *
  20:Generated_Source\PSoC6\pdl\drivers/peripheral/scb/cy_scb_uart.h **** * The functions and other declarations used in this part of the driver are in 
  21:Generated_Source\PSoC6\pdl\drivers/peripheral/scb/cy_scb_uart.h **** * cy_scb_uart.h. You can also include cy_pdl.h (ModusToolbox only) to get access 
  22:Generated_Source\PSoC6\pdl\drivers/peripheral/scb/cy_scb_uart.h **** * to all functions and declarations in the PDL.
  23:Generated_Source\PSoC6\pdl\drivers/peripheral/scb/cy_scb_uart.h **** *
  24:Generated_Source\PSoC6\pdl\drivers/peripheral/scb/cy_scb_uart.h **** * The Universal Asynchronous Receiver/Transmitter (UART) protocol is an 
  25:Generated_Source\PSoC6\pdl\drivers/peripheral/scb/cy_scb_uart.h **** * asynchronous serial interface protocol. UART communication is typically 
  26:Generated_Source\PSoC6\pdl\drivers/peripheral/scb/cy_scb_uart.h **** * point-to-point. The UART interface consists of two signals:
  27:Generated_Source\PSoC6\pdl\drivers/peripheral/scb/cy_scb_uart.h **** * * TX: Transmitter output
  28:Generated_Source\PSoC6\pdl\drivers/peripheral/scb/cy_scb_uart.h **** * * RX: Receiver input
  29:Generated_Source\PSoC6\pdl\drivers/peripheral/scb/cy_scb_uart.h **** *
  30:Generated_Source\PSoC6\pdl\drivers/peripheral/scb/cy_scb_uart.h **** * Additionally, two side-band signals are used to implement flow control in 
  31:Generated_Source\PSoC6\pdl\drivers/peripheral/scb/cy_scb_uart.h **** * UART. Note that the flow control applies only to TX functionality.
  32:Generated_Source\PSoC6\pdl\drivers/peripheral/scb/cy_scb_uart.h **** * * Clear to Send (CTS): This is an input signal to the transmitter. 
  33:Generated_Source\PSoC6\pdl\drivers/peripheral/scb/cy_scb_uart.h **** *   When active, it indicates that the slave is ready for the master to 
  34:Generated_Source\PSoC6\pdl\drivers/peripheral/scb/cy_scb_uart.h **** *   transmit data.
  35:Generated_Source\PSoC6\pdl\drivers/peripheral/scb/cy_scb_uart.h **** * * Ready to Send (RTS): This is an output signal from the receiver. When 
  36:Generated_Source\PSoC6\pdl\drivers/peripheral/scb/cy_scb_uart.h **** *   active, it indicates that the receiver is ready to receive data
  37:Generated_Source\PSoC6\pdl\drivers/peripheral/scb/cy_scb_uart.h **** *
  38:Generated_Source\PSoC6\pdl\drivers/peripheral/scb/cy_scb_uart.h **** * Features:
  39:Generated_Source\PSoC6\pdl\drivers/peripheral/scb/cy_scb_uart.h **** * * Supports UART protocol
  40:Generated_Source\PSoC6\pdl\drivers/peripheral/scb/cy_scb_uart.h **** *   * Standard UART
  41:Generated_Source\PSoC6\pdl\drivers/peripheral/scb/cy_scb_uart.h **** *   * Multi-processor mode
ARM GAS  C:\Users\user\AppData\Local\Temp\ccJR9XQi.s 			page 7


  42:Generated_Source\PSoC6\pdl\drivers/peripheral/scb/cy_scb_uart.h **** * * SmartCard (ISO7816) reader
  43:Generated_Source\PSoC6\pdl\drivers/peripheral/scb/cy_scb_uart.h **** * * IrDA
  44:Generated_Source\PSoC6\pdl\drivers/peripheral/scb/cy_scb_uart.h **** * * Data frame size programmable from 4 to 16 bits
  45:Generated_Source\PSoC6\pdl\drivers/peripheral/scb/cy_scb_uart.h **** * * Programmable number of STOP bits, which can be set in terms of half bit 
  46:Generated_Source\PSoC6\pdl\drivers/peripheral/scb/cy_scb_uart.h **** *   periods between 1 and 4
  47:Generated_Source\PSoC6\pdl\drivers/peripheral/scb/cy_scb_uart.h **** * * Parity support (odd and even parity)
  48:Generated_Source\PSoC6\pdl\drivers/peripheral/scb/cy_scb_uart.h **** * * Median filter on Rx input
  49:Generated_Source\PSoC6\pdl\drivers/peripheral/scb/cy_scb_uart.h **** * * Programmable oversampling
  50:Generated_Source\PSoC6\pdl\drivers/peripheral/scb/cy_scb_uart.h **** * * Start skipping
  51:Generated_Source\PSoC6\pdl\drivers/peripheral/scb/cy_scb_uart.h **** *
  52:Generated_Source\PSoC6\pdl\drivers/peripheral/scb/cy_scb_uart.h **** ********************************************************************************
  53:Generated_Source\PSoC6\pdl\drivers/peripheral/scb/cy_scb_uart.h **** * \section group_scb_uart_configuration Configuration Considerations
  54:Generated_Source\PSoC6\pdl\drivers/peripheral/scb/cy_scb_uart.h **** ********************************************************************************
  55:Generated_Source\PSoC6\pdl\drivers/peripheral/scb/cy_scb_uart.h **** * The UART driver configuration can be divided to number of sequential
  56:Generated_Source\PSoC6\pdl\drivers/peripheral/scb/cy_scb_uart.h **** * steps listed below:
  57:Generated_Source\PSoC6\pdl\drivers/peripheral/scb/cy_scb_uart.h **** * * \ref group_scb_uart_config
  58:Generated_Source\PSoC6\pdl\drivers/peripheral/scb/cy_scb_uart.h **** * * \ref group_scb_uart_pins
  59:Generated_Source\PSoC6\pdl\drivers/peripheral/scb/cy_scb_uart.h **** * * \ref group_scb_uart_clock
  60:Generated_Source\PSoC6\pdl\drivers/peripheral/scb/cy_scb_uart.h **** * * \ref group_scb_uart_data_rate
  61:Generated_Source\PSoC6\pdl\drivers/peripheral/scb/cy_scb_uart.h **** * * \ref group_scb_uart_intr
  62:Generated_Source\PSoC6\pdl\drivers/peripheral/scb/cy_scb_uart.h **** * * \ref group_scb_uart_enable
  63:Generated_Source\PSoC6\pdl\drivers/peripheral/scb/cy_scb_uart.h **** *
  64:Generated_Source\PSoC6\pdl\drivers/peripheral/scb/cy_scb_uart.h **** * \note
  65:Generated_Source\PSoC6\pdl\drivers/peripheral/scb/cy_scb_uart.h **** * UART driver is built on top of the SCB hardware block. The SCB5 instance is
  66:Generated_Source\PSoC6\pdl\drivers/peripheral/scb/cy_scb_uart.h **** * used as an example for all code snippets. Modify the code to match your
  67:Generated_Source\PSoC6\pdl\drivers/peripheral/scb/cy_scb_uart.h **** * design.
  68:Generated_Source\PSoC6\pdl\drivers/peripheral/scb/cy_scb_uart.h **** *
  69:Generated_Source\PSoC6\pdl\drivers/peripheral/scb/cy_scb_uart.h **** ********************************************************************************
  70:Generated_Source\PSoC6\pdl\drivers/peripheral/scb/cy_scb_uart.h **** * \subsection group_scb_uart_config Configure UART
  71:Generated_Source\PSoC6\pdl\drivers/peripheral/scb/cy_scb_uart.h **** ********************************************************************************
  72:Generated_Source\PSoC6\pdl\drivers/peripheral/scb/cy_scb_uart.h **** * To set up the UART driver, provide the configuration parameters in the
  73:Generated_Source\PSoC6\pdl\drivers/peripheral/scb/cy_scb_uart.h **** * \ref cy_stc_scb_uart_config_t structure. For example: provide uartMode,
  74:Generated_Source\PSoC6\pdl\drivers/peripheral/scb/cy_scb_uart.h **** * oversample, dataWidth, enableMsbFirst, parity, and stopBits. The other
  75:Generated_Source\PSoC6\pdl\drivers/peripheral/scb/cy_scb_uart.h **** * parameters are optional. To initialize the driver, call \ref Cy_SCB_UART_Init 
  76:Generated_Source\PSoC6\pdl\drivers/peripheral/scb/cy_scb_uart.h **** * function providing a pointer to the populated \ref cy_stc_scb_uart_config_t 
  77:Generated_Source\PSoC6\pdl\drivers/peripheral/scb/cy_scb_uart.h **** * structure and the allocated \ref cy_stc_scb_uart_context_t structure.
  78:Generated_Source\PSoC6\pdl\drivers/peripheral/scb/cy_scb_uart.h **** *
  79:Generated_Source\PSoC6\pdl\drivers/peripheral/scb/cy_scb_uart.h **** * \snippet SCB_CompDatasheet_sut_01_revA.cydsn\uart_snippets.c UART_CFG
  80:Generated_Source\PSoC6\pdl\drivers/peripheral/scb/cy_scb_uart.h **** *
  81:Generated_Source\PSoC6\pdl\drivers/peripheral/scb/cy_scb_uart.h **** ********************************************************************************
  82:Generated_Source\PSoC6\pdl\drivers/peripheral/scb/cy_scb_uart.h **** * \subsection group_scb_uart_pins Assign and Configure Pins
  83:Generated_Source\PSoC6\pdl\drivers/peripheral/scb/cy_scb_uart.h **** ********************************************************************************
  84:Generated_Source\PSoC6\pdl\drivers/peripheral/scb/cy_scb_uart.h **** * Only dedicated SCB pins can be used for UART operation. The HSIOM
  85:Generated_Source\PSoC6\pdl\drivers/peripheral/scb/cy_scb_uart.h **** * register must be configured to connect dedicated SCB UART pins to the 
  86:Generated_Source\PSoC6\pdl\drivers/peripheral/scb/cy_scb_uart.h **** * SCB block. Also, the UART output pins must be configured in Strong Drive 
  87:Generated_Source\PSoC6\pdl\drivers/peripheral/scb/cy_scb_uart.h **** * Input Off mode and UART input pins in Digital High-Z:
  88:Generated_Source\PSoC6\pdl\drivers/peripheral/scb/cy_scb_uart.h **** *
  89:Generated_Source\PSoC6\pdl\drivers/peripheral/scb/cy_scb_uart.h **** * \snippet SCB_CompDatasheet_sut_01_revA.cydsn\uart_snippets.c UART_CFG_PINS
  90:Generated_Source\PSoC6\pdl\drivers/peripheral/scb/cy_scb_uart.h **** *
  91:Generated_Source\PSoC6\pdl\drivers/peripheral/scb/cy_scb_uart.h **** ********************************************************************************
  92:Generated_Source\PSoC6\pdl\drivers/peripheral/scb/cy_scb_uart.h **** * \subsection group_scb_uart_clock Assign Clock Divider
  93:Generated_Source\PSoC6\pdl\drivers/peripheral/scb/cy_scb_uart.h **** ********************************************************************************
  94:Generated_Source\PSoC6\pdl\drivers/peripheral/scb/cy_scb_uart.h **** * A clock source must be connected to the SCB block to oversample input and
  95:Generated_Source\PSoC6\pdl\drivers/peripheral/scb/cy_scb_uart.h **** * output signals, in this document this clock will be referred as clk_scb.
  96:Generated_Source\PSoC6\pdl\drivers/peripheral/scb/cy_scb_uart.h **** * You must use one of available integer or fractional dividers. Use the 
  97:Generated_Source\PSoC6\pdl\drivers/peripheral/scb/cy_scb_uart.h **** * \ref group_sysclk driver API to do this.
  98:Generated_Source\PSoC6\pdl\drivers/peripheral/scb/cy_scb_uart.h **** *
ARM GAS  C:\Users\user\AppData\Local\Temp\ccJR9XQi.s 			page 8


  99:Generated_Source\PSoC6\pdl\drivers/peripheral/scb/cy_scb_uart.h **** * \snippet SCB_CompDatasheet_sut_01_revA.cydsn\uart_snippets.c UART_CFG_ASSIGN_CLOCK
 100:Generated_Source\PSoC6\pdl\drivers/peripheral/scb/cy_scb_uart.h **** *
 101:Generated_Source\PSoC6\pdl\drivers/peripheral/scb/cy_scb_uart.h **** ********************************************************************************
 102:Generated_Source\PSoC6\pdl\drivers/peripheral/scb/cy_scb_uart.h **** * \subsection group_scb_uart_data_rate Configure Baud Rate
 103:Generated_Source\PSoC6\pdl\drivers/peripheral/scb/cy_scb_uart.h **** ********************************************************************************
 104:Generated_Source\PSoC6\pdl\drivers/peripheral/scb/cy_scb_uart.h **** * To get the UART to operate with the desired baud rate, the clk_scb frequency
 105:Generated_Source\PSoC6\pdl\drivers/peripheral/scb/cy_scb_uart.h **** * and the oversample must be configured. Use the \ref group_sysclk driver API
 106:Generated_Source\PSoC6\pdl\drivers/peripheral/scb/cy_scb_uart.h **** * to configure clk_scb frequency. Set the <em><b>oversample parameter
 107:Generated_Source\PSoC6\pdl\drivers/peripheral/scb/cy_scb_uart.h **** * in configuration structure</b></em> to define the number of the SCB clocks
 108:Generated_Source\PSoC6\pdl\drivers/peripheral/scb/cy_scb_uart.h **** * within one UART bit-time.
 109:Generated_Source\PSoC6\pdl\drivers/peripheral/scb/cy_scb_uart.h **** *
 110:Generated_Source\PSoC6\pdl\drivers/peripheral/scb/cy_scb_uart.h **** * \snippet SCB_CompDatasheet_sut_01_revA.cydsn\uart_snippets.c UART_CFG_DATA_RATE
 111:Generated_Source\PSoC6\pdl\drivers/peripheral/scb/cy_scb_uart.h **** *
 112:Generated_Source\PSoC6\pdl\drivers/peripheral/scb/cy_scb_uart.h **** * <b>Refer to the technical reference manual (TRM) section UART sub-section
 113:Generated_Source\PSoC6\pdl\drivers/peripheral/scb/cy_scb_uart.h **** * Clocking and Oversampling to get information about how to configure the UART to run with
 114:Generated_Source\PSoC6\pdl\drivers/peripheral/scb/cy_scb_uart.h **** * desired baud rate.</b>
 115:Generated_Source\PSoC6\pdl\drivers/peripheral/scb/cy_scb_uart.h **** *
 116:Generated_Source\PSoC6\pdl\drivers/peripheral/scb/cy_scb_uart.h **** ********************************************************************************
 117:Generated_Source\PSoC6\pdl\drivers/peripheral/scb/cy_scb_uart.h **** * \subsection group_scb_uart_intr Configure Interrupt
 118:Generated_Source\PSoC6\pdl\drivers/peripheral/scb/cy_scb_uart.h **** ********************************************************************************
 119:Generated_Source\PSoC6\pdl\drivers/peripheral/scb/cy_scb_uart.h **** * The interrupt is optional for the UART operation. To configure interrupt
 120:Generated_Source\PSoC6\pdl\drivers/peripheral/scb/cy_scb_uart.h **** * the \ref Cy_SCB_UART_Interrupt function must be called in the interrupt
 121:Generated_Source\PSoC6\pdl\drivers/peripheral/scb/cy_scb_uart.h **** * handler for the selected SCB instance. Also, this interrupt must be enabled
 122:Generated_Source\PSoC6\pdl\drivers/peripheral/scb/cy_scb_uart.h **** * in the NVIC.
 123:Generated_Source\PSoC6\pdl\drivers/peripheral/scb/cy_scb_uart.h **** * The interrupt must be configured when \ref group_scb_uart_hl will be used.
 124:Generated_Source\PSoC6\pdl\drivers/peripheral/scb/cy_scb_uart.h **** *
 125:Generated_Source\PSoC6\pdl\drivers/peripheral/scb/cy_scb_uart.h **** * \snippet SCB_CompDatasheet_sut_01_revA.cydsn\uart_snippets.c UART_INTR_A
 126:Generated_Source\PSoC6\pdl\drivers/peripheral/scb/cy_scb_uart.h **** * \snippet SCB_CompDatasheet_sut_01_revA.cydsn\uart_snippets.c UART_INTR_B
 127:Generated_Source\PSoC6\pdl\drivers/peripheral/scb/cy_scb_uart.h **** *
 128:Generated_Source\PSoC6\pdl\drivers/peripheral/scb/cy_scb_uart.h **** ********************************************************************************
 129:Generated_Source\PSoC6\pdl\drivers/peripheral/scb/cy_scb_uart.h **** * \subsection group_scb_uart_enable Enable UART
 130:Generated_Source\PSoC6\pdl\drivers/peripheral/scb/cy_scb_uart.h **** ********************************************************************************
 131:Generated_Source\PSoC6\pdl\drivers/peripheral/scb/cy_scb_uart.h **** * Finally, enable the UART operation by calling \ref Cy_SCB_UART_Enable.
 132:Generated_Source\PSoC6\pdl\drivers/peripheral/scb/cy_scb_uart.h **** *
 133:Generated_Source\PSoC6\pdl\drivers/peripheral/scb/cy_scb_uart.h **** * \snippet SCB_CompDatasheet_sut_01_revA.cydsn\uart_snippets.c UART_ENABLE
 134:Generated_Source\PSoC6\pdl\drivers/peripheral/scb/cy_scb_uart.h **** *
 135:Generated_Source\PSoC6\pdl\drivers/peripheral/scb/cy_scb_uart.h **** ********************************************************************************
 136:Generated_Source\PSoC6\pdl\drivers/peripheral/scb/cy_scb_uart.h **** * \section group_scb_uart_use_cases Common Use Cases
 137:Generated_Source\PSoC6\pdl\drivers/peripheral/scb/cy_scb_uart.h **** ********************************************************************************
 138:Generated_Source\PSoC6\pdl\drivers/peripheral/scb/cy_scb_uart.h **** * The UART API is divided into two categories: \ref group_scb_uart_low_level_functions
 139:Generated_Source\PSoC6\pdl\drivers/peripheral/scb/cy_scb_uart.h **** * and \ref group_scb_uart_high_level_functions. \n
 140:Generated_Source\PSoC6\pdl\drivers/peripheral/scb/cy_scb_uart.h **** * <em>Do not mix <b>High-Level</b> and <b>Low-Level</b> API because a Low-Level
 141:Generated_Source\PSoC6\pdl\drivers/peripheral/scb/cy_scb_uart.h **** * API can adversely affect the operation of a High-Level API.</em>
 142:Generated_Source\PSoC6\pdl\drivers/peripheral/scb/cy_scb_uart.h **** *
 143:Generated_Source\PSoC6\pdl\drivers/peripheral/scb/cy_scb_uart.h **** ********************************************************************************
 144:Generated_Source\PSoC6\pdl\drivers/peripheral/scb/cy_scb_uart.h **** * \subsection group_scb_uart_ll Low-Level API
 145:Generated_Source\PSoC6\pdl\drivers/peripheral/scb/cy_scb_uart.h **** ********************************************************************************
 146:Generated_Source\PSoC6\pdl\drivers/peripheral/scb/cy_scb_uart.h **** * The \ref group_scb_uart_low_level_functions functions allow
 147:Generated_Source\PSoC6\pdl\drivers/peripheral/scb/cy_scb_uart.h **** * interacting directly with the hardware and do not use \ref Cy_SCB_UART_Interrupt.
 148:Generated_Source\PSoC6\pdl\drivers/peripheral/scb/cy_scb_uart.h **** * These functions do not require context for operation. Thus, NULL can be
 149:Generated_Source\PSoC6\pdl\drivers/peripheral/scb/cy_scb_uart.h **** * passed for context parameter in \ref Cy_SCB_UART_Init and \ref Cy_SCB_UART_Disable 
 150:Generated_Source\PSoC6\pdl\drivers/peripheral/scb/cy_scb_uart.h **** * instead of a pointer to the context structure.
 151:Generated_Source\PSoC6\pdl\drivers/peripheral/scb/cy_scb_uart.h **** *
 152:Generated_Source\PSoC6\pdl\drivers/peripheral/scb/cy_scb_uart.h **** * * To write data into the TX FIFO, use one of the provided functions:
 153:Generated_Source\PSoC6\pdl\drivers/peripheral/scb/cy_scb_uart.h **** *   \ref Cy_SCB_UART_Put, \ref Cy_SCB_UART_PutArray,
 154:Generated_Source\PSoC6\pdl\drivers/peripheral/scb/cy_scb_uart.h **** *   \ref Cy_SCB_UART_PutArrayBlocking or \ref Cy_SCB_UART_PutString.
 155:Generated_Source\PSoC6\pdl\drivers/peripheral/scb/cy_scb_uart.h **** *   Note that putting data into the TX FIFO starts data transfer.
ARM GAS  C:\Users\user\AppData\Local\Temp\ccJR9XQi.s 			page 9


 156:Generated_Source\PSoC6\pdl\drivers/peripheral/scb/cy_scb_uart.h **** *
 157:Generated_Source\PSoC6\pdl\drivers/peripheral/scb/cy_scb_uart.h **** * * To read data from the RX FIFO, use one of the provided functions:
 158:Generated_Source\PSoC6\pdl\drivers/peripheral/scb/cy_scb_uart.h **** *   \ref Cy_SCB_UART_Get, \ref Cy_SCB_UART_GetArray or
 159:Generated_Source\PSoC6\pdl\drivers/peripheral/scb/cy_scb_uart.h **** *   \ref Cy_SCB_UART_GetArrayBlocking.
 160:Generated_Source\PSoC6\pdl\drivers/peripheral/scb/cy_scb_uart.h **** *
 161:Generated_Source\PSoC6\pdl\drivers/peripheral/scb/cy_scb_uart.h **** * * The statuses can be polled using: \ref Cy_SCB_UART_GetRxFifoStatus and
 162:Generated_Source\PSoC6\pdl\drivers/peripheral/scb/cy_scb_uart.h **** *   \ref Cy_SCB_UART_GetTxFifoStatus.
 163:Generated_Source\PSoC6\pdl\drivers/peripheral/scb/cy_scb_uart.h **** *   <em>The statuses are <b>W1C (Write 1 to Clear)</b> and after a status
 164:Generated_Source\PSoC6\pdl\drivers/peripheral/scb/cy_scb_uart.h **** *   is set, it must be cleared.</em> Note that there are statuses evaluated as level.
 165:Generated_Source\PSoC6\pdl\drivers/peripheral/scb/cy_scb_uart.h **** *   These statuses remain set until an event is true. Therefore, after the clear
 166:Generated_Source\PSoC6\pdl\drivers/peripheral/scb/cy_scb_uart.h **** *   operation, the status is cleared but then it is restored (if event is still
 167:Generated_Source\PSoC6\pdl\drivers/peripheral/scb/cy_scb_uart.h **** *   true).
 168:Generated_Source\PSoC6\pdl\drivers/peripheral/scb/cy_scb_uart.h **** *   Also, the following functions can be used for polling as well
 169:Generated_Source\PSoC6\pdl\drivers/peripheral/scb/cy_scb_uart.h **** *   \ref Cy_SCB_UART_IsTxComplete, \ref Cy_SCB_UART_GetNumInRxFifo and
 170:Generated_Source\PSoC6\pdl\drivers/peripheral/scb/cy_scb_uart.h **** *   \ref Cy_SCB_UART_GetNumInTxFifo.
 171:Generated_Source\PSoC6\pdl\drivers/peripheral/scb/cy_scb_uart.h **** *
 172:Generated_Source\PSoC6\pdl\drivers/peripheral/scb/cy_scb_uart.h **** * \snippet SCB_CompDatasheet_sut_01_revA.cydsn\uart_snippets.c UART_TRANSMIT_DATA_LL
 173:Generated_Source\PSoC6\pdl\drivers/peripheral/scb/cy_scb_uart.h **** *
 174:Generated_Source\PSoC6\pdl\drivers/peripheral/scb/cy_scb_uart.h **** ********************************************************************************
 175:Generated_Source\PSoC6\pdl\drivers/peripheral/scb/cy_scb_uart.h **** * \subsection group_scb_uart_hl High-Level API
 176:Generated_Source\PSoC6\pdl\drivers/peripheral/scb/cy_scb_uart.h **** ********************************************************************************
 177:Generated_Source\PSoC6\pdl\drivers/peripheral/scb/cy_scb_uart.h **** * The \ref group_scb_uart_high_level_functions API use \ref Cy_SCB_UART_Interrupt
 178:Generated_Source\PSoC6\pdl\drivers/peripheral/scb/cy_scb_uart.h **** * to execute the transfer. Call \ref Cy_SCB_UART_Transmit to start transmission.
 179:Generated_Source\PSoC6\pdl\drivers/peripheral/scb/cy_scb_uart.h **** * Call \ref Cy_SCB_UART_Receive to start receive operation. After the
 180:Generated_Source\PSoC6\pdl\drivers/peripheral/scb/cy_scb_uart.h **** * operation is started the \ref Cy_SCB_UART_Interrupt handles the data
 181:Generated_Source\PSoC6\pdl\drivers/peripheral/scb/cy_scb_uart.h **** * transfer until its completion.
 182:Generated_Source\PSoC6\pdl\drivers/peripheral/scb/cy_scb_uart.h **** * Therefore \ref Cy_SCB_UART_Interrupt must be called inside the user 
 183:Generated_Source\PSoC6\pdl\drivers/peripheral/scb/cy_scb_uart.h **** * interrupt handler to make the High-Level API work. To monitor status
 184:Generated_Source\PSoC6\pdl\drivers/peripheral/scb/cy_scb_uart.h **** * of transmit operation, use \ref Cy_SCB_UART_GetTransmitStatus and
 185:Generated_Source\PSoC6\pdl\drivers/peripheral/scb/cy_scb_uart.h **** * \ref Cy_SCB_UART_GetReceiveStatus to monitor receive status appropriately.
 186:Generated_Source\PSoC6\pdl\drivers/peripheral/scb/cy_scb_uart.h **** * Alternatively use \ref Cy_SCB_UART_RegisterCallback to register callback
 187:Generated_Source\PSoC6\pdl\drivers/peripheral/scb/cy_scb_uart.h **** * function to be notified about \ref group_scb_uart_macros_callback_events.
 188:Generated_Source\PSoC6\pdl\drivers/peripheral/scb/cy_scb_uart.h **** *
 189:Generated_Source\PSoC6\pdl\drivers/peripheral/scb/cy_scb_uart.h **** * <b>Receive Operation</b>
 190:Generated_Source\PSoC6\pdl\drivers/peripheral/scb/cy_scb_uart.h **** * \snippet SCB_CompDatasheet_sut_01_revA.cydsn\uart_snippets.c UART_RECEIVE_DATA_HL
 191:Generated_Source\PSoC6\pdl\drivers/peripheral/scb/cy_scb_uart.h **** *
 192:Generated_Source\PSoC6\pdl\drivers/peripheral/scb/cy_scb_uart.h **** * <b>Transmit Operation</b>
 193:Generated_Source\PSoC6\pdl\drivers/peripheral/scb/cy_scb_uart.h **** * \snippet SCB_CompDatasheet_sut_01_revA.cydsn\uart_snippets.c UART_TRANSMIT_DATA_HL
 194:Generated_Source\PSoC6\pdl\drivers/peripheral/scb/cy_scb_uart.h **** *
 195:Generated_Source\PSoC6\pdl\drivers/peripheral/scb/cy_scb_uart.h **** * There is also capability to insert a receive ring buffer that operates between
 196:Generated_Source\PSoC6\pdl\drivers/peripheral/scb/cy_scb_uart.h **** * the RX FIFO and the user buffer. The received data is copied into the ring
 197:Generated_Source\PSoC6\pdl\drivers/peripheral/scb/cy_scb_uart.h **** * buffer from the RX FIFO. This process runs in the background after the ring
 198:Generated_Source\PSoC6\pdl\drivers/peripheral/scb/cy_scb_uart.h **** * buffer operation is started by \ref Cy_SCB_UART_StartRingBuffer.
 199:Generated_Source\PSoC6\pdl\drivers/peripheral/scb/cy_scb_uart.h **** * When \ref Cy_SCB_UART_Receive is called, it first reads data from the ring
 200:Generated_Source\PSoC6\pdl\drivers/peripheral/scb/cy_scb_uart.h **** * buffer and then sets up an interrupt to receive more data if the required
 201:Generated_Source\PSoC6\pdl\drivers/peripheral/scb/cy_scb_uart.h **** * amount has not yet been read.
 202:Generated_Source\PSoC6\pdl\drivers/peripheral/scb/cy_scb_uart.h **** *
 203:Generated_Source\PSoC6\pdl\drivers/peripheral/scb/cy_scb_uart.h **** ********************************************************************************
 204:Generated_Source\PSoC6\pdl\drivers/peripheral/scb/cy_scb_uart.h **** * \section group_scb_uart_dma_trig DMA Trigger
 205:Generated_Source\PSoC6\pdl\drivers/peripheral/scb/cy_scb_uart.h **** ********************************************************************************
 206:Generated_Source\PSoC6\pdl\drivers/peripheral/scb/cy_scb_uart.h **** * The SCB provides TX and RX output trigger signals that can be routed to the
 207:Generated_Source\PSoC6\pdl\drivers/peripheral/scb/cy_scb_uart.h **** * DMA controller inputs. These signals are assigned based on the data availability
 208:Generated_Source\PSoC6\pdl\drivers/peripheral/scb/cy_scb_uart.h **** * in the TX and RX FIFOs appropriately.
 209:Generated_Source\PSoC6\pdl\drivers/peripheral/scb/cy_scb_uart.h **** *
 210:Generated_Source\PSoC6\pdl\drivers/peripheral/scb/cy_scb_uart.h **** * * The RX trigger signal is active while the number of data
 211:Generated_Source\PSoC6\pdl\drivers/peripheral/scb/cy_scb_uart.h **** *   elements in the RX FIFO is greater than the value of RX FIFO level. Use
 212:Generated_Source\PSoC6\pdl\drivers/peripheral/scb/cy_scb_uart.h **** *   function \ref Cy_SCB_SetRxFifoLevel or set configuration structure
ARM GAS  C:\Users\user\AppData\Local\Temp\ccJR9XQi.s 			page 10


 213:Generated_Source\PSoC6\pdl\drivers/peripheral/scb/cy_scb_uart.h **** *   rxFifoTriggerLevel parameter to configure RX FIFO level value. \n
 214:Generated_Source\PSoC6\pdl\drivers/peripheral/scb/cy_scb_uart.h **** *   <em>For example, the RX FIFO has 8 data elements and the RX FIFO level is 0.
 215:Generated_Source\PSoC6\pdl\drivers/peripheral/scb/cy_scb_uart.h **** *   The RX trigger signal is active until DMA reads all data from
 216:Generated_Source\PSoC6\pdl\drivers/peripheral/scb/cy_scb_uart.h **** *   the RX FIFO.</em>
 217:Generated_Source\PSoC6\pdl\drivers/peripheral/scb/cy_scb_uart.h **** *
 218:Generated_Source\PSoC6\pdl\drivers/peripheral/scb/cy_scb_uart.h **** * * The TX trigger signal is active while the number of data elements
 219:Generated_Source\PSoC6\pdl\drivers/peripheral/scb/cy_scb_uart.h **** *   in the TX FIFO is less than the value of TX FIFO level. Use function
 220:Generated_Source\PSoC6\pdl\drivers/peripheral/scb/cy_scb_uart.h **** *   \ref Cy_SCB_SetTxFifoLevel or set configuration structure txFifoTriggerLevel
 221:Generated_Source\PSoC6\pdl\drivers/peripheral/scb/cy_scb_uart.h **** *   parameter to configure TX FIFO level value. \n
 222:Generated_Source\PSoC6\pdl\drivers/peripheral/scb/cy_scb_uart.h **** *   <em>For example, the TX FIFO has 0 data elements (empty) and the TX FIFO level
 223:Generated_Source\PSoC6\pdl\drivers/peripheral/scb/cy_scb_uart.h **** *   is 7. The TX trigger signal is active until DMA loads TX FIFO
 224:Generated_Source\PSoC6\pdl\drivers/peripheral/scb/cy_scb_uart.h **** *   with 8 data elements (note that after the first TX load operation, the data 
 225:Generated_Source\PSoC6\pdl\drivers/peripheral/scb/cy_scb_uart.h **** *   element goes to the shift register and TX FIFO is empty).</em>
 226:Generated_Source\PSoC6\pdl\drivers/peripheral/scb/cy_scb_uart.h **** *
 227:Generated_Source\PSoC6\pdl\drivers/peripheral/scb/cy_scb_uart.h **** * To route SCB TX or RX trigger signals to DMA controller use \ref group_trigmux
 228:Generated_Source\PSoC6\pdl\drivers/peripheral/scb/cy_scb_uart.h **** * driver API.
 229:Generated_Source\PSoC6\pdl\drivers/peripheral/scb/cy_scb_uart.h **** *
 230:Generated_Source\PSoC6\pdl\drivers/peripheral/scb/cy_scb_uart.h **** * \note
 231:Generated_Source\PSoC6\pdl\drivers/peripheral/scb/cy_scb_uart.h **** * To properly handle DMA level request signal activation and de-activation from the SCB
 232:Generated_Source\PSoC6\pdl\drivers/peripheral/scb/cy_scb_uart.h **** * peripheral block the DMA Descriptor typically must be configured to re-trigger
 233:Generated_Source\PSoC6\pdl\drivers/peripheral/scb/cy_scb_uart.h **** * after 16 Clk_Slow cycles.
 234:Generated_Source\PSoC6\pdl\drivers/peripheral/scb/cy_scb_uart.h **** *
 235:Generated_Source\PSoC6\pdl\drivers/peripheral/scb/cy_scb_uart.h **** ********************************************************************************
 236:Generated_Source\PSoC6\pdl\drivers/peripheral/scb/cy_scb_uart.h **** * \section group_scb_uart_lp Low Power Support
 237:Generated_Source\PSoC6\pdl\drivers/peripheral/scb/cy_scb_uart.h **** ********************************************************************************
 238:Generated_Source\PSoC6\pdl\drivers/peripheral/scb/cy_scb_uart.h **** * The UART driver provides callback functions to handle power mode
 239:Generated_Source\PSoC6\pdl\drivers/peripheral/scb/cy_scb_uart.h **** * transition. The callback \ref Cy_SCB_UART_DeepSleepCallback must be called
 240:Generated_Source\PSoC6\pdl\drivers/peripheral/scb/cy_scb_uart.h **** * during execution of \ref Cy_SysPm_CpuEnterDeepSleep \ref Cy_SCB_UART_HibernateCallback
 241:Generated_Source\PSoC6\pdl\drivers/peripheral/scb/cy_scb_uart.h **** * must be called during execution of \ref Cy_SysPm_SystemEnterHibernate. To trigger the
 242:Generated_Source\PSoC6\pdl\drivers/peripheral/scb/cy_scb_uart.h **** * callback execution, the callback must be registered before calling the
 243:Generated_Source\PSoC6\pdl\drivers/peripheral/scb/cy_scb_uart.h **** * power mode transition function. Refer to \ref group_syspm driver for more
 244:Generated_Source\PSoC6\pdl\drivers/peripheral/scb/cy_scb_uart.h **** * information about power mode transitions and callback registration.
 245:Generated_Source\PSoC6\pdl\drivers/peripheral/scb/cy_scb_uart.h **** *
 246:Generated_Source\PSoC6\pdl\drivers/peripheral/scb/cy_scb_uart.h **** * The UART is disabled during Deep Sleep and Hibernate and stops driving 
 247:Generated_Source\PSoC6\pdl\drivers/peripheral/scb/cy_scb_uart.h **** * the output pins. The state of the UART output pins TX and RTS is High-Z, 
 248:Generated_Source\PSoC6\pdl\drivers/peripheral/scb/cy_scb_uart.h **** * which can cause unexpected behavior of the UART receiver due to possible
 249:Generated_Source\PSoC6\pdl\drivers/peripheral/scb/cy_scb_uart.h **** * glitches on these lines. These pins must be set to the inactive state before 
 250:Generated_Source\PSoC6\pdl\drivers/peripheral/scb/cy_scb_uart.h **** * entering Deep Sleep or Hibernate mode.
 251:Generated_Source\PSoC6\pdl\drivers/peripheral/scb/cy_scb_uart.h **** * These pins must keep the inactive level (the same state 
 252:Generated_Source\PSoC6\pdl\drivers/peripheral/scb/cy_scb_uart.h **** * when UART TX is enabled and does not transfer data) before entering Deep 
 253:Generated_Source\PSoC6\pdl\drivers/peripheral/scb/cy_scb_uart.h **** * Sleep or Hibernate mode. To do that, write the GPIO data register of each pin 
 254:Generated_Source\PSoC6\pdl\drivers/peripheral/scb/cy_scb_uart.h **** * to the inactive level for each output pin. Then configure High-Speed Input 
 255:Generated_Source\PSoC6\pdl\drivers/peripheral/scb/cy_scb_uart.h **** * Output Multiplexer (HSIOM) of each pin to be controlled by the GPIO (use 
 256:Generated_Source\PSoC6\pdl\drivers/peripheral/scb/cy_scb_uart.h **** * \ref group_gpio driver API). After exiting Deep Sleep mode the UART 
 257:Generated_Source\PSoC6\pdl\drivers/peripheral/scb/cy_scb_uart.h **** * must be enabled and the pins configuration restored to return the 
 258:Generated_Source\PSoC6\pdl\drivers/peripheral/scb/cy_scb_uart.h **** * UART control of the pins (after exiting Hibernate mode, the 
 259:Generated_Source\PSoC6\pdl\drivers/peripheral/scb/cy_scb_uart.h **** * system initialization code does the same). Copy either or 
 260:Generated_Source\PSoC6\pdl\drivers/peripheral/scb/cy_scb_uart.h **** * both \ref Cy_SCB_UART_DeepSleepCallback and \ref Cy_SCB_UART_HibernateCallback 
 261:Generated_Source\PSoC6\pdl\drivers/peripheral/scb/cy_scb_uart.h **** * as appropriate, and make the changes described above inside the function.
 262:Generated_Source\PSoC6\pdl\drivers/peripheral/scb/cy_scb_uart.h **** * Alternately, external pull-up or pull-down resistors can be connected 
 263:Generated_Source\PSoC6\pdl\drivers/peripheral/scb/cy_scb_uart.h **** * to the appropriate UART lines to keep them inactive during Deep-Sleep or 
 264:Generated_Source\PSoC6\pdl\drivers/peripheral/scb/cy_scb_uart.h **** * Hibernate.
 265:Generated_Source\PSoC6\pdl\drivers/peripheral/scb/cy_scb_uart.h **** *
 266:Generated_Source\PSoC6\pdl\drivers/peripheral/scb/cy_scb_uart.h **** ********************************************************************************
 267:Generated_Source\PSoC6\pdl\drivers/peripheral/scb/cy_scb_uart.h **** * \section group_scb_uart_more_information More Information
 268:Generated_Source\PSoC6\pdl\drivers/peripheral/scb/cy_scb_uart.h **** ********************************************************************************
 269:Generated_Source\PSoC6\pdl\drivers/peripheral/scb/cy_scb_uart.h **** * For more information on the SCB peripheral, refer to the technical reference
ARM GAS  C:\Users\user\AppData\Local\Temp\ccJR9XQi.s 			page 11


 270:Generated_Source\PSoC6\pdl\drivers/peripheral/scb/cy_scb_uart.h **** * manual (TRM).
 271:Generated_Source\PSoC6\pdl\drivers/peripheral/scb/cy_scb_uart.h **** *
 272:Generated_Source\PSoC6\pdl\drivers/peripheral/scb/cy_scb_uart.h **** ********************************************************************************
 273:Generated_Source\PSoC6\pdl\drivers/peripheral/scb/cy_scb_uart.h **** * \section group_scb_uart_MISRA MISRA-C Compliance
 274:Generated_Source\PSoC6\pdl\drivers/peripheral/scb/cy_scb_uart.h **** ********************************************************************************
 275:Generated_Source\PSoC6\pdl\drivers/peripheral/scb/cy_scb_uart.h **** * <table class="doxtable">
 276:Generated_Source\PSoC6\pdl\drivers/peripheral/scb/cy_scb_uart.h **** *   <tr>
 277:Generated_Source\PSoC6\pdl\drivers/peripheral/scb/cy_scb_uart.h **** *     <th>MISRA Rule</th>
 278:Generated_Source\PSoC6\pdl\drivers/peripheral/scb/cy_scb_uart.h **** *     <th>Rule Class (Required/Advisory)</th>
 279:Generated_Source\PSoC6\pdl\drivers/peripheral/scb/cy_scb_uart.h **** *     <th>Rule Description</th>
 280:Generated_Source\PSoC6\pdl\drivers/peripheral/scb/cy_scb_uart.h **** *     <th>Description of Deviation(s)</th>
 281:Generated_Source\PSoC6\pdl\drivers/peripheral/scb/cy_scb_uart.h **** *   </tr>
 282:Generated_Source\PSoC6\pdl\drivers/peripheral/scb/cy_scb_uart.h **** *   <tr>
 283:Generated_Source\PSoC6\pdl\drivers/peripheral/scb/cy_scb_uart.h **** *     <td>11.4</td>
 284:Generated_Source\PSoC6\pdl\drivers/peripheral/scb/cy_scb_uart.h **** *     <td>A</td>
 285:Generated_Source\PSoC6\pdl\drivers/peripheral/scb/cy_scb_uart.h **** *     <td>A cast should not be performed between a pointer to object type and
 286:Generated_Source\PSoC6\pdl\drivers/peripheral/scb/cy_scb_uart.h **** *         a different pointer to object type.</td>
 287:Generated_Source\PSoC6\pdl\drivers/peripheral/scb/cy_scb_uart.h **** *     <td>
 288:Generated_Source\PSoC6\pdl\drivers/peripheral/scb/cy_scb_uart.h **** *         * The pointer to the buffer memory is void to allow handling different
 289:Generated_Source\PSoC6\pdl\drivers/peripheral/scb/cy_scb_uart.h **** *         different data types: uint8_t (4-8 bits) or uint16_t (9-16 bits).
 290:Generated_Source\PSoC6\pdl\drivers/peripheral/scb/cy_scb_uart.h **** *         The cast operation is safe because the configuration is verified
 291:Generated_Source\PSoC6\pdl\drivers/peripheral/scb/cy_scb_uart.h **** *         before operation is performed.
 292:Generated_Source\PSoC6\pdl\drivers/peripheral/scb/cy_scb_uart.h **** *         * The functions \ref Cy_SCB_UART_DeepSleepCallback and
 293:Generated_Source\PSoC6\pdl\drivers/peripheral/scb/cy_scb_uart.h **** *         \ref Cy_SCB_UART_HibernateCallback are callback of
 294:Generated_Source\PSoC6\pdl\drivers/peripheral/scb/cy_scb_uart.h **** *         \ref cy_en_syspm_status_t type. The cast operation safety in these
 295:Generated_Source\PSoC6\pdl\drivers/peripheral/scb/cy_scb_uart.h **** *         functions becomes the user's responsibility because pointers are
 296:Generated_Source\PSoC6\pdl\drivers/peripheral/scb/cy_scb_uart.h **** *         initialized when callback is registered in SysPm driver.</td>
 297:Generated_Source\PSoC6\pdl\drivers/peripheral/scb/cy_scb_uart.h **** *   </tr>
 298:Generated_Source\PSoC6\pdl\drivers/peripheral/scb/cy_scb_uart.h **** *   <tr>
 299:Generated_Source\PSoC6\pdl\drivers/peripheral/scb/cy_scb_uart.h **** *     <td>14.2</td>
 300:Generated_Source\PSoC6\pdl\drivers/peripheral/scb/cy_scb_uart.h **** *     <td>R</td>
 301:Generated_Source\PSoC6\pdl\drivers/peripheral/scb/cy_scb_uart.h **** *     <td>All non-null statements shall either: a) have at least one side-effect
 302:Generated_Source\PSoC6\pdl\drivers/peripheral/scb/cy_scb_uart.h **** *         however executed, or b) cause control flow to change.</td>
 303:Generated_Source\PSoC6\pdl\drivers/peripheral/scb/cy_scb_uart.h **** *     <td>The unused function parameters are cast to void. This statement
 304:Generated_Source\PSoC6\pdl\drivers/peripheral/scb/cy_scb_uart.h **** *         has no side-effect and is used to suppress a compiler warning.</td>
 305:Generated_Source\PSoC6\pdl\drivers/peripheral/scb/cy_scb_uart.h **** *   </tr>
 306:Generated_Source\PSoC6\pdl\drivers/peripheral/scb/cy_scb_uart.h **** *   <tr>
 307:Generated_Source\PSoC6\pdl\drivers/peripheral/scb/cy_scb_uart.h **** *     <td>14.7</td>
 308:Generated_Source\PSoC6\pdl\drivers/peripheral/scb/cy_scb_uart.h **** *     <td>R</td>
 309:Generated_Source\PSoC6\pdl\drivers/peripheral/scb/cy_scb_uart.h **** *     <td>A function shall have a single point of exit at the end of the
 310:Generated_Source\PSoC6\pdl\drivers/peripheral/scb/cy_scb_uart.h **** *         function.</td>
 311:Generated_Source\PSoC6\pdl\drivers/peripheral/scb/cy_scb_uart.h **** *     <td>The functions can return from several points. This is done to improve
 312:Generated_Source\PSoC6\pdl\drivers/peripheral/scb/cy_scb_uart.h **** *         code clarity when returning error status code if input parameters
 313:Generated_Source\PSoC6\pdl\drivers/peripheral/scb/cy_scb_uart.h **** *         validation fails.</td>
 314:Generated_Source\PSoC6\pdl\drivers/peripheral/scb/cy_scb_uart.h **** *   </tr>
 315:Generated_Source\PSoC6\pdl\drivers/peripheral/scb/cy_scb_uart.h **** * </table>
 316:Generated_Source\PSoC6\pdl\drivers/peripheral/scb/cy_scb_uart.h **** *
 317:Generated_Source\PSoC6\pdl\drivers/peripheral/scb/cy_scb_uart.h **** * \section group_scb_uart_changelog Changelog
 318:Generated_Source\PSoC6\pdl\drivers/peripheral/scb/cy_scb_uart.h **** * <table class="doxtable">
 319:Generated_Source\PSoC6\pdl\drivers/peripheral/scb/cy_scb_uart.h **** *   <tr><th>Version</th><th>Changes</th><th>Reason for Change</th></tr>
 320:Generated_Source\PSoC6\pdl\drivers/peripheral/scb/cy_scb_uart.h **** *   <tr>
 321:Generated_Source\PSoC6\pdl\drivers/peripheral/scb/cy_scb_uart.h **** *     <td rowspan="2">2.20</td>
 322:Generated_Source\PSoC6\pdl\drivers/peripheral/scb/cy_scb_uart.h **** *     <td>Flattened the organization of the driver source code into the single 
 323:Generated_Source\PSoC6\pdl\drivers/peripheral/scb/cy_scb_uart.h **** *         source directory and the single include directory.
 324:Generated_Source\PSoC6\pdl\drivers/peripheral/scb/cy_scb_uart.h **** *     </td>
 325:Generated_Source\PSoC6\pdl\drivers/peripheral/scb/cy_scb_uart.h **** *     <td>Driver library directory-structure simplification.</td>
 326:Generated_Source\PSoC6\pdl\drivers/peripheral/scb/cy_scb_uart.h **** *   </tr>
ARM GAS  C:\Users\user\AppData\Local\Temp\ccJR9XQi.s 			page 12


 327:Generated_Source\PSoC6\pdl\drivers/peripheral/scb/cy_scb_uart.h **** *   <tr>
 328:Generated_Source\PSoC6\pdl\drivers/peripheral/scb/cy_scb_uart.h **** *     <td>Added register access layer. Use register access macros instead
 329:Generated_Source\PSoC6\pdl\drivers/peripheral/scb/cy_scb_uart.h **** *         of direct register access using dereferenced pointers.</td>
 330:Generated_Source\PSoC6\pdl\drivers/peripheral/scb/cy_scb_uart.h **** *     <td>Makes register access device-independent, so that the PDL does 
 331:Generated_Source\PSoC6\pdl\drivers/peripheral/scb/cy_scb_uart.h **** *         not need to be recompiled for each supported part number.</td>
 332:Generated_Source\PSoC6\pdl\drivers/peripheral/scb/cy_scb_uart.h **** *   </tr>
 333:Generated_Source\PSoC6\pdl\drivers/peripheral/scb/cy_scb_uart.h **** *   <tr>
 334:Generated_Source\PSoC6\pdl\drivers/peripheral/scb/cy_scb_uart.h **** *     <td>2.10</td>
 335:Generated_Source\PSoC6\pdl\drivers/peripheral/scb/cy_scb_uart.h **** *     <td>None.</td>
 336:Generated_Source\PSoC6\pdl\drivers/peripheral/scb/cy_scb_uart.h **** *     <td>SCB I2C driver updated.</td>
 337:Generated_Source\PSoC6\pdl\drivers/peripheral/scb/cy_scb_uart.h **** *   </tr>
 338:Generated_Source\PSoC6\pdl\drivers/peripheral/scb/cy_scb_uart.h **** *   <tr>
 339:Generated_Source\PSoC6\pdl\drivers/peripheral/scb/cy_scb_uart.h **** *     <td rowspan="5">2.0</td>
 340:Generated_Source\PSoC6\pdl\drivers/peripheral/scb/cy_scb_uart.h **** *     <td>Added parameters validation for public API.</td>
 341:Generated_Source\PSoC6\pdl\drivers/peripheral/scb/cy_scb_uart.h **** *     <td></td>
 342:Generated_Source\PSoC6\pdl\drivers/peripheral/scb/cy_scb_uart.h **** *   </tr>
 343:Generated_Source\PSoC6\pdl\drivers/peripheral/scb/cy_scb_uart.h **** *   <tr>
 344:Generated_Source\PSoC6\pdl\drivers/peripheral/scb/cy_scb_uart.h **** *     <td>Replaced variables that have limited range of values with enumerated
 345:Generated_Source\PSoC6\pdl\drivers/peripheral/scb/cy_scb_uart.h **** *         types.</td>
 346:Generated_Source\PSoC6\pdl\drivers/peripheral/scb/cy_scb_uart.h **** *     <td></td>
 347:Generated_Source\PSoC6\pdl\drivers/peripheral/scb/cy_scb_uart.h **** *   </tr>
 348:Generated_Source\PSoC6\pdl\drivers/peripheral/scb/cy_scb_uart.h **** *   <tr>
 349:Generated_Source\PSoC6\pdl\drivers/peripheral/scb/cy_scb_uart.h **** *     <td>Added missing "cy_cb_" to the callback function type names.</td>
 350:Generated_Source\PSoC6\pdl\drivers/peripheral/scb/cy_scb_uart.h **** *     <td></td>
 351:Generated_Source\PSoC6\pdl\drivers/peripheral/scb/cy_scb_uart.h **** *   </tr>
 352:Generated_Source\PSoC6\pdl\drivers/peripheral/scb/cy_scb_uart.h **** *   <tr>
 353:Generated_Source\PSoC6\pdl\drivers/peripheral/scb/cy_scb_uart.h **** *     <td>Added function \ref Cy_SCB_UART_SendBreakBlocking for break condition
 354:Generated_Source\PSoC6\pdl\drivers/peripheral/scb/cy_scb_uart.h **** *         generation.</td>
 355:Generated_Source\PSoC6\pdl\drivers/peripheral/scb/cy_scb_uart.h **** *     <td></td>
 356:Generated_Source\PSoC6\pdl\drivers/peripheral/scb/cy_scb_uart.h **** *   </tr>
 357:Generated_Source\PSoC6\pdl\drivers/peripheral/scb/cy_scb_uart.h **** *   <tr>
 358:Generated_Source\PSoC6\pdl\drivers/peripheral/scb/cy_scb_uart.h **** *     <td>Fixed low power callbacks \ref Cy_SCB_UART_DeepSleepCallback and
 359:Generated_Source\PSoC6\pdl\drivers/peripheral/scb/cy_scb_uart.h **** *         \ref Cy_SCB_UART_HibernateCallback to prevent the device from entering
 360:Generated_Source\PSoC6\pdl\drivers/peripheral/scb/cy_scb_uart.h **** *         low power mode when RX FIFO is not empty.</td>
 361:Generated_Source\PSoC6\pdl\drivers/peripheral/scb/cy_scb_uart.h **** *     <td>The callbacks allowed entering device into low power mode when RX FIFO
 362:Generated_Source\PSoC6\pdl\drivers/peripheral/scb/cy_scb_uart.h **** *         had data.</td>
 363:Generated_Source\PSoC6\pdl\drivers/peripheral/scb/cy_scb_uart.h **** *   </tr>
 364:Generated_Source\PSoC6\pdl\drivers/peripheral/scb/cy_scb_uart.h **** *   <tr>
 365:Generated_Source\PSoC6\pdl\drivers/peripheral/scb/cy_scb_uart.h **** *     <td>1.0</td>
 366:Generated_Source\PSoC6\pdl\drivers/peripheral/scb/cy_scb_uart.h **** *     <td>Initial version.</td>
 367:Generated_Source\PSoC6\pdl\drivers/peripheral/scb/cy_scb_uart.h **** *     <td></td>
 368:Generated_Source\PSoC6\pdl\drivers/peripheral/scb/cy_scb_uart.h **** *   </tr>
 369:Generated_Source\PSoC6\pdl\drivers/peripheral/scb/cy_scb_uart.h **** * </table>
 370:Generated_Source\PSoC6\pdl\drivers/peripheral/scb/cy_scb_uart.h **** *
 371:Generated_Source\PSoC6\pdl\drivers/peripheral/scb/cy_scb_uart.h **** * \defgroup group_scb_uart_macros Macros
 372:Generated_Source\PSoC6\pdl\drivers/peripheral/scb/cy_scb_uart.h **** * \defgroup group_scb_uart_functions Functions
 373:Generated_Source\PSoC6\pdl\drivers/peripheral/scb/cy_scb_uart.h **** * \{
 374:Generated_Source\PSoC6\pdl\drivers/peripheral/scb/cy_scb_uart.h **** * \defgroup group_scb_uart_general_functions General
 375:Generated_Source\PSoC6\pdl\drivers/peripheral/scb/cy_scb_uart.h **** * \defgroup group_scb_uart_high_level_functions High-Level
 376:Generated_Source\PSoC6\pdl\drivers/peripheral/scb/cy_scb_uart.h **** * \defgroup group_scb_uart_low_level_functions Low-Level
 377:Generated_Source\PSoC6\pdl\drivers/peripheral/scb/cy_scb_uart.h **** * \defgroup group_scb_uart_interrupt_functions Interrupt
 378:Generated_Source\PSoC6\pdl\drivers/peripheral/scb/cy_scb_uart.h **** * \defgroup group_scb_uart_low_power_functions Low Power Callbacks
 379:Generated_Source\PSoC6\pdl\drivers/peripheral/scb/cy_scb_uart.h **** * \}
 380:Generated_Source\PSoC6\pdl\drivers/peripheral/scb/cy_scb_uart.h **** * \defgroup group_scb_uart_data_structures Data Structures
 381:Generated_Source\PSoC6\pdl\drivers/peripheral/scb/cy_scb_uart.h **** * \defgroup group_scb_uart_enums Enumerated Types
 382:Generated_Source\PSoC6\pdl\drivers/peripheral/scb/cy_scb_uart.h **** */
 383:Generated_Source\PSoC6\pdl\drivers/peripheral/scb/cy_scb_uart.h **** 
ARM GAS  C:\Users\user\AppData\Local\Temp\ccJR9XQi.s 			page 13


 384:Generated_Source\PSoC6\pdl\drivers/peripheral/scb/cy_scb_uart.h **** #if !defined(CY_SCB_UART_H)
 385:Generated_Source\PSoC6\pdl\drivers/peripheral/scb/cy_scb_uart.h **** #define CY_SCB_UART_H
 386:Generated_Source\PSoC6\pdl\drivers/peripheral/scb/cy_scb_uart.h **** 
 387:Generated_Source\PSoC6\pdl\drivers/peripheral/scb/cy_scb_uart.h **** #include "cy_scb_common.h"
 388:Generated_Source\PSoC6\pdl\drivers/peripheral/scb/cy_scb_uart.h **** 
 389:Generated_Source\PSoC6\pdl\drivers/peripheral/scb/cy_scb_uart.h **** #if defined(__cplusplus)
 390:Generated_Source\PSoC6\pdl\drivers/peripheral/scb/cy_scb_uart.h **** extern "C" {
 391:Generated_Source\PSoC6\pdl\drivers/peripheral/scb/cy_scb_uart.h **** #endif
 392:Generated_Source\PSoC6\pdl\drivers/peripheral/scb/cy_scb_uart.h **** 
 393:Generated_Source\PSoC6\pdl\drivers/peripheral/scb/cy_scb_uart.h **** /***************************************
 394:Generated_Source\PSoC6\pdl\drivers/peripheral/scb/cy_scb_uart.h **** *          Enumerated Types
 395:Generated_Source\PSoC6\pdl\drivers/peripheral/scb/cy_scb_uart.h **** ***************************************/
 396:Generated_Source\PSoC6\pdl\drivers/peripheral/scb/cy_scb_uart.h **** 
 397:Generated_Source\PSoC6\pdl\drivers/peripheral/scb/cy_scb_uart.h **** /**
 398:Generated_Source\PSoC6\pdl\drivers/peripheral/scb/cy_scb_uart.h **** * \addtogroup group_scb_uart_enums
 399:Generated_Source\PSoC6\pdl\drivers/peripheral/scb/cy_scb_uart.h **** * \{
 400:Generated_Source\PSoC6\pdl\drivers/peripheral/scb/cy_scb_uart.h **** */
 401:Generated_Source\PSoC6\pdl\drivers/peripheral/scb/cy_scb_uart.h **** 
 402:Generated_Source\PSoC6\pdl\drivers/peripheral/scb/cy_scb_uart.h **** /** UART status codes */
 403:Generated_Source\PSoC6\pdl\drivers/peripheral/scb/cy_scb_uart.h **** typedef enum
 404:Generated_Source\PSoC6\pdl\drivers/peripheral/scb/cy_scb_uart.h **** {
 405:Generated_Source\PSoC6\pdl\drivers/peripheral/scb/cy_scb_uart.h ****     /** Operation completed successfully */
 406:Generated_Source\PSoC6\pdl\drivers/peripheral/scb/cy_scb_uart.h ****     CY_SCB_UART_SUCCESS = 0U,
 407:Generated_Source\PSoC6\pdl\drivers/peripheral/scb/cy_scb_uart.h **** 
 408:Generated_Source\PSoC6\pdl\drivers/peripheral/scb/cy_scb_uart.h ****     /** One or more of input parameters are invalid */
 409:Generated_Source\PSoC6\pdl\drivers/peripheral/scb/cy_scb_uart.h ****     CY_SCB_UART_BAD_PARAM = (CY_SCB_ID | CY_PDL_STATUS_ERROR | CY_SCB_UART_ID | 1U),
 410:Generated_Source\PSoC6\pdl\drivers/peripheral/scb/cy_scb_uart.h **** 
 411:Generated_Source\PSoC6\pdl\drivers/peripheral/scb/cy_scb_uart.h ****     /**
 412:Generated_Source\PSoC6\pdl\drivers/peripheral/scb/cy_scb_uart.h ****     * The UART is busy processing a receive operation.
 413:Generated_Source\PSoC6\pdl\drivers/peripheral/scb/cy_scb_uart.h ****     */
 414:Generated_Source\PSoC6\pdl\drivers/peripheral/scb/cy_scb_uart.h ****     CY_SCB_UART_RECEIVE_BUSY = (CY_SCB_ID | CY_PDL_STATUS_ERROR | CY_SCB_UART_ID | 2U),
 415:Generated_Source\PSoC6\pdl\drivers/peripheral/scb/cy_scb_uart.h **** 
 416:Generated_Source\PSoC6\pdl\drivers/peripheral/scb/cy_scb_uart.h ****     /**
 417:Generated_Source\PSoC6\pdl\drivers/peripheral/scb/cy_scb_uart.h ****     * The UART is busy processing a transmit operation.
 418:Generated_Source\PSoC6\pdl\drivers/peripheral/scb/cy_scb_uart.h ****     */
 419:Generated_Source\PSoC6\pdl\drivers/peripheral/scb/cy_scb_uart.h ****     CY_SCB_UART_TRANSMIT_BUSY = (CY_SCB_ID | CY_PDL_STATUS_ERROR | CY_SCB_UART_ID | 3U)
 420:Generated_Source\PSoC6\pdl\drivers/peripheral/scb/cy_scb_uart.h **** } cy_en_scb_uart_status_t;
 421:Generated_Source\PSoC6\pdl\drivers/peripheral/scb/cy_scb_uart.h **** 
 422:Generated_Source\PSoC6\pdl\drivers/peripheral/scb/cy_scb_uart.h **** /** UART Mode */
 423:Generated_Source\PSoC6\pdl\drivers/peripheral/scb/cy_scb_uart.h **** typedef enum
 424:Generated_Source\PSoC6\pdl\drivers/peripheral/scb/cy_scb_uart.h **** {
 425:Generated_Source\PSoC6\pdl\drivers/peripheral/scb/cy_scb_uart.h ****     CY_SCB_UART_STANDARD  = 0U, /**< Configures the SCB for Standard UART operation */
 426:Generated_Source\PSoC6\pdl\drivers/peripheral/scb/cy_scb_uart.h ****     CY_SCB_UART_SMARTCARD = 1U, /**< Configures the SCB for SmartCard operation */
 427:Generated_Source\PSoC6\pdl\drivers/peripheral/scb/cy_scb_uart.h ****     CY_SCB_UART_IRDA      = 2U, /**< Configures the SCB for IrDA operation */
 428:Generated_Source\PSoC6\pdl\drivers/peripheral/scb/cy_scb_uart.h **** } cy_en_scb_uart_mode_t;
 429:Generated_Source\PSoC6\pdl\drivers/peripheral/scb/cy_scb_uart.h **** 
 430:Generated_Source\PSoC6\pdl\drivers/peripheral/scb/cy_scb_uart.h **** /** UART Stop Bits */
 431:Generated_Source\PSoC6\pdl\drivers/peripheral/scb/cy_scb_uart.h **** typedef enum
 432:Generated_Source\PSoC6\pdl\drivers/peripheral/scb/cy_scb_uart.h **** {
 433:Generated_Source\PSoC6\pdl\drivers/peripheral/scb/cy_scb_uart.h ****     CY_SCB_UART_STOP_BITS_1   = 2U,  /**< UART looks for 1 Stop Bit    */
 434:Generated_Source\PSoC6\pdl\drivers/peripheral/scb/cy_scb_uart.h ****     CY_SCB_UART_STOP_BITS_1_5 = 3U,  /**< UART looks for 1.5 Stop Bits */
 435:Generated_Source\PSoC6\pdl\drivers/peripheral/scb/cy_scb_uart.h ****     CY_SCB_UART_STOP_BITS_2   = 4U,  /**< UART looks for 2 Stop Bits   */
 436:Generated_Source\PSoC6\pdl\drivers/peripheral/scb/cy_scb_uart.h ****     CY_SCB_UART_STOP_BITS_2_5 = 5U,  /**< UART looks for 2.5 Stop Bits */
 437:Generated_Source\PSoC6\pdl\drivers/peripheral/scb/cy_scb_uart.h ****     CY_SCB_UART_STOP_BITS_3   = 6U,  /**< UART looks for 3 Stop Bits   */
 438:Generated_Source\PSoC6\pdl\drivers/peripheral/scb/cy_scb_uart.h ****     CY_SCB_UART_STOP_BITS_3_5 = 7U,  /**< UART looks for 3.5 Stop Bits */
 439:Generated_Source\PSoC6\pdl\drivers/peripheral/scb/cy_scb_uart.h ****     CY_SCB_UART_STOP_BITS_4   = 8U,  /**< UART looks for 4 Stop Bits   */
 440:Generated_Source\PSoC6\pdl\drivers/peripheral/scb/cy_scb_uart.h **** } cy_en_scb_uart_stop_bits_t;
ARM GAS  C:\Users\user\AppData\Local\Temp\ccJR9XQi.s 			page 14


 441:Generated_Source\PSoC6\pdl\drivers/peripheral/scb/cy_scb_uart.h **** 
 442:Generated_Source\PSoC6\pdl\drivers/peripheral/scb/cy_scb_uart.h **** /** UART Parity */
 443:Generated_Source\PSoC6\pdl\drivers/peripheral/scb/cy_scb_uart.h **** typedef enum
 444:Generated_Source\PSoC6\pdl\drivers/peripheral/scb/cy_scb_uart.h **** {
 445:Generated_Source\PSoC6\pdl\drivers/peripheral/scb/cy_scb_uart.h ****     CY_SCB_UART_PARITY_NONE = 0U,    /**< UART has no parity check   */
 446:Generated_Source\PSoC6\pdl\drivers/peripheral/scb/cy_scb_uart.h ****     CY_SCB_UART_PARITY_EVEN = 2U,    /**< UART has even parity check */
 447:Generated_Source\PSoC6\pdl\drivers/peripheral/scb/cy_scb_uart.h ****     CY_SCB_UART_PARITY_ODD  = 3U,    /**< UART has odd parity check  */
 448:Generated_Source\PSoC6\pdl\drivers/peripheral/scb/cy_scb_uart.h **** } cy_en_scb_uart_parity_t;
 449:Generated_Source\PSoC6\pdl\drivers/peripheral/scb/cy_scb_uart.h **** 
 450:Generated_Source\PSoC6\pdl\drivers/peripheral/scb/cy_scb_uart.h **** /** UART Polarity */
 451:Generated_Source\PSoC6\pdl\drivers/peripheral/scb/cy_scb_uart.h **** typedef enum
 452:Generated_Source\PSoC6\pdl\drivers/peripheral/scb/cy_scb_uart.h **** {
 453:Generated_Source\PSoC6\pdl\drivers/peripheral/scb/cy_scb_uart.h ****     CY_SCB_UART_ACTIVE_LOW  = 0U,   /**< Signal is active low */
 454:Generated_Source\PSoC6\pdl\drivers/peripheral/scb/cy_scb_uart.h ****     CY_SCB_UART_ACTIVE_HIGH = 1U,   /**< Signal is active high */
 455:Generated_Source\PSoC6\pdl\drivers/peripheral/scb/cy_scb_uart.h **** } cy_en_scb_uart_polarity_t;
 456:Generated_Source\PSoC6\pdl\drivers/peripheral/scb/cy_scb_uart.h **** /** \} group_scb_uart_enums */
 457:Generated_Source\PSoC6\pdl\drivers/peripheral/scb/cy_scb_uart.h **** 
 458:Generated_Source\PSoC6\pdl\drivers/peripheral/scb/cy_scb_uart.h **** 
 459:Generated_Source\PSoC6\pdl\drivers/peripheral/scb/cy_scb_uart.h **** /*******************************************************************************
 460:Generated_Source\PSoC6\pdl\drivers/peripheral/scb/cy_scb_uart.h **** *                           Type Definitions
 461:Generated_Source\PSoC6\pdl\drivers/peripheral/scb/cy_scb_uart.h **** *******************************************************************************/
 462:Generated_Source\PSoC6\pdl\drivers/peripheral/scb/cy_scb_uart.h **** 
 463:Generated_Source\PSoC6\pdl\drivers/peripheral/scb/cy_scb_uart.h **** /**
 464:Generated_Source\PSoC6\pdl\drivers/peripheral/scb/cy_scb_uart.h **** * \addtogroup group_scb_uart_data_structures
 465:Generated_Source\PSoC6\pdl\drivers/peripheral/scb/cy_scb_uart.h **** * \{
 466:Generated_Source\PSoC6\pdl\drivers/peripheral/scb/cy_scb_uart.h **** */
 467:Generated_Source\PSoC6\pdl\drivers/peripheral/scb/cy_scb_uart.h **** 
 468:Generated_Source\PSoC6\pdl\drivers/peripheral/scb/cy_scb_uart.h **** /**
 469:Generated_Source\PSoC6\pdl\drivers/peripheral/scb/cy_scb_uart.h **** * Provides the typedef for the callback function called in the
 470:Generated_Source\PSoC6\pdl\drivers/peripheral/scb/cy_scb_uart.h **** * \ref Cy_SCB_UART_Interrupt to notify the user about occurrences of
 471:Generated_Source\PSoC6\pdl\drivers/peripheral/scb/cy_scb_uart.h **** * \ref group_scb_uart_macros_callback_events.
 472:Generated_Source\PSoC6\pdl\drivers/peripheral/scb/cy_scb_uart.h **** */
 473:Generated_Source\PSoC6\pdl\drivers/peripheral/scb/cy_scb_uart.h **** typedef void (* cy_cb_scb_uart_handle_events_t)(uint32_t event);
 474:Generated_Source\PSoC6\pdl\drivers/peripheral/scb/cy_scb_uart.h **** 
 475:Generated_Source\PSoC6\pdl\drivers/peripheral/scb/cy_scb_uart.h **** /** UART configuration structure */
 476:Generated_Source\PSoC6\pdl\drivers/peripheral/scb/cy_scb_uart.h **** typedef struct stc_scb_uart_config
 477:Generated_Source\PSoC6\pdl\drivers/peripheral/scb/cy_scb_uart.h **** {
 478:Generated_Source\PSoC6\pdl\drivers/peripheral/scb/cy_scb_uart.h ****     /** Specifies the UART's mode of operation */
 479:Generated_Source\PSoC6\pdl\drivers/peripheral/scb/cy_scb_uart.h ****     cy_en_scb_uart_mode_t    uartMode;
 480:Generated_Source\PSoC6\pdl\drivers/peripheral/scb/cy_scb_uart.h **** 
 481:Generated_Source\PSoC6\pdl\drivers/peripheral/scb/cy_scb_uart.h ****     /**
 482:Generated_Source\PSoC6\pdl\drivers/peripheral/scb/cy_scb_uart.h ****     * Oversample factor for UART.
 483:Generated_Source\PSoC6\pdl\drivers/peripheral/scb/cy_scb_uart.h ****     * * The UART baud rate is the SCB Clock frequency / oversample
 484:Generated_Source\PSoC6\pdl\drivers/peripheral/scb/cy_scb_uart.h ****     *  (valid range is 8-16).
 485:Generated_Source\PSoC6\pdl\drivers/peripheral/scb/cy_scb_uart.h ****     * * For IrDA, the oversample is always 16, unless
 486:Generated_Source\PSoC6\pdl\drivers/peripheral/scb/cy_scb_uart.h ****     * \ref irdaEnableLowPowerReceiver is enabled. Then the oversample is
 487:Generated_Source\PSoC6\pdl\drivers/peripheral/scb/cy_scb_uart.h ****     * reduced to the \ref group_scb_uart_macros_irda_lp_ovs set.
 488:Generated_Source\PSoC6\pdl\drivers/peripheral/scb/cy_scb_uart.h ****     */
 489:Generated_Source\PSoC6\pdl\drivers/peripheral/scb/cy_scb_uart.h ****     uint32_t    oversample;
 490:Generated_Source\PSoC6\pdl\drivers/peripheral/scb/cy_scb_uart.h **** 
 491:Generated_Source\PSoC6\pdl\drivers/peripheral/scb/cy_scb_uart.h ****     /** The width of UART data (valid range is 5 to 9) */
 492:Generated_Source\PSoC6\pdl\drivers/peripheral/scb/cy_scb_uart.h ****     uint32_t    dataWidth;
 493:Generated_Source\PSoC6\pdl\drivers/peripheral/scb/cy_scb_uart.h **** 
 494:Generated_Source\PSoC6\pdl\drivers/peripheral/scb/cy_scb_uart.h ****     /**
 495:Generated_Source\PSoC6\pdl\drivers/peripheral/scb/cy_scb_uart.h ****     * Enables the hardware to shift out data element MSB first; otherwise,
 496:Generated_Source\PSoC6\pdl\drivers/peripheral/scb/cy_scb_uart.h ****     * LSB first
 497:Generated_Source\PSoC6\pdl\drivers/peripheral/scb/cy_scb_uart.h ****     */
ARM GAS  C:\Users\user\AppData\Local\Temp\ccJR9XQi.s 			page 15


 498:Generated_Source\PSoC6\pdl\drivers/peripheral/scb/cy_scb_uart.h ****     bool        enableMsbFirst;
 499:Generated_Source\PSoC6\pdl\drivers/peripheral/scb/cy_scb_uart.h **** 
 500:Generated_Source\PSoC6\pdl\drivers/peripheral/scb/cy_scb_uart.h ****     /**
 501:Generated_Source\PSoC6\pdl\drivers/peripheral/scb/cy_scb_uart.h ****     * Specifies the number of stop bits in the UART transaction, in half-bit
 502:Generated_Source\PSoC6\pdl\drivers/peripheral/scb/cy_scb_uart.h ****     * increments
 503:Generated_Source\PSoC6\pdl\drivers/peripheral/scb/cy_scb_uart.h ****     */
 504:Generated_Source\PSoC6\pdl\drivers/peripheral/scb/cy_scb_uart.h ****     cy_en_scb_uart_stop_bits_t    stopBits;
 505:Generated_Source\PSoC6\pdl\drivers/peripheral/scb/cy_scb_uart.h **** 
 506:Generated_Source\PSoC6\pdl\drivers/peripheral/scb/cy_scb_uart.h ****     /** Configures the UART parity */
 507:Generated_Source\PSoC6\pdl\drivers/peripheral/scb/cy_scb_uart.h ****     cy_en_scb_uart_parity_t    parity;
 508:Generated_Source\PSoC6\pdl\drivers/peripheral/scb/cy_scb_uart.h **** 
 509:Generated_Source\PSoC6\pdl\drivers/peripheral/scb/cy_scb_uart.h ****     /**
 510:Generated_Source\PSoC6\pdl\drivers/peripheral/scb/cy_scb_uart.h ****     * Enables a digital 3-tap median filter (2 out of 3 voting) to be applied 
 511:Generated_Source\PSoC6\pdl\drivers/peripheral/scb/cy_scb_uart.h ****     * to the input of the RX FIFO to filter glitches on the line (for IrDA, 
 512:Generated_Source\PSoC6\pdl\drivers/peripheral/scb/cy_scb_uart.h ****     * this parameter is ignored)
 513:Generated_Source\PSoC6\pdl\drivers/peripheral/scb/cy_scb_uart.h ****     *
 514:Generated_Source\PSoC6\pdl\drivers/peripheral/scb/cy_scb_uart.h ****     */
 515:Generated_Source\PSoC6\pdl\drivers/peripheral/scb/cy_scb_uart.h ****     bool        enableInputFilter;
 516:Generated_Source\PSoC6\pdl\drivers/peripheral/scb/cy_scb_uart.h **** 
 517:Generated_Source\PSoC6\pdl\drivers/peripheral/scb/cy_scb_uart.h ****     /**
 518:Generated_Source\PSoC6\pdl\drivers/peripheral/scb/cy_scb_uart.h ****     * Enables the hardware to drop data in the RX FIFO when a parity error is
 519:Generated_Source\PSoC6\pdl\drivers/peripheral/scb/cy_scb_uart.h ****     * detected
 520:Generated_Source\PSoC6\pdl\drivers/peripheral/scb/cy_scb_uart.h ****     */
 521:Generated_Source\PSoC6\pdl\drivers/peripheral/scb/cy_scb_uart.h ****     bool        dropOnParityError;
 522:Generated_Source\PSoC6\pdl\drivers/peripheral/scb/cy_scb_uart.h **** 
 523:Generated_Source\PSoC6\pdl\drivers/peripheral/scb/cy_scb_uart.h ****     /**
 524:Generated_Source\PSoC6\pdl\drivers/peripheral/scb/cy_scb_uart.h ****     * Enables the hardware to drop data in the RX FIFO when a frame error is
 525:Generated_Source\PSoC6\pdl\drivers/peripheral/scb/cy_scb_uart.h ****     * detected
 526:Generated_Source\PSoC6\pdl\drivers/peripheral/scb/cy_scb_uart.h ****     */
 527:Generated_Source\PSoC6\pdl\drivers/peripheral/scb/cy_scb_uart.h ****     bool        dropOnFrameError;
 528:Generated_Source\PSoC6\pdl\drivers/peripheral/scb/cy_scb_uart.h **** 
 529:Generated_Source\PSoC6\pdl\drivers/peripheral/scb/cy_scb_uart.h ****     /**
 530:Generated_Source\PSoC6\pdl\drivers/peripheral/scb/cy_scb_uart.h ****     * Enables the UART operation in Multi-Processor mode which requires
 531:Generated_Source\PSoC6\pdl\drivers/peripheral/scb/cy_scb_uart.h ****     * dataWidth to be 9 bits (the 9th bit is used to indicate address byte)
 532:Generated_Source\PSoC6\pdl\drivers/peripheral/scb/cy_scb_uart.h ****     */
 533:Generated_Source\PSoC6\pdl\drivers/peripheral/scb/cy_scb_uart.h ****     bool        enableMutliProcessorMode;
 534:Generated_Source\PSoC6\pdl\drivers/peripheral/scb/cy_scb_uart.h **** 
 535:Generated_Source\PSoC6\pdl\drivers/peripheral/scb/cy_scb_uart.h ****     /**
 536:Generated_Source\PSoC6\pdl\drivers/peripheral/scb/cy_scb_uart.h ****     * If Multi Processor mode is enabled, this is the address of the RX
 537:Generated_Source\PSoC6\pdl\drivers/peripheral/scb/cy_scb_uart.h ****     * FIFO. If the address matches, data is accepted into the FIFO. If
 538:Generated_Source\PSoC6\pdl\drivers/peripheral/scb/cy_scb_uart.h ****     * it does not match, the data is ignored.
 539:Generated_Source\PSoC6\pdl\drivers/peripheral/scb/cy_scb_uart.h ****     */
 540:Generated_Source\PSoC6\pdl\drivers/peripheral/scb/cy_scb_uart.h ****     uint32_t    receiverAddress;
 541:Generated_Source\PSoC6\pdl\drivers/peripheral/scb/cy_scb_uart.h **** 
 542:Generated_Source\PSoC6\pdl\drivers/peripheral/scb/cy_scb_uart.h ****     /**
 543:Generated_Source\PSoC6\pdl\drivers/peripheral/scb/cy_scb_uart.h ****     * This is the address mask for the Multi Processor address. 1 indicates
 544:Generated_Source\PSoC6\pdl\drivers/peripheral/scb/cy_scb_uart.h ****     * that the incoming address must match the corresponding bit in the slave
 545:Generated_Source\PSoC6\pdl\drivers/peripheral/scb/cy_scb_uart.h ****     * address. A 0 in the mask indicates that the incoming address does
 546:Generated_Source\PSoC6\pdl\drivers/peripheral/scb/cy_scb_uart.h ****     * not need to match.
 547:Generated_Source\PSoC6\pdl\drivers/peripheral/scb/cy_scb_uart.h ****     */
 548:Generated_Source\PSoC6\pdl\drivers/peripheral/scb/cy_scb_uart.h ****     uint32_t    receiverAddressMask;
 549:Generated_Source\PSoC6\pdl\drivers/peripheral/scb/cy_scb_uart.h **** 
 550:Generated_Source\PSoC6\pdl\drivers/peripheral/scb/cy_scb_uart.h ****     /**
 551:Generated_Source\PSoC6\pdl\drivers/peripheral/scb/cy_scb_uart.h ****     * Enables the hardware to accept the matching address in the RX FIFO.
 552:Generated_Source\PSoC6\pdl\drivers/peripheral/scb/cy_scb_uart.h ****     * This is useful when the device supports more than one address.
 553:Generated_Source\PSoC6\pdl\drivers/peripheral/scb/cy_scb_uart.h ****     */
 554:Generated_Source\PSoC6\pdl\drivers/peripheral/scb/cy_scb_uart.h ****     bool        acceptAddrInFifo;
ARM GAS  C:\Users\user\AppData\Local\Temp\ccJR9XQi.s 			page 16


 555:Generated_Source\PSoC6\pdl\drivers/peripheral/scb/cy_scb_uart.h **** 
 556:Generated_Source\PSoC6\pdl\drivers/peripheral/scb/cy_scb_uart.h ****     /** Inverts the IrDA RX input */
 557:Generated_Source\PSoC6\pdl\drivers/peripheral/scb/cy_scb_uart.h ****     bool        irdaInvertRx;
 558:Generated_Source\PSoC6\pdl\drivers/peripheral/scb/cy_scb_uart.h **** 
 559:Generated_Source\PSoC6\pdl\drivers/peripheral/scb/cy_scb_uart.h ****     /**
 560:Generated_Source\PSoC6\pdl\drivers/peripheral/scb/cy_scb_uart.h ****     * Enables the low-power receive for IrDA mode.
 561:Generated_Source\PSoC6\pdl\drivers/peripheral/scb/cy_scb_uart.h ****     * Note that the transmission must be disabled if this mode is enabled.
 562:Generated_Source\PSoC6\pdl\drivers/peripheral/scb/cy_scb_uart.h ****     */
 563:Generated_Source\PSoC6\pdl\drivers/peripheral/scb/cy_scb_uart.h ****     bool        irdaEnableLowPowerReceiver;
 564:Generated_Source\PSoC6\pdl\drivers/peripheral/scb/cy_scb_uart.h **** 
 565:Generated_Source\PSoC6\pdl\drivers/peripheral/scb/cy_scb_uart.h ****     /**
 566:Generated_Source\PSoC6\pdl\drivers/peripheral/scb/cy_scb_uart.h ****     * Enables retransmission of the frame placed in the TX FIFO when
 567:Generated_Source\PSoC6\pdl\drivers/peripheral/scb/cy_scb_uart.h ****     * NACK is received in SmartCard mode (for Standard and IrDA , this parameter
 568:Generated_Source\PSoC6\pdl\drivers/peripheral/scb/cy_scb_uart.h ****     * is ignored)
 569:Generated_Source\PSoC6\pdl\drivers/peripheral/scb/cy_scb_uart.h ****     */
 570:Generated_Source\PSoC6\pdl\drivers/peripheral/scb/cy_scb_uart.h ****     bool        smartCardRetryOnNack;
 571:Generated_Source\PSoC6\pdl\drivers/peripheral/scb/cy_scb_uart.h **** 
 572:Generated_Source\PSoC6\pdl\drivers/peripheral/scb/cy_scb_uart.h ****     /**
 573:Generated_Source\PSoC6\pdl\drivers/peripheral/scb/cy_scb_uart.h ****     * Enables the usage of the CTS input signal for the transmitter. The
 574:Generated_Source\PSoC6\pdl\drivers/peripheral/scb/cy_scb_uart.h ****     * transmitter waits for CTS to be active before sending data
 575:Generated_Source\PSoC6\pdl\drivers/peripheral/scb/cy_scb_uart.h ****     */
 576:Generated_Source\PSoC6\pdl\drivers/peripheral/scb/cy_scb_uart.h ****     bool        enableCts;
 577:Generated_Source\PSoC6\pdl\drivers/peripheral/scb/cy_scb_uart.h **** 
 578:Generated_Source\PSoC6\pdl\drivers/peripheral/scb/cy_scb_uart.h ****     /** Sets the CTS Polarity */
 579:Generated_Source\PSoC6\pdl\drivers/peripheral/scb/cy_scb_uart.h ****     cy_en_scb_uart_polarity_t    ctsPolarity;
 580:Generated_Source\PSoC6\pdl\drivers/peripheral/scb/cy_scb_uart.h **** 
 581:Generated_Source\PSoC6\pdl\drivers/peripheral/scb/cy_scb_uart.h ****     /**
 582:Generated_Source\PSoC6\pdl\drivers/peripheral/scb/cy_scb_uart.h ****     * When the RX FIFO has fewer entries than rtsRxFifoLevel, the
 583:Generated_Source\PSoC6\pdl\drivers/peripheral/scb/cy_scb_uart.h ****     * RTS signal is active (note to disable RTS, set this field to zero)
 584:Generated_Source\PSoC6\pdl\drivers/peripheral/scb/cy_scb_uart.h ****     */
 585:Generated_Source\PSoC6\pdl\drivers/peripheral/scb/cy_scb_uart.h ****     uint32_t    rtsRxFifoLevel;
 586:Generated_Source\PSoC6\pdl\drivers/peripheral/scb/cy_scb_uart.h **** 
 587:Generated_Source\PSoC6\pdl\drivers/peripheral/scb/cy_scb_uart.h ****     /** Sets the RTS Polarity */
 588:Generated_Source\PSoC6\pdl\drivers/peripheral/scb/cy_scb_uart.h ****     cy_en_scb_uart_polarity_t    rtsPolarity;
 589:Generated_Source\PSoC6\pdl\drivers/peripheral/scb/cy_scb_uart.h **** 
 590:Generated_Source\PSoC6\pdl\drivers/peripheral/scb/cy_scb_uart.h ****     /** Specifies the number of bits to detect a break condition */
 591:Generated_Source\PSoC6\pdl\drivers/peripheral/scb/cy_scb_uart.h ****     uint32_t    breakWidth;
 592:Generated_Source\PSoC6\pdl\drivers/peripheral/scb/cy_scb_uart.h **** 
 593:Generated_Source\PSoC6\pdl\drivers/peripheral/scb/cy_scb_uart.h ****     /**
 594:Generated_Source\PSoC6\pdl\drivers/peripheral/scb/cy_scb_uart.h ****     * When there are more entries in the RX FIFO than this level
 595:Generated_Source\PSoC6\pdl\drivers/peripheral/scb/cy_scb_uart.h ****     * the RX trigger output goes high. This output can be connected
 596:Generated_Source\PSoC6\pdl\drivers/peripheral/scb/cy_scb_uart.h ****     * to a DMA channel through a trigger mux.
 597:Generated_Source\PSoC6\pdl\drivers/peripheral/scb/cy_scb_uart.h ****     * Also, it controls the \ref CY_SCB_UART_RX_TRIGGER interrupt source.
 598:Generated_Source\PSoC6\pdl\drivers/peripheral/scb/cy_scb_uart.h ****     */
 599:Generated_Source\PSoC6\pdl\drivers/peripheral/scb/cy_scb_uart.h ****     uint32_t    rxFifoTriggerLevel;
 600:Generated_Source\PSoC6\pdl\drivers/peripheral/scb/cy_scb_uart.h **** 
 601:Generated_Source\PSoC6\pdl\drivers/peripheral/scb/cy_scb_uart.h ****     /**
 602:Generated_Source\PSoC6\pdl\drivers/peripheral/scb/cy_scb_uart.h ****     * The bits set in this mask allow the event to cause an interrupt
 603:Generated_Source\PSoC6\pdl\drivers/peripheral/scb/cy_scb_uart.h ****     * (See \ref group_scb_uart_macros_rx_fifo_status for the set of constants)
 604:Generated_Source\PSoC6\pdl\drivers/peripheral/scb/cy_scb_uart.h ****     */
 605:Generated_Source\PSoC6\pdl\drivers/peripheral/scb/cy_scb_uart.h ****     uint32_t    rxFifoIntEnableMask;
 606:Generated_Source\PSoC6\pdl\drivers/peripheral/scb/cy_scb_uart.h **** 
 607:Generated_Source\PSoC6\pdl\drivers/peripheral/scb/cy_scb_uart.h ****     /**
 608:Generated_Source\PSoC6\pdl\drivers/peripheral/scb/cy_scb_uart.h ****     * When there are fewer entries in the TX FIFO then this level
 609:Generated_Source\PSoC6\pdl\drivers/peripheral/scb/cy_scb_uart.h ****     * the TX trigger output goes high. This output can be connected
 610:Generated_Source\PSoC6\pdl\drivers/peripheral/scb/cy_scb_uart.h ****     * to a DMA channel through a trigger mux.
 611:Generated_Source\PSoC6\pdl\drivers/peripheral/scb/cy_scb_uart.h ****     * Also, it controls \ref CY_SCB_UART_TX_TRIGGER interrupt source.
ARM GAS  C:\Users\user\AppData\Local\Temp\ccJR9XQi.s 			page 17


 612:Generated_Source\PSoC6\pdl\drivers/peripheral/scb/cy_scb_uart.h ****     */
 613:Generated_Source\PSoC6\pdl\drivers/peripheral/scb/cy_scb_uart.h ****     uint32_t    txFifoTriggerLevel;
 614:Generated_Source\PSoC6\pdl\drivers/peripheral/scb/cy_scb_uart.h **** 
 615:Generated_Source\PSoC6\pdl\drivers/peripheral/scb/cy_scb_uart.h ****     /**
 616:Generated_Source\PSoC6\pdl\drivers/peripheral/scb/cy_scb_uart.h ****     * Bits set in this mask allows the event to cause an interrupt
 617:Generated_Source\PSoC6\pdl\drivers/peripheral/scb/cy_scb_uart.h ****     * (See \ref group_scb_uart_macros_tx_fifo_status for the set of constants)
 618:Generated_Source\PSoC6\pdl\drivers/peripheral/scb/cy_scb_uart.h ****     */
 619:Generated_Source\PSoC6\pdl\drivers/peripheral/scb/cy_scb_uart.h ****     uint32_t    txFifoIntEnableMask;
 620:Generated_Source\PSoC6\pdl\drivers/peripheral/scb/cy_scb_uart.h **** } cy_stc_scb_uart_config_t;
 621:Generated_Source\PSoC6\pdl\drivers/peripheral/scb/cy_scb_uart.h **** 
 622:Generated_Source\PSoC6\pdl\drivers/peripheral/scb/cy_scb_uart.h **** /** UART context structure.
 623:Generated_Source\PSoC6\pdl\drivers/peripheral/scb/cy_scb_uart.h **** * All fields for the context structure are internal. Firmware never reads or
 624:Generated_Source\PSoC6\pdl\drivers/peripheral/scb/cy_scb_uart.h **** * writes these values. Firmware allocates the structure and provides the
 625:Generated_Source\PSoC6\pdl\drivers/peripheral/scb/cy_scb_uart.h **** * address of the structure to the driver in function calls. Firmware must
 626:Generated_Source\PSoC6\pdl\drivers/peripheral/scb/cy_scb_uart.h **** * ensure that the defined instance of this structure remains in scope
 627:Generated_Source\PSoC6\pdl\drivers/peripheral/scb/cy_scb_uart.h **** * while the drive is in use.
 628:Generated_Source\PSoC6\pdl\drivers/peripheral/scb/cy_scb_uart.h **** */
 629:Generated_Source\PSoC6\pdl\drivers/peripheral/scb/cy_scb_uart.h **** typedef struct cy_stc_scb_uart_context
 630:Generated_Source\PSoC6\pdl\drivers/peripheral/scb/cy_scb_uart.h **** {
 631:Generated_Source\PSoC6\pdl\drivers/peripheral/scb/cy_scb_uart.h ****     /** \cond INTERNAL */
 632:Generated_Source\PSoC6\pdl\drivers/peripheral/scb/cy_scb_uart.h ****     uint32_t volatile txStatus;         /**< The transmit status */
 633:Generated_Source\PSoC6\pdl\drivers/peripheral/scb/cy_scb_uart.h ****     uint32_t volatile rxStatus;         /**< The receive status */
 634:Generated_Source\PSoC6\pdl\drivers/peripheral/scb/cy_scb_uart.h **** 
 635:Generated_Source\PSoC6\pdl\drivers/peripheral/scb/cy_scb_uart.h ****     void     *rxRingBuf;                /**< The pointer to the ring buffer */
 636:Generated_Source\PSoC6\pdl\drivers/peripheral/scb/cy_scb_uart.h ****     uint32_t  rxRingBufSize;            /**< The ring buffer size */
 637:Generated_Source\PSoC6\pdl\drivers/peripheral/scb/cy_scb_uart.h ****     uint32_t volatile rxRingBufHead;    /**< The ring buffer head index */
 638:Generated_Source\PSoC6\pdl\drivers/peripheral/scb/cy_scb_uart.h ****     uint32_t volatile rxRingBufTail;    /**< The ring buffer tail index */
 639:Generated_Source\PSoC6\pdl\drivers/peripheral/scb/cy_scb_uart.h **** 
 640:Generated_Source\PSoC6\pdl\drivers/peripheral/scb/cy_scb_uart.h ****     void     *rxBuf;                    /**< The pointer to the receive buffer */
 641:Generated_Source\PSoC6\pdl\drivers/peripheral/scb/cy_scb_uart.h ****     uint32_t  rxBufSize;                /**< The receive buffer size */
 642:Generated_Source\PSoC6\pdl\drivers/peripheral/scb/cy_scb_uart.h ****     uint32_t volatile rxBufIdx;         /**< The current location in the receive buffer */
 643:Generated_Source\PSoC6\pdl\drivers/peripheral/scb/cy_scb_uart.h **** 
 644:Generated_Source\PSoC6\pdl\drivers/peripheral/scb/cy_scb_uart.h ****     void     *txBuf;                    /**< The pointer to the transmit buffer */
 645:Generated_Source\PSoC6\pdl\drivers/peripheral/scb/cy_scb_uart.h ****     uint32_t  txBufSize;                /**< The transmit buffer size */
 646:Generated_Source\PSoC6\pdl\drivers/peripheral/scb/cy_scb_uart.h ****     uint32_t volatile txLeftToTransmit; /**< The number of data elements left to be transmitted */
 647:Generated_Source\PSoC6\pdl\drivers/peripheral/scb/cy_scb_uart.h **** 
 648:Generated_Source\PSoC6\pdl\drivers/peripheral/scb/cy_scb_uart.h ****     /** The pointer to an event callback that is called when any of
 649:Generated_Source\PSoC6\pdl\drivers/peripheral/scb/cy_scb_uart.h ****     * \ref group_scb_uart_macros_callback_events occurs
 650:Generated_Source\PSoC6\pdl\drivers/peripheral/scb/cy_scb_uart.h ****     */
 651:Generated_Source\PSoC6\pdl\drivers/peripheral/scb/cy_scb_uart.h ****     cy_cb_scb_uart_handle_events_t cbEvents;
 652:Generated_Source\PSoC6\pdl\drivers/peripheral/scb/cy_scb_uart.h **** 
 653:Generated_Source\PSoC6\pdl\drivers/peripheral/scb/cy_scb_uart.h **** #if !defined(NDEBUG)
 654:Generated_Source\PSoC6\pdl\drivers/peripheral/scb/cy_scb_uart.h ****     uint32_t initKey;               /**< Tracks the context initialization */
 655:Generated_Source\PSoC6\pdl\drivers/peripheral/scb/cy_scb_uart.h **** #endif /* !(NDEBUG) */
 656:Generated_Source\PSoC6\pdl\drivers/peripheral/scb/cy_scb_uart.h ****     /** \endcond */
 657:Generated_Source\PSoC6\pdl\drivers/peripheral/scb/cy_scb_uart.h **** } cy_stc_scb_uart_context_t;
 658:Generated_Source\PSoC6\pdl\drivers/peripheral/scb/cy_scb_uart.h **** /** \} group_scb_uart_data_structures */
 659:Generated_Source\PSoC6\pdl\drivers/peripheral/scb/cy_scb_uart.h **** 
 660:Generated_Source\PSoC6\pdl\drivers/peripheral/scb/cy_scb_uart.h **** 
 661:Generated_Source\PSoC6\pdl\drivers/peripheral/scb/cy_scb_uart.h **** /*******************************************************************************
 662:Generated_Source\PSoC6\pdl\drivers/peripheral/scb/cy_scb_uart.h **** *                           Function Prototypes
 663:Generated_Source\PSoC6\pdl\drivers/peripheral/scb/cy_scb_uart.h **** *******************************************************************************/
 664:Generated_Source\PSoC6\pdl\drivers/peripheral/scb/cy_scb_uart.h **** 
 665:Generated_Source\PSoC6\pdl\drivers/peripheral/scb/cy_scb_uart.h **** /**
 666:Generated_Source\PSoC6\pdl\drivers/peripheral/scb/cy_scb_uart.h **** * \addtogroup group_scb_uart_general_functions
 667:Generated_Source\PSoC6\pdl\drivers/peripheral/scb/cy_scb_uart.h **** * \{
 668:Generated_Source\PSoC6\pdl\drivers/peripheral/scb/cy_scb_uart.h **** */
ARM GAS  C:\Users\user\AppData\Local\Temp\ccJR9XQi.s 			page 18


 669:Generated_Source\PSoC6\pdl\drivers/peripheral/scb/cy_scb_uart.h **** cy_en_scb_uart_status_t Cy_SCB_UART_Init(CySCB_Type *base, cy_stc_scb_uart_config_t const *config,
 670:Generated_Source\PSoC6\pdl\drivers/peripheral/scb/cy_scb_uart.h ****                                          cy_stc_scb_uart_context_t *context);
 671:Generated_Source\PSoC6\pdl\drivers/peripheral/scb/cy_scb_uart.h **** void Cy_SCB_UART_DeInit (CySCB_Type *base);
 672:Generated_Source\PSoC6\pdl\drivers/peripheral/scb/cy_scb_uart.h **** __STATIC_INLINE void Cy_SCB_UART_Enable(CySCB_Type *base);
 673:Generated_Source\PSoC6\pdl\drivers/peripheral/scb/cy_scb_uart.h **** void Cy_SCB_UART_Disable(CySCB_Type *base, cy_stc_scb_uart_context_t *context);
 674:Generated_Source\PSoC6\pdl\drivers/peripheral/scb/cy_scb_uart.h **** 
 675:Generated_Source\PSoC6\pdl\drivers/peripheral/scb/cy_scb_uart.h **** __STATIC_INLINE void     Cy_SCB_UART_EnableCts      (CySCB_Type *base);
 676:Generated_Source\PSoC6\pdl\drivers/peripheral/scb/cy_scb_uart.h **** __STATIC_INLINE void     Cy_SCB_UART_DisableCts     (CySCB_Type *base);
 677:Generated_Source\PSoC6\pdl\drivers/peripheral/scb/cy_scb_uart.h **** __STATIC_INLINE void     Cy_SCB_UART_SetRtsFifoLevel(CySCB_Type *base, uint32_t level);
 678:Generated_Source\PSoC6\pdl\drivers/peripheral/scb/cy_scb_uart.h **** __STATIC_INLINE uint32_t Cy_SCB_UART_GetRtsFifoLevel(CySCB_Type const *base);
 679:Generated_Source\PSoC6\pdl\drivers/peripheral/scb/cy_scb_uart.h **** 
 680:Generated_Source\PSoC6\pdl\drivers/peripheral/scb/cy_scb_uart.h **** __STATIC_INLINE void Cy_SCB_UART_EnableSkipStart (CySCB_Type *base);
 681:Generated_Source\PSoC6\pdl\drivers/peripheral/scb/cy_scb_uart.h **** __STATIC_INLINE void Cy_SCB_UART_DisableSkipStart(CySCB_Type *base);
 682:Generated_Source\PSoC6\pdl\drivers/peripheral/scb/cy_scb_uart.h **** /** \} group_scb_uart_general_functions */
 683:Generated_Source\PSoC6\pdl\drivers/peripheral/scb/cy_scb_uart.h **** 
 684:Generated_Source\PSoC6\pdl\drivers/peripheral/scb/cy_scb_uart.h **** /**
 685:Generated_Source\PSoC6\pdl\drivers/peripheral/scb/cy_scb_uart.h **** * \addtogroup group_scb_uart_high_level_functions
 686:Generated_Source\PSoC6\pdl\drivers/peripheral/scb/cy_scb_uart.h **** * \{
 687:Generated_Source\PSoC6\pdl\drivers/peripheral/scb/cy_scb_uart.h **** */
 688:Generated_Source\PSoC6\pdl\drivers/peripheral/scb/cy_scb_uart.h **** void     Cy_SCB_UART_StartRingBuffer   (CySCB_Type *base, void *buffer, uint32_t size,
 689:Generated_Source\PSoC6\pdl\drivers/peripheral/scb/cy_scb_uart.h ****                                         cy_stc_scb_uart_context_t *context);
 690:Generated_Source\PSoC6\pdl\drivers/peripheral/scb/cy_scb_uart.h **** void     Cy_SCB_UART_StopRingBuffer    (CySCB_Type *base, cy_stc_scb_uart_context_t *context);
 691:Generated_Source\PSoC6\pdl\drivers/peripheral/scb/cy_scb_uart.h **** uint32_t Cy_SCB_UART_GetNumInRingBuffer(CySCB_Type const *base, cy_stc_scb_uart_context_t const *co
 692:Generated_Source\PSoC6\pdl\drivers/peripheral/scb/cy_scb_uart.h **** void     Cy_SCB_UART_ClearRingBuffer   (CySCB_Type const *base, cy_stc_scb_uart_context_t *context)
 693:Generated_Source\PSoC6\pdl\drivers/peripheral/scb/cy_scb_uart.h **** 
 694:Generated_Source\PSoC6\pdl\drivers/peripheral/scb/cy_scb_uart.h **** cy_en_scb_uart_status_t Cy_SCB_UART_Receive(CySCB_Type *base, void *buffer, uint32_t size,
 695:Generated_Source\PSoC6\pdl\drivers/peripheral/scb/cy_scb_uart.h ****                                             cy_stc_scb_uart_context_t *context);
 696:Generated_Source\PSoC6\pdl\drivers/peripheral/scb/cy_scb_uart.h **** void     Cy_SCB_UART_AbortReceive    (CySCB_Type *base, cy_stc_scb_uart_context_t *context);
 697:Generated_Source\PSoC6\pdl\drivers/peripheral/scb/cy_scb_uart.h **** uint32_t Cy_SCB_UART_GetReceiveStatus(CySCB_Type const *base, cy_stc_scb_uart_context_t const *cont
 698:Generated_Source\PSoC6\pdl\drivers/peripheral/scb/cy_scb_uart.h **** uint32_t Cy_SCB_UART_GetNumReceived  (CySCB_Type const *base, cy_stc_scb_uart_context_t const *cont
 699:Generated_Source\PSoC6\pdl\drivers/peripheral/scb/cy_scb_uart.h **** 
 700:Generated_Source\PSoC6\pdl\drivers/peripheral/scb/cy_scb_uart.h **** cy_en_scb_uart_status_t Cy_SCB_UART_Transmit(CySCB_Type *base, void *buffer, uint32_t size,
 701:Generated_Source\PSoC6\pdl\drivers/peripheral/scb/cy_scb_uart.h ****                                              cy_stc_scb_uart_context_t *context);
 702:Generated_Source\PSoC6\pdl\drivers/peripheral/scb/cy_scb_uart.h **** void     Cy_SCB_UART_AbortTransmit       (CySCB_Type *base, cy_stc_scb_uart_context_t *context);
 703:Generated_Source\PSoC6\pdl\drivers/peripheral/scb/cy_scb_uart.h **** uint32_t Cy_SCB_UART_GetTransmitStatus   (CySCB_Type const *base, cy_stc_scb_uart_context_t const *
 704:Generated_Source\PSoC6\pdl\drivers/peripheral/scb/cy_scb_uart.h **** uint32_t Cy_SCB_UART_GetNumLeftToTransmit(CySCB_Type const *base, cy_stc_scb_uart_context_t const *
 705:Generated_Source\PSoC6\pdl\drivers/peripheral/scb/cy_scb_uart.h **** /** \} group_scb_uart_high_level_functions */
 706:Generated_Source\PSoC6\pdl\drivers/peripheral/scb/cy_scb_uart.h **** 
 707:Generated_Source\PSoC6\pdl\drivers/peripheral/scb/cy_scb_uart.h **** /**
 708:Generated_Source\PSoC6\pdl\drivers/peripheral/scb/cy_scb_uart.h **** * \addtogroup group_scb_uart_low_level_functions
 709:Generated_Source\PSoC6\pdl\drivers/peripheral/scb/cy_scb_uart.h **** * \{
 710:Generated_Source\PSoC6\pdl\drivers/peripheral/scb/cy_scb_uart.h **** */
 711:Generated_Source\PSoC6\pdl\drivers/peripheral/scb/cy_scb_uart.h **** __STATIC_INLINE uint32_t Cy_SCB_UART_Put             (CySCB_Type *base, uint32_t data);
 712:Generated_Source\PSoC6\pdl\drivers/peripheral/scb/cy_scb_uart.h **** __STATIC_INLINE uint32_t Cy_SCB_UART_PutArray        (CySCB_Type *base, void *buffer, uint32_t size
 713:Generated_Source\PSoC6\pdl\drivers/peripheral/scb/cy_scb_uart.h **** __STATIC_INLINE void     Cy_SCB_UART_PutArrayBlocking(CySCB_Type *base, void *buffer, uint32_t size
 714:Generated_Source\PSoC6\pdl\drivers/peripheral/scb/cy_scb_uart.h **** __STATIC_INLINE void     Cy_SCB_UART_PutString       (CySCB_Type *base, char_t const string[]);
 715:Generated_Source\PSoC6\pdl\drivers/peripheral/scb/cy_scb_uart.h **** void Cy_SCB_UART_SendBreakBlocking(CySCB_Type *base, uint32_t breakWidth);
 716:Generated_Source\PSoC6\pdl\drivers/peripheral/scb/cy_scb_uart.h **** 
 717:Generated_Source\PSoC6\pdl\drivers/peripheral/scb/cy_scb_uart.h **** __STATIC_INLINE uint32_t Cy_SCB_UART_Get             (CySCB_Type const *base);
 718:Generated_Source\PSoC6\pdl\drivers/peripheral/scb/cy_scb_uart.h **** __STATIC_INLINE uint32_t Cy_SCB_UART_GetArray        (CySCB_Type const *base, void *buffer, uint32_
 719:Generated_Source\PSoC6\pdl\drivers/peripheral/scb/cy_scb_uart.h **** __STATIC_INLINE void     Cy_SCB_UART_GetArrayBlocking(CySCB_Type const *base, void *buffer, uint32_
 720:Generated_Source\PSoC6\pdl\drivers/peripheral/scb/cy_scb_uart.h **** 
 721:Generated_Source\PSoC6\pdl\drivers/peripheral/scb/cy_scb_uart.h **** __STATIC_INLINE uint32_t Cy_SCB_UART_GetTxFifoStatus  (CySCB_Type const *base);
 722:Generated_Source\PSoC6\pdl\drivers/peripheral/scb/cy_scb_uart.h **** __STATIC_INLINE void     Cy_SCB_UART_ClearTxFifoStatus(CySCB_Type *base, uint32_t clearMask);
 723:Generated_Source\PSoC6\pdl\drivers/peripheral/scb/cy_scb_uart.h **** 
 724:Generated_Source\PSoC6\pdl\drivers/peripheral/scb/cy_scb_uart.h **** __STATIC_INLINE uint32_t Cy_SCB_UART_GetRxFifoStatus  (CySCB_Type const *base);
 725:Generated_Source\PSoC6\pdl\drivers/peripheral/scb/cy_scb_uart.h **** __STATIC_INLINE void     Cy_SCB_UART_ClearRxFifoStatus(CySCB_Type *base, uint32_t clearMask);
ARM GAS  C:\Users\user\AppData\Local\Temp\ccJR9XQi.s 			page 19


 726:Generated_Source\PSoC6\pdl\drivers/peripheral/scb/cy_scb_uart.h **** 
 727:Generated_Source\PSoC6\pdl\drivers/peripheral/scb/cy_scb_uart.h **** __STATIC_INLINE uint32_t Cy_SCB_UART_GetNumInTxFifo   (CySCB_Type const *base);
 728:Generated_Source\PSoC6\pdl\drivers/peripheral/scb/cy_scb_uart.h **** __STATIC_INLINE bool     Cy_SCB_UART_IsTxComplete     (CySCB_Type const *base);
 729:Generated_Source\PSoC6\pdl\drivers/peripheral/scb/cy_scb_uart.h **** 
 730:Generated_Source\PSoC6\pdl\drivers/peripheral/scb/cy_scb_uart.h **** __STATIC_INLINE uint32_t Cy_SCB_UART_GetNumInRxFifo   (CySCB_Type const *base);
 731:Generated_Source\PSoC6\pdl\drivers/peripheral/scb/cy_scb_uart.h **** 
 732:Generated_Source\PSoC6\pdl\drivers/peripheral/scb/cy_scb_uart.h **** __STATIC_INLINE void     Cy_SCB_UART_ClearRxFifo      (CySCB_Type *base);
 733:Generated_Source\PSoC6\pdl\drivers/peripheral/scb/cy_scb_uart.h **** __STATIC_INLINE void     Cy_SCB_UART_ClearTxFifo      (CySCB_Type *base);
 734:Generated_Source\PSoC6\pdl\drivers/peripheral/scb/cy_scb_uart.h **** /** \} group_scb_uart_low_level_functions */
 735:Generated_Source\PSoC6\pdl\drivers/peripheral/scb/cy_scb_uart.h **** 
 736:Generated_Source\PSoC6\pdl\drivers/peripheral/scb/cy_scb_uart.h **** /**
 737:Generated_Source\PSoC6\pdl\drivers/peripheral/scb/cy_scb_uart.h **** * \addtogroup group_scb_uart_interrupt_functions
 738:Generated_Source\PSoC6\pdl\drivers/peripheral/scb/cy_scb_uart.h **** * \{
 739:Generated_Source\PSoC6\pdl\drivers/peripheral/scb/cy_scb_uart.h **** */
 740:Generated_Source\PSoC6\pdl\drivers/peripheral/scb/cy_scb_uart.h **** void Cy_SCB_UART_Interrupt(CySCB_Type *base, cy_stc_scb_uart_context_t *context);
 741:Generated_Source\PSoC6\pdl\drivers/peripheral/scb/cy_scb_uart.h **** 
 742:Generated_Source\PSoC6\pdl\drivers/peripheral/scb/cy_scb_uart.h **** __STATIC_INLINE void Cy_SCB_UART_RegisterCallback(CySCB_Type const *base, cy_cb_scb_uart_handle_eve
 743:Generated_Source\PSoC6\pdl\drivers/peripheral/scb/cy_scb_uart.h ****                                                   cy_stc_scb_uart_context_t *context);
 744:Generated_Source\PSoC6\pdl\drivers/peripheral/scb/cy_scb_uart.h **** /** \} group_scb_uart_interrupt_functions */
 745:Generated_Source\PSoC6\pdl\drivers/peripheral/scb/cy_scb_uart.h **** 
 746:Generated_Source\PSoC6\pdl\drivers/peripheral/scb/cy_scb_uart.h **** /**
 747:Generated_Source\PSoC6\pdl\drivers/peripheral/scb/cy_scb_uart.h **** * \addtogroup group_scb_uart_low_power_functions
 748:Generated_Source\PSoC6\pdl\drivers/peripheral/scb/cy_scb_uart.h **** * \{
 749:Generated_Source\PSoC6\pdl\drivers/peripheral/scb/cy_scb_uart.h **** */
 750:Generated_Source\PSoC6\pdl\drivers/peripheral/scb/cy_scb_uart.h **** cy_en_syspm_status_t Cy_SCB_UART_DeepSleepCallback(cy_stc_syspm_callback_params_t *callbackParams, 
 751:Generated_Source\PSoC6\pdl\drivers/peripheral/scb/cy_scb_uart.h **** cy_en_syspm_status_t Cy_SCB_UART_HibernateCallback(cy_stc_syspm_callback_params_t *callbackParams, 
 752:Generated_Source\PSoC6\pdl\drivers/peripheral/scb/cy_scb_uart.h **** /** \} group_scb_uart_low_power_functions */
 753:Generated_Source\PSoC6\pdl\drivers/peripheral/scb/cy_scb_uart.h **** 
 754:Generated_Source\PSoC6\pdl\drivers/peripheral/scb/cy_scb_uart.h **** 
 755:Generated_Source\PSoC6\pdl\drivers/peripheral/scb/cy_scb_uart.h **** /*******************************************************************************
 756:Generated_Source\PSoC6\pdl\drivers/peripheral/scb/cy_scb_uart.h **** *                               API Constants
 757:Generated_Source\PSoC6\pdl\drivers/peripheral/scb/cy_scb_uart.h **** *******************************************************************************/
 758:Generated_Source\PSoC6\pdl\drivers/peripheral/scb/cy_scb_uart.h **** 
 759:Generated_Source\PSoC6\pdl\drivers/peripheral/scb/cy_scb_uart.h **** /**
 760:Generated_Source\PSoC6\pdl\drivers/peripheral/scb/cy_scb_uart.h **** * \addtogroup group_scb_uart_macros
 761:Generated_Source\PSoC6\pdl\drivers/peripheral/scb/cy_scb_uart.h **** * \{
 762:Generated_Source\PSoC6\pdl\drivers/peripheral/scb/cy_scb_uart.h **** */
 763:Generated_Source\PSoC6\pdl\drivers/peripheral/scb/cy_scb_uart.h **** 
 764:Generated_Source\PSoC6\pdl\drivers/peripheral/scb/cy_scb_uart.h **** /**
 765:Generated_Source\PSoC6\pdl\drivers/peripheral/scb/cy_scb_uart.h **** * \defgroup group_scb_uart_macros_irda_lp_ovs UART IRDA Low Power Oversample factors
 766:Generated_Source\PSoC6\pdl\drivers/peripheral/scb/cy_scb_uart.h **** * \{
 767:Generated_Source\PSoC6\pdl\drivers/peripheral/scb/cy_scb_uart.h **** */
 768:Generated_Source\PSoC6\pdl\drivers/peripheral/scb/cy_scb_uart.h **** #define CY_SCB_UART_IRDA_LP_OVS16      (1UL)   /**< IrDA in low-power mode oversampled by 16   */
 769:Generated_Source\PSoC6\pdl\drivers/peripheral/scb/cy_scb_uart.h **** #define CY_SCB_UART_IRDA_LP_OVS32      (2UL)   /**< IrDA in low-power mode oversampled by 32   */
 770:Generated_Source\PSoC6\pdl\drivers/peripheral/scb/cy_scb_uart.h **** #define CY_SCB_UART_IRDA_LP_OVS48      (3UL)   /**< IrDA in low-power mode oversampled by 48   */
 771:Generated_Source\PSoC6\pdl\drivers/peripheral/scb/cy_scb_uart.h **** #define CY_SCB_UART_IRDA_LP_OVS96      (4UL)   /**< IrDA in low-power mode oversampled by 96   */
 772:Generated_Source\PSoC6\pdl\drivers/peripheral/scb/cy_scb_uart.h **** #define CY_SCB_UART_IRDA_LP_OVS192     (5UL)   /**< IrDA in low-power mode oversampled by 192  */
 773:Generated_Source\PSoC6\pdl\drivers/peripheral/scb/cy_scb_uart.h **** #define CY_SCB_UART_IRDA_LP_OVS768     (6UL)   /**< IrDA in low-power mode oversampled by 768  */
 774:Generated_Source\PSoC6\pdl\drivers/peripheral/scb/cy_scb_uart.h **** #define CY_SCB_UART_IRDA_LP_OVS1536    (7UL)   /**< IrDA in low-power mode oversampled by 1536 */
 775:Generated_Source\PSoC6\pdl\drivers/peripheral/scb/cy_scb_uart.h **** /** \} group_scb_uart_macros_irda_lp_ovs */
 776:Generated_Source\PSoC6\pdl\drivers/peripheral/scb/cy_scb_uart.h **** 
 777:Generated_Source\PSoC6\pdl\drivers/peripheral/scb/cy_scb_uart.h **** /**
 778:Generated_Source\PSoC6\pdl\drivers/peripheral/scb/cy_scb_uart.h **** * \defgroup group_scb_uart_macros_rx_fifo_status UART RX FIFO status.
 779:Generated_Source\PSoC6\pdl\drivers/peripheral/scb/cy_scb_uart.h **** * \{
 780:Generated_Source\PSoC6\pdl\drivers/peripheral/scb/cy_scb_uart.h **** * Macros to check UART RX FIFO status returned by \ref Cy_SCB_UART_GetRxFifoStatus
 781:Generated_Source\PSoC6\pdl\drivers/peripheral/scb/cy_scb_uart.h **** * function or assign mask for \ref Cy_SCB_UART_ClearRxFifoStatus function.
 782:Generated_Source\PSoC6\pdl\drivers/peripheral/scb/cy_scb_uart.h **** * Each UART RX FIFO status is encoded in a separate bit, therefore multiple
ARM GAS  C:\Users\user\AppData\Local\Temp\ccJR9XQi.s 			page 20


 783:Generated_Source\PSoC6\pdl\drivers/peripheral/scb/cy_scb_uart.h **** * bits may be set to indicate the current status.
 784:Generated_Source\PSoC6\pdl\drivers/peripheral/scb/cy_scb_uart.h **** */
 785:Generated_Source\PSoC6\pdl\drivers/peripheral/scb/cy_scb_uart.h **** 
 786:Generated_Source\PSoC6\pdl\drivers/peripheral/scb/cy_scb_uart.h **** /** The number of entries in the RX FIFO is more than the RX FIFO trigger level
 787:Generated_Source\PSoC6\pdl\drivers/peripheral/scb/cy_scb_uart.h **** * value
 788:Generated_Source\PSoC6\pdl\drivers/peripheral/scb/cy_scb_uart.h **** */
 789:Generated_Source\PSoC6\pdl\drivers/peripheral/scb/cy_scb_uart.h **** #define CY_SCB_UART_RX_TRIGGER         (SCB_INTR_RX_TRIGGER_Msk)
 790:Generated_Source\PSoC6\pdl\drivers/peripheral/scb/cy_scb_uart.h **** 
 791:Generated_Source\PSoC6\pdl\drivers/peripheral/scb/cy_scb_uart.h **** /** The RX FIFO is not empty, there is data to read */
 792:Generated_Source\PSoC6\pdl\drivers/peripheral/scb/cy_scb_uart.h **** #define CY_SCB_UART_RX_NOT_EMPTY       (SCB_INTR_RX_NOT_EMPTY_Msk)
 793:Generated_Source\PSoC6\pdl\drivers/peripheral/scb/cy_scb_uart.h **** 
 794:Generated_Source\PSoC6\pdl\drivers/peripheral/scb/cy_scb_uart.h **** /**
 795:Generated_Source\PSoC6\pdl\drivers/peripheral/scb/cy_scb_uart.h **** * The RX FIFO is full, there is no more space for additional data, and
 796:Generated_Source\PSoC6\pdl\drivers/peripheral/scb/cy_scb_uart.h **** * any additional data will be dropped
 797:Generated_Source\PSoC6\pdl\drivers/peripheral/scb/cy_scb_uart.h **** */
 798:Generated_Source\PSoC6\pdl\drivers/peripheral/scb/cy_scb_uart.h **** #define CY_SCB_UART_RX_FULL            (SCB_INTR_RX_FULL_Msk)
 799:Generated_Source\PSoC6\pdl\drivers/peripheral/scb/cy_scb_uart.h **** 
 800:Generated_Source\PSoC6\pdl\drivers/peripheral/scb/cy_scb_uart.h **** /**
 801:Generated_Source\PSoC6\pdl\drivers/peripheral/scb/cy_scb_uart.h **** * The RX FIFO was full and there was an attempt to write to it.
 802:Generated_Source\PSoC6\pdl\drivers/peripheral/scb/cy_scb_uart.h **** * That additional data was dropped.
 803:Generated_Source\PSoC6\pdl\drivers/peripheral/scb/cy_scb_uart.h **** */
 804:Generated_Source\PSoC6\pdl\drivers/peripheral/scb/cy_scb_uart.h **** #define CY_SCB_UART_RX_OVERFLOW        (SCB_INTR_RX_OVERFLOW_Msk)
 805:Generated_Source\PSoC6\pdl\drivers/peripheral/scb/cy_scb_uart.h **** 
 806:Generated_Source\PSoC6\pdl\drivers/peripheral/scb/cy_scb_uart.h **** /** An attempt to read from an empty RX FIFO */
 807:Generated_Source\PSoC6\pdl\drivers/peripheral/scb/cy_scb_uart.h **** #define CY_SCB_UART_RX_UNDERFLOW       (SCB_INTR_RX_UNDERFLOW_Msk)
 808:Generated_Source\PSoC6\pdl\drivers/peripheral/scb/cy_scb_uart.h **** 
 809:Generated_Source\PSoC6\pdl\drivers/peripheral/scb/cy_scb_uart.h **** /** The RX FIFO detected a frame error, either a stop or stop-bit error */
 810:Generated_Source\PSoC6\pdl\drivers/peripheral/scb/cy_scb_uart.h **** #define CY_SCB_UART_RX_ERR_FRAME       (SCB_INTR_RX_FRAME_ERROR_Msk)
 811:Generated_Source\PSoC6\pdl\drivers/peripheral/scb/cy_scb_uart.h **** 
 812:Generated_Source\PSoC6\pdl\drivers/peripheral/scb/cy_scb_uart.h **** /** The RX FIFO detected a parity error */
 813:Generated_Source\PSoC6\pdl\drivers/peripheral/scb/cy_scb_uart.h **** #define CY_SCB_UART_RX_ERR_PARITY      (SCB_INTR_RX_PARITY_ERROR_Msk)
 814:Generated_Source\PSoC6\pdl\drivers/peripheral/scb/cy_scb_uart.h **** 
 815:Generated_Source\PSoC6\pdl\drivers/peripheral/scb/cy_scb_uart.h **** /** The RX FIFO detected a break transmission from the transmitter */
 816:Generated_Source\PSoC6\pdl\drivers/peripheral/scb/cy_scb_uart.h **** #define CY_SCB_UART_RX_BREAK_DETECT    (SCB_INTR_RX_BREAK_DETECT_Msk)
 817:Generated_Source\PSoC6\pdl\drivers/peripheral/scb/cy_scb_uart.h **** /** \} group_scb_uart_macros_rx_fifo_status */
 818:Generated_Source\PSoC6\pdl\drivers/peripheral/scb/cy_scb_uart.h **** 
 819:Generated_Source\PSoC6\pdl\drivers/peripheral/scb/cy_scb_uart.h **** /**
 820:Generated_Source\PSoC6\pdl\drivers/peripheral/scb/cy_scb_uart.h **** * \defgroup group_scb_uart_macros_tx_fifo_status UART TX FIFO Statuses
 821:Generated_Source\PSoC6\pdl\drivers/peripheral/scb/cy_scb_uart.h **** * \{
 822:Generated_Source\PSoC6\pdl\drivers/peripheral/scb/cy_scb_uart.h **** * Macros to check UART TX FIFO status returned by \ref Cy_SCB_UART_GetTxFifoStatus
 823:Generated_Source\PSoC6\pdl\drivers/peripheral/scb/cy_scb_uart.h **** * function or assign mask for \ref Cy_SCB_UART_ClearTxFifoStatus function.
 824:Generated_Source\PSoC6\pdl\drivers/peripheral/scb/cy_scb_uart.h **** * Each UART TX FIFO status is encoded in a separate bit, therefore multiple bits
 825:Generated_Source\PSoC6\pdl\drivers/peripheral/scb/cy_scb_uart.h **** * may be set to indicate the current status.
 826:Generated_Source\PSoC6\pdl\drivers/peripheral/scb/cy_scb_uart.h **** */
 827:Generated_Source\PSoC6\pdl\drivers/peripheral/scb/cy_scb_uart.h **** 
 828:Generated_Source\PSoC6\pdl\drivers/peripheral/scb/cy_scb_uart.h **** /** The number of entries in the TX FIFO is less than the TX FIFO trigger level
 829:Generated_Source\PSoC6\pdl\drivers/peripheral/scb/cy_scb_uart.h **** * value
 830:Generated_Source\PSoC6\pdl\drivers/peripheral/scb/cy_scb_uart.h **** */
 831:Generated_Source\PSoC6\pdl\drivers/peripheral/scb/cy_scb_uart.h **** #define CY_SCB_UART_TX_TRIGGER     (SCB_INTR_TX_TRIGGER_Msk)
 832:Generated_Source\PSoC6\pdl\drivers/peripheral/scb/cy_scb_uart.h **** 
 833:Generated_Source\PSoC6\pdl\drivers/peripheral/scb/cy_scb_uart.h **** /** The TX FIFO is not full, there is a space for more data */
 834:Generated_Source\PSoC6\pdl\drivers/peripheral/scb/cy_scb_uart.h **** #define CY_SCB_UART_TX_NOT_FULL    (SCB_INTR_TX_NOT_FULL_Msk)
 835:Generated_Source\PSoC6\pdl\drivers/peripheral/scb/cy_scb_uart.h **** 
 836:Generated_Source\PSoC6\pdl\drivers/peripheral/scb/cy_scb_uart.h **** /** The TX FIFO is empty, note there may still be data in the shift register.*/
 837:Generated_Source\PSoC6\pdl\drivers/peripheral/scb/cy_scb_uart.h **** #define CY_SCB_UART_TX_EMPTY       (SCB_INTR_TX_EMPTY_Msk)
 838:Generated_Source\PSoC6\pdl\drivers/peripheral/scb/cy_scb_uart.h **** 
 839:Generated_Source\PSoC6\pdl\drivers/peripheral/scb/cy_scb_uart.h **** /** An attempt to write to the full TX FIFO */
ARM GAS  C:\Users\user\AppData\Local\Temp\ccJR9XQi.s 			page 21


 840:Generated_Source\PSoC6\pdl\drivers/peripheral/scb/cy_scb_uart.h **** #define CY_SCB_UART_TX_OVERFLOW    (SCB_INTR_TX_OVERFLOW_Msk)
 841:Generated_Source\PSoC6\pdl\drivers/peripheral/scb/cy_scb_uart.h **** 
 842:Generated_Source\PSoC6\pdl\drivers/peripheral/scb/cy_scb_uart.h **** /** An attempt to read from an empty transmitter FIFO (hardware reads). */
 843:Generated_Source\PSoC6\pdl\drivers/peripheral/scb/cy_scb_uart.h **** #define CY_SCB_UART_TX_UNDERFLOW (SCB_INTR_TX_UNDERFLOW_Msk)
 844:Generated_Source\PSoC6\pdl\drivers/peripheral/scb/cy_scb_uart.h **** 
 845:Generated_Source\PSoC6\pdl\drivers/peripheral/scb/cy_scb_uart.h **** /** All data has been transmitted out of the FIFO, including shifter */
 846:Generated_Source\PSoC6\pdl\drivers/peripheral/scb/cy_scb_uart.h **** #define CY_SCB_UART_TX_DONE        (SCB_INTR_TX_UART_DONE_Msk)
 847:Generated_Source\PSoC6\pdl\drivers/peripheral/scb/cy_scb_uart.h **** 
 848:Generated_Source\PSoC6\pdl\drivers/peripheral/scb/cy_scb_uart.h **** /** SmartCard only: the transmitter received a NACK */
 849:Generated_Source\PSoC6\pdl\drivers/peripheral/scb/cy_scb_uart.h **** #define CY_SCB_UART_TX_NACK        (SCB_INTR_TX_UART_NACK_Msk)
 850:Generated_Source\PSoC6\pdl\drivers/peripheral/scb/cy_scb_uart.h **** 
 851:Generated_Source\PSoC6\pdl\drivers/peripheral/scb/cy_scb_uart.h **** /** SmartCard only: the transmitter lost arbitration */
 852:Generated_Source\PSoC6\pdl\drivers/peripheral/scb/cy_scb_uart.h **** #define CY_SCB_UART_TX_ARB_LOST    (SCB_INTR_TX_UART_ARB_LOST_Msk)
 853:Generated_Source\PSoC6\pdl\drivers/peripheral/scb/cy_scb_uart.h **** /** \} group_scb_uart_macros_tx_fifo_status */
 854:Generated_Source\PSoC6\pdl\drivers/peripheral/scb/cy_scb_uart.h **** 
 855:Generated_Source\PSoC6\pdl\drivers/peripheral/scb/cy_scb_uart.h **** /**
 856:Generated_Source\PSoC6\pdl\drivers/peripheral/scb/cy_scb_uart.h **** * \defgroup group_scb_uart_macros_receive_status UART Receive Statuses
 857:Generated_Source\PSoC6\pdl\drivers/peripheral/scb/cy_scb_uart.h **** * \{
 858:Generated_Source\PSoC6\pdl\drivers/peripheral/scb/cy_scb_uart.h **** * Macros to check current UART receive status returned by 
 859:Generated_Source\PSoC6\pdl\drivers/peripheral/scb/cy_scb_uart.h **** * \ref Cy_SCB_UART_GetReceiveStatus function. 
 860:Generated_Source\PSoC6\pdl\drivers/peripheral/scb/cy_scb_uart.h **** * Each UART receive status is encoded in a separate bit, therefore multiple bits
 861:Generated_Source\PSoC6\pdl\drivers/peripheral/scb/cy_scb_uart.h **** * may be set to indicate the current status.
 862:Generated_Source\PSoC6\pdl\drivers/peripheral/scb/cy_scb_uart.h **** */
 863:Generated_Source\PSoC6\pdl\drivers/peripheral/scb/cy_scb_uart.h **** /** The receive operation started by \ref Cy_SCB_UART_Receive is in progress */
 864:Generated_Source\PSoC6\pdl\drivers/peripheral/scb/cy_scb_uart.h **** #define CY_SCB_UART_RECEIVE_ACTIVE         (0x01UL)
 865:Generated_Source\PSoC6\pdl\drivers/peripheral/scb/cy_scb_uart.h **** 
 866:Generated_Source\PSoC6\pdl\drivers/peripheral/scb/cy_scb_uart.h **** /**
 867:Generated_Source\PSoC6\pdl\drivers/peripheral/scb/cy_scb_uart.h **** * The hardware RX FIFO was full and there was an attempt to write to it.
 868:Generated_Source\PSoC6\pdl\drivers/peripheral/scb/cy_scb_uart.h **** * That additional data was dropped.
 869:Generated_Source\PSoC6\pdl\drivers/peripheral/scb/cy_scb_uart.h **** */
 870:Generated_Source\PSoC6\pdl\drivers/peripheral/scb/cy_scb_uart.h **** #define CY_SCB_UART_RECEIVE_OVERFLOW       (SCB_INTR_RX_OVERFLOW_Msk)
 871:Generated_Source\PSoC6\pdl\drivers/peripheral/scb/cy_scb_uart.h **** 
 872:Generated_Source\PSoC6\pdl\drivers/peripheral/scb/cy_scb_uart.h **** /** The receive hardware detected a frame error, either a start or
 873:Generated_Source\PSoC6\pdl\drivers/peripheral/scb/cy_scb_uart.h **** * stop bit error
 874:Generated_Source\PSoC6\pdl\drivers/peripheral/scb/cy_scb_uart.h **** */
 875:Generated_Source\PSoC6\pdl\drivers/peripheral/scb/cy_scb_uart.h **** #define CY_SCB_UART_RECEIVE_ERR_FRAME      (SCB_INTR_RX_FRAME_ERROR_Msk)
 876:Generated_Source\PSoC6\pdl\drivers/peripheral/scb/cy_scb_uart.h **** 
 877:Generated_Source\PSoC6\pdl\drivers/peripheral/scb/cy_scb_uart.h **** /** The receive hardware detected a parity error */
 878:Generated_Source\PSoC6\pdl\drivers/peripheral/scb/cy_scb_uart.h **** #define CY_SCB_UART_RECEIVE_ERR_PARITY     (SCB_INTR_RX_PARITY_ERROR_Msk)
 879:Generated_Source\PSoC6\pdl\drivers/peripheral/scb/cy_scb_uart.h **** 
 880:Generated_Source\PSoC6\pdl\drivers/peripheral/scb/cy_scb_uart.h **** /** The receive hardware detected a break transmission from transmitter */
 881:Generated_Source\PSoC6\pdl\drivers/peripheral/scb/cy_scb_uart.h **** #define CY_SCB_UART_RECEIVE_BREAK_DETECT   (SCB_INTR_RX_BREAK_DETECT_Msk)
 882:Generated_Source\PSoC6\pdl\drivers/peripheral/scb/cy_scb_uart.h **** /** \} group_scb_uart_macros_receive_status */
 883:Generated_Source\PSoC6\pdl\drivers/peripheral/scb/cy_scb_uart.h **** 
 884:Generated_Source\PSoC6\pdl\drivers/peripheral/scb/cy_scb_uart.h **** /**
 885:Generated_Source\PSoC6\pdl\drivers/peripheral/scb/cy_scb_uart.h **** * \defgroup group_scb_uart_macros_transmit_status UART Transmit Status
 886:Generated_Source\PSoC6\pdl\drivers/peripheral/scb/cy_scb_uart.h **** * \{
 887:Generated_Source\PSoC6\pdl\drivers/peripheral/scb/cy_scb_uart.h **** * Macros to check current UART transmit status returned by 
 888:Generated_Source\PSoC6\pdl\drivers/peripheral/scb/cy_scb_uart.h **** * \ref Cy_SCB_UART_GetTransmitStatus function. 
 889:Generated_Source\PSoC6\pdl\drivers/peripheral/scb/cy_scb_uart.h **** * Each UART transmit status is encoded in a separate bit, therefore multiple bits
 890:Generated_Source\PSoC6\pdl\drivers/peripheral/scb/cy_scb_uart.h **** * may be set to indicate the current status.
 891:Generated_Source\PSoC6\pdl\drivers/peripheral/scb/cy_scb_uart.h **** */
 892:Generated_Source\PSoC6\pdl\drivers/peripheral/scb/cy_scb_uart.h **** 
 893:Generated_Source\PSoC6\pdl\drivers/peripheral/scb/cy_scb_uart.h **** /** The transmit operation started by \ref Cy_SCB_UART_Transmit is in progress */
 894:Generated_Source\PSoC6\pdl\drivers/peripheral/scb/cy_scb_uart.h **** #define CY_SCB_UART_TRANSMIT_ACTIVE    (0x01UL)
 895:Generated_Source\PSoC6\pdl\drivers/peripheral/scb/cy_scb_uart.h **** 
 896:Generated_Source\PSoC6\pdl\drivers/peripheral/scb/cy_scb_uart.h **** /**
ARM GAS  C:\Users\user\AppData\Local\Temp\ccJR9XQi.s 			page 22


 897:Generated_Source\PSoC6\pdl\drivers/peripheral/scb/cy_scb_uart.h **** * All data elements specified by \ref Cy_SCB_UART_Transmit have been loaded
 898:Generated_Source\PSoC6\pdl\drivers/peripheral/scb/cy_scb_uart.h **** * into the TX FIFO
 899:Generated_Source\PSoC6\pdl\drivers/peripheral/scb/cy_scb_uart.h **** */
 900:Generated_Source\PSoC6\pdl\drivers/peripheral/scb/cy_scb_uart.h **** #define CY_SCB_UART_TRANSMIT_IN_FIFO   (0x02UL)
 901:Generated_Source\PSoC6\pdl\drivers/peripheral/scb/cy_scb_uart.h **** 
 902:Generated_Source\PSoC6\pdl\drivers/peripheral/scb/cy_scb_uart.h **** /** SmartCard only: the transmitter received a NACK */
 903:Generated_Source\PSoC6\pdl\drivers/peripheral/scb/cy_scb_uart.h **** #define CY_SCB_UART_TRANSMIT_NACK      (SCB_INTR_TX_UART_NACK_Msk)
 904:Generated_Source\PSoC6\pdl\drivers/peripheral/scb/cy_scb_uart.h **** 
 905:Generated_Source\PSoC6\pdl\drivers/peripheral/scb/cy_scb_uart.h **** /** SmartCard only: the transmitter lost arbitration */
 906:Generated_Source\PSoC6\pdl\drivers/peripheral/scb/cy_scb_uart.h **** #define CY_SCB_UART_TRANSMIT_ARB_LOST  (SCB_INTR_TX_UART_ARB_LOST_Msk)
 907:Generated_Source\PSoC6\pdl\drivers/peripheral/scb/cy_scb_uart.h **** /** \} group_scb_uart_macros_transmit_status */
 908:Generated_Source\PSoC6\pdl\drivers/peripheral/scb/cy_scb_uart.h **** 
 909:Generated_Source\PSoC6\pdl\drivers/peripheral/scb/cy_scb_uart.h **** /**
 910:Generated_Source\PSoC6\pdl\drivers/peripheral/scb/cy_scb_uart.h **** * \defgroup group_scb_uart_macros_callback_events UART Callback Events
 911:Generated_Source\PSoC6\pdl\drivers/peripheral/scb/cy_scb_uart.h **** * \{
 912:Generated_Source\PSoC6\pdl\drivers/peripheral/scb/cy_scb_uart.h **** * Macros to check UART events passed by \ref cy_cb_scb_uart_handle_events_t callback.
 913:Generated_Source\PSoC6\pdl\drivers/peripheral/scb/cy_scb_uart.h **** * Note that only single event is notified by the callback when it is called.
 914:Generated_Source\PSoC6\pdl\drivers/peripheral/scb/cy_scb_uart.h **** */
 915:Generated_Source\PSoC6\pdl\drivers/peripheral/scb/cy_scb_uart.h **** 
 916:Generated_Source\PSoC6\pdl\drivers/peripheral/scb/cy_scb_uart.h **** /**
 917:Generated_Source\PSoC6\pdl\drivers/peripheral/scb/cy_scb_uart.h **** * All data elements specified by \ref Cy_SCB_UART_Transmit have been loaded
 918:Generated_Source\PSoC6\pdl\drivers/peripheral/scb/cy_scb_uart.h **** * into the TX FIFO
 919:Generated_Source\PSoC6\pdl\drivers/peripheral/scb/cy_scb_uart.h **** */
 920:Generated_Source\PSoC6\pdl\drivers/peripheral/scb/cy_scb_uart.h **** #define CY_SCB_UART_TRANSMIT_IN_FIFO_EVENT (0x01UL)
 921:Generated_Source\PSoC6\pdl\drivers/peripheral/scb/cy_scb_uart.h **** 
 922:Generated_Source\PSoC6\pdl\drivers/peripheral/scb/cy_scb_uart.h **** /** The transmit operation started by \ref Cy_SCB_UART_Transmit is complete */
 923:Generated_Source\PSoC6\pdl\drivers/peripheral/scb/cy_scb_uart.h **** #define CY_SCB_UART_TRANSMIT_DONE_EVENT    (0x02UL)
 924:Generated_Source\PSoC6\pdl\drivers/peripheral/scb/cy_scb_uart.h **** 
 925:Generated_Source\PSoC6\pdl\drivers/peripheral/scb/cy_scb_uart.h **** /** The receive operation started by \ref Cy_SCB_UART_Receive is complete */
 926:Generated_Source\PSoC6\pdl\drivers/peripheral/scb/cy_scb_uart.h **** #define CY_SCB_UART_RECEIVE_DONE_EVENT     (0x04UL)
 927:Generated_Source\PSoC6\pdl\drivers/peripheral/scb/cy_scb_uart.h **** 
 928:Generated_Source\PSoC6\pdl\drivers/peripheral/scb/cy_scb_uart.h **** /**
 929:Generated_Source\PSoC6\pdl\drivers/peripheral/scb/cy_scb_uart.h **** * The ring buffer is full, there is no more space for additional data.
 930:Generated_Source\PSoC6\pdl\drivers/peripheral/scb/cy_scb_uart.h **** * Additional data is stored in the RX FIFO until it becomes full, at which
 931:Generated_Source\PSoC6\pdl\drivers/peripheral/scb/cy_scb_uart.h **** * point data is dropped.
 932:Generated_Source\PSoC6\pdl\drivers/peripheral/scb/cy_scb_uart.h **** */
 933:Generated_Source\PSoC6\pdl\drivers/peripheral/scb/cy_scb_uart.h **** #define CY_SCB_UART_RB_FULL_EVENT          (0x08UL)
 934:Generated_Source\PSoC6\pdl\drivers/peripheral/scb/cy_scb_uart.h **** 
 935:Generated_Source\PSoC6\pdl\drivers/peripheral/scb/cy_scb_uart.h **** /**
 936:Generated_Source\PSoC6\pdl\drivers/peripheral/scb/cy_scb_uart.h **** * An error was detected during the receive operation. This includes overflow,
 937:Generated_Source\PSoC6\pdl\drivers/peripheral/scb/cy_scb_uart.h **** * frame error, or parity error. Check \ref Cy_SCB_UART_GetReceiveStatus to
 938:Generated_Source\PSoC6\pdl\drivers/peripheral/scb/cy_scb_uart.h **** * determine the source of the error.
 939:Generated_Source\PSoC6\pdl\drivers/peripheral/scb/cy_scb_uart.h **** */
 940:Generated_Source\PSoC6\pdl\drivers/peripheral/scb/cy_scb_uart.h **** #define CY_SCB_UART_RECEIVE_ERR_EVENT      (0x10UL)
 941:Generated_Source\PSoC6\pdl\drivers/peripheral/scb/cy_scb_uart.h **** 
 942:Generated_Source\PSoC6\pdl\drivers/peripheral/scb/cy_scb_uart.h **** /**
 943:Generated_Source\PSoC6\pdl\drivers/peripheral/scb/cy_scb_uart.h **** * An error was detected during the transmit operation. This includes a NACK
 944:Generated_Source\PSoC6\pdl\drivers/peripheral/scb/cy_scb_uart.h **** * or lost arbitration. Check \ref Cy_SCB_UART_GetTransmitStatus to determine
 945:Generated_Source\PSoC6\pdl\drivers/peripheral/scb/cy_scb_uart.h **** * the source of the error
 946:Generated_Source\PSoC6\pdl\drivers/peripheral/scb/cy_scb_uart.h **** */
 947:Generated_Source\PSoC6\pdl\drivers/peripheral/scb/cy_scb_uart.h **** #define CY_SCB_UART_TRANSMIT_ERR_EVENT     (0x20UL)
 948:Generated_Source\PSoC6\pdl\drivers/peripheral/scb/cy_scb_uart.h **** /** \} group_scb_uart_macros_callback_events */
 949:Generated_Source\PSoC6\pdl\drivers/peripheral/scb/cy_scb_uart.h **** 
 950:Generated_Source\PSoC6\pdl\drivers/peripheral/scb/cy_scb_uart.h **** /** Data returned by the hardware when an empty RX FIFO is read */
 951:Generated_Source\PSoC6\pdl\drivers/peripheral/scb/cy_scb_uart.h **** #define CY_SCB_UART_RX_NO_DATA         (0xFFFFFFFFUL)
 952:Generated_Source\PSoC6\pdl\drivers/peripheral/scb/cy_scb_uart.h **** 
 953:Generated_Source\PSoC6\pdl\drivers/peripheral/scb/cy_scb_uart.h **** 
ARM GAS  C:\Users\user\AppData\Local\Temp\ccJR9XQi.s 			page 23


 954:Generated_Source\PSoC6\pdl\drivers/peripheral/scb/cy_scb_uart.h **** /*******************************************************************************
 955:Generated_Source\PSoC6\pdl\drivers/peripheral/scb/cy_scb_uart.h **** *                            Internal Constants
 956:Generated_Source\PSoC6\pdl\drivers/peripheral/scb/cy_scb_uart.h **** *******************************************************************************/
 957:Generated_Source\PSoC6\pdl\drivers/peripheral/scb/cy_scb_uart.h **** 
 958:Generated_Source\PSoC6\pdl\drivers/peripheral/scb/cy_scb_uart.h **** /** \cond INTERNAL */
 959:Generated_Source\PSoC6\pdl\drivers/peripheral/scb/cy_scb_uart.h **** #define CY_SCB_UART_TX_INTR_MASK    (CY_SCB_UART_TX_TRIGGER  | CY_SCB_UART_TX_NOT_FULL  | CY_SCB_UA
 960:Generated_Source\PSoC6\pdl\drivers/peripheral/scb/cy_scb_uart.h ****                                      CY_SCB_UART_TX_OVERFLOW | CY_SCB_UART_TX_UNDERFLOW | CY_SCB_UA
 961:Generated_Source\PSoC6\pdl\drivers/peripheral/scb/cy_scb_uart.h ****                                      CY_SCB_UART_TX_NACK     | CY_SCB_UART_TX_ARB_LOST)
 962:Generated_Source\PSoC6\pdl\drivers/peripheral/scb/cy_scb_uart.h **** 
 963:Generated_Source\PSoC6\pdl\drivers/peripheral/scb/cy_scb_uart.h **** #define CY_SCB_UART_RX_INTR_MASK    (CY_SCB_UART_RX_TRIGGER    | CY_SCB_UART_RX_NOT_EMPTY | CY_SCB_
 964:Generated_Source\PSoC6\pdl\drivers/peripheral/scb/cy_scb_uart.h ****                                      CY_SCB_UART_RX_OVERFLOW   | CY_SCB_UART_RX_UNDERFLOW | CY_SCB_
 965:Generated_Source\PSoC6\pdl\drivers/peripheral/scb/cy_scb_uart.h ****                                      CY_SCB_UART_RX_ERR_PARITY | CY_SCB_UART_RX_BREAK_DETECT)
 966:Generated_Source\PSoC6\pdl\drivers/peripheral/scb/cy_scb_uart.h **** 
 967:Generated_Source\PSoC6\pdl\drivers/peripheral/scb/cy_scb_uart.h **** #define CY_SCB_UART_TX_INTR        (CY_SCB_TX_INTR_LEVEL | CY_SCB_TX_INTR_UART_NACK | CY_SCB_TX_INT
 968:Generated_Source\PSoC6\pdl\drivers/peripheral/scb/cy_scb_uart.h **** 
 969:Generated_Source\PSoC6\pdl\drivers/peripheral/scb/cy_scb_uart.h **** #define CY_SCB_UART_RX_INTR        (CY_SCB_RX_INTR_LEVEL | CY_SCB_RX_INTR_OVERFLOW | CY_SCB_RX_INTR
 970:Generated_Source\PSoC6\pdl\drivers/peripheral/scb/cy_scb_uart.h ****                                     CY_SCB_RX_INTR_UART_PARITY_ERROR | CY_SCB_RX_INTR_UART_BREAK_DE
 971:Generated_Source\PSoC6\pdl\drivers/peripheral/scb/cy_scb_uart.h **** 
 972:Generated_Source\PSoC6\pdl\drivers/peripheral/scb/cy_scb_uart.h **** #define CY_SCB_UART_RECEIVE_ERR    (CY_SCB_RX_INTR_OVERFLOW | CY_SCB_RX_INTR_UART_FRAME_ERROR | \
 973:Generated_Source\PSoC6\pdl\drivers/peripheral/scb/cy_scb_uart.h ****                                     CY_SCB_RX_INTR_UART_PARITY_ERROR)
 974:Generated_Source\PSoC6\pdl\drivers/peripheral/scb/cy_scb_uart.h **** 
 975:Generated_Source\PSoC6\pdl\drivers/peripheral/scb/cy_scb_uart.h **** #define CY_SCB_UART_TRANSMIT_ERR   (CY_SCB_TX_INTR_UART_NACK | CY_SCB_TX_INTR_UART_ARB_LOST)
 976:Generated_Source\PSoC6\pdl\drivers/peripheral/scb/cy_scb_uart.h **** 
 977:Generated_Source\PSoC6\pdl\drivers/peripheral/scb/cy_scb_uart.h **** #define CY_SCB_UART_INIT_KEY       (0x00ABCDEFUL)
 978:Generated_Source\PSoC6\pdl\drivers/peripheral/scb/cy_scb_uart.h **** 
 979:Generated_Source\PSoC6\pdl\drivers/peripheral/scb/cy_scb_uart.h **** #define CY_SCB_UART_IS_MODE_VALID(mode)     ( (CY_SCB_UART_STANDARD  == (mode)) || \
 980:Generated_Source\PSoC6\pdl\drivers/peripheral/scb/cy_scb_uart.h ****                                               (CY_SCB_UART_SMARTCARD == (mode)) || \
 981:Generated_Source\PSoC6\pdl\drivers/peripheral/scb/cy_scb_uart.h ****                                               (CY_SCB_UART_IRDA      == (mode)) )
 982:Generated_Source\PSoC6\pdl\drivers/peripheral/scb/cy_scb_uart.h **** 
 983:Generated_Source\PSoC6\pdl\drivers/peripheral/scb/cy_scb_uart.h **** #define CY_SCB_UART_IS_STOP_BITS_VALID(stopBits)    ( (CY_SCB_UART_STOP_BITS_1   == (stopBits)) || 
 984:Generated_Source\PSoC6\pdl\drivers/peripheral/scb/cy_scb_uart.h ****                                                       (CY_SCB_UART_STOP_BITS_1_5 == (stopBits)) || 
 985:Generated_Source\PSoC6\pdl\drivers/peripheral/scb/cy_scb_uart.h ****                                                       (CY_SCB_UART_STOP_BITS_2   == (stopBits)) || 
 986:Generated_Source\PSoC6\pdl\drivers/peripheral/scb/cy_scb_uart.h ****                                                       (CY_SCB_UART_STOP_BITS_2_5 == (stopBits)) || 
 987:Generated_Source\PSoC6\pdl\drivers/peripheral/scb/cy_scb_uart.h ****                                                       (CY_SCB_UART_STOP_BITS_3   == (stopBits)) || 
 988:Generated_Source\PSoC6\pdl\drivers/peripheral/scb/cy_scb_uart.h ****                                                       (CY_SCB_UART_STOP_BITS_3_5 == (stopBits)) || 
 989:Generated_Source\PSoC6\pdl\drivers/peripheral/scb/cy_scb_uart.h ****                                                       (CY_SCB_UART_STOP_BITS_4   == (stopBits)) )
 990:Generated_Source\PSoC6\pdl\drivers/peripheral/scb/cy_scb_uart.h **** 
 991:Generated_Source\PSoC6\pdl\drivers/peripheral/scb/cy_scb_uart.h **** #define CY_SCB_UART_IS_PARITY_VALID(parity)         ( (CY_SCB_UART_PARITY_NONE == (parity)) || \
 992:Generated_Source\PSoC6\pdl\drivers/peripheral/scb/cy_scb_uart.h ****                                                       (CY_SCB_UART_PARITY_EVEN == (parity)) || \
 993:Generated_Source\PSoC6\pdl\drivers/peripheral/scb/cy_scb_uart.h ****                                                       (CY_SCB_UART_PARITY_ODD  == (parity)) )
 994:Generated_Source\PSoC6\pdl\drivers/peripheral/scb/cy_scb_uart.h **** 
 995:Generated_Source\PSoC6\pdl\drivers/peripheral/scb/cy_scb_uart.h **** #define CY_SCB_UART_IS_POLARITY_VALID(polarity)     ( (CY_SCB_UART_ACTIVE_LOW  == (polarity)) || \
 996:Generated_Source\PSoC6\pdl\drivers/peripheral/scb/cy_scb_uart.h ****                                                       (CY_SCB_UART_ACTIVE_HIGH == (polarity)) )
 997:Generated_Source\PSoC6\pdl\drivers/peripheral/scb/cy_scb_uart.h **** 
 998:Generated_Source\PSoC6\pdl\drivers/peripheral/scb/cy_scb_uart.h **** #define CY_SCB_UART_IS_IRDA_LP_OVS_VALID(ovs)       ( (CY_SCB_UART_IRDA_LP_OVS16   == (ovs)) || \
 999:Generated_Source\PSoC6\pdl\drivers/peripheral/scb/cy_scb_uart.h ****                                                       (CY_SCB_UART_IRDA_LP_OVS32   == (ovs)) || \
1000:Generated_Source\PSoC6\pdl\drivers/peripheral/scb/cy_scb_uart.h ****                                                       (CY_SCB_UART_IRDA_LP_OVS48   == (ovs)) || \
1001:Generated_Source\PSoC6\pdl\drivers/peripheral/scb/cy_scb_uart.h ****                                                       (CY_SCB_UART_IRDA_LP_OVS96   == (ovs)) || \
1002:Generated_Source\PSoC6\pdl\drivers/peripheral/scb/cy_scb_uart.h ****                                                       (CY_SCB_UART_IRDA_LP_OVS192  == (ovs)) || \
1003:Generated_Source\PSoC6\pdl\drivers/peripheral/scb/cy_scb_uart.h ****                                                       (CY_SCB_UART_IRDA_LP_OVS768  == (ovs)) || \
1004:Generated_Source\PSoC6\pdl\drivers/peripheral/scb/cy_scb_uart.h ****                                                       (CY_SCB_UART_IRDA_LP_OVS1536 == (ovs)) )
1005:Generated_Source\PSoC6\pdl\drivers/peripheral/scb/cy_scb_uart.h **** 
1006:Generated_Source\PSoC6\pdl\drivers/peripheral/scb/cy_scb_uart.h **** #define CY_SCB_UART_IS_ADDRESS_VALID(addr)          ((addr) <= 0xFFUL)
1007:Generated_Source\PSoC6\pdl\drivers/peripheral/scb/cy_scb_uart.h **** #define CY_SCB_UART_IS_ADDRESS_MASK_VALID(mask)     ((mask) <= 0xFFUL)
1008:Generated_Source\PSoC6\pdl\drivers/peripheral/scb/cy_scb_uart.h **** #define CY_SCB_UART_IS_DATA_WIDTH_VALID(width)      ( ((width) >= 5UL) && ((width) <= 9UL) )
1009:Generated_Source\PSoC6\pdl\drivers/peripheral/scb/cy_scb_uart.h **** #define CY_SCB_UART_IS_OVERSAMPLE_VALID(ovs, mode, lpRx)    ( ((CY_SCB_UART_STANDARD  == (mode)) ||
1010:Generated_Source\PSoC6\pdl\drivers/peripheral/scb/cy_scb_uart.h ****                                                               (((ovs) >= 8UL) && ((ovs) <= 16UL)) :
ARM GAS  C:\Users\user\AppData\Local\Temp\ccJR9XQi.s 			page 24


1011:Generated_Source\PSoC6\pdl\drivers/peripheral/scb/cy_scb_uart.h ****                                                               ((lpRx) ? CY_SCB_UART_IS_IRDA_LP_OVS_
1012:Generated_Source\PSoC6\pdl\drivers/peripheral/scb/cy_scb_uart.h **** 
1013:Generated_Source\PSoC6\pdl\drivers/peripheral/scb/cy_scb_uart.h **** #define CY_SCB_UART_IS_RX_BREAK_WIDTH_VALID(base, width)    ( ((width) >= (_FLD2VAL(SCB_RX_CTRL_DAT
1014:Generated_Source\PSoC6\pdl\drivers/peripheral/scb/cy_scb_uart.h ****                                                               ((width) <= 16UL) )
1015:Generated_Source\PSoC6\pdl\drivers/peripheral/scb/cy_scb_uart.h **** #define CY_SCB_UART_IS_TX_BREAK_WIDTH_VALID(width)          ( ((width) >= 4UL) && ((width) <= 16UL)
1016:Generated_Source\PSoC6\pdl\drivers/peripheral/scb/cy_scb_uart.h **** 
1017:Generated_Source\PSoC6\pdl\drivers/peripheral/scb/cy_scb_uart.h **** #define CY_SCB_UART_IS_MUTLI_PROC_VALID(mp, mode, width, parity)    ( (mp) ? ((CY_SCB_UART_STANDARD
1018:Generated_Source\PSoC6\pdl\drivers/peripheral/scb/cy_scb_uart.h ****                                                                               (CY_SCB_UART_PARITY_N
1019:Generated_Source\PSoC6\pdl\drivers/peripheral/scb/cy_scb_uart.h **** /** \endcond */
1020:Generated_Source\PSoC6\pdl\drivers/peripheral/scb/cy_scb_uart.h **** 
1021:Generated_Source\PSoC6\pdl\drivers/peripheral/scb/cy_scb_uart.h **** /** \} group_scb_uart_macros */
1022:Generated_Source\PSoC6\pdl\drivers/peripheral/scb/cy_scb_uart.h **** 
1023:Generated_Source\PSoC6\pdl\drivers/peripheral/scb/cy_scb_uart.h **** 
1024:Generated_Source\PSoC6\pdl\drivers/peripheral/scb/cy_scb_uart.h **** /*******************************************************************************
1025:Generated_Source\PSoC6\pdl\drivers/peripheral/scb/cy_scb_uart.h **** *                    In-line Function Implementation
1026:Generated_Source\PSoC6\pdl\drivers/peripheral/scb/cy_scb_uart.h **** *******************************************************************************/
1027:Generated_Source\PSoC6\pdl\drivers/peripheral/scb/cy_scb_uart.h **** 
1028:Generated_Source\PSoC6\pdl\drivers/peripheral/scb/cy_scb_uart.h **** /**
1029:Generated_Source\PSoC6\pdl\drivers/peripheral/scb/cy_scb_uart.h **** * \addtogroup group_scb_uart_general_functions
1030:Generated_Source\PSoC6\pdl\drivers/peripheral/scb/cy_scb_uart.h **** * \{
1031:Generated_Source\PSoC6\pdl\drivers/peripheral/scb/cy_scb_uart.h **** */
1032:Generated_Source\PSoC6\pdl\drivers/peripheral/scb/cy_scb_uart.h **** 
1033:Generated_Source\PSoC6\pdl\drivers/peripheral/scb/cy_scb_uart.h **** /*******************************************************************************
1034:Generated_Source\PSoC6\pdl\drivers/peripheral/scb/cy_scb_uart.h **** * Function Name: Cy_SCB_UART_Enable
1035:Generated_Source\PSoC6\pdl\drivers/peripheral/scb/cy_scb_uart.h **** ****************************************************************************//**
1036:Generated_Source\PSoC6\pdl\drivers/peripheral/scb/cy_scb_uart.h **** *
1037:Generated_Source\PSoC6\pdl\drivers/peripheral/scb/cy_scb_uart.h **** * Enables the SCB block for the UART operation.
1038:Generated_Source\PSoC6\pdl\drivers/peripheral/scb/cy_scb_uart.h **** *
1039:Generated_Source\PSoC6\pdl\drivers/peripheral/scb/cy_scb_uart.h **** * \param base
1040:Generated_Source\PSoC6\pdl\drivers/peripheral/scb/cy_scb_uart.h **** * The pointer to the UART SCB instance.
1041:Generated_Source\PSoC6\pdl\drivers/peripheral/scb/cy_scb_uart.h **** *
1042:Generated_Source\PSoC6\pdl\drivers/peripheral/scb/cy_scb_uart.h **** *******************************************************************************/
1043:Generated_Source\PSoC6\pdl\drivers/peripheral/scb/cy_scb_uart.h **** __STATIC_INLINE void Cy_SCB_UART_Enable(CySCB_Type *base)
1044:Generated_Source\PSoC6\pdl\drivers/peripheral/scb/cy_scb_uart.h **** {
1045:Generated_Source\PSoC6\pdl\drivers/peripheral/scb/cy_scb_uart.h ****     SCB_CTRL(base) |= SCB_CTRL_ENABLED_Msk;
1046:Generated_Source\PSoC6\pdl\drivers/peripheral/scb/cy_scb_uart.h **** }
1047:Generated_Source\PSoC6\pdl\drivers/peripheral/scb/cy_scb_uart.h **** 
1048:Generated_Source\PSoC6\pdl\drivers/peripheral/scb/cy_scb_uart.h **** 
1049:Generated_Source\PSoC6\pdl\drivers/peripheral/scb/cy_scb_uart.h **** /*******************************************************************************
1050:Generated_Source\PSoC6\pdl\drivers/peripheral/scb/cy_scb_uart.h **** * Function Name: Cy_SCB_UART_EnableCts
1051:Generated_Source\PSoC6\pdl\drivers/peripheral/scb/cy_scb_uart.h **** ****************************************************************************//**
1052:Generated_Source\PSoC6\pdl\drivers/peripheral/scb/cy_scb_uart.h **** *
1053:Generated_Source\PSoC6\pdl\drivers/peripheral/scb/cy_scb_uart.h **** * Enables the Clear to Send (CTS) input for the UART. The UART will not transmit
1054:Generated_Source\PSoC6\pdl\drivers/peripheral/scb/cy_scb_uart.h **** * data while this signal is inactive.
1055:Generated_Source\PSoC6\pdl\drivers/peripheral/scb/cy_scb_uart.h **** *
1056:Generated_Source\PSoC6\pdl\drivers/peripheral/scb/cy_scb_uart.h **** * \param base
1057:Generated_Source\PSoC6\pdl\drivers/peripheral/scb/cy_scb_uart.h **** * The pointer to the UART SCB instance.
1058:Generated_Source\PSoC6\pdl\drivers/peripheral/scb/cy_scb_uart.h **** *
1059:Generated_Source\PSoC6\pdl\drivers/peripheral/scb/cy_scb_uart.h **** *******************************************************************************/
1060:Generated_Source\PSoC6\pdl\drivers/peripheral/scb/cy_scb_uart.h **** __STATIC_INLINE void Cy_SCB_UART_EnableCts(CySCB_Type *base)
1061:Generated_Source\PSoC6\pdl\drivers/peripheral/scb/cy_scb_uart.h **** {
1062:Generated_Source\PSoC6\pdl\drivers/peripheral/scb/cy_scb_uart.h ****     SCB_UART_FLOW_CTRL(base) |= SCB_UART_FLOW_CTRL_CTS_ENABLED_Msk;
1063:Generated_Source\PSoC6\pdl\drivers/peripheral/scb/cy_scb_uart.h **** }
1064:Generated_Source\PSoC6\pdl\drivers/peripheral/scb/cy_scb_uart.h **** 
1065:Generated_Source\PSoC6\pdl\drivers/peripheral/scb/cy_scb_uart.h **** 
1066:Generated_Source\PSoC6\pdl\drivers/peripheral/scb/cy_scb_uart.h **** /*******************************************************************************
1067:Generated_Source\PSoC6\pdl\drivers/peripheral/scb/cy_scb_uart.h **** * Function Name: Cy_SCB_UART_DisableCts
ARM GAS  C:\Users\user\AppData\Local\Temp\ccJR9XQi.s 			page 25


1068:Generated_Source\PSoC6\pdl\drivers/peripheral/scb/cy_scb_uart.h **** ****************************************************************************//**
1069:Generated_Source\PSoC6\pdl\drivers/peripheral/scb/cy_scb_uart.h **** *
1070:Generated_Source\PSoC6\pdl\drivers/peripheral/scb/cy_scb_uart.h **** * Disables the Clear to Send (CTS) input for the UART.
1071:Generated_Source\PSoC6\pdl\drivers/peripheral/scb/cy_scb_uart.h **** * See \ref Cy_SCB_UART_EnableCts for the details.
1072:Generated_Source\PSoC6\pdl\drivers/peripheral/scb/cy_scb_uart.h **** *
1073:Generated_Source\PSoC6\pdl\drivers/peripheral/scb/cy_scb_uart.h **** * \param base
1074:Generated_Source\PSoC6\pdl\drivers/peripheral/scb/cy_scb_uart.h **** * The pointer to the UART SCB instance.
1075:Generated_Source\PSoC6\pdl\drivers/peripheral/scb/cy_scb_uart.h **** *
1076:Generated_Source\PSoC6\pdl\drivers/peripheral/scb/cy_scb_uart.h **** *******************************************************************************/
1077:Generated_Source\PSoC6\pdl\drivers/peripheral/scb/cy_scb_uart.h **** __STATIC_INLINE void Cy_SCB_UART_DisableCts(CySCB_Type *base)
1078:Generated_Source\PSoC6\pdl\drivers/peripheral/scb/cy_scb_uart.h **** {
1079:Generated_Source\PSoC6\pdl\drivers/peripheral/scb/cy_scb_uart.h ****     SCB_UART_FLOW_CTRL(base) &= (uint32_t) ~SCB_UART_FLOW_CTRL_CTS_ENABLED_Msk;
1080:Generated_Source\PSoC6\pdl\drivers/peripheral/scb/cy_scb_uart.h **** }
1081:Generated_Source\PSoC6\pdl\drivers/peripheral/scb/cy_scb_uart.h **** 
1082:Generated_Source\PSoC6\pdl\drivers/peripheral/scb/cy_scb_uart.h **** 
1083:Generated_Source\PSoC6\pdl\drivers/peripheral/scb/cy_scb_uart.h **** /*******************************************************************************
1084:Generated_Source\PSoC6\pdl\drivers/peripheral/scb/cy_scb_uart.h **** * Function Name: Cy_SCB_UART_SetRtsFifoLevel
1085:Generated_Source\PSoC6\pdl\drivers/peripheral/scb/cy_scb_uart.h **** ****************************************************************************//**
1086:Generated_Source\PSoC6\pdl\drivers/peripheral/scb/cy_scb_uart.h **** *
1087:Generated_Source\PSoC6\pdl\drivers/peripheral/scb/cy_scb_uart.h **** * Sets a level for the Ready To Send (RTS) signal activation.
1088:Generated_Source\PSoC6\pdl\drivers/peripheral/scb/cy_scb_uart.h **** * When the number of data elements in the receive FIFO is below this level,
1089:Generated_Source\PSoC6\pdl\drivers/peripheral/scb/cy_scb_uart.h **** * then the RTS output is active. Otherwise, the RTS signal is inactive.
1090:Generated_Source\PSoC6\pdl\drivers/peripheral/scb/cy_scb_uart.h **** * To disable the RTS signal generation, set this level to zero.
1091:Generated_Source\PSoC6\pdl\drivers/peripheral/scb/cy_scb_uart.h **** *
1092:Generated_Source\PSoC6\pdl\drivers/peripheral/scb/cy_scb_uart.h **** * \param base
1093:Generated_Source\PSoC6\pdl\drivers/peripheral/scb/cy_scb_uart.h **** * The pointer to the UART SCB instance.
1094:Generated_Source\PSoC6\pdl\drivers/peripheral/scb/cy_scb_uart.h **** *
1095:Generated_Source\PSoC6\pdl\drivers/peripheral/scb/cy_scb_uart.h **** * \param level
1096:Generated_Source\PSoC6\pdl\drivers/peripheral/scb/cy_scb_uart.h **** * The level in the RX FIFO for RTS signal activation.
1097:Generated_Source\PSoC6\pdl\drivers/peripheral/scb/cy_scb_uart.h **** *
1098:Generated_Source\PSoC6\pdl\drivers/peripheral/scb/cy_scb_uart.h **** *******************************************************************************/
1099:Generated_Source\PSoC6\pdl\drivers/peripheral/scb/cy_scb_uart.h **** __STATIC_INLINE void Cy_SCB_UART_SetRtsFifoLevel(CySCB_Type *base, uint32_t level)
1100:Generated_Source\PSoC6\pdl\drivers/peripheral/scb/cy_scb_uart.h **** {
1101:Generated_Source\PSoC6\pdl\drivers/peripheral/scb/cy_scb_uart.h ****     CY_ASSERT_L2(CY_SCB_IS_TRIGGER_LEVEL_VALID(base, level));
1102:Generated_Source\PSoC6\pdl\drivers/peripheral/scb/cy_scb_uart.h **** 
1103:Generated_Source\PSoC6\pdl\drivers/peripheral/scb/cy_scb_uart.h ****     CY_REG32_CLR_SET(SCB_UART_FLOW_CTRL(base), SCB_UART_FLOW_CTRL_TRIGGER_LEVEL, level);
1104:Generated_Source\PSoC6\pdl\drivers/peripheral/scb/cy_scb_uart.h **** }
1105:Generated_Source\PSoC6\pdl\drivers/peripheral/scb/cy_scb_uart.h **** 
1106:Generated_Source\PSoC6\pdl\drivers/peripheral/scb/cy_scb_uart.h **** 
1107:Generated_Source\PSoC6\pdl\drivers/peripheral/scb/cy_scb_uart.h **** /*******************************************************************************
1108:Generated_Source\PSoC6\pdl\drivers/peripheral/scb/cy_scb_uart.h **** * Function Name: Cy_SCB_UART_GetRtsFifoLevel
1109:Generated_Source\PSoC6\pdl\drivers/peripheral/scb/cy_scb_uart.h **** ****************************************************************************//**
1110:Generated_Source\PSoC6\pdl\drivers/peripheral/scb/cy_scb_uart.h **** *
1111:Generated_Source\PSoC6\pdl\drivers/peripheral/scb/cy_scb_uart.h **** * Returns the level in the RX FIFO for the RTS signal activation.
1112:Generated_Source\PSoC6\pdl\drivers/peripheral/scb/cy_scb_uart.h **** *
1113:Generated_Source\PSoC6\pdl\drivers/peripheral/scb/cy_scb_uart.h **** * \param base
1114:Generated_Source\PSoC6\pdl\drivers/peripheral/scb/cy_scb_uart.h **** * The pointer to the UART SCB instance.
1115:Generated_Source\PSoC6\pdl\drivers/peripheral/scb/cy_scb_uart.h **** *
1116:Generated_Source\PSoC6\pdl\drivers/peripheral/scb/cy_scb_uart.h **** * \return
1117:Generated_Source\PSoC6\pdl\drivers/peripheral/scb/cy_scb_uart.h **** * The level in the RX FIFO for RTS signal activation.
1118:Generated_Source\PSoC6\pdl\drivers/peripheral/scb/cy_scb_uart.h **** *
1119:Generated_Source\PSoC6\pdl\drivers/peripheral/scb/cy_scb_uart.h **** *******************************************************************************/
1120:Generated_Source\PSoC6\pdl\drivers/peripheral/scb/cy_scb_uart.h **** __STATIC_INLINE uint32_t Cy_SCB_UART_GetRtsFifoLevel(CySCB_Type const *base)
1121:Generated_Source\PSoC6\pdl\drivers/peripheral/scb/cy_scb_uart.h **** {
1122:Generated_Source\PSoC6\pdl\drivers/peripheral/scb/cy_scb_uart.h ****     return _FLD2VAL(SCB_UART_FLOW_CTRL_TRIGGER_LEVEL, SCB_UART_FLOW_CTRL(base));
1123:Generated_Source\PSoC6\pdl\drivers/peripheral/scb/cy_scb_uart.h **** }
1124:Generated_Source\PSoC6\pdl\drivers/peripheral/scb/cy_scb_uart.h **** 
ARM GAS  C:\Users\user\AppData\Local\Temp\ccJR9XQi.s 			page 26


1125:Generated_Source\PSoC6\pdl\drivers/peripheral/scb/cy_scb_uart.h **** 
1126:Generated_Source\PSoC6\pdl\drivers/peripheral/scb/cy_scb_uart.h **** /*******************************************************************************
1127:Generated_Source\PSoC6\pdl\drivers/peripheral/scb/cy_scb_uart.h **** * Function Name: Cy_SCB_UART_EnableSkipStart
1128:Generated_Source\PSoC6\pdl\drivers/peripheral/scb/cy_scb_uart.h **** ****************************************************************************//**
1129:Generated_Source\PSoC6\pdl\drivers/peripheral/scb/cy_scb_uart.h **** *
1130:Generated_Source\PSoC6\pdl\drivers/peripheral/scb/cy_scb_uart.h **** * Enables the skip start-bit functionality.
1131:Generated_Source\PSoC6\pdl\drivers/peripheral/scb/cy_scb_uart.h **** * When skip start is enabled the UART hardware does not synchronize to a 
1132:Generated_Source\PSoC6\pdl\drivers/peripheral/scb/cy_scb_uart.h **** * start bit but synchronizes to the first rising edge. To create a rising edge, 
1133:Generated_Source\PSoC6\pdl\drivers/peripheral/scb/cy_scb_uart.h **** * the first data bit must be a 1. This feature is useful when the start bit 
1134:Generated_Source\PSoC6\pdl\drivers/peripheral/scb/cy_scb_uart.h **** * falling edge is used to wake the device through a GPIO interrupt.
1135:Generated_Source\PSoC6\pdl\drivers/peripheral/scb/cy_scb_uart.h **** *
1136:Generated_Source\PSoC6\pdl\drivers/peripheral/scb/cy_scb_uart.h **** * \param base
1137:Generated_Source\PSoC6\pdl\drivers/peripheral/scb/cy_scb_uart.h **** * The pointer to the UART SCB instance.
1138:Generated_Source\PSoC6\pdl\drivers/peripheral/scb/cy_scb_uart.h **** *
1139:Generated_Source\PSoC6\pdl\drivers/peripheral/scb/cy_scb_uart.h **** * \note
1140:Generated_Source\PSoC6\pdl\drivers/peripheral/scb/cy_scb_uart.h **** * When skip start-bit feature is enabled, it is applied (UART synchronizes 
1141:Generated_Source\PSoC6\pdl\drivers/peripheral/scb/cy_scb_uart.h **** * to the first rising edge after start bit) whenever the SCB is enabled. 
1142:Generated_Source\PSoC6\pdl\drivers/peripheral/scb/cy_scb_uart.h **** * This can cause incorrect UART synchronization and data reception when 
1143:Generated_Source\PSoC6\pdl\drivers/peripheral/scb/cy_scb_uart.h **** * the first data bit is not a 1. Therefore, disable the skip start-bit 
1144:Generated_Source\PSoC6\pdl\drivers/peripheral/scb/cy_scb_uart.h **** * when it should not be applied.
1145:Generated_Source\PSoC6\pdl\drivers/peripheral/scb/cy_scb_uart.h **** * Note that SCB is disabled before enter Deep Sleep mode or after calling 
1146:Generated_Source\PSoC6\pdl\drivers/peripheral/scb/cy_scb_uart.h **** * \ref Cy_SCB_UART_Disable.
1147:Generated_Source\PSoC6\pdl\drivers/peripheral/scb/cy_scb_uart.h **** *
1148:Generated_Source\PSoC6\pdl\drivers/peripheral/scb/cy_scb_uart.h **** *******************************************************************************/
1149:Generated_Source\PSoC6\pdl\drivers/peripheral/scb/cy_scb_uart.h **** __STATIC_INLINE void Cy_SCB_UART_EnableSkipStart(CySCB_Type *base)
1150:Generated_Source\PSoC6\pdl\drivers/peripheral/scb/cy_scb_uart.h **** {
1151:Generated_Source\PSoC6\pdl\drivers/peripheral/scb/cy_scb_uart.h ****     SCB_UART_RX_CTRL(base) |= SCB_UART_RX_CTRL_SKIP_START_Msk;
1152:Generated_Source\PSoC6\pdl\drivers/peripheral/scb/cy_scb_uart.h **** }
1153:Generated_Source\PSoC6\pdl\drivers/peripheral/scb/cy_scb_uart.h **** 
1154:Generated_Source\PSoC6\pdl\drivers/peripheral/scb/cy_scb_uart.h **** 
1155:Generated_Source\PSoC6\pdl\drivers/peripheral/scb/cy_scb_uart.h **** /*******************************************************************************
1156:Generated_Source\PSoC6\pdl\drivers/peripheral/scb/cy_scb_uart.h **** * Function Name: Cy_SCB_UART_DisableSkipStart
1157:Generated_Source\PSoC6\pdl\drivers/peripheral/scb/cy_scb_uart.h **** ****************************************************************************//**
1158:Generated_Source\PSoC6\pdl\drivers/peripheral/scb/cy_scb_uart.h **** *
1159:Generated_Source\PSoC6\pdl\drivers/peripheral/scb/cy_scb_uart.h **** * Disable the skip start-bit functionality.
1160:Generated_Source\PSoC6\pdl\drivers/peripheral/scb/cy_scb_uart.h **** * See \ref Cy_SCB_UART_EnableSkipStart for the details.
1161:Generated_Source\PSoC6\pdl\drivers/peripheral/scb/cy_scb_uart.h **** *
1162:Generated_Source\PSoC6\pdl\drivers/peripheral/scb/cy_scb_uart.h **** * \param base
1163:Generated_Source\PSoC6\pdl\drivers/peripheral/scb/cy_scb_uart.h **** * The pointer to the UART SCB instance.
1164:Generated_Source\PSoC6\pdl\drivers/peripheral/scb/cy_scb_uart.h **** *
1165:Generated_Source\PSoC6\pdl\drivers/peripheral/scb/cy_scb_uart.h **** *******************************************************************************/
1166:Generated_Source\PSoC6\pdl\drivers/peripheral/scb/cy_scb_uart.h **** __STATIC_INLINE void Cy_SCB_UART_DisableSkipStart(CySCB_Type *base)
1167:Generated_Source\PSoC6\pdl\drivers/peripheral/scb/cy_scb_uart.h **** {
1168:Generated_Source\PSoC6\pdl\drivers/peripheral/scb/cy_scb_uart.h ****     SCB_UART_RX_CTRL(base) &= (uint32_t) ~SCB_UART_RX_CTRL_SKIP_START_Msk;
1169:Generated_Source\PSoC6\pdl\drivers/peripheral/scb/cy_scb_uart.h **** }
1170:Generated_Source\PSoC6\pdl\drivers/peripheral/scb/cy_scb_uart.h **** /** \} group_scb_uart_general_functions */
1171:Generated_Source\PSoC6\pdl\drivers/peripheral/scb/cy_scb_uart.h **** 
1172:Generated_Source\PSoC6\pdl\drivers/peripheral/scb/cy_scb_uart.h **** 
1173:Generated_Source\PSoC6\pdl\drivers/peripheral/scb/cy_scb_uart.h **** /**
1174:Generated_Source\PSoC6\pdl\drivers/peripheral/scb/cy_scb_uart.h **** * \addtogroup group_scb_uart_low_level_functions
1175:Generated_Source\PSoC6\pdl\drivers/peripheral/scb/cy_scb_uart.h **** * \{
1176:Generated_Source\PSoC6\pdl\drivers/peripheral/scb/cy_scb_uart.h **** */
1177:Generated_Source\PSoC6\pdl\drivers/peripheral/scb/cy_scb_uart.h **** /*******************************************************************************
1178:Generated_Source\PSoC6\pdl\drivers/peripheral/scb/cy_scb_uart.h **** * Function Name: Cy_SCB_UART_Get
1179:Generated_Source\PSoC6\pdl\drivers/peripheral/scb/cy_scb_uart.h **** ****************************************************************************//**
1180:Generated_Source\PSoC6\pdl\drivers/peripheral/scb/cy_scb_uart.h **** *
1181:Generated_Source\PSoC6\pdl\drivers/peripheral/scb/cy_scb_uart.h **** * Reads a single data element from the UART RX FIFO.
ARM GAS  C:\Users\user\AppData\Local\Temp\ccJR9XQi.s 			page 27


1182:Generated_Source\PSoC6\pdl\drivers/peripheral/scb/cy_scb_uart.h **** * This function does not check whether the RX FIFO has data before reading it.
1183:Generated_Source\PSoC6\pdl\drivers/peripheral/scb/cy_scb_uart.h **** * If the RX FIFO is empty, the function returns \ref CY_SCB_UART_RX_NO_DATA.
1184:Generated_Source\PSoC6\pdl\drivers/peripheral/scb/cy_scb_uart.h **** *
1185:Generated_Source\PSoC6\pdl\drivers/peripheral/scb/cy_scb_uart.h **** * \param base
1186:Generated_Source\PSoC6\pdl\drivers/peripheral/scb/cy_scb_uart.h **** * The pointer to the UART SCB instance.
1187:Generated_Source\PSoC6\pdl\drivers/peripheral/scb/cy_scb_uart.h **** *
1188:Generated_Source\PSoC6\pdl\drivers/peripheral/scb/cy_scb_uart.h **** * \return
1189:Generated_Source\PSoC6\pdl\drivers/peripheral/scb/cy_scb_uart.h **** * Data from the RX FIFO.
1190:Generated_Source\PSoC6\pdl\drivers/peripheral/scb/cy_scb_uart.h **** * The data element size is defined by the configured data width.
1191:Generated_Source\PSoC6\pdl\drivers/peripheral/scb/cy_scb_uart.h **** *
1192:Generated_Source\PSoC6\pdl\drivers/peripheral/scb/cy_scb_uart.h **** *******************************************************************************/
1193:Generated_Source\PSoC6\pdl\drivers/peripheral/scb/cy_scb_uart.h **** __STATIC_INLINE uint32_t Cy_SCB_UART_Get(CySCB_Type const *base)
1194:Generated_Source\PSoC6\pdl\drivers/peripheral/scb/cy_scb_uart.h **** {
1195:Generated_Source\PSoC6\pdl\drivers/peripheral/scb/cy_scb_uart.h ****     return Cy_SCB_ReadRxFifo(base);
1196:Generated_Source\PSoC6\pdl\drivers/peripheral/scb/cy_scb_uart.h **** }
1197:Generated_Source\PSoC6\pdl\drivers/peripheral/scb/cy_scb_uart.h **** 
1198:Generated_Source\PSoC6\pdl\drivers/peripheral/scb/cy_scb_uart.h **** 
1199:Generated_Source\PSoC6\pdl\drivers/peripheral/scb/cy_scb_uart.h **** /*******************************************************************************
1200:Generated_Source\PSoC6\pdl\drivers/peripheral/scb/cy_scb_uart.h **** * Function Name: Cy_SCB_UART_GetArray
1201:Generated_Source\PSoC6\pdl\drivers/peripheral/scb/cy_scb_uart.h **** ****************************************************************************//**
1202:Generated_Source\PSoC6\pdl\drivers/peripheral/scb/cy_scb_uart.h **** *
1203:Generated_Source\PSoC6\pdl\drivers/peripheral/scb/cy_scb_uart.h **** * Reads an array of data out of the UART RX FIFO.
1204:Generated_Source\PSoC6\pdl\drivers/peripheral/scb/cy_scb_uart.h **** * This function does not block. It returns how many data elements were read
1205:Generated_Source\PSoC6\pdl\drivers/peripheral/scb/cy_scb_uart.h **** * from the RX FIFO.
1206:Generated_Source\PSoC6\pdl\drivers/peripheral/scb/cy_scb_uart.h **** *
1207:Generated_Source\PSoC6\pdl\drivers/peripheral/scb/cy_scb_uart.h **** * \param base
1208:Generated_Source\PSoC6\pdl\drivers/peripheral/scb/cy_scb_uart.h **** * The pointer to the UART SCB instance.
1209:Generated_Source\PSoC6\pdl\drivers/peripheral/scb/cy_scb_uart.h **** *
1210:Generated_Source\PSoC6\pdl\drivers/peripheral/scb/cy_scb_uart.h **** * \param buffer
1211:Generated_Source\PSoC6\pdl\drivers/peripheral/scb/cy_scb_uart.h **** * The pointer to the location to place the data read from the RX FIFO.
1212:Generated_Source\PSoC6\pdl\drivers/peripheral/scb/cy_scb_uart.h **** * The element size is defined by the data type, which depends on the configured
1213:Generated_Source\PSoC6\pdl\drivers/peripheral/scb/cy_scb_uart.h **** * data width.
1214:Generated_Source\PSoC6\pdl\drivers/peripheral/scb/cy_scb_uart.h **** *
1215:Generated_Source\PSoC6\pdl\drivers/peripheral/scb/cy_scb_uart.h **** * \param size
1216:Generated_Source\PSoC6\pdl\drivers/peripheral/scb/cy_scb_uart.h **** * The number of data elements to read from the RX FIFO.
1217:Generated_Source\PSoC6\pdl\drivers/peripheral/scb/cy_scb_uart.h **** *
1218:Generated_Source\PSoC6\pdl\drivers/peripheral/scb/cy_scb_uart.h **** * \return
1219:Generated_Source\PSoC6\pdl\drivers/peripheral/scb/cy_scb_uart.h **** * The number of data elements read from the RX FIFO.
1220:Generated_Source\PSoC6\pdl\drivers/peripheral/scb/cy_scb_uart.h **** *
1221:Generated_Source\PSoC6\pdl\drivers/peripheral/scb/cy_scb_uart.h **** *******************************************************************************/
1222:Generated_Source\PSoC6\pdl\drivers/peripheral/scb/cy_scb_uart.h **** __STATIC_INLINE uint32_t Cy_SCB_UART_GetArray(CySCB_Type const *base, void *buffer, uint32_t size)
1223:Generated_Source\PSoC6\pdl\drivers/peripheral/scb/cy_scb_uart.h **** {
1224:Generated_Source\PSoC6\pdl\drivers/peripheral/scb/cy_scb_uart.h ****     CY_ASSERT_L1(CY_SCB_IS_BUFFER_VALID(buffer, size));
1225:Generated_Source\PSoC6\pdl\drivers/peripheral/scb/cy_scb_uart.h **** 
1226:Generated_Source\PSoC6\pdl\drivers/peripheral/scb/cy_scb_uart.h ****     return Cy_SCB_ReadArray(base, buffer, size);
1227:Generated_Source\PSoC6\pdl\drivers/peripheral/scb/cy_scb_uart.h **** }
1228:Generated_Source\PSoC6\pdl\drivers/peripheral/scb/cy_scb_uart.h **** 
1229:Generated_Source\PSoC6\pdl\drivers/peripheral/scb/cy_scb_uart.h **** 
1230:Generated_Source\PSoC6\pdl\drivers/peripheral/scb/cy_scb_uart.h **** /*******************************************************************************
1231:Generated_Source\PSoC6\pdl\drivers/peripheral/scb/cy_scb_uart.h **** * Function Name: Cy_SCB_UART_GetArrayBlocking
1232:Generated_Source\PSoC6\pdl\drivers/peripheral/scb/cy_scb_uart.h **** ****************************************************************************//**
1233:Generated_Source\PSoC6\pdl\drivers/peripheral/scb/cy_scb_uart.h **** *
1234:Generated_Source\PSoC6\pdl\drivers/peripheral/scb/cy_scb_uart.h **** * Reads an array of data out of the UART RX FIFO.
1235:Generated_Source\PSoC6\pdl\drivers/peripheral/scb/cy_scb_uart.h **** * This function blocks until the number of data elements specified by the
1236:Generated_Source\PSoC6\pdl\drivers/peripheral/scb/cy_scb_uart.h **** * size has been read from the RX FIFO.
1237:Generated_Source\PSoC6\pdl\drivers/peripheral/scb/cy_scb_uart.h **** *
1238:Generated_Source\PSoC6\pdl\drivers/peripheral/scb/cy_scb_uart.h **** * \param base
ARM GAS  C:\Users\user\AppData\Local\Temp\ccJR9XQi.s 			page 28


1239:Generated_Source\PSoC6\pdl\drivers/peripheral/scb/cy_scb_uart.h **** * The pointer to the UART SCB instance.
1240:Generated_Source\PSoC6\pdl\drivers/peripheral/scb/cy_scb_uart.h **** *
1241:Generated_Source\PSoC6\pdl\drivers/peripheral/scb/cy_scb_uart.h **** * \param buffer
1242:Generated_Source\PSoC6\pdl\drivers/peripheral/scb/cy_scb_uart.h **** * The pointer to the location to place the data read from the RX FIFO.
1243:Generated_Source\PSoC6\pdl\drivers/peripheral/scb/cy_scb_uart.h **** * The element size is defined by the data type, which depends on the configured
1244:Generated_Source\PSoC6\pdl\drivers/peripheral/scb/cy_scb_uart.h **** * data width.
1245:Generated_Source\PSoC6\pdl\drivers/peripheral/scb/cy_scb_uart.h **** *
1246:Generated_Source\PSoC6\pdl\drivers/peripheral/scb/cy_scb_uart.h **** * \param size
1247:Generated_Source\PSoC6\pdl\drivers/peripheral/scb/cy_scb_uart.h **** * The number of data elements to read from the RX FIFO.
1248:Generated_Source\PSoC6\pdl\drivers/peripheral/scb/cy_scb_uart.h **** *
1249:Generated_Source\PSoC6\pdl\drivers/peripheral/scb/cy_scb_uart.h **** *******************************************************************************/
1250:Generated_Source\PSoC6\pdl\drivers/peripheral/scb/cy_scb_uart.h **** __STATIC_INLINE void Cy_SCB_UART_GetArrayBlocking(CySCB_Type const *base, void *buffer, uint32_t si
1251:Generated_Source\PSoC6\pdl\drivers/peripheral/scb/cy_scb_uart.h **** {
1252:Generated_Source\PSoC6\pdl\drivers/peripheral/scb/cy_scb_uart.h ****     CY_ASSERT_L1(CY_SCB_IS_BUFFER_VALID(buffer, size));
1253:Generated_Source\PSoC6\pdl\drivers/peripheral/scb/cy_scb_uart.h **** 
1254:Generated_Source\PSoC6\pdl\drivers/peripheral/scb/cy_scb_uart.h ****     Cy_SCB_ReadArrayBlocking(base, buffer, size);
1255:Generated_Source\PSoC6\pdl\drivers/peripheral/scb/cy_scb_uart.h **** }
1256:Generated_Source\PSoC6\pdl\drivers/peripheral/scb/cy_scb_uart.h **** 
1257:Generated_Source\PSoC6\pdl\drivers/peripheral/scb/cy_scb_uart.h **** 
1258:Generated_Source\PSoC6\pdl\drivers/peripheral/scb/cy_scb_uart.h **** /*******************************************************************************
1259:Generated_Source\PSoC6\pdl\drivers/peripheral/scb/cy_scb_uart.h **** * Function Name: Cy_SCB_UART_GetRxFifoStatus
1260:Generated_Source\PSoC6\pdl\drivers/peripheral/scb/cy_scb_uart.h **** ****************************************************************************//**
1261:Generated_Source\PSoC6\pdl\drivers/peripheral/scb/cy_scb_uart.h **** *
1262:Generated_Source\PSoC6\pdl\drivers/peripheral/scb/cy_scb_uart.h **** * Returns the current status of the RX FIFO.
1263:Generated_Source\PSoC6\pdl\drivers/peripheral/scb/cy_scb_uart.h **** *
1264:Generated_Source\PSoC6\pdl\drivers/peripheral/scb/cy_scb_uart.h **** * \param base
1265:Generated_Source\PSoC6\pdl\drivers/peripheral/scb/cy_scb_uart.h **** * The pointer to the UART SCB instance.
1266:Generated_Source\PSoC6\pdl\drivers/peripheral/scb/cy_scb_uart.h **** *
1267:Generated_Source\PSoC6\pdl\drivers/peripheral/scb/cy_scb_uart.h **** * \return
1268:Generated_Source\PSoC6\pdl\drivers/peripheral/scb/cy_scb_uart.h **** * \ref group_scb_uart_macros_rx_fifo_status
1269:Generated_Source\PSoC6\pdl\drivers/peripheral/scb/cy_scb_uart.h **** *
1270:Generated_Source\PSoC6\pdl\drivers/peripheral/scb/cy_scb_uart.h **** *******************************************************************************/
1271:Generated_Source\PSoC6\pdl\drivers/peripheral/scb/cy_scb_uart.h **** __STATIC_INLINE uint32_t Cy_SCB_UART_GetRxFifoStatus(CySCB_Type const *base)
1272:Generated_Source\PSoC6\pdl\drivers/peripheral/scb/cy_scb_uart.h **** {
1273:Generated_Source\PSoC6\pdl\drivers/peripheral/scb/cy_scb_uart.h ****     return (Cy_SCB_GetRxInterruptStatus(base) & CY_SCB_UART_RX_INTR_MASK);
1274:Generated_Source\PSoC6\pdl\drivers/peripheral/scb/cy_scb_uart.h **** }
1275:Generated_Source\PSoC6\pdl\drivers/peripheral/scb/cy_scb_uart.h **** 
1276:Generated_Source\PSoC6\pdl\drivers/peripheral/scb/cy_scb_uart.h **** 
1277:Generated_Source\PSoC6\pdl\drivers/peripheral/scb/cy_scb_uart.h **** /*******************************************************************************
1278:Generated_Source\PSoC6\pdl\drivers/peripheral/scb/cy_scb_uart.h **** * Function Name: Cy_SCB_UART_ClearRxFifoStatus
1279:Generated_Source\PSoC6\pdl\drivers/peripheral/scb/cy_scb_uart.h **** ****************************************************************************//**
1280:Generated_Source\PSoC6\pdl\drivers/peripheral/scb/cy_scb_uart.h **** *
1281:Generated_Source\PSoC6\pdl\drivers/peripheral/scb/cy_scb_uart.h **** * Clears the selected statuses of the RX FIFO.
1282:Generated_Source\PSoC6\pdl\drivers/peripheral/scb/cy_scb_uart.h **** *
1283:Generated_Source\PSoC6\pdl\drivers/peripheral/scb/cy_scb_uart.h **** * \param base
1284:Generated_Source\PSoC6\pdl\drivers/peripheral/scb/cy_scb_uart.h **** * The pointer to the UART SCB instance.
1285:Generated_Source\PSoC6\pdl\drivers/peripheral/scb/cy_scb_uart.h **** *
1286:Generated_Source\PSoC6\pdl\drivers/peripheral/scb/cy_scb_uart.h **** * \param clearMask
1287:Generated_Source\PSoC6\pdl\drivers/peripheral/scb/cy_scb_uart.h **** * The mask whose statuses to clear.
1288:Generated_Source\PSoC6\pdl\drivers/peripheral/scb/cy_scb_uart.h **** * See \ref group_scb_uart_macros_rx_fifo_status for the set of constants.
1289:Generated_Source\PSoC6\pdl\drivers/peripheral/scb/cy_scb_uart.h **** *
1290:Generated_Source\PSoC6\pdl\drivers/peripheral/scb/cy_scb_uart.h **** * \note
1291:Generated_Source\PSoC6\pdl\drivers/peripheral/scb/cy_scb_uart.h **** * * This status is also used for interrupt generation, so clearing it also
1292:Generated_Source\PSoC6\pdl\drivers/peripheral/scb/cy_scb_uart.h **** *   clears the interrupt sources.
1293:Generated_Source\PSoC6\pdl\drivers/peripheral/scb/cy_scb_uart.h **** * * Level-sensitive statuses such as \ref CY_SCB_UART_RX_TRIGGER,
1294:Generated_Source\PSoC6\pdl\drivers/peripheral/scb/cy_scb_uart.h **** *   \ref CY_SCB_UART_RX_NOT_EMPTY and \ref CY_SCB_UART_RX_FULL are set high again after
1295:Generated_Source\PSoC6\pdl\drivers/peripheral/scb/cy_scb_uart.h **** *   being cleared if the condition remains true.
ARM GAS  C:\Users\user\AppData\Local\Temp\ccJR9XQi.s 			page 29


1296:Generated_Source\PSoC6\pdl\drivers/peripheral/scb/cy_scb_uart.h **** *
1297:Generated_Source\PSoC6\pdl\drivers/peripheral/scb/cy_scb_uart.h **** *******************************************************************************/
1298:Generated_Source\PSoC6\pdl\drivers/peripheral/scb/cy_scb_uart.h **** __STATIC_INLINE void Cy_SCB_UART_ClearRxFifoStatus(CySCB_Type *base, uint32_t clearMask)
1299:Generated_Source\PSoC6\pdl\drivers/peripheral/scb/cy_scb_uart.h **** {
1300:Generated_Source\PSoC6\pdl\drivers/peripheral/scb/cy_scb_uart.h ****     CY_ASSERT_L2(CY_SCB_IS_INTR_VALID(clearMask, CY_SCB_UART_RX_INTR_MASK));
1301:Generated_Source\PSoC6\pdl\drivers/peripheral/scb/cy_scb_uart.h **** 
1302:Generated_Source\PSoC6\pdl\drivers/peripheral/scb/cy_scb_uart.h ****     Cy_SCB_ClearRxInterrupt(base, clearMask);
1303:Generated_Source\PSoC6\pdl\drivers/peripheral/scb/cy_scb_uart.h **** }
1304:Generated_Source\PSoC6\pdl\drivers/peripheral/scb/cy_scb_uart.h **** 
1305:Generated_Source\PSoC6\pdl\drivers/peripheral/scb/cy_scb_uart.h **** 
1306:Generated_Source\PSoC6\pdl\drivers/peripheral/scb/cy_scb_uart.h **** /*******************************************************************************
1307:Generated_Source\PSoC6\pdl\drivers/peripheral/scb/cy_scb_uart.h **** * Function Name: Cy_SCB_UART_GetNumInRxFifo
1308:Generated_Source\PSoC6\pdl\drivers/peripheral/scb/cy_scb_uart.h **** ****************************************************************************//**
1309:Generated_Source\PSoC6\pdl\drivers/peripheral/scb/cy_scb_uart.h **** *
1310:Generated_Source\PSoC6\pdl\drivers/peripheral/scb/cy_scb_uart.h **** * Returns the number of data elements in the UART RX FIFO.
1311:Generated_Source\PSoC6\pdl\drivers/peripheral/scb/cy_scb_uart.h **** *
1312:Generated_Source\PSoC6\pdl\drivers/peripheral/scb/cy_scb_uart.h **** * \param base
1313:Generated_Source\PSoC6\pdl\drivers/peripheral/scb/cy_scb_uart.h **** * The pointer to the UART SCB instance.
1314:Generated_Source\PSoC6\pdl\drivers/peripheral/scb/cy_scb_uart.h **** *
1315:Generated_Source\PSoC6\pdl\drivers/peripheral/scb/cy_scb_uart.h **** * \return
1316:Generated_Source\PSoC6\pdl\drivers/peripheral/scb/cy_scb_uart.h **** * The number of data elements in the RX FIFO.
1317:Generated_Source\PSoC6\pdl\drivers/peripheral/scb/cy_scb_uart.h **** * The size of date element defined by the configured data width.
1318:Generated_Source\PSoC6\pdl\drivers/peripheral/scb/cy_scb_uart.h **** *
1319:Generated_Source\PSoC6\pdl\drivers/peripheral/scb/cy_scb_uart.h **** *******************************************************************************/
1320:Generated_Source\PSoC6\pdl\drivers/peripheral/scb/cy_scb_uart.h **** __STATIC_INLINE uint32_t Cy_SCB_UART_GetNumInRxFifo(CySCB_Type const *base)
1321:Generated_Source\PSoC6\pdl\drivers/peripheral/scb/cy_scb_uart.h **** {
1322:Generated_Source\PSoC6\pdl\drivers/peripheral/scb/cy_scb_uart.h ****     return Cy_SCB_GetNumInRxFifo(base);
1323:Generated_Source\PSoC6\pdl\drivers/peripheral/scb/cy_scb_uart.h **** }
1324:Generated_Source\PSoC6\pdl\drivers/peripheral/scb/cy_scb_uart.h **** 
1325:Generated_Source\PSoC6\pdl\drivers/peripheral/scb/cy_scb_uart.h **** /*******************************************************************************
1326:Generated_Source\PSoC6\pdl\drivers/peripheral/scb/cy_scb_uart.h **** * Function Name: Cy_SCB_UART_ClearRxFifo
1327:Generated_Source\PSoC6\pdl\drivers/peripheral/scb/cy_scb_uart.h **** ****************************************************************************//**
1328:Generated_Source\PSoC6\pdl\drivers/peripheral/scb/cy_scb_uart.h **** *
1329:Generated_Source\PSoC6\pdl\drivers/peripheral/scb/cy_scb_uart.h **** * Clears all data out of the UART RX FIFO.
1330:Generated_Source\PSoC6\pdl\drivers/peripheral/scb/cy_scb_uart.h **** *
1331:Generated_Source\PSoC6\pdl\drivers/peripheral/scb/cy_scb_uart.h **** * \param base
1332:Generated_Source\PSoC6\pdl\drivers/peripheral/scb/cy_scb_uart.h **** * The pointer to the UART SCB instance.
1333:Generated_Source\PSoC6\pdl\drivers/peripheral/scb/cy_scb_uart.h **** *
1334:Generated_Source\PSoC6\pdl\drivers/peripheral/scb/cy_scb_uart.h **** * \sideeffect
1335:Generated_Source\PSoC6\pdl\drivers/peripheral/scb/cy_scb_uart.h **** * Any data currently in the shifter is cleared and lost.
1336:Generated_Source\PSoC6\pdl\drivers/peripheral/scb/cy_scb_uart.h **** *
1337:Generated_Source\PSoC6\pdl\drivers/peripheral/scb/cy_scb_uart.h **** *******************************************************************************/
1338:Generated_Source\PSoC6\pdl\drivers/peripheral/scb/cy_scb_uart.h **** __STATIC_INLINE void Cy_SCB_UART_ClearRxFifo(CySCB_Type *base)
1339:Generated_Source\PSoC6\pdl\drivers/peripheral/scb/cy_scb_uart.h **** {
1340:Generated_Source\PSoC6\pdl\drivers/peripheral/scb/cy_scb_uart.h ****     Cy_SCB_ClearRxFifo(base);
1341:Generated_Source\PSoC6\pdl\drivers/peripheral/scb/cy_scb_uart.h **** }
1342:Generated_Source\PSoC6\pdl\drivers/peripheral/scb/cy_scb_uart.h **** 
1343:Generated_Source\PSoC6\pdl\drivers/peripheral/scb/cy_scb_uart.h **** 
1344:Generated_Source\PSoC6\pdl\drivers/peripheral/scb/cy_scb_uart.h **** /*******************************************************************************
1345:Generated_Source\PSoC6\pdl\drivers/peripheral/scb/cy_scb_uart.h **** * Function Name: Cy_SCB_UART_Put
1346:Generated_Source\PSoC6\pdl\drivers/peripheral/scb/cy_scb_uart.h **** ****************************************************************************//**
1347:Generated_Source\PSoC6\pdl\drivers/peripheral/scb/cy_scb_uart.h **** *
1348:Generated_Source\PSoC6\pdl\drivers/peripheral/scb/cy_scb_uart.h **** * Places a single data element in the UART TX FIFO.
1349:Generated_Source\PSoC6\pdl\drivers/peripheral/scb/cy_scb_uart.h **** * This function does not block and returns how many data elements were placed
1350:Generated_Source\PSoC6\pdl\drivers/peripheral/scb/cy_scb_uart.h **** * in the TX FIFO.
1351:Generated_Source\PSoC6\pdl\drivers/peripheral/scb/cy_scb_uart.h **** *
1352:Generated_Source\PSoC6\pdl\drivers/peripheral/scb/cy_scb_uart.h **** * \param base
ARM GAS  C:\Users\user\AppData\Local\Temp\ccJR9XQi.s 			page 30


1353:Generated_Source\PSoC6\pdl\drivers/peripheral/scb/cy_scb_uart.h **** * The pointer to the UART SCB instance.
1354:Generated_Source\PSoC6\pdl\drivers/peripheral/scb/cy_scb_uart.h **** *
1355:Generated_Source\PSoC6\pdl\drivers/peripheral/scb/cy_scb_uart.h **** * \param data
1356:Generated_Source\PSoC6\pdl\drivers/peripheral/scb/cy_scb_uart.h **** * Data to put in the TX FIFO.
1357:Generated_Source\PSoC6\pdl\drivers/peripheral/scb/cy_scb_uart.h **** * The element size is defined by the data type, which depends on the configured
1358:Generated_Source\PSoC6\pdl\drivers/peripheral/scb/cy_scb_uart.h **** * data width.
1359:Generated_Source\PSoC6\pdl\drivers/peripheral/scb/cy_scb_uart.h **** *
1360:Generated_Source\PSoC6\pdl\drivers/peripheral/scb/cy_scb_uart.h **** * \return
1361:Generated_Source\PSoC6\pdl\drivers/peripheral/scb/cy_scb_uart.h **** * The number of data elements placed in the TX FIFO: 0 or 1.
1362:Generated_Source\PSoC6\pdl\drivers/peripheral/scb/cy_scb_uart.h **** *
1363:Generated_Source\PSoC6\pdl\drivers/peripheral/scb/cy_scb_uart.h **** *******************************************************************************/
1364:Generated_Source\PSoC6\pdl\drivers/peripheral/scb/cy_scb_uart.h **** __STATIC_INLINE uint32_t Cy_SCB_UART_Put(CySCB_Type *base, uint32_t data)
1365:Generated_Source\PSoC6\pdl\drivers/peripheral/scb/cy_scb_uart.h **** {
1366:Generated_Source\PSoC6\pdl\drivers/peripheral/scb/cy_scb_uart.h ****     return Cy_SCB_Write(base, data);
1367:Generated_Source\PSoC6\pdl\drivers/peripheral/scb/cy_scb_uart.h **** }
1368:Generated_Source\PSoC6\pdl\drivers/peripheral/scb/cy_scb_uart.h **** 
1369:Generated_Source\PSoC6\pdl\drivers/peripheral/scb/cy_scb_uart.h **** 
1370:Generated_Source\PSoC6\pdl\drivers/peripheral/scb/cy_scb_uart.h **** /*******************************************************************************
1371:Generated_Source\PSoC6\pdl\drivers/peripheral/scb/cy_scb_uart.h **** * Function Name: Cy_SCB_UART_PutArray
1372:Generated_Source\PSoC6\pdl\drivers/peripheral/scb/cy_scb_uart.h **** ****************************************************************************//**
1373:Generated_Source\PSoC6\pdl\drivers/peripheral/scb/cy_scb_uart.h **** *
1374:Generated_Source\PSoC6\pdl\drivers/peripheral/scb/cy_scb_uart.h **** * Places an array of data in the UART TX FIFO.
1375:Generated_Source\PSoC6\pdl\drivers/peripheral/scb/cy_scb_uart.h **** * This function does not block. It returns how many data elements were
1376:Generated_Source\PSoC6\pdl\drivers/peripheral/scb/cy_scb_uart.h **** * placed in the TX FIFO.
1377:Generated_Source\PSoC6\pdl\drivers/peripheral/scb/cy_scb_uart.h **** *
1378:Generated_Source\PSoC6\pdl\drivers/peripheral/scb/cy_scb_uart.h **** * \param base
1379:Generated_Source\PSoC6\pdl\drivers/peripheral/scb/cy_scb_uart.h **** * The pointer to the UART SCB instance.
1380:Generated_Source\PSoC6\pdl\drivers/peripheral/scb/cy_scb_uart.h **** *
1381:Generated_Source\PSoC6\pdl\drivers/peripheral/scb/cy_scb_uart.h **** * \param buffer
1382:Generated_Source\PSoC6\pdl\drivers/peripheral/scb/cy_scb_uart.h **** * The pointer to data to place in the TX FIFO.
1383:Generated_Source\PSoC6\pdl\drivers/peripheral/scb/cy_scb_uart.h **** * The element size is defined by the data type, which depends on the configured
1384:Generated_Source\PSoC6\pdl\drivers/peripheral/scb/cy_scb_uart.h **** * TX data width.
1385:Generated_Source\PSoC6\pdl\drivers/peripheral/scb/cy_scb_uart.h **** *
1386:Generated_Source\PSoC6\pdl\drivers/peripheral/scb/cy_scb_uart.h **** * \param size
1387:Generated_Source\PSoC6\pdl\drivers/peripheral/scb/cy_scb_uart.h **** * The number of data elements to TX.
1388:Generated_Source\PSoC6\pdl\drivers/peripheral/scb/cy_scb_uart.h **** *
1389:Generated_Source\PSoC6\pdl\drivers/peripheral/scb/cy_scb_uart.h **** * \return
1390:Generated_Source\PSoC6\pdl\drivers/peripheral/scb/cy_scb_uart.h **** * The number of data elements placed in the TX FIFO.
1391:Generated_Source\PSoC6\pdl\drivers/peripheral/scb/cy_scb_uart.h **** *
1392:Generated_Source\PSoC6\pdl\drivers/peripheral/scb/cy_scb_uart.h **** *******************************************************************************/
1393:Generated_Source\PSoC6\pdl\drivers/peripheral/scb/cy_scb_uart.h **** __STATIC_INLINE uint32_t Cy_SCB_UART_PutArray(CySCB_Type *base, void *buffer, uint32_t size)
1394:Generated_Source\PSoC6\pdl\drivers/peripheral/scb/cy_scb_uart.h **** {
1395:Generated_Source\PSoC6\pdl\drivers/peripheral/scb/cy_scb_uart.h ****     CY_ASSERT_L1(CY_SCB_IS_BUFFER_VALID(buffer, size));
1396:Generated_Source\PSoC6\pdl\drivers/peripheral/scb/cy_scb_uart.h **** 
1397:Generated_Source\PSoC6\pdl\drivers/peripheral/scb/cy_scb_uart.h ****     return Cy_SCB_WriteArray(base, buffer, size);
1398:Generated_Source\PSoC6\pdl\drivers/peripheral/scb/cy_scb_uart.h **** }
1399:Generated_Source\PSoC6\pdl\drivers/peripheral/scb/cy_scb_uart.h **** 
1400:Generated_Source\PSoC6\pdl\drivers/peripheral/scb/cy_scb_uart.h **** 
1401:Generated_Source\PSoC6\pdl\drivers/peripheral/scb/cy_scb_uart.h **** /*******************************************************************************
1402:Generated_Source\PSoC6\pdl\drivers/peripheral/scb/cy_scb_uart.h **** * Function Name: Cy_SCB_UART_PutArrayBlocking
1403:Generated_Source\PSoC6\pdl\drivers/peripheral/scb/cy_scb_uart.h **** ****************************************************************************//**
1404:Generated_Source\PSoC6\pdl\drivers/peripheral/scb/cy_scb_uart.h **** *
1405:Generated_Source\PSoC6\pdl\drivers/peripheral/scb/cy_scb_uart.h **** * Places an array of data in the UART TX FIFO.
1406:Generated_Source\PSoC6\pdl\drivers/peripheral/scb/cy_scb_uart.h **** * This function blocks until the number of data elements specified by the size
1407:Generated_Source\PSoC6\pdl\drivers/peripheral/scb/cy_scb_uart.h **** * is placed in the TX FIFO.
1408:Generated_Source\PSoC6\pdl\drivers/peripheral/scb/cy_scb_uart.h **** *
1409:Generated_Source\PSoC6\pdl\drivers/peripheral/scb/cy_scb_uart.h **** * \param base
ARM GAS  C:\Users\user\AppData\Local\Temp\ccJR9XQi.s 			page 31


1410:Generated_Source\PSoC6\pdl\drivers/peripheral/scb/cy_scb_uart.h **** * The pointer to the UART SCB instance.
1411:Generated_Source\PSoC6\pdl\drivers/peripheral/scb/cy_scb_uart.h **** *
1412:Generated_Source\PSoC6\pdl\drivers/peripheral/scb/cy_scb_uart.h **** * \param buffer
1413:Generated_Source\PSoC6\pdl\drivers/peripheral/scb/cy_scb_uart.h **** * The pointer to data to place in the TX FIFO.
1414:Generated_Source\PSoC6\pdl\drivers/peripheral/scb/cy_scb_uart.h **** * The element size is defined by the data type, which depends on the configured
1415:Generated_Source\PSoC6\pdl\drivers/peripheral/scb/cy_scb_uart.h **** * data width.
1416:Generated_Source\PSoC6\pdl\drivers/peripheral/scb/cy_scb_uart.h **** *
1417:Generated_Source\PSoC6\pdl\drivers/peripheral/scb/cy_scb_uart.h **** * \param size
1418:Generated_Source\PSoC6\pdl\drivers/peripheral/scb/cy_scb_uart.h **** * The number of data elements to write into the TX FIFO.
1419:Generated_Source\PSoC6\pdl\drivers/peripheral/scb/cy_scb_uart.h **** *
1420:Generated_Source\PSoC6\pdl\drivers/peripheral/scb/cy_scb_uart.h **** *******************************************************************************/
1421:Generated_Source\PSoC6\pdl\drivers/peripheral/scb/cy_scb_uart.h **** __STATIC_INLINE void Cy_SCB_UART_PutArrayBlocking(CySCB_Type *base, void *buffer, uint32_t size)
1422:Generated_Source\PSoC6\pdl\drivers/peripheral/scb/cy_scb_uart.h **** {
1423:Generated_Source\PSoC6\pdl\drivers/peripheral/scb/cy_scb_uart.h ****     CY_ASSERT_L1(CY_SCB_IS_BUFFER_VALID(buffer, size));
1424:Generated_Source\PSoC6\pdl\drivers/peripheral/scb/cy_scb_uart.h **** 
1425:Generated_Source\PSoC6\pdl\drivers/peripheral/scb/cy_scb_uart.h ****     Cy_SCB_WriteArrayBlocking(base, buffer, size);
1426:Generated_Source\PSoC6\pdl\drivers/peripheral/scb/cy_scb_uart.h **** }
1427:Generated_Source\PSoC6\pdl\drivers/peripheral/scb/cy_scb_uart.h **** 
1428:Generated_Source\PSoC6\pdl\drivers/peripheral/scb/cy_scb_uart.h **** 
1429:Generated_Source\PSoC6\pdl\drivers/peripheral/scb/cy_scb_uart.h **** /*******************************************************************************
1430:Generated_Source\PSoC6\pdl\drivers/peripheral/scb/cy_scb_uart.h **** * Function Name: Cy_SCB_UART_PutString
1431:Generated_Source\PSoC6\pdl\drivers/peripheral/scb/cy_scb_uart.h **** ****************************************************************************//**
1432:Generated_Source\PSoC6\pdl\drivers/peripheral/scb/cy_scb_uart.h **** *
1433:Generated_Source\PSoC6\pdl\drivers/peripheral/scb/cy_scb_uart.h **** * Places a NULL terminated string in the UART TX FIFO.
1434:Generated_Source\PSoC6\pdl\drivers/peripheral/scb/cy_scb_uart.h **** * This function blocks until the entire string is placed in the TX FIFO.
1435:Generated_Source\PSoC6\pdl\drivers/peripheral/scb/cy_scb_uart.h **** *
1436:Generated_Source\PSoC6\pdl\drivers/peripheral/scb/cy_scb_uart.h **** * \param base
1437:Generated_Source\PSoC6\pdl\drivers/peripheral/scb/cy_scb_uart.h **** * The pointer to the UART SCB instance.
1438:Generated_Source\PSoC6\pdl\drivers/peripheral/scb/cy_scb_uart.h **** *
1439:Generated_Source\PSoC6\pdl\drivers/peripheral/scb/cy_scb_uart.h **** * \param string
1440:Generated_Source\PSoC6\pdl\drivers/peripheral/scb/cy_scb_uart.h **** * The pointer to the null terminated string array.
1441:Generated_Source\PSoC6\pdl\drivers/peripheral/scb/cy_scb_uart.h **** *
1442:Generated_Source\PSoC6\pdl\drivers/peripheral/scb/cy_scb_uart.h **** *******************************************************************************/
1443:Generated_Source\PSoC6\pdl\drivers/peripheral/scb/cy_scb_uart.h **** __STATIC_INLINE void Cy_SCB_UART_PutString(CySCB_Type *base, char_t const string[])
1444:Generated_Source\PSoC6\pdl\drivers/peripheral/scb/cy_scb_uart.h **** {
1445:Generated_Source\PSoC6\pdl\drivers/peripheral/scb/cy_scb_uart.h ****     CY_ASSERT_L1(CY_SCB_IS_BUFFER_VALID(string, 1UL));
1446:Generated_Source\PSoC6\pdl\drivers/peripheral/scb/cy_scb_uart.h **** 
1447:Generated_Source\PSoC6\pdl\drivers/peripheral/scb/cy_scb_uart.h ****     Cy_SCB_WriteString(base, string);
 232              		.loc 2 1447 0
 233 003c 4946     		mov	r1, r9
 234 003e 3248     		ldr	r0, .L25+8
 235 0040 FFF7FEFF 		bl	Cy_SCB_WriteString
 236              	.LVL27:
 237              	.LBE28:
 238              	.LBE27:
 239              	.LBE26:
 240              	.LBB29:
  67:DISPLAY.c     ****     UART_1_PutString(buffer);
  68:DISPLAY.c     ****     for(int y=0;y<size;y++){
 241              		.loc 1 68 0
 242 0044 0021     		movs	r1, #0
 243 0046 10E0     		b	.L18
 244              	.LVL28:
 245              	.L19:
  69:DISPLAY.c     ****         data[y]=(((donnees[y]/5)-minimum)*(maximum-minimum))/(2*maximum);    //fait une ligne, à r
 246              		.loc 1 69 0 discriminator 3
 247 0048 57F82130 		ldr	r3, [r7, r1, lsl #2]
ARM GAS  C:\Users\user\AppData\Local\Temp\ccJR9XQi.s 			page 32


 248 004c 2C4A     		ldr	r2, .L25
 249 004e A2FB0323 		umull	r2, r3, r2, r3
 250 0052 C4EB9303 		rsb	r3, r4, r3, lsr #2
 251 0056 321B     		subs	r2, r6, r4
 252 0058 02FB03F3 		mul	r3, r2, r3
 253 005c 7200     		lsls	r2, r6, #1
 254 005e B3FBF2F3 		udiv	r3, r3, r2
 255 0062 2A4A     		ldr	r2, .L25+12
 256 0064 22F81130 		strh	r3, [r2, r1, lsl #1]	@ movhi
  68:DISPLAY.c     ****         data[y]=(((donnees[y]/5)-minimum)*(maximum-minimum))/(2*maximum);    //fait une ligne, à r
 257              		.loc 1 68 0 discriminator 3
 258 0068 0131     		adds	r1, r1, #1
 259              	.LVL29:
 260              	.L18:
  68:DISPLAY.c     ****         data[y]=(((donnees[y]/5)-minimum)*(maximum-minimum))/(2*maximum);    //fait une ligne, à r
 261              		.loc 1 68 0 is_stmt 0 discriminator 1
 262 006a A942     		cmp	r1, r5
 263 006c ECDB     		blt	.L19
 264 006e 0023     		movs	r3, #0
 265 0070 1A46     		mov	r2, r3
 266 0072 07E0     		b	.L20
 267              	.LVL30:
 268              	.L21:
 269              	.LBE29:
 270              	.LBB30:
  70:DISPLAY.c     ****         }
  71:DISPLAY.c     ****     int a=0; 
  72:DISPLAY.c     ****         for (int b=0; b<size;  b+=espacement) {  
  73:DISPLAY.c     ****             vecteurespacee[a]= data[b]; 
 271              		.loc 1 73 0 is_stmt 1 discriminator 3
 272 0074 2549     		ldr	r1, .L25+12
 273 0076 31F91300 		ldrsh	r0, [r1, r3, lsl #1]
 274 007a 2549     		ldr	r1, .L25+16
 275 007c 21F81200 		strh	r0, [r1, r2, lsl #1]	@ movhi
  74:DISPLAY.c     ****             a++;        
 276              		.loc 1 74 0 discriminator 3
 277 0080 0132     		adds	r2, r2, #1
 278              	.LVL31:
  72:DISPLAY.c     ****             vecteurespacee[a]= data[b]; 
 279              		.loc 1 72 0 discriminator 3
 280 0082 4344     		add	r3, r3, r8
 281              	.LVL32:
 282              	.L20:
  72:DISPLAY.c     ****             vecteurespacee[a]= data[b]; 
 283              		.loc 1 72 0 is_stmt 0 discriminator 1
 284 0084 AB42     		cmp	r3, r5
 285 0086 F5DB     		blt	.L21
 286              	.LBE30:
  75:DISPLAY.c     ****         }
  76:DISPLAY.c     ****     GUI_DrawGraph(vecteurespacee, 260, 5,1); //250 est la taille du vecteurespacee, donc changer ce
 287              		.loc 1 76 0 is_stmt 1
 288 0088 0123     		movs	r3, #1
 289              	.LVL33:
 290 008a 0522     		movs	r2, #5
 291              	.LVL34:
 292 008c 4FF48271 		mov	r1, #260
 293 0090 1F48     		ldr	r0, .L25+16
ARM GAS  C:\Users\user\AppData\Local\Temp\ccJR9XQi.s 			page 33


 294 0092 FFF7FEFF 		bl	GUI_DrawGraph
 295              	.LVL35:
  77:DISPLAY.c     ****     
  78:DISPLAY.c     ****     GUI_DrawRect(1,1,263,125);
 296              		.loc 1 78 0
 297 0096 7D23     		movs	r3, #125
 298 0098 40F20712 		movw	r2, #263
 299 009c 0121     		movs	r1, #1
 300 009e 0846     		mov	r0, r1
 301 00a0 FFF7FEFF 		bl	GUI_DrawRect
 302              	.LVL36:
  79:DISPLAY.c     ****     GUI_DrawRect(153,129,263,175);
 303              		.loc 1 79 0
 304 00a4 AF23     		movs	r3, #175
 305 00a6 40F20712 		movw	r2, #263
 306 00aa 8121     		movs	r1, #129
 307 00ac 9920     		movs	r0, #153
 308 00ae FFF7FEFF 		bl	GUI_DrawRect
 309              	.LVL37:
  80:DISPLAY.c     ****     GUI_DispStringAt ("COURBE AFFICHEE:", 160, 133);
 310              		.loc 1 80 0
 311 00b2 8522     		movs	r2, #133
 312 00b4 A021     		movs	r1, #160
 313 00b6 1748     		ldr	r0, .L25+20
 314 00b8 FFF7FEFF 		bl	GUI_DispStringAt
 315              	.LVL38:
  81:DISPLAY.c     ****     GUI_SetFont(GUI_FONT_16B_1);
 316              		.loc 1 81 0
 317 00bc 1648     		ldr	r0, .L25+24
 318 00be FFF7FEFF 		bl	GUI_SetFont
 319              	.LVL39:
  82:DISPLAY.c     ****     GUI_DispStringAt ("SPECTRE", 155, 143);
 320              		.loc 1 82 0
 321 00c2 8F22     		movs	r2, #143
 322 00c4 9B21     		movs	r1, #155
 323 00c6 1548     		ldr	r0, .L25+28
 324 00c8 FFF7FEFF 		bl	GUI_DispStringAt
 325              	.LVL40:
  83:DISPLAY.c     ****        
  84:DISPLAY.c     ****         if (currentScreen.TYPEGRAPH){GUI_DispStringAt ("INFRAROUGE", 155, 157);}
 326              		.loc 1 84 0
 327 00cc 144B     		ldr	r3, .L25+32
 328 00ce 5B79     		ldrb	r3, [r3, #5]	@ zero_extendqisi2
 329 00d0 13F0FF0F 		tst	r3, #255
 330 00d4 04D0     		beq	.L22
 331              		.loc 1 84 0 is_stmt 0 discriminator 1
 332 00d6 9D22     		movs	r2, #157
 333 00d8 9B21     		movs	r1, #155
 334 00da 1248     		ldr	r0, .L25+36
 335 00dc FFF7FEFF 		bl	GUI_DispStringAt
 336              	.LVL41:
 337              	.L22:
  85:DISPLAY.c     ****         if (currentScreen.TYPEGRAPH==0) {GUI_DispStringAt ( "ROUGE", 155, 157);}
 338              		.loc 1 85 0 is_stmt 1
 339 00e0 0F4B     		ldr	r3, .L25+32
 340 00e2 5B79     		ldrb	r3, [r3, #5]	@ zero_extendqisi2
 341 00e4 13F0FF0F 		tst	r3, #255
ARM GAS  C:\Users\user\AppData\Local\Temp\ccJR9XQi.s 			page 34


 342 00e8 04D1     		bne	.L23
 343              		.loc 1 85 0 is_stmt 0 discriminator 1
 344 00ea 9D22     		movs	r2, #157
 345 00ec 9B21     		movs	r1, #155
 346 00ee 0E48     		ldr	r0, .L25+40
 347 00f0 FFF7FEFF 		bl	GUI_DispStringAt
 348              	.LVL42:
 349              	.L23:
  86:DISPLAY.c     ****     
  87:DISPLAY.c     ****     UpdateDisplay(CY_EINK_FULL_4STAGE, true);   
 350              		.loc 1 87 0 is_stmt 1
 351 00f4 0121     		movs	r1, #1
 352 00f6 0846     		mov	r0, r1
 353 00f8 FFF7FEFF 		bl	UpdateDisplay
 354              	.LVL43:
 355 00fc BDE8F883 		pop	{r3, r4, r5, r6, r7, r8, r9, pc}
 356              	.LVL44:
 357              	.L26:
 358              		.align	2
 359              	.L25:
 360 0100 CDCCCCCC 		.word	-858993459
 361 0104 00000000 		.word	.LC0
 362 0108 00006640 		.word	1080426496
 363 010c 00000000 		.word	data
 364 0110 00000000 		.word	vecteurespacee
 365 0114 08000000 		.word	.LC1
 366 0118 00000000 		.word	GUI_Font16B_1
 367 011c 1C000000 		.word	.LC2
 368 0120 00000000 		.word	currentScreen
 369 0124 24000000 		.word	.LC3
 370 0128 30000000 		.word	.LC4
 371 012c 00000000 		.word	buffer
 372              		.cfi_endproc
 373              	.LFE607:
 374              		.size	drawGraph, .-drawGraph
 375              		.section	.text.updateParameters,"ax",%progbits
 376              		.align	2
 377              		.global	updateParameters
 378              		.thumb
 379              		.thumb_func
 380              		.type	updateParameters, %function
 381              	updateParameters:
 382              	.LFB608:
  88:DISPLAY.c     ****     
  89:DISPLAY.c     **** }
  90:DISPLAY.c     **** 
  91:DISPLAY.c     **** void updateParameters(int param1, int param2){
 383              		.loc 1 91 0
 384              		.cfi_startproc
 385              		@ args = 0, pretend = 0, frame = 104
 386              		@ frame_needed = 0, uses_anonymous_args = 0
 387              	.LVL45:
 388 0000 30B5     		push	{r4, r5, lr}
 389              		.cfi_def_cfa_offset 12
 390              		.cfi_offset 4, -12
 391              		.cfi_offset 5, -8
 392              		.cfi_offset 14, -4
ARM GAS  C:\Users\user\AppData\Local\Temp\ccJR9XQi.s 			page 35


 393 0002 9BB0     		sub	sp, sp, #108
 394              		.cfi_def_cfa_offset 120
 395 0004 0546     		mov	r5, r0
 396 0006 0C46     		mov	r4, r1
  92:DISPLAY.c     ****     
  93:DISPLAY.c     ****     GUI_Clear(); 
 397              		.loc 1 93 0
 398 0008 FFF7FEFF 		bl	GUI_Clear
 399              	.LVL46:
  94:DISPLAY.c     ****     char frequence[50];
  95:DISPLAY.c     ****     char Saturation[50];
  96:DISPLAY.c     ****     sprintf(frequence,"Frequence cardiaque: %d ",param1);
 400              		.loc 1 96 0
 401 000c 2A46     		mov	r2, r5
 402 000e 1349     		ldr	r1, .L29
 403 0010 0DA8     		add	r0, sp, #52
 404 0012 FFF7FEFF 		bl	sprintf
 405              	.LVL47:
  97:DISPLAY.c     ****     sprintf(Saturation,"Taux d'oxygene: %d ",param2);
 406              		.loc 1 97 0
 407 0016 2246     		mov	r2, r4
 408 0018 1149     		ldr	r1, .L29+4
 409 001a 6846     		mov	r0, sp
 410 001c FFF7FEFF 		bl	sprintf
 411              	.LVL48:
  98:DISPLAY.c     ****     
  99:DISPLAY.c     ****     GUI_SetFont(GUI_FONT_8_1);
 412              		.loc 1 99 0
 413 0020 1048     		ldr	r0, .L29+8
 414 0022 FFF7FEFF 		bl	GUI_SetFont
 415              	.LVL49:
 100:DISPLAY.c     ****     GUI_DispStringAt(frequence, 3, 130); 
 416              		.loc 1 100 0
 417 0026 8222     		movs	r2, #130
 418 0028 0321     		movs	r1, #3
 419 002a 0DA8     		add	r0, sp, #52
 420 002c FFF7FEFF 		bl	GUI_DispStringAt
 421              	.LVL50:
 101:DISPLAY.c     ****     GUI_DispStringAt("BPM ", 125, 130);     
 422              		.loc 1 101 0
 423 0030 8222     		movs	r2, #130
 424 0032 7D21     		movs	r1, #125
 425 0034 0C48     		ldr	r0, .L29+12
 426 0036 FFF7FEFF 		bl	GUI_DispStringAt
 427              	.LVL51:
 102:DISPLAY.c     ****     GUI_DispStringAt(Saturation, 3, 150);
 428              		.loc 1 102 0
 429 003a 9622     		movs	r2, #150
 430 003c 0321     		movs	r1, #3
 431 003e 6846     		mov	r0, sp
 432 0040 FFF7FEFF 		bl	GUI_DispStringAt
 433              	.LVL52:
 103:DISPLAY.c     ****     GUI_DispStringAt("HRC", 100, 150);     
 434              		.loc 1 103 0
 435 0044 9622     		movs	r2, #150
 436 0046 6421     		movs	r1, #100
 437 0048 0848     		ldr	r0, .L29+16
ARM GAS  C:\Users\user\AppData\Local\Temp\ccJR9XQi.s 			page 36


 438 004a FFF7FEFF 		bl	GUI_DispStringAt
 439              	.LVL53:
 104:DISPLAY.c     ****     
 105:DISPLAY.c     ****     UpdateDisplay(CY_EINK_FULL_4STAGE, true);
 440              		.loc 1 105 0
 441 004e 0121     		movs	r1, #1
 442 0050 0846     		mov	r0, r1
 443 0052 FFF7FEFF 		bl	UpdateDisplay
 444              	.LVL54:
 106:DISPLAY.c     **** }
 445              		.loc 1 106 0
 446 0056 1BB0     		add	sp, sp, #108
 447              		.cfi_def_cfa_offset 12
 448              		@ sp needed
 449 0058 30BD     		pop	{r4, r5, pc}
 450              	.LVL55:
 451              	.L30:
 452 005a 00BF     		.align	2
 453              	.L29:
 454 005c 38000000 		.word	.LC5
 455 0060 54000000 		.word	.LC6
 456 0064 00000000 		.word	GUI_Font8_1
 457 0068 68000000 		.word	.LC7
 458 006c 70000000 		.word	.LC8
 459              		.cfi_endproc
 460              	.LFE608:
 461              		.size	updateParameters, .-updateParameters
 462              		.section	.text.DrawMenu,"ax",%progbits
 463              		.align	2
 464              		.global	DrawMenu
 465              		.thumb
 466              		.thumb_func
 467              		.type	DrawMenu, %function
 468              	DrawMenu:
 469              	.LFB609:
 107:DISPLAY.c     **** 
 108:DISPLAY.c     **** void DrawMenu ( uint8_t pos_curseur) { //fonction à vérifier 
 470              		.loc 1 108 0
 471              		.cfi_startproc
 472              		@ args = 0, pretend = 0, frame = 0
 473              		@ frame_needed = 0, uses_anonymous_args = 0
 474              	.LVL56:
 475 0000 10B5     		push	{r4, lr}
 476              		.cfi_def_cfa_offset 8
 477              		.cfi_offset 4, -8
 478              		.cfi_offset 14, -4
 479 0002 0446     		mov	r4, r0
 109:DISPLAY.c     ****     
 110:DISPLAY.c     ****     GUI_Clear(); 
 480              		.loc 1 110 0
 481 0004 FFF7FEFF 		bl	GUI_Clear
 482              	.LVL57:
 111:DISPLAY.c     ****     GUI_SetFont(GUI_FONT_32B_1);
 483              		.loc 1 111 0
 484 0008 1848     		ldr	r0, .L33
 485 000a FFF7FEFF 		bl	GUI_SetFont
 486              	.LVL58:
ARM GAS  C:\Users\user\AppData\Local\Temp\ccJR9XQi.s 			page 37


 112:DISPLAY.c     ****     GUI_SetTextAlign(GUI_TA_CENTER);
 487              		.loc 1 112 0
 488 000e 0220     		movs	r0, #2
 489 0010 FFF7FEFF 		bl	GUI_SetTextAlign
 490              	.LVL59:
 113:DISPLAY.c     ****     GUI_DispStringAt("MENU", 132, 2);
 491              		.loc 1 113 0
 492 0014 0222     		movs	r2, #2
 493 0016 8421     		movs	r1, #132
 494 0018 1548     		ldr	r0, .L33+4
 495 001a FFF7FEFF 		bl	GUI_DispStringAt
 496              	.LVL60:
 114:DISPLAY.c     ****         GUI_SetFont(GUI_FONT_8_1);
 497              		.loc 1 114 0
 498 001e 1548     		ldr	r0, .L33+8
 499 0020 FFF7FEFF 		bl	GUI_SetFont
 500              	.LVL61:
 115:DISPLAY.c     ****     GUI_DispStringAt ("ETAT DE L'ALARME D'ACCELERATION", 15, 40);
 501              		.loc 1 115 0
 502 0024 2822     		movs	r2, #40
 503 0026 0F21     		movs	r1, #15
 504 0028 1348     		ldr	r0, .L33+12
 505 002a FFF7FEFF 		bl	GUI_DispStringAt
 506              	.LVL62:
 116:DISPLAY.c     ****     GUI_DispStringAt ("MODIFICATION DU COURANT DES LEDS", 15, 70);
 507              		.loc 1 116 0
 508 002e 4622     		movs	r2, #70
 509 0030 0F21     		movs	r1, #15
 510 0032 1248     		ldr	r0, .L33+16
 511 0034 FFF7FEFF 		bl	GUI_DispStringAt
 512              	.LVL63:
 117:DISPLAY.c     ****     GUI_DispStringAt ("BORNE SUPERIEUR- RYTHME CARDIAQUE", 15, 100); 
 513              		.loc 1 117 0
 514 0038 6422     		movs	r2, #100
 515 003a 0F21     		movs	r1, #15
 516 003c 1048     		ldr	r0, .L33+20
 517 003e FFF7FEFF 		bl	GUI_DispStringAt
 518              	.LVL64:
 118:DISPLAY.c     ****     GUI_DispStringAt ("BORNE INFERIEUR- RYTHME CARDIAQUE", 15, 130); 
 519              		.loc 1 118 0
 520 0042 8222     		movs	r2, #130
 521 0044 0F21     		movs	r1, #15
 522 0046 0F48     		ldr	r0, .L33+24
 523 0048 FFF7FEFF 		bl	GUI_DispStringAt
 524              	.LVL65:
 119:DISPLAY.c     ****     GUI_DispStringAt ("ETAT DE L'ALARME DE LA FC", 15, 160);
 525              		.loc 1 119 0
 526 004c A022     		movs	r2, #160
 527 004e 0F21     		movs	r1, #15
 528 0050 0D48     		ldr	r0, .L33+28
 529 0052 FFF7FEFF 		bl	GUI_DispStringAt
 530              	.LVL66:
 120:DISPLAY.c     ****     GUI_DrawCircle (4, pos_curseur+2, 3);
 531              		.loc 1 120 0
 532 0056 0322     		movs	r2, #3
 533 0058 A11C     		adds	r1, r4, #2
 534 005a 0420     		movs	r0, #4
ARM GAS  C:\Users\user\AppData\Local\Temp\ccJR9XQi.s 			page 38


 535 005c FFF7FEFF 		bl	GUI_DrawCircle
 536              	.LVL67:
 121:DISPLAY.c     ****     UpdateDisplay(CY_EINK_FULL_4STAGE, true);
 537              		.loc 1 121 0
 538 0060 0121     		movs	r1, #1
 539 0062 0846     		mov	r0, r1
 540 0064 FFF7FEFF 		bl	UpdateDisplay
 541              	.LVL68:
 542 0068 10BD     		pop	{r4, pc}
 543              	.L34:
 544 006a 00BF     		.align	2
 545              	.L33:
 546 006c 00000000 		.word	GUI_Font32B_1
 547 0070 74000000 		.word	.LC9
 548 0074 00000000 		.word	GUI_Font8_1
 549 0078 7C000000 		.word	.LC10
 550 007c 9C000000 		.word	.LC11
 551 0080 C0000000 		.word	.LC12
 552 0084 E4000000 		.word	.LC13
 553 0088 08010000 		.word	.LC14
 554              		.cfi_endproc
 555              	.LFE609:
 556              		.size	DrawMenu, .-DrawMenu
 557              		.section	.text.DrawOption1,"ax",%progbits
 558              		.align	2
 559              		.global	DrawOption1
 560              		.thumb
 561              		.thumb_func
 562              		.type	DrawOption1, %function
 563              	DrawOption1:
 564              	.LFB610:
 122:DISPLAY.c     **** } 
 123:DISPLAY.c     **** 
 124:DISPLAY.c     **** void DrawOption1 ()
 125:DISPLAY.c     **** {       
 565              		.loc 1 125 0
 566              		.cfi_startproc
 567              		@ args = 0, pretend = 0, frame = 0
 568              		@ frame_needed = 0, uses_anonymous_args = 0
 569 0000 10B5     		push	{r4, lr}
 570              		.cfi_def_cfa_offset 8
 571              		.cfi_offset 4, -8
 572              		.cfi_offset 14, -4
 126:DISPLAY.c     ****           GUI_Clear(); 
 573              		.loc 1 126 0
 574 0002 FFF7FEFF 		bl	GUI_Clear
 575              	.LVL69:
 127:DISPLAY.c     ****     GUI_SetFont(GUI_FONT_16_1);
 576              		.loc 1 127 0
 577 0006 134C     		ldr	r4, .L37
 578 0008 2046     		mov	r0, r4
 579 000a FFF7FEFF 		bl	GUI_SetFont
 580              	.LVL70:
 128:DISPLAY.c     ****     GUI_SetTextAlign(GUI_TA_CENTER);
 581              		.loc 1 128 0
 582 000e 0220     		movs	r0, #2
 583 0010 FFF7FEFF 		bl	GUI_SetTextAlign
ARM GAS  C:\Users\user\AppData\Local\Temp\ccJR9XQi.s 			page 39


 584              	.LVL71:
 129:DISPLAY.c     ****     GUI_DispStringAt("ALARME D'ACCELERATION", 132, 20);
 585              		.loc 1 129 0
 586 0014 1422     		movs	r2, #20
 587 0016 8421     		movs	r1, #132
 588 0018 0F48     		ldr	r0, .L37+4
 589 001a FFF7FEFF 		bl	GUI_DispStringAt
 590              	.LVL72:
 130:DISPLAY.c     ****         GUI_SetFont(GUI_FONT_8_1);
 591              		.loc 1 130 0
 592 001e 0F48     		ldr	r0, .L37+8
 593 0020 FFF7FEFF 		bl	GUI_SetFont
 594              	.LVL73:
 131:DISPLAY.c     ****     GUI_DispStringAt ("APPUYE SUR LE BOUTON 00 POUR ACTIVER L'ALARME", 10, 70);
 595              		.loc 1 131 0
 596 0024 4622     		movs	r2, #70
 597 0026 0A21     		movs	r1, #10
 598 0028 0D48     		ldr	r0, .L37+12
 599 002a FFF7FEFF 		bl	GUI_DispStringAt
 600              	.LVL74:
 132:DISPLAY.c     ****     GUI_DispStringAt ("APPUYE SUR LE BOUTON 01 POUR ACTIVER L'ALARME", 10, 100); 
 601              		.loc 1 132 0
 602 002e 6422     		movs	r2, #100
 603 0030 0A21     		movs	r1, #10
 604 0032 0C48     		ldr	r0, .L37+16
 605 0034 FFF7FEFF 		bl	GUI_DispStringAt
 606              	.LVL75:
 133:DISPLAY.c     ****      GUI_DrawRect(7,120,230,160);
 607              		.loc 1 133 0
 608 0038 A023     		movs	r3, #160
 609 003a E622     		movs	r2, #230
 610 003c 7821     		movs	r1, #120
 611 003e 0720     		movs	r0, #7
 612 0040 FFF7FEFF 		bl	GUI_DrawRect
 613              	.LVL76:
 134:DISPLAY.c     ****      GUI_SetFont(GUI_FONT_16_1);
 614              		.loc 1 134 0
 615 0044 2046     		mov	r0, r4
 616 0046 FFF7FEFF 		bl	GUI_SetFont
 617              	.LVL77:
 135:DISPLAY.c     ****     UpdateDisplay(CY_EINK_FULL_4STAGE, true);
 618              		.loc 1 135 0
 619 004a 0121     		movs	r1, #1
 620 004c 0846     		mov	r0, r1
 621 004e FFF7FEFF 		bl	UpdateDisplay
 622              	.LVL78:
 623 0052 10BD     		pop	{r4, pc}
 624              	.L38:
 625              		.align	2
 626              	.L37:
 627 0054 00000000 		.word	GUI_Font16_1
 628 0058 24010000 		.word	.LC15
 629 005c 00000000 		.word	GUI_Font8_1
 630 0060 3C010000 		.word	.LC16
 631 0064 6C010000 		.word	.LC17
 632              		.cfi_endproc
 633              	.LFE610:
ARM GAS  C:\Users\user\AppData\Local\Temp\ccJR9XQi.s 			page 40


 634              		.size	DrawOption1, .-DrawOption1
 635              		.section	.text.DrawOption2,"ax",%progbits
 636              		.align	2
 637              		.global	DrawOption2
 638              		.thumb
 639              		.thumb_func
 640              		.type	DrawOption2, %function
 641              	DrawOption2:
 642              	.LFB611:
 136:DISPLAY.c     **** } 
 137:DISPLAY.c     **** 
 138:DISPLAY.c     **** void DrawOption2 ()
 139:DISPLAY.c     **** {         GUI_Clear(); 
 643              		.loc 1 139 0
 644              		.cfi_startproc
 645              		@ args = 0, pretend = 0, frame = 0
 646              		@ frame_needed = 0, uses_anonymous_args = 0
 647 0000 10B5     		push	{r4, lr}
 648              		.cfi_def_cfa_offset 8
 649              		.cfi_offset 4, -8
 650              		.cfi_offset 14, -4
 651              		.loc 1 139 0
 652 0002 FFF7FEFF 		bl	GUI_Clear
 653              	.LVL79:
 140:DISPLAY.c     ****     GUI_SetFont(GUI_FONT_32B_1);
 654              		.loc 1 140 0
 655 0006 1A48     		ldr	r0, .L41
 656 0008 FFF7FEFF 		bl	GUI_SetFont
 657              	.LVL80:
 141:DISPLAY.c     ****     GUI_SetTextAlign(GUI_TA_CENTER);
 658              		.loc 1 141 0
 659 000c 0220     		movs	r0, #2
 660 000e FFF7FEFF 		bl	GUI_SetTextAlign
 661              	.LVL81:
 142:DISPLAY.c     ****     GUI_DispStringAt("COURANT DELs", 132, 20);
 662              		.loc 1 142 0
 663 0012 1422     		movs	r2, #20
 664 0014 8421     		movs	r1, #132
 665 0016 1748     		ldr	r0, .L41+4
 666 0018 FFF7FEFF 		bl	GUI_DispStringAt
 667              	.LVL82:
 143:DISPLAY.c     ****         GUI_SetFont(GUI_FONT_8_1);
 668              		.loc 1 143 0
 669 001c 1648     		ldr	r0, .L41+8
 670 001e FFF7FEFF 		bl	GUI_SetFont
 671              	.LVL83:
 144:DISPLAY.c     ****     GUI_DispStringAt ("LE COURANT CONFIGURER DES LEDS EST:", 10, 70);
 672              		.loc 1 144 0
 673 0022 4622     		movs	r2, #70
 674 0024 0A21     		movs	r1, #10
 675 0026 1548     		ldr	r0, .L41+12
 676 0028 FFF7FEFF 		bl	GUI_DispStringAt
 677              	.LVL84:
 145:DISPLAY.c     ****     GUI_SetFont(GUI_FONT_16B_1);
 678              		.loc 1 145 0
 679 002c 1448     		ldr	r0, .L41+16
 680 002e FFF7FEFF 		bl	GUI_SetFont
ARM GAS  C:\Users\user\AppData\Local\Temp\ccJR9XQi.s 			page 41


 681              	.LVL85:
 146:DISPLAY.c     ****     GUI_DrawLine(5,120,75,120);
 682              		.loc 1 146 0
 683 0032 7823     		movs	r3, #120
 684 0034 4B22     		movs	r2, #75
 685 0036 1946     		mov	r1, r3
 686 0038 0520     		movs	r0, #5
 687 003a FFF7FEFF 		bl	GUI_DrawLine
 688              	.LVL86:
 147:DISPLAY.c     ****    GUI_SetTextAlign(GUI_TA_CENTER);
 689              		.loc 1 147 0
 690 003e 0220     		movs	r0, #2
 691 0040 FFF7FEFF 		bl	GUI_SetTextAlign
 692              	.LVL87:
 148:DISPLAY.c     ****    sprintf(buffer,"%d\n\r",courant);
 693              		.loc 1 148 0
 694 0044 0F4B     		ldr	r3, .L41+20
 695 0046 1A78     		ldrb	r2, [r3]	@ zero_extendqisi2
 696 0048 0F4C     		ldr	r4, .L41+24
 697 004a 1049     		ldr	r1, .L41+28
 698 004c 2046     		mov	r0, r4
 699 004e FFF7FEFF 		bl	sprintf
 700              	.LVL88:
 149:DISPLAY.c     ****      GUI_DispStringAt (buffer, 10, 100);
 701              		.loc 1 149 0
 702 0052 6422     		movs	r2, #100
 703 0054 0A21     		movs	r1, #10
 704 0056 2046     		mov	r0, r4
 705 0058 FFF7FEFF 		bl	GUI_DispStringAt
 706              	.LVL89:
 150:DISPLAY.c     ****     GUI_DispStringAt ("mA", 45, 100);
 707              		.loc 1 150 0
 708 005c 6422     		movs	r2, #100
 709 005e 2D21     		movs	r1, #45
 710 0060 0B48     		ldr	r0, .L41+32
 711 0062 FFF7FEFF 		bl	GUI_DispStringAt
 712              	.LVL90:
 151:DISPLAY.c     ****     UpdateDisplay(CY_EINK_FULL_4STAGE, true);
 713              		.loc 1 151 0
 714 0066 0121     		movs	r1, #1
 715 0068 0846     		mov	r0, r1
 716 006a FFF7FEFF 		bl	UpdateDisplay
 717              	.LVL91:
 718 006e 10BD     		pop	{r4, pc}
 719              	.L42:
 720              		.align	2
 721              	.L41:
 722 0070 00000000 		.word	GUI_Font32B_1
 723 0074 9C010000 		.word	.LC18
 724 0078 00000000 		.word	GUI_Font8_1
 725 007c AC010000 		.word	.LC19
 726 0080 00000000 		.word	GUI_Font16B_1
 727 0084 00000000 		.word	courant
 728 0088 00000000 		.word	buffer
 729 008c 00000000 		.word	.LC0
 730 0090 D0010000 		.word	.LC20
 731              		.cfi_endproc
ARM GAS  C:\Users\user\AppData\Local\Temp\ccJR9XQi.s 			page 42


 732              	.LFE611:
 733              		.size	DrawOption2, .-DrawOption2
 734              		.section	.text.DrawOption3_superieur,"ax",%progbits
 735              		.align	2
 736              		.global	DrawOption3_superieur
 737              		.thumb
 738              		.thumb_func
 739              		.type	DrawOption3_superieur, %function
 740              	DrawOption3_superieur:
 741              	.LFB612:
 152:DISPLAY.c     **** }
 153:DISPLAY.c     **** void DrawOption3_superieur (){    
 742              		.loc 1 153 0
 743              		.cfi_startproc
 744              		@ args = 0, pretend = 0, frame = 0
 745              		@ frame_needed = 0, uses_anonymous_args = 0
 746 0000 10B5     		push	{r4, lr}
 747              		.cfi_def_cfa_offset 8
 748              		.cfi_offset 4, -8
 749              		.cfi_offset 14, -4
 154:DISPLAY.c     ****    GUI_Clear(); 
 750              		.loc 1 154 0
 751 0002 FFF7FEFF 		bl	GUI_Clear
 752              	.LVL92:
 155:DISPLAY.c     ****     GUI_SetFont(GUI_FONT_8_1);
 753              		.loc 1 155 0
 754 0006 1848     		ldr	r0, .L45
 755 0008 FFF7FEFF 		bl	GUI_SetFont
 756              	.LVL93:
 156:DISPLAY.c     ****     GUI_SetTextAlign(GUI_TA_CENTER);
 757              		.loc 1 156 0
 758 000c 0220     		movs	r0, #2
 759 000e FFF7FEFF 		bl	GUI_SetTextAlign
 760              	.LVL94:
 157:DISPLAY.c     ****     GUI_DispStringAt("DEFINITION DE L'INTERVALLE DE L'ALARME", 132, 20);
 761              		.loc 1 157 0
 762 0012 1422     		movs	r2, #20
 763 0014 8421     		movs	r1, #132
 764 0016 1548     		ldr	r0, .L45+4
 765 0018 FFF7FEFF 		bl	GUI_DispStringAt
 766              	.LVL95:
 158:DISPLAY.c     ****     GUI_SetFont(GUI_FONT_16_1);
 767              		.loc 1 158 0
 768 001c 1448     		ldr	r0, .L45+8
 769 001e FFF7FEFF 		bl	GUI_SetFont
 770              	.LVL96:
 159:DISPLAY.c     ****     GUI_DispStringAt ("DEFINIISSEZ LA BORNE SUPERIEUR DE LA FC", 10, 70);
 771              		.loc 1 159 0
 772 0022 4622     		movs	r2, #70
 773 0024 0A21     		movs	r1, #10
 774 0026 1348     		ldr	r0, .L45+12
 775 0028 FFF7FEFF 		bl	GUI_DispStringAt
 776              	.LVL97:
 160:DISPLAY.c     ****     GUI_DispStringAt ("BORNE SUPERIEUR:", 10, 110);
 777              		.loc 1 160 0
 778 002c 6E22     		movs	r2, #110
 779 002e 0A21     		movs	r1, #10
ARM GAS  C:\Users\user\AppData\Local\Temp\ccJR9XQi.s 			page 43


 780 0030 1148     		ldr	r0, .L45+16
 781 0032 FFF7FEFF 		bl	GUI_DispStringAt
 782              	.LVL98:
 161:DISPLAY.c     ****     GUI_SetFont(GUI_FONT_32B_1);
 783              		.loc 1 161 0
 784 0036 1148     		ldr	r0, .L45+20
 785 0038 FFF7FEFF 		bl	GUI_SetFont
 786              	.LVL99:
 162:DISPLAY.c     ****     sprintf(buffer,"%d\n\r",borne_superieur);
 787              		.loc 1 162 0
 788 003c 104C     		ldr	r4, .L45+24
 789 003e 114B     		ldr	r3, .L45+28
 790 0040 1A78     		ldrb	r2, [r3]	@ zero_extendqisi2
 791 0042 1149     		ldr	r1, .L45+32
 792 0044 2046     		mov	r0, r4
 793 0046 FFF7FEFF 		bl	sprintf
 794              	.LVL100:
 163:DISPLAY.c     ****      GUI_DispStringAt (buffer, 120, 95);
 795              		.loc 1 163 0
 796 004a 5F22     		movs	r2, #95
 797 004c 7821     		movs	r1, #120
 798 004e 2046     		mov	r0, r4
 799 0050 FFF7FEFF 		bl	GUI_DispStringAt
 800              	.LVL101:
 164:DISPLAY.c     ****      GUI_DispStringAt ("HRC ", 175, 95);
 801              		.loc 1 164 0
 802 0054 5F22     		movs	r2, #95
 803 0056 AF21     		movs	r1, #175
 804 0058 0C48     		ldr	r0, .L45+36
 805 005a FFF7FEFF 		bl	GUI_DispStringAt
 806              	.LVL102:
 165:DISPLAY.c     ****      UpdateDisplay(CY_EINK_FULL_4STAGE, true); 
 807              		.loc 1 165 0
 808 005e 0121     		movs	r1, #1
 809 0060 0846     		mov	r0, r1
 810 0062 FFF7FEFF 		bl	UpdateDisplay
 811              	.LVL103:
 812 0066 10BD     		pop	{r4, pc}
 813              	.L46:
 814              		.align	2
 815              	.L45:
 816 0068 00000000 		.word	GUI_Font8_1
 817 006c D4010000 		.word	.LC21
 818 0070 00000000 		.word	GUI_Font16_1
 819 0074 FC010000 		.word	.LC22
 820 0078 24020000 		.word	.LC23
 821 007c 00000000 		.word	GUI_Font32B_1
 822 0080 00000000 		.word	buffer
 823 0084 00000000 		.word	borne_superieur
 824 0088 00000000 		.word	.LC0
 825 008c 38020000 		.word	.LC24
 826              		.cfi_endproc
 827              	.LFE612:
 828              		.size	DrawOption3_superieur, .-DrawOption3_superieur
 829              		.section	.text.DrawOption3_inferieur,"ax",%progbits
 830              		.align	2
 831              		.global	DrawOption3_inferieur
ARM GAS  C:\Users\user\AppData\Local\Temp\ccJR9XQi.s 			page 44


 832              		.thumb
 833              		.thumb_func
 834              		.type	DrawOption3_inferieur, %function
 835              	DrawOption3_inferieur:
 836              	.LFB613:
 166:DISPLAY.c     **** 
 167:DISPLAY.c     **** }
 168:DISPLAY.c     **** 
 169:DISPLAY.c     **** void DrawOption3_inferieur (){    
 837              		.loc 1 169 0
 838              		.cfi_startproc
 839              		@ args = 0, pretend = 0, frame = 0
 840              		@ frame_needed = 0, uses_anonymous_args = 0
 841 0000 10B5     		push	{r4, lr}
 842              		.cfi_def_cfa_offset 8
 843              		.cfi_offset 4, -8
 844              		.cfi_offset 14, -4
 170:DISPLAY.c     ****   GUI_Clear(); 
 845              		.loc 1 170 0
 846 0002 FFF7FEFF 		bl	GUI_Clear
 847              	.LVL104:
 171:DISPLAY.c     ****     GUI_SetFont(GUI_FONT_16_1);
 848              		.loc 1 171 0
 849 0006 1848     		ldr	r0, .L49
 850 0008 FFF7FEFF 		bl	GUI_SetFont
 851              	.LVL105:
 172:DISPLAY.c     ****     GUI_SetTextAlign(GUI_TA_CENTER);
 852              		.loc 1 172 0
 853 000c 0220     		movs	r0, #2
 854 000e FFF7FEFF 		bl	GUI_SetTextAlign
 855              	.LVL106:
 173:DISPLAY.c     ****     GUI_DispStringAt("DEFINITION DE L'INTERVALLE DE L'ALARME", 132, 20);
 856              		.loc 1 173 0
 857 0012 1422     		movs	r2, #20
 858 0014 8421     		movs	r1, #132
 859 0016 1548     		ldr	r0, .L49+4
 860 0018 FFF7FEFF 		bl	GUI_DispStringAt
 861              	.LVL107:
 174:DISPLAY.c     ****     GUI_SetFont(GUI_FONT_8_1);
 862              		.loc 1 174 0
 863 001c 1448     		ldr	r0, .L49+8
 864 001e FFF7FEFF 		bl	GUI_SetFont
 865              	.LVL108:
 175:DISPLAY.c     ****     GUI_DispStringAt ("DEFINIISSEZ LA BORNE INFERIEUR DE LA FC", 10, 70);
 866              		.loc 1 175 0
 867 0022 4622     		movs	r2, #70
 868 0024 0A21     		movs	r1, #10
 869 0026 1348     		ldr	r0, .L49+12
 870 0028 FFF7FEFF 		bl	GUI_DispStringAt
 871              	.LVL109:
 176:DISPLAY.c     ****     GUI_DispStringAt ("BORNE INFERIEUR", 10, 110);
 872              		.loc 1 176 0
 873 002c 6E22     		movs	r2, #110
 874 002e 0A21     		movs	r1, #10
 875 0030 1148     		ldr	r0, .L49+16
 876 0032 FFF7FEFF 		bl	GUI_DispStringAt
 877              	.LVL110:
ARM GAS  C:\Users\user\AppData\Local\Temp\ccJR9XQi.s 			page 45


 177:DISPLAY.c     ****     GUI_SetFont(GUI_FONT_32B_1);
 878              		.loc 1 177 0
 879 0036 1148     		ldr	r0, .L49+20
 880 0038 FFF7FEFF 		bl	GUI_SetFont
 881              	.LVL111:
 178:DISPLAY.c     ****     sprintf(buffer,"%d\n\r",borne_inferieur);
 882              		.loc 1 178 0
 883 003c 104C     		ldr	r4, .L49+24
 884 003e 114B     		ldr	r3, .L49+28
 885 0040 1A78     		ldrb	r2, [r3]	@ zero_extendqisi2
 886 0042 1149     		ldr	r1, .L49+32
 887 0044 2046     		mov	r0, r4
 888 0046 FFF7FEFF 		bl	sprintf
 889              	.LVL112:
 179:DISPLAY.c     ****      GUI_DispStringAt (buffer, 120, 95);
 890              		.loc 1 179 0
 891 004a 5F22     		movs	r2, #95
 892 004c 7821     		movs	r1, #120
 893 004e 2046     		mov	r0, r4
 894 0050 FFF7FEFF 		bl	GUI_DispStringAt
 895              	.LVL113:
 180:DISPLAY.c     ****      GUI_DispStringAt ("HRC ", 175, 95);
 896              		.loc 1 180 0
 897 0054 5F22     		movs	r2, #95
 898 0056 AF21     		movs	r1, #175
 899 0058 0C48     		ldr	r0, .L49+36
 900 005a FFF7FEFF 		bl	GUI_DispStringAt
 901              	.LVL114:
 181:DISPLAY.c     ****      UpdateDisplay(CY_EINK_FULL_4STAGE, true);
 902              		.loc 1 181 0
 903 005e 0121     		movs	r1, #1
 904 0060 0846     		mov	r0, r1
 905 0062 FFF7FEFF 		bl	UpdateDisplay
 906              	.LVL115:
 907 0066 10BD     		pop	{r4, pc}
 908              	.L50:
 909              		.align	2
 910              	.L49:
 911 0068 00000000 		.word	GUI_Font16_1
 912 006c D4010000 		.word	.LC21
 913 0070 00000000 		.word	GUI_Font8_1
 914 0074 40020000 		.word	.LC25
 915 0078 68020000 		.word	.LC26
 916 007c 00000000 		.word	GUI_Font32B_1
 917 0080 00000000 		.word	buffer
 918 0084 00000000 		.word	borne_inferieur
 919 0088 00000000 		.word	.LC0
 920 008c 38020000 		.word	.LC24
 921              		.cfi_endproc
 922              	.LFE613:
 923              		.size	DrawOption3_inferieur, .-DrawOption3_inferieur
 924              		.section	.text.DrawOption3_ETAT,"ax",%progbits
 925              		.align	2
 926              		.global	DrawOption3_ETAT
 927              		.thumb
 928              		.thumb_func
 929              		.type	DrawOption3_ETAT, %function
ARM GAS  C:\Users\user\AppData\Local\Temp\ccJR9XQi.s 			page 46


 930              	DrawOption3_ETAT:
 931              	.LFB614:
 182:DISPLAY.c     **** }
 183:DISPLAY.c     **** void DrawOption3_ETAT ()
 184:DISPLAY.c     **** {       
 932              		.loc 1 184 0
 933              		.cfi_startproc
 934              		@ args = 0, pretend = 0, frame = 0
 935              		@ frame_needed = 0, uses_anonymous_args = 0
 936 0000 10B5     		push	{r4, lr}
 937              		.cfi_def_cfa_offset 8
 938              		.cfi_offset 4, -8
 939              		.cfi_offset 14, -4
 185:DISPLAY.c     ****           GUI_Clear(); 
 940              		.loc 1 185 0
 941 0002 FFF7FEFF 		bl	GUI_Clear
 942              	.LVL116:
 186:DISPLAY.c     ****     GUI_SetFont(GUI_FONT_16_1);
 943              		.loc 1 186 0
 944 0006 134C     		ldr	r4, .L53
 945 0008 2046     		mov	r0, r4
 946 000a FFF7FEFF 		bl	GUI_SetFont
 947              	.LVL117:
 187:DISPLAY.c     ****     GUI_SetTextAlign(GUI_TA_CENTER);
 948              		.loc 1 187 0
 949 000e 0220     		movs	r0, #2
 950 0010 FFF7FEFF 		bl	GUI_SetTextAlign
 951              	.LVL118:
 188:DISPLAY.c     ****     GUI_DispStringAt("ALARME DE LA FREQUENCE CARDIAQUE", 132, 20);
 952              		.loc 1 188 0
 953 0014 1422     		movs	r2, #20
 954 0016 8421     		movs	r1, #132
 955 0018 0F48     		ldr	r0, .L53+4
 956 001a FFF7FEFF 		bl	GUI_DispStringAt
 957              	.LVL119:
 189:DISPLAY.c     ****         GUI_SetFont(GUI_FONT_8_1);
 958              		.loc 1 189 0
 959 001e 0F48     		ldr	r0, .L53+8
 960 0020 FFF7FEFF 		bl	GUI_SetFont
 961              	.LVL120:
 190:DISPLAY.c     ****     GUI_DispStringAt ("APPUYE SUR LE BOUTON 00 POUR ACTIVER L'ALARME", 10, 70);
 962              		.loc 1 190 0
 963 0024 4622     		movs	r2, #70
 964 0026 0A21     		movs	r1, #10
 965 0028 0D48     		ldr	r0, .L53+12
 966 002a FFF7FEFF 		bl	GUI_DispStringAt
 967              	.LVL121:
 191:DISPLAY.c     ****     GUI_DispStringAt ("APPUYE SUR LE BOUTON 01 POUR ACTIVER L'ALARME", 10, 100); 
 968              		.loc 1 191 0
 969 002e 6422     		movs	r2, #100
 970 0030 0A21     		movs	r1, #10
 971 0032 0C48     		ldr	r0, .L53+16
 972 0034 FFF7FEFF 		bl	GUI_DispStringAt
 973              	.LVL122:
 192:DISPLAY.c     ****      GUI_DrawRect(7,120,230,160);
 974              		.loc 1 192 0
 975 0038 A023     		movs	r3, #160
ARM GAS  C:\Users\user\AppData\Local\Temp\ccJR9XQi.s 			page 47


 976 003a E622     		movs	r2, #230
 977 003c 7821     		movs	r1, #120
 978 003e 0720     		movs	r0, #7
 979 0040 FFF7FEFF 		bl	GUI_DrawRect
 980              	.LVL123:
 193:DISPLAY.c     ****      GUI_SetFont(GUI_FONT_16_1);
 981              		.loc 1 193 0
 982 0044 2046     		mov	r0, r4
 983 0046 FFF7FEFF 		bl	GUI_SetFont
 984              	.LVL124:
 194:DISPLAY.c     ****     UpdateDisplay(CY_EINK_FULL_4STAGE, true);
 985              		.loc 1 194 0
 986 004a 0121     		movs	r1, #1
 987 004c 0846     		mov	r0, r1
 988 004e FFF7FEFF 		bl	UpdateDisplay
 989              	.LVL125:
 990 0052 10BD     		pop	{r4, pc}
 991              	.L54:
 992              		.align	2
 993              	.L53:
 994 0054 00000000 		.word	GUI_Font16_1
 995 0058 78020000 		.word	.LC27
 996 005c 00000000 		.word	GUI_Font8_1
 997 0060 3C010000 		.word	.LC16
 998 0064 6C010000 		.word	.LC17
 999              		.cfi_endproc
 1000              	.LFE614:
 1001              		.size	DrawOption3_ETAT, .-DrawOption3_ETAT
 1002              		.section	.text.display_task,"ax",%progbits
 1003              		.align	2
 1004              		.global	display_task
 1005              		.thumb
 1006              		.thumb_func
 1007              		.type	display_task, %function
 1008              	display_task:
 1009              	.LFB615:
 195:DISPLAY.c     **** } 
 196:DISPLAY.c     **** 
 197:DISPLAY.c     **** void display_task( void ) {
 1010              		.loc 1 197 0
 1011              		.cfi_startproc
 1012              		@ Volatile: function does not return.
 1013              		@ args = 0, pretend = 0, frame = 0
 1014              		@ frame_needed = 0, uses_anonymous_args = 0
 1015 0000 08B5     		push	{r3, lr}
 1016              		.cfi_def_cfa_offset 8
 1017              		.cfi_offset 3, -8
 1018              		.cfi_offset 14, -4
 198:DISPLAY.c     ****    
 199:DISPLAY.c     ****     GUI_Init();
 1019              		.loc 1 199 0
 1020 0002 FFF7FEFF 		bl	GUI_Init
 1021              	.LVL126:
 200:DISPLAY.c     ****     Cy_EINK_Start(20);
 1022              		.loc 1 200 0
 1023 0006 1420     		movs	r0, #20
 1024 0008 FFF7FEFF 		bl	Cy_EINK_Start
ARM GAS  C:\Users\user\AppData\Local\Temp\ccJR9XQi.s 			page 48


 1025              	.LVL127:
 201:DISPLAY.c     ****     Cy_EINK_Power(1);
 1026              		.loc 1 201 0
 1027 000c 0120     		movs	r0, #1
 1028 000e FFF7FEFF 		bl	Cy_EINK_Power
 1029              	.LVL128:
 202:DISPLAY.c     ****     GUI_Clear(); 
 1030              		.loc 1 202 0
 1031 0012 FFF7FEFF 		bl	GUI_Clear
 1032              	.LVL129:
 203:DISPLAY.c     ****     GUI_SetColor(GUI_BLACK);
 1033              		.loc 1 203 0
 1034 0016 0020     		movs	r0, #0
 1035 0018 FFF7FEFF 		bl	GUI_SetColor
 1036              	.LVL130:
 204:DISPLAY.c     ****     GUI_SetBkColor(GUI_WHITE);
 1037              		.loc 1 204 0
 1038 001c 6FF07F40 		mvn	r0, #-16777216
 1039 0020 FFF7FEFF 		bl	GUI_SetBkColor
 1040              	.LVL131:
 205:DISPLAY.c     ****     GUI_SetPenSize(1);
 1041              		.loc 1 205 0
 1042 0024 0120     		movs	r0, #1
 1043 0026 FFF7FEFF 		bl	GUI_SetPenSize
 1044              	.LVL132:
 206:DISPLAY.c     ****     GUI_SetFont(GUI_FONT_8_1);
 1045              		.loc 1 206 0
 1046 002a 2E48     		ldr	r0, .L92
 1047 002c FFF7FEFF 		bl	GUI_SetFont
 1048              	.LVL133:
 1049              	.L90:
 207:DISPLAY.c     ****         
 208:DISPLAY.c     ****     for (;;) {              
 209:DISPLAY.c     ****                 if (currentScreen.FLAG_DEPART) {
 1050              		.loc 1 209 0
 1051 0030 2D4B     		ldr	r3, .L92+4
 1052 0032 1B79     		ldrb	r3, [r3, #4]	@ zero_extendqisi2
 1053 0034 13F0FF0F 		tst	r3, #255
 1054 0038 27D0     		beq	.L56
 210:DISPLAY.c     **** 
 211:DISPLAY.c     ****                              updateParameters(100,66);      //faire update parameters apres graph s
 1055              		.loc 1 211 0
 1056 003a 4221     		movs	r1, #66
 1057 003c 6420     		movs	r0, #100
 1058 003e FFF7FEFF 		bl	updateParameters
 1059              	.LVL134:
 212:DISPLAY.c     ****                             
 213:DISPLAY.c     ****                             if (currentScreen.TYPEGRAPH)                
 1060              		.loc 1 213 0
 1061 0042 294B     		ldr	r3, .L92+4
 1062 0044 5B79     		ldrb	r3, [r3, #5]	@ zero_extendqisi2
 1063 0046 13F0FF0F 		tst	r3, #255
 1064 004a 0FD0     		beq	.L57
 214:DISPLAY.c     ****                                         {   
 215:DISPLAY.c     ****                                             drawGraph(INFRAROUGE, 3,taille_infrarouge ) ;          
 1065              		.loc 1 215 0
 1066 004c 274D     		ldr	r5, .L92+8
ARM GAS  C:\Users\user\AppData\Local\Temp\ccJR9XQi.s 			page 49


 1067 004e 2A68     		ldr	r2, [r5]
 1068 0050 0321     		movs	r1, #3
 1069 0052 2748     		ldr	r0, .L92+12
 1070 0054 FFF7FEFF 		bl	drawGraph
 1071              	.LVL135:
 216:DISPLAY.c     ****                                              sprintf(buffer_1,"%d\n\r",taille_infrarouge);
 1072              		.loc 1 216 0
 1073 0058 264C     		ldr	r4, .L92+16
 1074 005a 2A68     		ldr	r2, [r5]
 1075 005c 2649     		ldr	r1, .L92+20
 1076 005e 2046     		mov	r0, r4
 1077 0060 FFF7FEFF 		bl	sprintf
 1078              	.LVL136:
 1079              	.LBB47:
 1080              	.LBB48:
 1081              	.LBB49:
 1082              		.loc 2 1447 0
 1083 0064 2146     		mov	r1, r4
 1084 0066 2548     		ldr	r0, .L92+24
 1085 0068 FFF7FEFF 		bl	Cy_SCB_WriteString
 1086              	.LVL137:
 1087              	.L57:
 1088              	.LBE49:
 1089              	.LBE48:
 1090              	.LBE47:
 217:DISPLAY.c     ****                                                 UART_1_PutString(buffer_1);
 218:DISPLAY.c     ****                                                
 219:DISPLAY.c     ****                                         } 
 220:DISPLAY.c     ****                             if (currentScreen.TYPEGRAPH==0) 
 1091              		.loc 1 220 0
 1092 006c 1E4B     		ldr	r3, .L92+4
 1093 006e 5B79     		ldrb	r3, [r3, #5]	@ zero_extendqisi2
 1094 0070 13F0FF0F 		tst	r3, #255
 1095 0074 05D1     		bne	.L58
 221:DISPLAY.c     ****                                         {
 222:DISPLAY.c     ****                                            
 223:DISPLAY.c     ****                                             drawGraph(ROUGE, 3,taille_rouge);
 1096              		.loc 1 223 0
 1097 0076 224B     		ldr	r3, .L92+28
 1098 0078 1A68     		ldr	r2, [r3]
 1099 007a 0321     		movs	r1, #3
 1100 007c 2148     		ldr	r0, .L92+32
 1101 007e FFF7FEFF 		bl	drawGraph
 1102              	.LVL138:
 1103              	.L58:
 224:DISPLAY.c     ****                                             
 225:DISPLAY.c     ****                                            
 226:DISPLAY.c     ****                                         } 
 227:DISPLAY.c     ****                             currentScreen.screen= PRINCIPAL_PAGE; 
 1104              		.loc 1 227 0
 1105 0082 194B     		ldr	r3, .L92+4
 1106 0084 0022     		movs	r2, #0
 1107 0086 1A70     		strb	r2, [r3]
 228:DISPLAY.c     ****                             currentScreen.FLAG_DEPART=0;        
 1108              		.loc 1 228 0
 1109 0088 1A71     		strb	r2, [r3, #4]
 1110              	.L56:
ARM GAS  C:\Users\user\AppData\Local\Temp\ccJR9XQi.s 			page 50


 229:DISPLAY.c     ****                  }
 230:DISPLAY.c     ****                 if (currentScreen.FLAG1==1 || currentScreen.FLAG3==1) {
 1111              		.loc 1 230 0
 1112 008a 174B     		ldr	r3, .L92+4
 1113 008c 5B78     		ldrb	r3, [r3, #1]	@ zero_extendqisi2
 1114 008e DBB2     		uxtb	r3, r3
 1115 0090 012B     		cmp	r3, #1
 1116 0092 04D0     		beq	.L59
 1117              		.loc 1 230 0 is_stmt 0 discriminator 1
 1118 0094 144B     		ldr	r3, .L92+4
 1119 0096 DB78     		ldrb	r3, [r3, #3]	@ zero_extendqisi2
 1120 0098 DBB2     		uxtb	r3, r3
 1121 009a 012B     		cmp	r3, #1
 1122 009c 15D1     		bne	.L60
 1123              	.L59:
 231:DISPLAY.c     ****                      
 232:DISPLAY.c     ****                      currentScreen.screen= MAIN_MENU; 
 1124              		.loc 1 232 0 is_stmt 1
 1125 009e 124C     		ldr	r4, .L92+4
 1126 00a0 0123     		movs	r3, #1
 1127 00a2 2370     		strb	r3, [r4]
 233:DISPLAY.c     ****                      postion_MENU=40;
 1128              		.loc 1 233 0
 1129 00a4 2820     		movs	r0, #40
 1130 00a6 184B     		ldr	r3, .L92+36
 1131 00a8 1870     		strb	r0, [r3]
 234:DISPLAY.c     ****                     DrawMenu(postion_MENU);
 1132              		.loc 1 234 0
 1133 00aa FFF7FEFF 		bl	DrawMenu
 1134              	.LVL139:
 235:DISPLAY.c     ****                     if (currentScreen.FLAG1==1) {currentScreen.FLAG1=0;}
 1135              		.loc 1 235 0
 1136 00ae 6378     		ldrb	r3, [r4, #1]	@ zero_extendqisi2
 1137 00b0 DBB2     		uxtb	r3, r3
 1138 00b2 012B     		cmp	r3, #1
 1139 00b4 01D1     		bne	.L61
 1140              		.loc 1 235 0 is_stmt 0 discriminator 1
 1141 00b6 0022     		movs	r2, #0
 1142 00b8 6270     		strb	r2, [r4, #1]
 1143              	.L61:
 236:DISPLAY.c     ****                     if (currentScreen.FLAG3==1) {currentScreen.FLAG3=0;}
 1144              		.loc 1 236 0 is_stmt 1
 1145 00ba 0B4B     		ldr	r3, .L92+4
 1146 00bc DB78     		ldrb	r3, [r3, #3]	@ zero_extendqisi2
 1147 00be DBB2     		uxtb	r3, r3
 1148 00c0 012B     		cmp	r3, #1
 1149 00c2 02D1     		bne	.L60
 1150              		.loc 1 236 0 is_stmt 0 discriminator 1
 1151 00c4 0022     		movs	r2, #0
 1152 00c6 084B     		ldr	r3, .L92+4
 1153 00c8 DA70     		strb	r2, [r3, #3]
 1154              	.L60:
 237:DISPLAY.c     ****                 }
 238:DISPLAY.c     ****                 if (currentScreen.FLAG1==2)
 1155              		.loc 1 238 0 is_stmt 1
 1156 00ca 074B     		ldr	r3, .L92+4
 1157 00cc 5B78     		ldrb	r3, [r3, #1]	@ zero_extendqisi2
ARM GAS  C:\Users\user\AppData\Local\Temp\ccJR9XQi.s 			page 51


 1158 00ce DBB2     		uxtb	r3, r3
 1159 00d0 022B     		cmp	r3, #2
 1160 00d2 25D1     		bne	.L62
 239:DISPLAY.c     ****                 {
 240:DISPLAY.c     ****                     if (postion_MENU==160)
 1161              		.loc 1 240 0
 1162 00d4 0C4B     		ldr	r3, .L92+36
 1163 00d6 1B78     		ldrb	r3, [r3]	@ zero_extendqisi2
 1164 00d8 A02B     		cmp	r3, #160
 1165 00da 17D1     		bne	.L63
 241:DISPLAY.c     ****                     {postion_MENU=40; }
 1166              		.loc 1 241 0
 1167 00dc 2822     		movs	r2, #40
 1168 00de 0A4B     		ldr	r3, .L92+36
 1169 00e0 1A70     		strb	r2, [r3]
 1170 00e2 16E0     		b	.L64
 1171              	.L93:
 1172              		.align	2
 1173              	.L92:
 1174 00e4 00000000 		.word	GUI_Font8_1
 1175 00e8 00000000 		.word	currentScreen
 1176 00ec 00000000 		.word	taille_infrarouge
 1177 00f0 00000000 		.word	INFRAROUGE
 1178 00f4 00000000 		.word	buffer_1
 1179 00f8 00000000 		.word	.LC0
 1180 00fc 00006640 		.word	1080426496
 1181 0100 00000000 		.word	taille_rouge
 1182 0104 00000000 		.word	ROUGE
 1183 0108 00000000 		.word	postion_MENU
 1184              	.L63:
 242:DISPLAY.c     ****                     else 
 243:DISPLAY.c     ****                     {postion_MENU= postion_MENU+30;} 
 1185              		.loc 1 243 0
 1186 010c 1E33     		adds	r3, r3, #30
 1187 010e A04A     		ldr	r2, .L94
 1188 0110 1370     		strb	r3, [r2]
 1189              	.L64:
 244:DISPLAY.c     ****                     DrawMenu(postion_MENU); 
 1190              		.loc 1 244 0
 1191 0112 9F4B     		ldr	r3, .L94
 1192 0114 1878     		ldrb	r0, [r3]	@ zero_extendqisi2
 1193 0116 FFF7FEFF 		bl	DrawMenu
 1194              	.LVL140:
 245:DISPLAY.c     ****                     currentScreen.FLAG1=0; 
 1195              		.loc 1 245 0
 1196 011a 0022     		movs	r2, #0
 1197 011c 9D4B     		ldr	r3, .L94+4
 1198 011e 5A70     		strb	r2, [r3, #1]
 1199              	.L62:
 246:DISPLAY.c     ****                 } 
 247:DISPLAY.c     ****                 if (currentScreen.FLAG1== 3 || selection_MENU==1 || currentScreen.FLAG2== 3 )
 1200              		.loc 1 247 0
 1201 0120 9C4B     		ldr	r3, .L94+4
 1202 0122 5B78     		ldrb	r3, [r3, #1]	@ zero_extendqisi2
 1203 0124 DBB2     		uxtb	r3, r3
 1204 0126 032B     		cmp	r3, #3
 1205 0128 08D0     		beq	.L65
ARM GAS  C:\Users\user\AppData\Local\Temp\ccJR9XQi.s 			page 52


 1206              		.loc 1 247 0 is_stmt 0 discriminator 1
 1207 012a 9B4B     		ldr	r3, .L94+8
 1208 012c 1B78     		ldrb	r3, [r3]	@ zero_extendqisi2
 1209 012e 012B     		cmp	r3, #1
 1210 0130 04D0     		beq	.L65
 1211              		.loc 1 247 0 discriminator 2
 1212 0132 984B     		ldr	r3, .L94+4
 1213 0134 9B78     		ldrb	r3, [r3, #2]	@ zero_extendqisi2
 1214 0136 DBB2     		uxtb	r3, r3
 1215 0138 032B     		cmp	r3, #3
 1216 013a 3BD1     		bne	.L66
 1217              	.L65:
 248:DISPLAY.c     ****                 {
 249:DISPLAY.c     ****                     
 250:DISPLAY.c     ****                     DrawOption1 (); 
 1218              		.loc 1 250 0 is_stmt 1
 1219 013c FFF7FEFF 		bl	DrawOption1
 1220              	.LVL141:
 251:DISPLAY.c     ****                    
 252:DISPLAY.c     ****                                 
 253:DISPLAY.c     ****                                         if  (currentScreen.FLAG1==3) {
 1221              		.loc 1 253 0
 1222 0140 944B     		ldr	r3, .L94+4
 1223 0142 5B78     		ldrb	r3, [r3, #1]	@ zero_extendqisi2
 1224 0144 DBB2     		uxtb	r3, r3
 1225 0146 032B     		cmp	r3, #3
 1226 0148 11D1     		bne	.L67
 254:DISPLAY.c     ****                                              alarme_acc= true; 
 1227              		.loc 1 254 0
 1228 014a 0124     		movs	r4, #1
 1229 014c 934B     		ldr	r3, .L94+12
 1230 014e 1C70     		strb	r4, [r3]
 255:DISPLAY.c     ****                                              GUI_SetFont(GUI_FONT_16B_1);
 1231              		.loc 1 255 0
 1232 0150 9348     		ldr	r0, .L94+16
 1233 0152 FFF7FEFF 		bl	GUI_SetFont
 1234              	.LVL142:
 256:DISPLAY.c     ****                                              GUI_DispStringAt ("L'alarme est activee ",25, 130); 
 1235              		.loc 1 256 0
 1236 0156 8222     		movs	r2, #130
 1237 0158 1921     		movs	r1, #25
 1238 015a 9248     		ldr	r0, .L94+20
 1239 015c FFF7FEFF 		bl	GUI_DispStringAt
 1240              	.LVL143:
 257:DISPLAY.c     ****                                                UpdateDisplay(CY_EINK_FULL_4STAGE, true);
 1241              		.loc 1 257 0
 1242 0160 2146     		mov	r1, r4
 1243 0162 2046     		mov	r0, r4
 1244 0164 FFF7FEFF 		bl	UpdateDisplay
 1245              	.LVL144:
 258:DISPLAY.c     ****                                             currentScreen.FLAG1=0; }
 1246              		.loc 1 258 0
 1247 0168 0022     		movs	r2, #0
 1248 016a 8A4B     		ldr	r3, .L94+4
 1249 016c 5A70     		strb	r2, [r3, #1]
 1250              	.L67:
 259:DISPLAY.c     ****                                         if  (currentScreen.FLAG2==3) { 
ARM GAS  C:\Users\user\AppData\Local\Temp\ccJR9XQi.s 			page 53


 1251              		.loc 1 259 0
 1252 016e 894B     		ldr	r3, .L94+4
 1253 0170 9B78     		ldrb	r3, [r3, #2]	@ zero_extendqisi2
 1254 0172 DBB2     		uxtb	r3, r3
 1255 0174 032B     		cmp	r3, #3
 1256 0176 13D1     		bne	.L68
 260:DISPLAY.c     ****                                              alarme_acc= false;
 1257              		.loc 1 260 0
 1258 0178 0024     		movs	r4, #0
 1259 017a 884B     		ldr	r3, .L94+12
 1260 017c 1C70     		strb	r4, [r3]
 1261              	.LVL145:
 1262              	.LBB50:
 1263              	.LBB51:
 1264              		.file 3 "Generated_Source\\PSoC6\\pdl\\drivers/peripheral/gpio/cy_gpio.h"
   1:Generated_Source\PSoC6\pdl\drivers/peripheral/gpio/cy_gpio.h **** /***************************************************************************//**
   2:Generated_Source\PSoC6\pdl\drivers/peripheral/gpio/cy_gpio.h **** * \file cy_gpio.h
   3:Generated_Source\PSoC6\pdl\drivers/peripheral/gpio/cy_gpio.h **** * \version 1.20
   4:Generated_Source\PSoC6\pdl\drivers/peripheral/gpio/cy_gpio.h **** *
   5:Generated_Source\PSoC6\pdl\drivers/peripheral/gpio/cy_gpio.h **** * Provides an API declaration of the GPIO driver
   6:Generated_Source\PSoC6\pdl\drivers/peripheral/gpio/cy_gpio.h **** *
   7:Generated_Source\PSoC6\pdl\drivers/peripheral/gpio/cy_gpio.h **** ********************************************************************************
   8:Generated_Source\PSoC6\pdl\drivers/peripheral/gpio/cy_gpio.h **** * \copyright
   9:Generated_Source\PSoC6\pdl\drivers/peripheral/gpio/cy_gpio.h **** * Copyright 2016-2018, Cypress Semiconductor Corporation. All rights reserved.
  10:Generated_Source\PSoC6\pdl\drivers/peripheral/gpio/cy_gpio.h **** * You may use this file only in accordance with the license, terms, conditions,
  11:Generated_Source\PSoC6\pdl\drivers/peripheral/gpio/cy_gpio.h **** * disclaimers, and limitations in the end user license agreement accompanying
  12:Generated_Source\PSoC6\pdl\drivers/peripheral/gpio/cy_gpio.h **** * the software package with which this file was provided.
  13:Generated_Source\PSoC6\pdl\drivers/peripheral/gpio/cy_gpio.h **** *******************************************************************************/
  14:Generated_Source\PSoC6\pdl\drivers/peripheral/gpio/cy_gpio.h **** 
  15:Generated_Source\PSoC6\pdl\drivers/peripheral/gpio/cy_gpio.h **** /**
  16:Generated_Source\PSoC6\pdl\drivers/peripheral/gpio/cy_gpio.h **** * \addtogroup group_gpio
  17:Generated_Source\PSoC6\pdl\drivers/peripheral/gpio/cy_gpio.h **** * \{
  18:Generated_Source\PSoC6\pdl\drivers/peripheral/gpio/cy_gpio.h **** * The GPIO driver provides an API to configure and access device Input/Output pins.
  19:Generated_Source\PSoC6\pdl\drivers/peripheral/gpio/cy_gpio.h **** *
  20:Generated_Source\PSoC6\pdl\drivers/peripheral/gpio/cy_gpio.h **** * The functions and other declarations used in this driver are in cy_gpio.h. 
  21:Generated_Source\PSoC6\pdl\drivers/peripheral/gpio/cy_gpio.h **** * You can include cy_pdl.h (ModusToolbox only) to get access to all functions 
  22:Generated_Source\PSoC6\pdl\drivers/peripheral/gpio/cy_gpio.h **** * and declarations in the PDL.
  23:Generated_Source\PSoC6\pdl\drivers/peripheral/gpio/cy_gpio.h **** *
  24:Generated_Source\PSoC6\pdl\drivers/peripheral/gpio/cy_gpio.h **** * IO pins include all general purpose types such as GPIO, SIO, HSIO, AUXIO, and
  25:Generated_Source\PSoC6\pdl\drivers/peripheral/gpio/cy_gpio.h **** * their variants.
  26:Generated_Source\PSoC6\pdl\drivers/peripheral/gpio/cy_gpio.h **** *
  27:Generated_Source\PSoC6\pdl\drivers/peripheral/gpio/cy_gpio.h **** * Initialization can be performed either at the port level or by configuring the
  28:Generated_Source\PSoC6\pdl\drivers/peripheral/gpio/cy_gpio.h **** * individual pins. For efficient use of code space, port
  29:Generated_Source\PSoC6\pdl\drivers/peripheral/gpio/cy_gpio.h **** * configuration should be used in the field. Refer to the product device header files 
  30:Generated_Source\PSoC6\pdl\drivers/peripheral/gpio/cy_gpio.h **** * for the list of supported ports and pins.
  31:Generated_Source\PSoC6\pdl\drivers/peripheral/gpio/cy_gpio.h **** * 
  32:Generated_Source\PSoC6\pdl\drivers/peripheral/gpio/cy_gpio.h **** * - Single pin configuration is performed by using \ref Cy_GPIO_Pin_FastInit 
  33:Generated_Source\PSoC6\pdl\drivers/peripheral/gpio/cy_gpio.h **** *   (provide specific values) or \ref Cy_GPIO_Pin_Init (provide a filled
  34:Generated_Source\PSoC6\pdl\drivers/peripheral/gpio/cy_gpio.h **** *   cy_stc_gpio_pin_config_t structure).
  35:Generated_Source\PSoC6\pdl\drivers/peripheral/gpio/cy_gpio.h **** * - An entire port can be configured using \ref Cy_GPIO_Port_Init. Provide a filled 
  36:Generated_Source\PSoC6\pdl\drivers/peripheral/gpio/cy_gpio.h **** *   cy_stc_gpio_prt_config_t structure. The values in the structure are 
  37:Generated_Source\PSoC6\pdl\drivers/peripheral/gpio/cy_gpio.h **** *   bitfields representing the desired value for each pin in the port.
  38:Generated_Source\PSoC6\pdl\drivers/peripheral/gpio/cy_gpio.h **** * - Pin configuration and management is based on the port address and pin number.
  39:Generated_Source\PSoC6\pdl\drivers/peripheral/gpio/cy_gpio.h **** *   \ref Cy_GPIO_PortToAddr function can optionally be used to calculate the port
  40:Generated_Source\PSoC6\pdl\drivers/peripheral/gpio/cy_gpio.h **** *   address from the port number at run-time.
  41:Generated_Source\PSoC6\pdl\drivers/peripheral/gpio/cy_gpio.h **** *
  42:Generated_Source\PSoC6\pdl\drivers/peripheral/gpio/cy_gpio.h **** * Once the pin/port initialization is complete, each pin can be accessed by 
ARM GAS  C:\Users\user\AppData\Local\Temp\ccJR9XQi.s 			page 54


  43:Generated_Source\PSoC6\pdl\drivers/peripheral/gpio/cy_gpio.h **** * specifying the port (GPIO_PRT_Type) and the pin (0-7) in the provided API 
  44:Generated_Source\PSoC6\pdl\drivers/peripheral/gpio/cy_gpio.h **** * functions.
  45:Generated_Source\PSoC6\pdl\drivers/peripheral/gpio/cy_gpio.h **** *
  46:Generated_Source\PSoC6\pdl\drivers/peripheral/gpio/cy_gpio.h **** * \section group_gpio_configuration Configuration Considerations
  47:Generated_Source\PSoC6\pdl\drivers/peripheral/gpio/cy_gpio.h **** *
  48:Generated_Source\PSoC6\pdl\drivers/peripheral/gpio/cy_gpio.h **** * 1. Pin multiplexing is controlled through the High-Speed IO Matrix (HSIOM) selection.
  49:Generated_Source\PSoC6\pdl\drivers/peripheral/gpio/cy_gpio.h **** *    This allows the pin to connect to signal sources/sinks throughout the device,
  50:Generated_Source\PSoC6\pdl\drivers/peripheral/gpio/cy_gpio.h **** *    as defined by the pin HSIOM selection options (en_hsiom_sel_t).
  51:Generated_Source\PSoC6\pdl\drivers/peripheral/gpio/cy_gpio.h **** * 2. All pins are initialized to High-Z drive mode with HSIOM connected to CPU (SW
  52:Generated_Source\PSoC6\pdl\drivers/peripheral/gpio/cy_gpio.h **** *    control digital pin only) at Power-On-Reset(POR).
  53:Generated_Source\PSoC6\pdl\drivers/peripheral/gpio/cy_gpio.h **** * 3. Some API functions perform read-modify-write operations on shared port
  54:Generated_Source\PSoC6\pdl\drivers/peripheral/gpio/cy_gpio.h **** *    registers. These functions are not thread safe and care must be taken when
  55:Generated_Source\PSoC6\pdl\drivers/peripheral/gpio/cy_gpio.h **** *    called by the application.
  56:Generated_Source\PSoC6\pdl\drivers/peripheral/gpio/cy_gpio.h **** * 4. Digital input buffer provides a high-impedance buffer for the external 
  57:Generated_Source\PSoC6\pdl\drivers/peripheral/gpio/cy_gpio.h **** *    digital input. The input buffer is connected to the HSIOM for routing to 
  58:Generated_Source\PSoC6\pdl\drivers/peripheral/gpio/cy_gpio.h **** *    the CPU port registers and selected peripheral. Enabling the input 
  59:Generated_Source\PSoC6\pdl\drivers/peripheral/gpio/cy_gpio.h **** *    buffer provides possibility to read the pin state via the CPU.
  60:Generated_Source\PSoC6\pdl\drivers/peripheral/gpio/cy_gpio.h **** *    If pin is connected to an analog signal, the input buffer should be 
  61:Generated_Source\PSoC6\pdl\drivers/peripheral/gpio/cy_gpio.h **** *    disabled to avoid crowbar currents. For more information refer to device 
  62:Generated_Source\PSoC6\pdl\drivers/peripheral/gpio/cy_gpio.h **** *    TRM and the device datasheet.
  63:Generated_Source\PSoC6\pdl\drivers/peripheral/gpio/cy_gpio.h **** *
  64:Generated_Source\PSoC6\pdl\drivers/peripheral/gpio/cy_gpio.h **** * Multiple pins on a port can be updated using direct port register writes with an
  65:Generated_Source\PSoC6\pdl\drivers/peripheral/gpio/cy_gpio.h **** * appropriate port mask. An example is shown below, highlighting the different ways of 
  66:Generated_Source\PSoC6\pdl\drivers/peripheral/gpio/cy_gpio.h **** * configuring Port 1 pins using:
  67:Generated_Source\PSoC6\pdl\drivers/peripheral/gpio/cy_gpio.h **** * 
  68:Generated_Source\PSoC6\pdl\drivers/peripheral/gpio/cy_gpio.h **** * - Port output data register
  69:Generated_Source\PSoC6\pdl\drivers/peripheral/gpio/cy_gpio.h **** * - Port output data set register
  70:Generated_Source\PSoC6\pdl\drivers/peripheral/gpio/cy_gpio.h **** * - Port output data clear register
  71:Generated_Source\PSoC6\pdl\drivers/peripheral/gpio/cy_gpio.h **** *
  72:Generated_Source\PSoC6\pdl\drivers/peripheral/gpio/cy_gpio.h **** * \snippet gpio/gpio_v1_10_sut_01.cydsn/main_cm4.c Cy_GPIO_Snippet
  73:Generated_Source\PSoC6\pdl\drivers/peripheral/gpio/cy_gpio.h **** *
  74:Generated_Source\PSoC6\pdl\drivers/peripheral/gpio/cy_gpio.h **** * \section group_gpio_more_information More Information
  75:Generated_Source\PSoC6\pdl\drivers/peripheral/gpio/cy_gpio.h **** *
  76:Generated_Source\PSoC6\pdl\drivers/peripheral/gpio/cy_gpio.h **** * Refer to the technical reference manual (TRM) and the device datasheet.
  77:Generated_Source\PSoC6\pdl\drivers/peripheral/gpio/cy_gpio.h **** *
  78:Generated_Source\PSoC6\pdl\drivers/peripheral/gpio/cy_gpio.h **** * \section group_gpio_MISRA MISRA-C Compliance
  79:Generated_Source\PSoC6\pdl\drivers/peripheral/gpio/cy_gpio.h **** * The GPIO driver has the following specific deviations:
  80:Generated_Source\PSoC6\pdl\drivers/peripheral/gpio/cy_gpio.h **** *
  81:Generated_Source\PSoC6\pdl\drivers/peripheral/gpio/cy_gpio.h **** * <table class="doxtable">
  82:Generated_Source\PSoC6\pdl\drivers/peripheral/gpio/cy_gpio.h **** *   <tr>
  83:Generated_Source\PSoC6\pdl\drivers/peripheral/gpio/cy_gpio.h **** *     <th>MISRA Rule</th>
  84:Generated_Source\PSoC6\pdl\drivers/peripheral/gpio/cy_gpio.h **** *     <th>Rule Class (Required/Advisory)</th>
  85:Generated_Source\PSoC6\pdl\drivers/peripheral/gpio/cy_gpio.h **** *     <th>Rule Description</th>
  86:Generated_Source\PSoC6\pdl\drivers/peripheral/gpio/cy_gpio.h **** *     <th>Description of Deviation(s)</th>
  87:Generated_Source\PSoC6\pdl\drivers/peripheral/gpio/cy_gpio.h **** *   </tr>
  88:Generated_Source\PSoC6\pdl\drivers/peripheral/gpio/cy_gpio.h **** *   <tr>
  89:Generated_Source\PSoC6\pdl\drivers/peripheral/gpio/cy_gpio.h **** *     <td>11.4</td>
  90:Generated_Source\PSoC6\pdl\drivers/peripheral/gpio/cy_gpio.h **** *     <td>A</td>
  91:Generated_Source\PSoC6\pdl\drivers/peripheral/gpio/cy_gpio.h **** *     <td>A cast should not be performed between a pointer to object type and
  92:Generated_Source\PSoC6\pdl\drivers/peripheral/gpio/cy_gpio.h **** *         a different pointer to object type.</td>
  93:Generated_Source\PSoC6\pdl\drivers/peripheral/gpio/cy_gpio.h **** *     <td> This code is safe because the elements of both GPIO_PRT_V1_Type and GPIO_PRT_V2_Type 
  94:Generated_Source\PSoC6\pdl\drivers/peripheral/gpio/cy_gpio.h **** *          types have identical alignment.</td>
  95:Generated_Source\PSoC6\pdl\drivers/peripheral/gpio/cy_gpio.h **** *   </tr>
  96:Generated_Source\PSoC6\pdl\drivers/peripheral/gpio/cy_gpio.h **** *   <tr>
  97:Generated_Source\PSoC6\pdl\drivers/peripheral/gpio/cy_gpio.h **** *     <td>16.7</td>
  98:Generated_Source\PSoC6\pdl\drivers/peripheral/gpio/cy_gpio.h **** *     <td>A</td>
  99:Generated_Source\PSoC6\pdl\drivers/peripheral/gpio/cy_gpio.h **** *     <td>A pointer parameter in a function prototype should be declared as pointer 
ARM GAS  C:\Users\user\AppData\Local\Temp\ccJR9XQi.s 			page 55


 100:Generated_Source\PSoC6\pdl\drivers/peripheral/gpio/cy_gpio.h **** *         to const if the pointer is not used to modify the addressed object.</td>
 101:Generated_Source\PSoC6\pdl\drivers/peripheral/gpio/cy_gpio.h **** *     <td>The objects pointed to by the base addresses of the GPIO port are not always modified.
 102:Generated_Source\PSoC6\pdl\drivers/peripheral/gpio/cy_gpio.h **** *         While a const qualifier can be used in select scenarios, it brings little benefit
 103:Generated_Source\PSoC6\pdl\drivers/peripheral/gpio/cy_gpio.h **** *         in adding this to the affected functions. </td>
 104:Generated_Source\PSoC6\pdl\drivers/peripheral/gpio/cy_gpio.h **** *   </tr>
 105:Generated_Source\PSoC6\pdl\drivers/peripheral/gpio/cy_gpio.h **** * </table>
 106:Generated_Source\PSoC6\pdl\drivers/peripheral/gpio/cy_gpio.h **** *
 107:Generated_Source\PSoC6\pdl\drivers/peripheral/gpio/cy_gpio.h **** * \section group_gpio_changelog Changelog
 108:Generated_Source\PSoC6\pdl\drivers/peripheral/gpio/cy_gpio.h **** * <table class="doxtable">
 109:Generated_Source\PSoC6\pdl\drivers/peripheral/gpio/cy_gpio.h **** *   <tr><th>Version</th><th>Changes</th><th>Reason for Change</th></tr>
 110:Generated_Source\PSoC6\pdl\drivers/peripheral/gpio/cy_gpio.h **** *   <tr>
 111:Generated_Source\PSoC6\pdl\drivers/peripheral/gpio/cy_gpio.h **** *     <td rowspan="3">1.20</td>
 112:Generated_Source\PSoC6\pdl\drivers/peripheral/gpio/cy_gpio.h **** *     <td>Flattened the organization of the driver source code into the single source directory and
 113:Generated_Source\PSoC6\pdl\drivers/peripheral/gpio/cy_gpio.h **** *     <td>Driver library directory-structure simplification.</td>
 114:Generated_Source\PSoC6\pdl\drivers/peripheral/gpio/cy_gpio.h **** *   </tr>
 115:Generated_Source\PSoC6\pdl\drivers/peripheral/gpio/cy_gpio.h **** *   <tr>
 116:Generated_Source\PSoC6\pdl\drivers/peripheral/gpio/cy_gpio.h **** *     <td>Added the functions for configuring the AMux bus splitter switch cells:
 117:Generated_Source\PSoC6\pdl\drivers/peripheral/gpio/cy_gpio.h **** *     - \ref Cy_GPIO_SetAmuxSplit
 118:Generated_Source\PSoC6\pdl\drivers/peripheral/gpio/cy_gpio.h **** *     - \ref Cy_GPIO_GetAmuxSplit
 119:Generated_Source\PSoC6\pdl\drivers/peripheral/gpio/cy_gpio.h **** *     </td>
 120:Generated_Source\PSoC6\pdl\drivers/peripheral/gpio/cy_gpio.h **** *     <td>Added a new functionality related to AMux bus.</td>
 121:Generated_Source\PSoC6\pdl\drivers/peripheral/gpio/cy_gpio.h **** *   </tr>
 122:Generated_Source\PSoC6\pdl\drivers/peripheral/gpio/cy_gpio.h **** *   <tr>
 123:Generated_Source\PSoC6\pdl\drivers/peripheral/gpio/cy_gpio.h **** *     <td>Added register access layer. Use register access macros instead
 124:Generated_Source\PSoC6\pdl\drivers/peripheral/gpio/cy_gpio.h **** *         of direct register access using dereferenced pointers.</td>
 125:Generated_Source\PSoC6\pdl\drivers/peripheral/gpio/cy_gpio.h **** *     <td>Makes register access device-independent, so that the PDL does 
 126:Generated_Source\PSoC6\pdl\drivers/peripheral/gpio/cy_gpio.h **** *         not need to be recompiled for each supported part number.</td>
 127:Generated_Source\PSoC6\pdl\drivers/peripheral/gpio/cy_gpio.h **** *   </tr>
 128:Generated_Source\PSoC6\pdl\drivers/peripheral/gpio/cy_gpio.h **** *   <tr>
 129:Generated_Source\PSoC6\pdl\drivers/peripheral/gpio/cy_gpio.h **** *     <td>1.10.1</td>
 130:Generated_Source\PSoC6\pdl\drivers/peripheral/gpio/cy_gpio.h **** *     <td>Updated description for the functions: \ref Cy_GPIO_GetInterruptStatus, 
 131:Generated_Source\PSoC6\pdl\drivers/peripheral/gpio/cy_gpio.h **** *         \ref Cy_GPIO_GetInterruptMask, \ref Cy_GPIO_GetInterruptStatusMasked.
 132:Generated_Source\PSoC6\pdl\drivers/peripheral/gpio/cy_gpio.h **** *
 133:Generated_Source\PSoC6\pdl\drivers/peripheral/gpio/cy_gpio.h **** *         Minor documentation edits.
 134:Generated_Source\PSoC6\pdl\drivers/peripheral/gpio/cy_gpio.h **** *     </td>
 135:Generated_Source\PSoC6\pdl\drivers/peripheral/gpio/cy_gpio.h **** *     <td>Documentation update and clarification</td>
 136:Generated_Source\PSoC6\pdl\drivers/peripheral/gpio/cy_gpio.h **** *   </tr>
 137:Generated_Source\PSoC6\pdl\drivers/peripheral/gpio/cy_gpio.h **** *   <tr>
 138:Generated_Source\PSoC6\pdl\drivers/peripheral/gpio/cy_gpio.h **** *     <td>1.10</td>
 139:Generated_Source\PSoC6\pdl\drivers/peripheral/gpio/cy_gpio.h **** *     <td>Added input parameter validation to the API functions</td>
 140:Generated_Source\PSoC6\pdl\drivers/peripheral/gpio/cy_gpio.h **** *     <td></td>
 141:Generated_Source\PSoC6\pdl\drivers/peripheral/gpio/cy_gpio.h **** *   </tr>
 142:Generated_Source\PSoC6\pdl\drivers/peripheral/gpio/cy_gpio.h **** *   <tr>
 143:Generated_Source\PSoC6\pdl\drivers/peripheral/gpio/cy_gpio.h **** *     <td>1.0</td>
 144:Generated_Source\PSoC6\pdl\drivers/peripheral/gpio/cy_gpio.h **** *     <td>Initial version</td>
 145:Generated_Source\PSoC6\pdl\drivers/peripheral/gpio/cy_gpio.h **** *     <td></td>
 146:Generated_Source\PSoC6\pdl\drivers/peripheral/gpio/cy_gpio.h **** *   </tr>
 147:Generated_Source\PSoC6\pdl\drivers/peripheral/gpio/cy_gpio.h **** * </table>
 148:Generated_Source\PSoC6\pdl\drivers/peripheral/gpio/cy_gpio.h **** *
 149:Generated_Source\PSoC6\pdl\drivers/peripheral/gpio/cy_gpio.h **** * \defgroup group_gpio_macros Macros
 150:Generated_Source\PSoC6\pdl\drivers/peripheral/gpio/cy_gpio.h **** * \defgroup group_gpio_functions Functions
 151:Generated_Source\PSoC6\pdl\drivers/peripheral/gpio/cy_gpio.h **** * \{
 152:Generated_Source\PSoC6\pdl\drivers/peripheral/gpio/cy_gpio.h **** *   \defgroup group_gpio_functions_init       Initialization Functions
 153:Generated_Source\PSoC6\pdl\drivers/peripheral/gpio/cy_gpio.h **** *   \defgroup group_gpio_functions_gpio       GPIO Functions
 154:Generated_Source\PSoC6\pdl\drivers/peripheral/gpio/cy_gpio.h **** *   \defgroup group_gpio_functions_sio        SIO Functions
 155:Generated_Source\PSoC6\pdl\drivers/peripheral/gpio/cy_gpio.h **** *   \defgroup group_gpio_functions_interrupt  Port Interrupt Functions
 156:Generated_Source\PSoC6\pdl\drivers/peripheral/gpio/cy_gpio.h **** * \}
ARM GAS  C:\Users\user\AppData\Local\Temp\ccJR9XQi.s 			page 56


 157:Generated_Source\PSoC6\pdl\drivers/peripheral/gpio/cy_gpio.h **** * \defgroup group_gpio_data_structures Data Structures
 158:Generated_Source\PSoC6\pdl\drivers/peripheral/gpio/cy_gpio.h **** * \defgroup group_gpio_enums Enumerated Types
 159:Generated_Source\PSoC6\pdl\drivers/peripheral/gpio/cy_gpio.h **** */
 160:Generated_Source\PSoC6\pdl\drivers/peripheral/gpio/cy_gpio.h **** 
 161:Generated_Source\PSoC6\pdl\drivers/peripheral/gpio/cy_gpio.h **** #if !defined(CY_GPIO_H)
