ARM GAS  C:\Users\user\AppData\Local\Temp\cc87Wa3n.s 			page 1


   1              		.syntax unified
   2              		.cpu cortex-m4
   3              		.eabi_attribute 27, 1
   4              		.fpu fpv4-sp-d16
   5              		.eabi_attribute 20, 1
   6              		.eabi_attribute 21, 1
   7              		.eabi_attribute 23, 3
   8              		.eabi_attribute 24, 1
   9              		.eabi_attribute 25, 1
  10              		.eabi_attribute 26, 1
  11              		.eabi_attribute 30, 1
  12              		.eabi_attribute 34, 1
  13              		.eabi_attribute 18, 4
  14              		.thumb
  15              		.syntax unified
  16              		.file	"Accelerometre.c"
  17              		.text
  18              	.Ltext0:
  19              		.cfi_sections	.debug_frame
  20              		.section	.text.BMI160BurstWrite,"ax",%progbits
  21              		.align	2
  22              		.global	BMI160BurstWrite
  23              		.thumb
  24              		.thumb_func
  25              		.type	BMI160BurstWrite, %function
  26              	BMI160BurstWrite:
  27              	.LFB661:
  28              		.file 1 "Accelerometre.c"
   1:Accelerometre.c **** 
   2:Accelerometre.c **** #include "FreeRTOS.h"
   3:Accelerometre.c **** #include "task.h"
   4:Accelerometre.c **** #include <stdio.h>
   5:Accelerometre.c **** #include "bmi160.h"
   6:Accelerometre.c **** #include "Accelerometre.h"
   7:Accelerometre.c **** #include "Declaration.h"
   8:Accelerometre.c **** static  struct bmi160_dev bmi160Dev; // interface point to the bmi160
   9:Accelerometre.c **** 
  10:Accelerometre.c **** 
  11:Accelerometre.c **** /* BMI 160Write écris une seul valeur*/
  12:Accelerometre.c **** 
  13:Accelerometre.c ****  void BMI160Write ( uint8_t dev_addr, uint8_t reg_addr, uint8_t data) 
  14:Accelerometre.c **** {
  15:Accelerometre.c ****     Cy_SCB_I2C_MasterSendStart(I2C_1_HW,dev_addr,CY_SCB_I2C_WRITE_XFER,0,&I2C_1_context); // start 
  16:Accelerometre.c ****     Cy_SCB_I2C_MasterWriteByte(I2C_1_HW,reg_addr,0,&I2C_1_context); // sent the register we want to
  17:Accelerometre.c ****     Cy_SCB_I2C_MasterWriteByte(I2C_1_HW,data,0,&I2C_1_context); // writing  the byte
  18:Accelerometre.c ****     Cy_SCB_I2C_MasterSendStop(I2C_1_HW,0,&I2C_1_context); // stop
  19:Accelerometre.c ****     // procedure comme celle Data sheet du BMI page 94
  20:Accelerometre.c ****    
  21:Accelerometre.c **** }
  22:Accelerometre.c **** /* BMI 160Write écris une seul valeur*/
  23:Accelerometre.c ****  void BMI160BurstWrite ( uint8_t dev_addr, uint8_t reg_addr, uint8_t *data, uint8_t lenght) // chec
  24:Accelerometre.c **** {
  29              		.loc 1 24 0
  30              		.cfi_startproc
  31              		@ args = 0, pretend = 0, frame = 0
  32              		@ frame_needed = 0, uses_anonymous_args = 0
  33              	.LVL0:
ARM GAS  C:\Users\user\AppData\Local\Temp\cc87Wa3n.s 			page 2


  34 0000 2DE9F041 		push	{r4, r5, r6, r7, r8, lr}
  35              		.cfi_def_cfa_offset 24
  36              		.cfi_offset 4, -24
  37              		.cfi_offset 5, -20
  38              		.cfi_offset 6, -16
  39              		.cfi_offset 7, -12
  40              		.cfi_offset 8, -8
  41              		.cfi_offset 14, -4
  42 0004 82B0     		sub	sp, sp, #8
  43              		.cfi_def_cfa_offset 32
  44 0006 8846     		mov	r8, r1
  45 0008 1646     		mov	r6, r2
  46 000a 1D46     		mov	r5, r3
  25:Accelerometre.c ****     Cy_SCB_I2C_MasterSendStart(I2C_1_HW,dev_addr,CY_SCB_I2C_WRITE_XFER,0,&I2C_1_context); // start 
  47              		.loc 1 25 0
  48 000c 104C     		ldr	r4, .L5
  49 000e 114F     		ldr	r7, .L5+4
  50 0010 0097     		str	r7, [sp]
  51 0012 0023     		movs	r3, #0
  52              	.LVL1:
  53 0014 1A46     		mov	r2, r3
  54              	.LVL2:
  55 0016 0146     		mov	r1, r0
  56              	.LVL3:
  57 0018 2046     		mov	r0, r4
  58              	.LVL4:
  59 001a FFF7FEFF 		bl	Cy_SCB_I2C_MasterSendStart
  60              	.LVL5:
  26:Accelerometre.c ****     Cy_SCB_I2C_MasterWriteByte(I2C_1_HW,reg_addr,0,&I2C_1_context); // sent the register we want to
  61              		.loc 1 26 0
  62 001e 3B46     		mov	r3, r7
  63 0020 0022     		movs	r2, #0
  64 0022 4146     		mov	r1, r8
  65 0024 2046     		mov	r0, r4
  66 0026 FFF7FEFF 		bl	Cy_SCB_I2C_MasterWriteByte
  67              	.LVL6:
  68              	.LBB2:
  27:Accelerometre.c ****     for ( int i = 0 ; i<lenght; i++){
  69              		.loc 1 27 0
  70 002a 0024     		movs	r4, #0
  71 002c 06E0     		b	.L2
  72              	.LVL7:
  73              	.L3:
  28:Accelerometre.c ****         
  29:Accelerometre.c ****         Cy_SCB_I2C_MasterWriteByte(I2C_1_HW,data[i],0,&I2C_1_context); // writing  the byte
  74              		.loc 1 29 0 discriminator 3
  75 002e 094B     		ldr	r3, .L5+4
  76 0030 0022     		movs	r2, #0
  77 0032 315D     		ldrb	r1, [r6, r4]	@ zero_extendqisi2
  78 0034 0648     		ldr	r0, .L5
  79 0036 FFF7FEFF 		bl	Cy_SCB_I2C_MasterWriteByte
  80              	.LVL8:
  27:Accelerometre.c ****     for ( int i = 0 ; i<lenght; i++){
  81              		.loc 1 27 0 discriminator 3
  82 003a 0134     		adds	r4, r4, #1
  83              	.LVL9:
  84              	.L2:
ARM GAS  C:\Users\user\AppData\Local\Temp\cc87Wa3n.s 			page 3


  27:Accelerometre.c ****     for ( int i = 0 ; i<lenght; i++){
  85              		.loc 1 27 0 is_stmt 0 discriminator 1
  86 003c AC42     		cmp	r4, r5
  87 003e F6DB     		blt	.L3
  88              	.LBE2:
  30:Accelerometre.c ****         }
  31:Accelerometre.c ****     
  32:Accelerometre.c ****     Cy_SCB_I2C_MasterSendStop(I2C_1_HW,0,&I2C_1_context); // stop
  89              		.loc 1 32 0 is_stmt 1
  90 0040 044A     		ldr	r2, .L5+4
  91 0042 0021     		movs	r1, #0
  92 0044 0248     		ldr	r0, .L5
  93 0046 FFF7FEFF 		bl	Cy_SCB_I2C_MasterSendStop
  94              	.LVL10:
  33:Accelerometre.c ****     // procedure comme celle Data sheet du BMI page 94
  34:Accelerometre.c ****    
  35:Accelerometre.c **** 
  36:Accelerometre.c **** 
  37:Accelerometre.c **** }
  95              		.loc 1 37 0
  96 004a 02B0     		add	sp, sp, #8
  97              		.cfi_def_cfa_offset 24
  98              		@ sp needed
  99 004c BDE8F081 		pop	{r4, r5, r6, r7, r8, pc}
 100              	.LVL11:
 101              	.L6:
 102              		.align	2
 103              	.L5:
 104 0050 00006440 		.word	1080295424
 105 0054 00000000 		.word	I2C_1_context
 106              		.cfi_endproc
 107              	.LFE661:
 108              		.size	BMI160BurstWrite, .-BMI160BurstWrite
 109              		.section	.text.BMI160BurstRead,"ax",%progbits
 110              		.align	2
 111              		.global	BMI160BurstRead
 112              		.thumb
 113              		.thumb_func
 114              		.type	BMI160BurstRead, %function
 115              	BMI160BurstRead:
 116              	.LFB663:
  38:Accelerometre.c **** /* Lis une seul valeur*/
  39:Accelerometre.c ****  void BMI160Read (uint8_t dev_addr, uint8_t reg_addr, uint8_t *data)
  40:Accelerometre.c **** {
  41:Accelerometre.c **** 
  42:Accelerometre.c ****     Cy_SCB_I2C_MasterSendStart(I2C_1_HW,dev_addr,CY_SCB_I2C_WRITE_XFER,0,&I2C_1_context); // START
  43:Accelerometre.c ****     Cy_SCB_I2C_MasterWriteByte(I2C_1_HW,reg_addr,0,&I2C_1_context);// Écris le registre ou l'on ve
  44:Accelerometre.c ****     Cy_SCB_I2C_MasterSendReStart(I2C_1_HW,dev_addr,CY_SCB_I2C_READ_XFER,0,&I2C_1_context);//Envoyer
  45:Accelerometre.c ****     Cy_SCB_I2C_MasterReadByte(I2C_1_HW,CY_SCB_I2C_NAK,data,0,&I2C_1_context); //Lire et envoyer NAK
  46:Accelerometre.c ****     Cy_SCB_I2C_MasterSendStop(I2C_1_HW,0,&I2C_1_context);//I2C stop
  47:Accelerometre.c ****     
  48:Accelerometre.c **** }
  49:Accelerometre.c **** /* Lis plusieur valeurs consécutives car le registre s'incrémente automatiquement de 1*/
  50:Accelerometre.c ****  void BMI160BurstRead (uint8_t dev_addr, uint8_t reg_addr, uint8_t *data, uint16_t lenght) // Burst
  51:Accelerometre.c **** {
 117              		.loc 1 51 0
 118              		.cfi_startproc
ARM GAS  C:\Users\user\AppData\Local\Temp\cc87Wa3n.s 			page 4


 119              		@ args = 0, pretend = 0, frame = 0
 120              		@ frame_needed = 0, uses_anonymous_args = 0
 121              	.LVL12:
 122 0000 2DE9F043 		push	{r4, r5, r6, r7, r8, r9, lr}
 123              		.cfi_def_cfa_offset 28
 124              		.cfi_offset 4, -28
 125              		.cfi_offset 5, -24
 126              		.cfi_offset 6, -20
 127              		.cfi_offset 7, -16
 128              		.cfi_offset 8, -12
 129              		.cfi_offset 9, -8
 130              		.cfi_offset 14, -4
 131 0004 83B0     		sub	sp, sp, #12
 132              		.cfi_def_cfa_offset 40
 133 0006 8046     		mov	r8, r0
 134 0008 8946     		mov	r9, r1
 135 000a 1646     		mov	r6, r2
 136 000c 1D46     		mov	r5, r3
  52:Accelerometre.c **** 
  53:Accelerometre.c ****     Cy_SCB_I2C_MasterSendStart(I2C_1_HW,dev_addr,CY_SCB_I2C_WRITE_XFER,0,&I2C_1_context); // start
 137              		.loc 1 53 0
 138 000e 1B4C     		ldr	r4, .L11
 139 0010 1B4F     		ldr	r7, .L11+4
 140 0012 0097     		str	r7, [sp]
 141 0014 0023     		movs	r3, #0
 142              	.LVL13:
 143 0016 1A46     		mov	r2, r3
 144              	.LVL14:
 145 0018 0146     		mov	r1, r0
 146              	.LVL15:
 147 001a 2046     		mov	r0, r4
 148              	.LVL16:
 149 001c FFF7FEFF 		bl	Cy_SCB_I2C_MasterSendStart
 150              	.LVL17:
  54:Accelerometre.c ****     Cy_SCB_I2C_MasterWriteByte(I2C_1_HW,reg_addr,0,&I2C_1_context);// Écris l'adresse du registre 
 151              		.loc 1 54 0
 152 0020 3B46     		mov	r3, r7
 153 0022 0022     		movs	r2, #0
 154 0024 4946     		mov	r1, r9
 155 0026 2046     		mov	r0, r4
 156 0028 FFF7FEFF 		bl	Cy_SCB_I2C_MasterWriteByte
 157              	.LVL18:
  55:Accelerometre.c ****     Cy_SCB_I2C_MasterSendReStart(I2C_1_HW,dev_addr,CY_SCB_I2C_READ_XFER,0,&I2C_1_context);//Envoyer
 158              		.loc 1 55 0
 159 002c 0097     		str	r7, [sp]
 160 002e 0023     		movs	r3, #0
 161 0030 0122     		movs	r2, #1
 162 0032 4146     		mov	r1, r8
 163 0034 2046     		mov	r0, r4
 164 0036 FFF7FEFF 		bl	Cy_SCB_I2C_MasterSendReStart
 165              	.LVL19:
 166              	.LBB3:
  56:Accelerometre.c ****     for ( int i = 0; i<lenght-1; i++ ) // I2C lis tant qu'il y a un ACK envoyé 
 167              		.loc 1 56 0
 168 003a 0024     		movs	r4, #0
 169 003c 08E0     		b	.L8
 170              	.LVL20:
ARM GAS  C:\Users\user\AppData\Local\Temp\cc87Wa3n.s 			page 5


 171              	.L9:
  57:Accelerometre.c ****     {
  58:Accelerometre.c ****         Cy_SCB_I2C_MasterReadByte(I2C_1_HW,CY_SCB_I2C_ACK,&data[i],0,&I2C_1_context); 
 172              		.loc 1 58 0 discriminator 3
 173 003e 104B     		ldr	r3, .L11+4
 174 0040 0093     		str	r3, [sp]
 175 0042 0023     		movs	r3, #0
 176 0044 3219     		adds	r2, r6, r4
 177 0046 1946     		mov	r1, r3
 178 0048 0C48     		ldr	r0, .L11
 179 004a FFF7FEFF 		bl	Cy_SCB_I2C_MasterReadByte
 180              	.LVL21:
  56:Accelerometre.c ****     for ( int i = 0; i<lenght-1; i++ ) // I2C lis tant qu'il y a un ACK envoyé 
 181              		.loc 1 56 0 discriminator 3
 182 004e 0134     		adds	r4, r4, #1
 183              	.LVL22:
 184              	.L8:
  56:Accelerometre.c ****     for ( int i = 0; i<lenght-1; i++ ) // I2C lis tant qu'il y a un ACK envoyé 
 185              		.loc 1 56 0 is_stmt 0 discriminator 1
 186 0050 6B1E     		subs	r3, r5, #1
 187 0052 9C42     		cmp	r4, r3
 188 0054 F3DB     		blt	.L9
 189              	.LBE3:
  59:Accelerometre.c ****     }
  60:Accelerometre.c ****     Cy_SCB_I2C_MasterReadByte(I2C_1_HW,CY_SCB_I2C_NAK,&data[lenght-1],0,&I2C_1_context); // dernier
 190              		.loc 1 60 0 is_stmt 1
 191 0056 1A46     		mov	r2, r3
 192 0058 084C     		ldr	r4, .L11
 193              	.LVL23:
 194 005a 094D     		ldr	r5, .L11+4
 195 005c 0095     		str	r5, [sp]
 196 005e 0023     		movs	r3, #0
 197 0060 3244     		add	r2, r2, r6
 198 0062 0121     		movs	r1, #1
 199 0064 2046     		mov	r0, r4
 200 0066 FFF7FEFF 		bl	Cy_SCB_I2C_MasterReadByte
 201              	.LVL24:
  61:Accelerometre.c ****     Cy_SCB_I2C_MasterSendStop(I2C_1_HW,0,&I2C_1_context);//I2C stop
 202              		.loc 1 61 0
 203 006a 2A46     		mov	r2, r5
 204 006c 0021     		movs	r1, #0
 205 006e 2046     		mov	r0, r4
 206 0070 FFF7FEFF 		bl	Cy_SCB_I2C_MasterSendStop
 207              	.LVL25:
  62:Accelerometre.c ****     // procedure comme celle du DataSheet du BMI 160 page 95
  63:Accelerometre.c **** }
 208              		.loc 1 63 0
 209 0074 03B0     		add	sp, sp, #12
 210              		.cfi_def_cfa_offset 28
 211              		@ sp needed
 212 0076 BDE8F083 		pop	{r4, r5, r6, r7, r8, r9, pc}
 213              	.LVL26:
 214              	.L12:
 215 007a 00BF     		.align	2
 216              	.L11:
 217 007c 00006440 		.word	1080295424
 218 0080 00000000 		.word	I2C_1_context
ARM GAS  C:\Users\user\AppData\Local\Temp\cc87Wa3n.s 			page 6


 219              		.cfi_endproc
 220              	.LFE663:
 221              		.size	BMI160BurstRead, .-BMI160BurstRead
 222              		.section	.text.BMI160Write,"ax",%progbits
 223              		.align	2
 224              		.global	BMI160Write
 225              		.thumb
 226              		.thumb_func
 227              		.type	BMI160Write, %function
 228              	BMI160Write:
 229              	.LFB660:
  14:Accelerometre.c ****     Cy_SCB_I2C_MasterSendStart(I2C_1_HW,dev_addr,CY_SCB_I2C_WRITE_XFER,0,&I2C_1_context); // start 
 230              		.loc 1 14 0
 231              		.cfi_startproc
 232              		@ args = 0, pretend = 0, frame = 0
 233              		@ frame_needed = 0, uses_anonymous_args = 0
 234              	.LVL27:
 235 0000 F0B5     		push	{r4, r5, r6, r7, lr}
 236              		.cfi_def_cfa_offset 20
 237              		.cfi_offset 4, -20
 238              		.cfi_offset 5, -16
 239              		.cfi_offset 6, -12
 240              		.cfi_offset 7, -8
 241              		.cfi_offset 14, -4
 242 0002 83B0     		sub	sp, sp, #12
 243              		.cfi_def_cfa_offset 32
 244 0004 0F46     		mov	r7, r1
 245 0006 1646     		mov	r6, r2
  15:Accelerometre.c ****     Cy_SCB_I2C_MasterWriteByte(I2C_1_HW,reg_addr,0,&I2C_1_context); // sent the register we want to
 246              		.loc 1 15 0
 247 0008 0D4C     		ldr	r4, .L15
 248 000a 0E4D     		ldr	r5, .L15+4
 249 000c 0095     		str	r5, [sp]
 250 000e 0023     		movs	r3, #0
 251 0010 1A46     		mov	r2, r3
 252              	.LVL28:
 253 0012 0146     		mov	r1, r0
 254              	.LVL29:
 255 0014 2046     		mov	r0, r4
 256              	.LVL30:
 257 0016 FFF7FEFF 		bl	Cy_SCB_I2C_MasterSendStart
 258              	.LVL31:
  16:Accelerometre.c ****     Cy_SCB_I2C_MasterWriteByte(I2C_1_HW,data,0,&I2C_1_context); // writing  the byte
 259              		.loc 1 16 0
 260 001a 2B46     		mov	r3, r5
 261 001c 0022     		movs	r2, #0
 262 001e 3946     		mov	r1, r7
 263 0020 2046     		mov	r0, r4
 264 0022 FFF7FEFF 		bl	Cy_SCB_I2C_MasterWriteByte
 265              	.LVL32:
  17:Accelerometre.c ****     Cy_SCB_I2C_MasterSendStop(I2C_1_HW,0,&I2C_1_context); // stop
 266              		.loc 1 17 0
 267 0026 2B46     		mov	r3, r5
 268 0028 0022     		movs	r2, #0
 269 002a 3146     		mov	r1, r6
 270 002c 2046     		mov	r0, r4
 271 002e FFF7FEFF 		bl	Cy_SCB_I2C_MasterWriteByte
ARM GAS  C:\Users\user\AppData\Local\Temp\cc87Wa3n.s 			page 7


 272              	.LVL33:
  18:Accelerometre.c ****     // procedure comme celle Data sheet du BMI page 94
 273              		.loc 1 18 0
 274 0032 2A46     		mov	r2, r5
 275 0034 0021     		movs	r1, #0
 276 0036 2046     		mov	r0, r4
 277 0038 FFF7FEFF 		bl	Cy_SCB_I2C_MasterSendStop
 278              	.LVL34:
  21:Accelerometre.c **** /* BMI 160Write écris une seul valeur*/
 279              		.loc 1 21 0
 280 003c 03B0     		add	sp, sp, #12
 281              		.cfi_def_cfa_offset 20
 282              		@ sp needed
 283 003e F0BD     		pop	{r4, r5, r6, r7, pc}
 284              	.L16:
 285              		.align	2
 286              	.L15:
 287 0040 00006440 		.word	1080295424
 288 0044 00000000 		.word	I2C_1_context
 289              		.cfi_endproc
 290              	.LFE660:
 291              		.size	BMI160Write, .-BMI160Write
 292              		.section	.text.BMI160Read,"ax",%progbits
 293              		.align	2
 294              		.global	BMI160Read
 295              		.thumb
 296              		.thumb_func
 297              		.type	BMI160Read, %function
 298              	BMI160Read:
 299              	.LFB662:
  40:Accelerometre.c **** 
 300              		.loc 1 40 0
 301              		.cfi_startproc
 302              		@ args = 0, pretend = 0, frame = 0
 303              		@ frame_needed = 0, uses_anonymous_args = 0
 304              	.LVL35:
 305 0000 2DE9F041 		push	{r4, r5, r6, r7, r8, lr}
 306              		.cfi_def_cfa_offset 24
 307              		.cfi_offset 4, -24
 308              		.cfi_offset 5, -20
 309              		.cfi_offset 6, -16
 310              		.cfi_offset 7, -12
 311              		.cfi_offset 8, -8
 312              		.cfi_offset 14, -4
 313 0004 82B0     		sub	sp, sp, #8
 314              		.cfi_def_cfa_offset 32
 315 0006 0646     		mov	r6, r0
 316 0008 8846     		mov	r8, r1
 317 000a 1746     		mov	r7, r2
  42:Accelerometre.c ****     Cy_SCB_I2C_MasterWriteByte(I2C_1_HW,reg_addr,0,&I2C_1_context);// Écris le registre ou l'on ve
 318              		.loc 1 42 0
 319 000c 124C     		ldr	r4, .L19
 320 000e 134D     		ldr	r5, .L19+4
 321 0010 0095     		str	r5, [sp]
 322 0012 0023     		movs	r3, #0
 323 0014 1A46     		mov	r2, r3
 324              	.LVL36:
ARM GAS  C:\Users\user\AppData\Local\Temp\cc87Wa3n.s 			page 8


 325 0016 0146     		mov	r1, r0
 326              	.LVL37:
 327 0018 2046     		mov	r0, r4
 328              	.LVL38:
 329 001a FFF7FEFF 		bl	Cy_SCB_I2C_MasterSendStart
 330              	.LVL39:
  43:Accelerometre.c ****     Cy_SCB_I2C_MasterSendReStart(I2C_1_HW,dev_addr,CY_SCB_I2C_READ_XFER,0,&I2C_1_context);//Envoyer
 331              		.loc 1 43 0
 332 001e 2B46     		mov	r3, r5
 333 0020 0022     		movs	r2, #0
 334 0022 4146     		mov	r1, r8
 335 0024 2046     		mov	r0, r4
 336 0026 FFF7FEFF 		bl	Cy_SCB_I2C_MasterWriteByte
 337              	.LVL40:
  44:Accelerometre.c ****     Cy_SCB_I2C_MasterReadByte(I2C_1_HW,CY_SCB_I2C_NAK,data,0,&I2C_1_context); //Lire et envoyer NAK
 338              		.loc 1 44 0
 339 002a 0095     		str	r5, [sp]
 340 002c 0023     		movs	r3, #0
 341 002e 0122     		movs	r2, #1
 342 0030 3146     		mov	r1, r6
 343 0032 2046     		mov	r0, r4
 344 0034 FFF7FEFF 		bl	Cy_SCB_I2C_MasterSendReStart
 345              	.LVL41:
  45:Accelerometre.c ****     Cy_SCB_I2C_MasterSendStop(I2C_1_HW,0,&I2C_1_context);//I2C stop
 346              		.loc 1 45 0
 347 0038 0095     		str	r5, [sp]
 348 003a 0023     		movs	r3, #0
 349 003c 3A46     		mov	r2, r7
 350 003e 0121     		movs	r1, #1
 351 0040 2046     		mov	r0, r4
 352 0042 FFF7FEFF 		bl	Cy_SCB_I2C_MasterReadByte
 353              	.LVL42:
  46:Accelerometre.c ****     
 354              		.loc 1 46 0
 355 0046 2A46     		mov	r2, r5
 356 0048 0021     		movs	r1, #0
 357 004a 2046     		mov	r0, r4
 358 004c FFF7FEFF 		bl	Cy_SCB_I2C_MasterSendStop
 359              	.LVL43:
  48:Accelerometre.c **** /* Lis plusieur valeurs consécutives car le registre s'incrémente automatiquement de 1*/
 360              		.loc 1 48 0
 361 0050 02B0     		add	sp, sp, #8
 362              		.cfi_def_cfa_offset 24
 363              		@ sp needed
 364 0052 BDE8F081 		pop	{r4, r5, r6, r7, r8, pc}
 365              	.LVL44:
 366              	.L20:
 367 0056 00BF     		.align	2
 368              	.L19:
 369 0058 00006440 		.word	1080295424
 370 005c 00000000 		.word	I2C_1_context
 371              		.cfi_endproc
 372              	.LFE662:
 373              		.size	BMI160Read, .-BMI160Read
 374              		.section	.text.bmi160Init,"ax",%progbits
 375              		.align	2
 376              		.global	bmi160Init
ARM GAS  C:\Users\user\AppData\Local\Temp\cc87Wa3n.s 			page 9


 377              		.thumb
 378              		.thumb_func
 379              		.type	bmi160Init, %function
 380              	bmi160Init:
 381              	.LFB664:
  64:Accelerometre.c **** 
  65:Accelerometre.c ****  void bmi160Init (void)
  66:Accelerometre.c **** {
 382              		.loc 1 66 0
 383              		.cfi_startproc
 384              		@ args = 0, pretend = 0, frame = 16
 385              		@ frame_needed = 0, uses_anonymous_args = 0
 386 0000 30B5     		push	{r4, r5, lr}
 387              		.cfi_def_cfa_offset 12
 388              		.cfi_offset 4, -12
 389              		.cfi_offset 5, -8
 390              		.cfi_offset 14, -4
 391 0002 85B0     		sub	sp, sp, #20
 392              		.cfi_def_cfa_offset 32
  67:Accelerometre.c ****     vTaskDelay(100);
 393              		.loc 1 67 0
 394 0004 6420     		movs	r0, #100
 395 0006 FFF7FEFF 		bl	vTaskDelay
 396              	.LVL45:
  68:Accelerometre.c ****     
  69:Accelerometre.c ****  /* BMI160*/
  70:Accelerometre.c ****     
  71:Accelerometre.c **** bmi160Dev.read = (bmi160_com_fptr_t) BMI160BurstRead; // assigner fonction de lecture au BMI
 397              		.loc 1 71 0
 398 000a 2A4C     		ldr	r4, .L25
 399 000c 2A4B     		ldr	r3, .L25+4
 400 000e E361     		str	r3, [r4, #28]
  72:Accelerometre.c **** bmi160Dev.write = (bmi160_com_fptr_t)BMI160BurstWrite; // assigner fonction d'écriture au BMI
 401              		.loc 1 72 0
 402 0010 2A4B     		ldr	r3, .L25+8
 403 0012 2362     		str	r3, [r4, #32]
  73:Accelerometre.c **** bmi160Dev.delay_ms = (bmi160_delay_fptr_t)vTaskDelay;
 404              		.loc 1 73 0
 405 0014 2A4B     		ldr	r3, .L25+12
 406 0016 6362     		str	r3, [r4, #36]
  74:Accelerometre.c **** bmi160Dev.id = BMI160_I2C_ADDR; //I2C adress
 407              		.loc 1 74 0
 408 0018 6823     		movs	r3, #104
 409 001a 6370     		strb	r3, [r4, #1]
  75:Accelerometre.c **** 
  76:Accelerometre.c **** bmi160_init(&bmi160Dev); // initialize the device
 410              		.loc 1 76 0
 411 001c 2046     		mov	r0, r4
 412 001e FFF7FEFF 		bl	bmi160_init
 413              	.LVL46:
  77:Accelerometre.c **** 
  78:Accelerometre.c **** bmi160Dev.gyro_cfg.odr = BMI160_GYRO_ODR_800HZ;
 414              		.loc 1 78 0
 415 0022 0B23     		movs	r3, #11
 416 0024 6373     		strb	r3, [r4, #13]
  79:Accelerometre.c **** bmi160Dev.gyro_cfg.range = BMI160_GYRO_RANGE_125_DPS;
 417              		.loc 1 79 0
ARM GAS  C:\Users\user\AppData\Local\Temp\cc87Wa3n.s 			page 10


 418 0026 0423     		movs	r3, #4
 419 0028 A373     		strb	r3, [r4, #14]
  80:Accelerometre.c **** bmi160Dev.gyro_cfg.bw = BMI160_GYRO_BW_OSR4_MODE;
 420              		.loc 1 80 0
 421 002a 0025     		movs	r5, #0
 422 002c E573     		strb	r5, [r4, #15]
  81:Accelerometre.c **** 
  82:Accelerometre.c ****     /* Select the power mode of Gyroscope sensor */
  83:Accelerometre.c **** 
  84:Accelerometre.c **** bmi160Dev.gyro_cfg.power = BMI160_GYRO_NORMAL_MODE;
 423              		.loc 1 84 0
 424 002e 1523     		movs	r3, #21
 425 0030 2373     		strb	r3, [r4, #12]
  85:Accelerometre.c **** bmi160Dev.accel_cfg.odr = BMI160_ACCEL_ODR_1600HZ;
 426              		.loc 1 85 0
 427 0032 0C23     		movs	r3, #12
 428 0034 6371     		strb	r3, [r4, #5]
  86:Accelerometre.c **** bmi160Dev.accel_cfg.range = BMI160_ACCEL_RANGE_2G;
 429              		.loc 1 86 0
 430 0036 0323     		movs	r3, #3
 431 0038 A371     		strb	r3, [r4, #6]
  87:Accelerometre.c **** bmi160Dev.accel_cfg.bw = BMI160_ACCEL_BW_OSR4_AVG1;
 432              		.loc 1 87 0
 433 003a E571     		strb	r5, [r4, #7]
  88:Accelerometre.c **** bmi160Dev.accel_cfg.power = BMI160_ACCEL_NORMAL_MODE;
 434              		.loc 1 88 0
 435 003c 1123     		movs	r3, #17
 436 003e 2371     		strb	r3, [r4, #4]
  89:Accelerometre.c **** 
  90:Accelerometre.c ****     /* Set the sensor configuration */
  91:Accelerometre.c **** 
  92:Accelerometre.c ****     bmi160_set_sens_conf(&bmi160Dev);
 437              		.loc 1 92 0
 438 0040 2046     		mov	r0, r4
 439 0042 FFF7FEFF 		bl	bmi160_set_sens_conf
 440              	.LVL47:
  93:Accelerometre.c ****     bmi160Dev.delay_ms(50);
 441              		.loc 1 93 0
 442 0046 636A     		ldr	r3, [r4, #36]
 443 0048 3220     		movs	r0, #50
 444 004a 9847     		blx	r3
 445              	.LVL48:
  94:Accelerometre.c ****     
  95:Accelerometre.c ****      /*Set any motion interrupt*/
  96:Accelerometre.c ****     
  97:Accelerometre.c ****     uint8_t rslt = 0;
  98:Accelerometre.c ****     struct bmi160_int_settg int_config;
  99:Accelerometre.c ****     
 100:Accelerometre.c **** 
 101:Accelerometre.c ****     int_config.int_channel = BMI160_INT_CHANNEL_1; // na - Select the interrupt channel
 446              		.loc 1 101 0
 447 004c 0122     		movs	r2, #1
 448 004e 8DF80420 		strb	r2, [sp, #4]
 102:Accelerometre.c ****     int_config.int_type = BMI160_ACC_ANY_MOTION_INT; // na - choosing Any Motion Interrupt
 449              		.loc 1 102 0
 450 0052 8DF80550 		strb	r5, [sp, #5]
 103:Accelerometre.c **** 
ARM GAS  C:\Users\user\AppData\Local\Temp\cc87Wa3n.s 			page 11


 104:Accelerometre.c ****   // na - the following configuration is written to registers (0x53) INT_OUT_CTRL & (0x54) INT_LATC
 105:Accelerometre.c ****   int_config.int_pin_settg.output_en = BMI160_ENABLE;             // na - Enabling interrupt pin as
 451              		.loc 1 105 0
 452 0056 9DF80630 		ldrb	r3, [sp, #6]	@ zero_extendqisi2
 106:Accelerometre.c ****   int_config.int_pin_settg.output_mode = BMI160_DISABLE;          // na - Selecting push-pull mode 
 453              		.loc 1 106 0
 454 005a 1343     		orrs	r3, r3, r2
 107:Accelerometre.c ****   int_config.int_pin_settg.output_type = BMI160_ENABLE;           // na - Setting interrupt pin to 
 455              		.loc 1 107 0
 456 005c 03F0FD03 		and	r3, r3, #253
 108:Accelerometre.c ****   int_config.int_pin_settg.edge_ctrl = BMI160_ENABLE;             // na - Enabling edge trigger -> 
 109:Accelerometre.c ****   int_config.int_pin_settg.input_en = BMI160_DISABLE;             // na - Disabling interrupt pin t
 457              		.loc 1 109 0
 458 0060 43F00C03 		orr	r3, r3, #12
 459 0064 65F30413 		bfi	r3, r5, #4, #1
 460 0068 8DF80630 		strb	r3, [sp, #6]
 110:Accelerometre.c ****   int_config.int_pin_settg.latch_dur = BMI160_LATCH_DUR_2_56_SEC; // na - non-latched output -> reg
 461              		.loc 1 110 0
 462 006c BDF80630 		ldrh	r3, [sp, #6]
 463 0070 0E21     		movs	r1, #14
 464 0072 61F34813 		bfi	r3, r1, #5, #4
 465 0076 ADF80630 		strh	r3, [sp, #6]	@ movhi
 111:Accelerometre.c **** 
 112:Accelerometre.c ****   // na - Select the Any Motion Interrupt parameter
 113:Accelerometre.c ****   int_config.int_type_cfg.acc_any_motion_int.anymotion_en = BMI160_ENABLE; // na - 1- Enable the an
 466              		.loc 1 113 0
 467 007a 9DF80830 		ldrb	r3, [sp, #8]	@ zero_extendqisi2
 114:Accelerometre.c ****   int_config.int_type_cfg.acc_any_motion_int.anymotion_x = BMI160_ENABLE;  // na - Enabling x-axis 
 115:Accelerometre.c ****   int_config.int_type_cfg.acc_any_motion_int.anymotion_y = BMI160_ENABLE;  // na - Enabling y-axis 
 116:Accelerometre.c ****   int_config.int_type_cfg.acc_any_motion_int.anymotion_z = BMI160_ENABLE;  // na - Enabling z-axis 
 117:Accelerometre.c ****   int_config.int_type_cfg.acc_any_motion_int.anymotion_dur = 0;            // na - any-motion durat
 468              		.loc 1 117 0
 469 007e 43F00F03 		orr	r3, r3, #15
 470 0082 65F30513 		bfi	r3, r5, #4, #2
 471 0086 8DF80830 		strb	r3, [sp, #8]
 118:Accelerometre.c ****   int_config.int_type_cfg.acc_any_motion_int.anymotion_thr = 1;           // na - An interrupt will
 472              		.loc 1 118 0
 473 008a 8DF80920 		strb	r2, [sp, #9]
 119:Accelerometre.c ****                                                                            // na - (2-g range) -> (
 120:Accelerometre.c **** 
 121:Accelerometre.c ****   rslt = bmi160_set_int_config(&int_config, &bmi160Dev); // na - Set Any-motion interrupt
 474              		.loc 1 121 0
 475 008e 2146     		mov	r1, r4
 476 0090 01A8     		add	r0, sp, #4
 477 0092 FFF7FEFF 		bl	bmi160_set_int_config
 478              	.LVL49:
 479 0096 C4B2     		uxtb	r4, r0
 480              	.LVL50:
 122:Accelerometre.c ****   printf("rslt: %d", rslt);
 481              		.loc 1 122 0
 482 0098 2146     		mov	r1, r4
 483 009a 0A48     		ldr	r0, .L25+16
 484 009c FFF7FEFF 		bl	printf
 485              	.LVL51:
 123:Accelerometre.c **** 
 124:Accelerometre.c ****   if (rslt != BMI160_OK) { // Verifie si la configuration de l'ANYMOTION interrupt se fait correcte
 486              		.loc 1 124 0
ARM GAS  C:\Users\user\AppData\Local\Temp\cc87Wa3n.s 			page 12


 487 00a0 1CB1     		cbz	r4, .L22
 125:Accelerometre.c ****     printf("BMI160 Any-motion interrupt configuration failure!\n");
 488              		.loc 1 125 0
 489 00a2 0948     		ldr	r0, .L25+20
 490 00a4 FFF7FEFF 		bl	puts
 491              	.LVL52:
 492 00a8 02E0     		b	.L21
 493              	.L22:
 126:Accelerometre.c ****   } else {
 127:Accelerometre.c ****     printf("BMI160 Any-motion interrupt configuration done!\n");
 494              		.loc 1 127 0
 495 00aa 0848     		ldr	r0, .L25+24
 496 00ac FFF7FEFF 		bl	puts
 497              	.LVL53:
 498              	.L21:
 128:Accelerometre.c ****   }
 129:Accelerometre.c **** 
 130:Accelerometre.c ****     
 131:Accelerometre.c ****     
 132:Accelerometre.c **** 
 133:Accelerometre.c **** }
 499              		.loc 1 133 0
 500 00b0 05B0     		add	sp, sp, #20
 501              		.cfi_def_cfa_offset 12
 502              		@ sp needed
 503 00b2 30BD     		pop	{r4, r5, pc}
 504              	.LVL54:
 505              	.L26:
 506              		.align	2
 507              	.L25:
 508 00b4 00000000 		.word	.LANCHOR0
 509 00b8 00000000 		.word	BMI160BurstRead
 510 00bc 00000000 		.word	BMI160BurstWrite
 511 00c0 00000000 		.word	vTaskDelay
 512 00c4 00000000 		.word	.LC0
 513 00c8 0C000000 		.word	.LC1
 514 00cc 40000000 		.word	.LC2
 515              		.cfi_endproc
 516              	.LFE664:
 517              		.size	bmi160Init, .-bmi160Init
 518              		.section	.text.GetInterruptStatus,"ax",%progbits
 519              		.align	2
 520              		.global	GetInterruptStatus
 521              		.thumb
 522              		.thumb_func
 523              		.type	GetInterruptStatus, %function
 524              	GetInterruptStatus:
 525              	.LFB665:
 134:Accelerometre.c **** //32768 = 2g
 135:Accelerometre.c **** 
 136:Accelerometre.c **** #define MAXACCEL (32768/2)
 137:Accelerometre.c **** 
 138:Accelerometre.c **** void GetInterruptStatus (void*arg) 
 139:Accelerometre.c **** {
 526              		.loc 1 139 0
 527              		.cfi_startproc
 528              		@ args = 0, pretend = 0, frame = 8
ARM GAS  C:\Users\user\AppData\Local\Temp\cc87Wa3n.s 			page 13


 529              		@ frame_needed = 0, uses_anonymous_args = 0
 530              	.LVL55:
 531 0000 00B5     		push	{lr}
 532              		.cfi_def_cfa_offset 4
 533              		.cfi_offset 14, -4
 534 0002 83B0     		sub	sp, sp, #12
 535              		.cfi_def_cfa_offset 16
 140:Accelerometre.c ****     (void)arg;
 141:Accelerometre.c ****     union bmi160_int_status int_status;
 142:Accelerometre.c ****     uint8_t rslt;
 143:Accelerometre.c ****     //initialisation
 144:Accelerometre.c ****     I2C_1_Start();
 536              		.loc 1 144 0
 537 0004 FFF7FEFF 		bl	I2C_1_Start
 538              	.LVL56:
 145:Accelerometre.c ****     bmi160Init();
 539              		.loc 1 145 0
 540 0008 FFF7FEFF 		bl	bmi160Init
 541              	.LVL57:
 542              	.L28:
 146:Accelerometre.c ****     
 147:Accelerometre.c ****     for(;;){
 148:Accelerometre.c ****         
 149:Accelerometre.c ****       rslt = bmi160_get_int_status(BMI160_INT_STATUS_0,&int_status,&bmi160Dev);
 543              		.loc 1 149 0
 544 000c 0D4A     		ldr	r2, .L32
 545 000e 01A9     		add	r1, sp, #4
 546 0010 0120     		movs	r0, #1
 547 0012 FFF7FEFF 		bl	bmi160_get_int_status
 548              	.LVL58:
 150:Accelerometre.c ****        if ( int_status.bit.anym == 1){
 549              		.loc 1 150 0
 550 0016 9DF80430 		ldrb	r3, [sp, #4]	@ zero_extendqisi2
 551 001a 03F00403 		and	r3, r3, #4
 552 001e 03F0FF02 		and	r2, r3, #255
 553 0022 33B1     		cbz	r3, .L29
 151:Accelerometre.c ****         printf(" ANYMOTION interrupt \r\n");
 554              		.loc 1 151 0
 555 0024 0848     		ldr	r0, .L32+4
 556 0026 FFF7FEFF 		bl	puts
 557              	.LVL59:
 152:Accelerometre.c ****          AlarmeBMI160 = true; // Signal de l'alarme on
 558              		.loc 1 152 0
 559 002a 0122     		movs	r2, #1
 560 002c 074B     		ldr	r3, .L32+8
 561 002e 1A70     		strb	r2, [r3]
 562 0030 ECE7     		b	.L28
 563              	.L29:
 153:Accelerometre.c ****         }
 154:Accelerometre.c ****     else if ( int_status.bit.anym == 0){
 564              		.loc 1 154 0
 565 0032 002A     		cmp	r2, #0
 566 0034 EAD1     		bne	.L28
 155:Accelerometre.c ****         printf(" NO ANYMOTION interrupt \r\n");
 567              		.loc 1 155 0
 568 0036 0648     		ldr	r0, .L32+12
 569 0038 FFF7FEFF 		bl	puts
ARM GAS  C:\Users\user\AppData\Local\Temp\cc87Wa3n.s 			page 14


 570              	.LVL60:
 156:Accelerometre.c ****          AlarmeBMI160 = false; // Signal de l'alarme off
 571              		.loc 1 156 0
 572 003c 0022     		movs	r2, #0
 573 003e 034B     		ldr	r3, .L32+8
 574 0040 1A70     		strb	r2, [r3]
 575 0042 E3E7     		b	.L28
 576              	.L33:
 577              		.align	2
 578              	.L32:
 579 0044 00000000 		.word	.LANCHOR0
 580 0048 70000000 		.word	.LC3
 581 004c 00000000 		.word	AlarmeBMI160
 582 0050 88000000 		.word	.LC4
 583              		.cfi_endproc
 584              	.LFE665:
 585              		.size	GetInterruptStatus, .-GetInterruptStatus
 586              		.global	__aeabi_f2d
 587              		.section	.text.motionTask,"ax",%progbits
 588              		.align	2
 589              		.global	motionTask
 590              		.thumb
 591              		.thumb_func
 592              		.type	motionTask, %function
 593              	motionTask:
 594              	.LFB666:
 157:Accelerometre.c ****         }
 158:Accelerometre.c ****     
 159:Accelerometre.c ****     }
 160:Accelerometre.c ****     vTaskDelay(pdMS_TO_TICKS(100));
 161:Accelerometre.c **** }
 162:Accelerometre.c ****          
 163:Accelerometre.c ****     void motionTask (void *arg) // tache de test pour s'assurer que la config a bien été faite et
 164:Accelerometre.c **** {
 595              		.loc 1 164 0
 596              		.cfi_startproc
 597              		@ args = 0, pretend = 0, frame = 16
 598              		@ frame_needed = 0, uses_anonymous_args = 0
 599              	.LVL61:
 600 0000 30B5     		push	{r4, r5, lr}
 601              		.cfi_def_cfa_offset 12
 602              		.cfi_offset 4, -12
 603              		.cfi_offset 5, -8
 604              		.cfi_offset 14, -4
 605 0002 2DED028B 		vpush.64	{d8}
 606              		.cfi_def_cfa_offset 20
 607              		.cfi_offset 80, -20
 608              		.cfi_offset 81, -16
 609 0006 89B0     		sub	sp, sp, #36
 610              		.cfi_def_cfa_offset 56
 165:Accelerometre.c ****     (void)arg;
 166:Accelerometre.c ****     I2C_1_Start();
 611              		.loc 1 166 0
 612 0008 FFF7FEFF 		bl	I2C_1_Start
 613              	.LVL62:
 167:Accelerometre.c ****     bmi160Init();
 614              		.loc 1 167 0
ARM GAS  C:\Users\user\AppData\Local\Temp\cc87Wa3n.s 			page 15


 615 000c FFF7FEFF 		bl	bmi160Init
 616              	.LVL63:
 617              	.L35:
 168:Accelerometre.c ****     struct bmi160_sensor_data acceleration;
 169:Accelerometre.c ****     
 170:Accelerometre.c ****     float gx,gy,gz;
 171:Accelerometre.c ****     
 172:Accelerometre.c ****     for(;;)
 173:Accelerometre.c ****     {
 174:Accelerometre.c **** 
 175:Accelerometre.c ****         bmi160_get_sensor_data(BMI160_ACCEL_ONLY, &acceleration, NULL, &bmi160Dev); // on veut uniq
 618              		.loc 1 175 0 discriminator 1
 619 0010 1D4B     		ldr	r3, .L37
 620 0012 0022     		movs	r2, #0
 621 0014 05A9     		add	r1, sp, #20
 622 0016 0120     		movs	r0, #1
 623 0018 FFF7FEFF 		bl	bmi160_get_sensor_data
 624              	.LVL64:
 176:Accelerometre.c ****         
 177:Accelerometre.c ****         gx = (float)acceleration.x/MAXACCEL; // display des valeurs pour le test
 625              		.loc 1 177 0 discriminator 1
 626 001c BDF91430 		ldrsh	r3, [sp, #20]
 627 0020 07EE103A 		vmov	s14, r3	@ int
 628 0024 B8EEC77A 		vcvt.f32.s32	s14, s14
 629 0028 DFED187A 		vldr.32	s15, .L37+4
 630              	.LVL65:
 178:Accelerometre.c ****         gy = (float)acceleration.y/MAXACCEL;
 631              		.loc 1 178 0 discriminator 1
 632 002c BDF91630 		ldrsh	r3, [sp, #22]
 633 0030 08EE103A 		vmov	s16, r3	@ int
 634 0034 B8EEC88A 		vcvt.f32.s32	s16, s16
 635 0038 28EE278A 		vmul.f32	s16, s16, s15
 636              	.LVL66:
 179:Accelerometre.c ****         gz = (float)acceleration.z/MAXACCEL;
 637              		.loc 1 179 0 discriminator 1
 638 003c BDF91830 		ldrsh	r3, [sp, #24]
 639 0040 08EE903A 		vmov	s17, r3	@ int
 640 0044 F8EEE88A 		vcvt.f32.s32	s17, s17
 641 0048 68EEA78A 		vmul.f32	s17, s17, s15
 642              	.LVL67:
 180:Accelerometre.c ****         printf( "x=%1.2f y=%1.2f z=%1.2f\r\n", gx, gy, gz);
 643              		.loc 1 180 0 discriminator 1
 644 004c 67EE277A 		vmul.f32	s15, s14, s15
 645              	.LVL68:
 646 0050 17EE900A 		vmov	r0, s15
 647 0054 FFF7FEFF 		bl	__aeabi_f2d
 648              	.LVL69:
 649 0058 0446     		mov	r4, r0
 650 005a 0D46     		mov	r5, r1
 651 005c 18EE900A 		vmov	r0, s17
 652 0060 FFF7FEFF 		bl	__aeabi_f2d
 653              	.LVL70:
 654 0064 CDE90201 		strd	r0, [sp, #8]
 655 0068 18EE100A 		vmov	r0, s16
 656 006c FFF7FEFF 		bl	__aeabi_f2d
 657              	.LVL71:
 658 0070 CDE90001 		strd	r0, [sp]
ARM GAS  C:\Users\user\AppData\Local\Temp\cc87Wa3n.s 			page 16


 659 0074 2246     		mov	r2, r4
 660 0076 2B46     		mov	r3, r5
 661 0078 0548     		ldr	r0, .L37+8
 662 007a FFF7FEFF 		bl	printf
 663              	.LVL72:
 181:Accelerometre.c ****         
 182:Accelerometre.c ****         vTaskDelay(200);
 664              		.loc 1 182 0 discriminator 1
 665 007e C820     		movs	r0, #200
 666 0080 FFF7FEFF 		bl	vTaskDelay
 667              	.LVL73:
 668 0084 C4E7     		b	.L35
 669              	.L38:
 670 0086 00BF     		.align	2
 671              	.L37:
 672 0088 00000000 		.word	.LANCHOR0
 673 008c 00008038 		.word	947912704
 674 0090 A4000000 		.word	.LC5
 675              		.cfi_endproc
 676              	.LFE666:
 677              		.size	motionTask, .-motionTask
 678              		.comm	entree,1,1
 679              		.comm	AlarmeBMI160,1,1
 680              		.comm	BPM,1,1
 681              		.comm	pourcentageSpO2,4,4
 682              		.comm	dataSpo2,26400,4
 683              		.comm	indexBuffer,4,4
 684              		.section	.rodata.str1.4,"aMS",%progbits,1
 685              		.align	2
 686              	.LC0:
 687 0000 72736C74 		.ascii	"rslt: %d\000"
 687      3A202564 
 687      00
 688 0009 000000   		.space	3
 689              	.LC1:
 690 000c 424D4931 		.ascii	"BMI160 Any-motion interrupt configuration failure!\000"
 690      36302041 
 690      6E792D6D 
 690      6F74696F 
 690      6E20696E 
 691 003f 00       		.space	1
 692              	.LC2:
 693 0040 424D4931 		.ascii	"BMI160 Any-motion interrupt configuration done!\000"
 693      36302041 
 693      6E792D6D 
 693      6F74696F 
 693      6E20696E 
 694              	.LC3:
 695 0070 20414E59 		.ascii	" ANYMOTION interrupt \015\000"
 695      4D4F5449 
 695      4F4E2069 
 695      6E746572 
 695      72757074 
 696 0087 00       		.space	1
 697              	.LC4:
 698 0088 204E4F20 		.ascii	" NO ANYMOTION interrupt \015\000"
 698      414E594D 
ARM GAS  C:\Users\user\AppData\Local\Temp\cc87Wa3n.s 			page 17


 698      4F54494F 
 698      4E20696E 
 698      74657272 
 699 00a2 0000     		.space	2
 700              	.LC5:
 701 00a4 783D2531 		.ascii	"x=%1.2f y=%1.2f z=%1.2f\015\012\000"
 701      2E326620 
 701      793D2531 
 701      2E326620 
 701      7A3D2531 
 702              		.bss
 703              		.align	2
 704              		.set	.LANCHOR0,. + 0
 705              		.type	bmi160Dev, %object
 706              		.size	bmi160Dev, 40
 707              	bmi160Dev:
 708 0000 00000000 		.space	40
 708      00000000 
 708      00000000 
 708      00000000 
 708      00000000 
 709              		.text
 710              	.Letext0:
 711              		.file 2 "c:\\program files (x86)\\cypress\\psoc creator\\4.4\\psoc creator\\import\\gnu\\arm\\5.4.
 712              		.file 3 "c:\\program files (x86)\\cypress\\psoc creator\\4.4\\psoc creator\\import\\gnu\\arm\\5.4.
 713              		.file 4 "Generated_Source\\PSoC6\\pdl\\drivers/peripheral/device/cy_device.h"
 714              		.file 5 "Generated_Source\\PSoC6\\pdl\\devices/psoc6/include/ip/cyip_scb.h"
 715              		.file 6 "Generated_Source\\PSoC6\\pdl\\devices/psoc6/include/psoc6_01_config.h"
 716              		.file 7 "Generated_Source\\PSoC6\\pdl\\drivers/peripheral/syslib/cy_syslib.h"
 717              		.file 8 "Generated_Source\\PSoC6\\pdl\\rtos/FreeRTOS/10.0.1/Source/portable/GCC/CM4F/portmacro.h"
 718              		.file 9 ".\\BMI160_driver-master/bmi160_defs.h"
 719              		.file 10 "Generated_Source\\PSoC6\\pdl\\drivers/peripheral/scb/cy_scb_i2c.h"
 720              		.file 11 "Generated_Source\\PSoC6\\pdl\\drivers/peripheral/scb/cy_scb_spi.h"
 721              		.file 12 "Generated_Source\\PSoC6\\pdl\\drivers/peripheral/scb/cy_scb_uart.h"
 722              		.file 13 "Generated_Source\\PSoC6\\pdl\\drivers/peripheral/tcpwm/cy_tcpwm_counter.h"
 723              		.file 14 ".\\CMSIS\\Core\\Include/core_cm4.h"
 724              		.file 15 "Generated_Source\\PSoC6/CY_EINK_SPIM.h"
 725              		.file 16 "Generated_Source\\PSoC6/CY_EINK_Timer.h"
 726              		.file 17 "Generated_Source\\PSoC6/UART_1.h"
 727              		.file 18 "Generated_Source\\PSoC6/I2C_1.h"
 728              		.file 19 "Generated_Source\\PSoC6/I2C_2.h"
 729              		.file 20 "Declaration.h"
 730              		.file 21 "Generated_Source\\PSoC6\\pdl\\rtos/FreeRTOS/10.0.1/Source/include/task.h"
 731              		.file 22 ".\\BMI160_driver-master/bmi160.h"
 732              		.file 23 "c:\\program files (x86)\\cypress\\psoc creator\\4.4\\psoc creator\\import\\gnu\\arm\\5.4
 733              		.file 24 "<built-in>"