ARM GAS  C:\Users\user\AppData\Local\Temp\ccSIFDDJ.s 			page 1


   1              		.syntax unified
   2              		.cpu cortex-m4
   3              		.eabi_attribute 27, 1
   4              		.fpu fpv4-sp-d16
   5              		.eabi_attribute 20, 1
   6              		.eabi_attribute 21, 1
   7              		.eabi_attribute 23, 3
   8              		.eabi_attribute 24, 1
   9              		.eabi_attribute 25, 1
  10              		.eabi_attribute 26, 1
  11              		.eabi_attribute 30, 1
  12              		.eabi_attribute 34, 1
  13              		.eabi_attribute 18, 4
  14              		.thumb
  15              		.syntax unified
  16              		.file	"DISPLAY.c"
  17              		.text
  18              	.Ltext0:
  19              		.cfi_sections	.debug_frame
  20              		.section	.text.UpdateDisplay,"ax",%progbits
  21              		.align	2
  22              		.global	UpdateDisplay
  23              		.thumb
  24              		.thumb_func
  25              		.type	UpdateDisplay, %function
  26              	UpdateDisplay:
  27              	.LFB693:
  28              		.file 1 "DISPLAY.c"
   1:DISPLAY.c     **** /* ========================================
   2:DISPLAY.c     ****  *
   3:DISPLAY.c     ****  * Copyright YOUR COMPANY, THE YEAR
   4:DISPLAY.c     ****  * All Rights Reserved
   5:DISPLAY.c     ****  * UNPUBLISHED, LICENSED SOFTWARE.
   6:DISPLAY.c     ****  *
   7:DISPLAY.c     ****  * CONFIDENTIAL AND PROPRIETARY INFORMATION
   8:DISPLAY.c     ****  * WHICH IS THE PROPERTY OF your company.
   9:DISPLAY.c     ****  *
  10:DISPLAY.c     ****  * ========================================
  11:DISPLAY.c     **** 
  12:DISPLAY.c     **** 
  13:DISPLAY.c     **** */
  14:DISPLAY.c     **** 
  15:DISPLAY.c     **** #include "CAPSENS.h"
  16:DISPLAY.c     **** #include "DISPLAY.h"
  17:DISPLAY.c     **** 
  18:DISPLAY.c     **** // Notons que nous n'avons pas d√©clar√© certaines fonctions de ce fichier dans le HEADERFILE DISPL
  19:DISPLAY.c     **** // utilit√©s n'est que dans le pr√©sent fichier. 
  20:DISPLAY.c     **** // Le principe de ma t√¢che d'affichage s'appuie sur les FLAGS. En effet, ayant en m√©moire la page
  21:DISPLAY.c     **** // et le bouton appuy√©e, il est possible de d√©terminer quel page il faudra afficher. Pour all√©ge
  22:DISPLAY.c     **** // qui permettent d'afficher les diff√©rentes page de mon interface. 
  23:DISPLAY.c     **** 
  24:DISPLAY.c     **** // Fonction qui permet de rafra√Æchir les modifications apport√©es √† l'√©cran 
  25:DISPLAY.c     **** void UpdateDisplay(cy_eink_update_t updateMethod, bool powerCycle)
  26:DISPLAY.c     **** {
  29              		.loc 1 26 0
  30              		.cfi_startproc
  31              		@ args = 0, pretend = 0, frame = 0
ARM GAS  C:\Users\user\AppData\Local\Temp\ccSIFDDJ.s 			page 2


  32              		@ frame_needed = 0, uses_anonymous_args = 0
  33              	.LVL0:
  34 0000 F8B5     		push	{r3, r4, r5, r6, r7, lr}
  35              		.cfi_def_cfa_offset 24
  36              		.cfi_offset 3, -24
  37              		.cfi_offset 4, -20
  38              		.cfi_offset 5, -16
  39              		.cfi_offset 6, -12
  40              		.cfi_offset 7, -8
  41              		.cfi_offset 14, -4
  42 0002 0646     		mov	r6, r0
  43 0004 0F46     		mov	r7, r1
  27:DISPLAY.c     ****     cy_eink_frame_t* pEmwinBuffer;
  28:DISPLAY.c     ****     /* Get the pointer to Emwin's display buffer */
  29:DISPLAY.c     ****    pEmwinBuffer = (cy_eink_frame_t*)LCD_GetDisplayBuffer();
  44              		.loc 1 29 0
  45 0006 FFF7FEFF 		bl	LCD_GetDisplayBuffer
  46              	.LVL1:
  47 000a 0546     		mov	r5, r0
  48              	.LVL2:
  30:DISPLAY.c     ****     /* Update the EInk display */
  31:DISPLAY.c     ****     Cy_EINK_ShowFrame(imageBufferCache, pEmwinBuffer, updateMethod, powerCycle);
  49              		.loc 1 31 0
  50 000c 064C     		ldr	r4, .L3
  51 000e 3B46     		mov	r3, r7
  52 0010 3246     		mov	r2, r6
  53 0012 0146     		mov	r1, r0
  54 0014 2046     		mov	r0, r4
  55              	.LVL3:
  56 0016 FFF7FEFF 		bl	Cy_EINK_ShowFrame
  57              	.LVL4:
  32:DISPLAY.c     ****     /* Copy the EmWin display buffer to the imageBuffer cache*/
  33:DISPLAY.c     ****     memcpy(imageBufferCache, pEmwinBuffer, CY_EINK_FRAME_SIZE);
  58              		.loc 1 33 0
  59 001a 41F2B062 		movw	r2, #5808
  60 001e 2946     		mov	r1, r5
  61 0020 2046     		mov	r0, r4
  62 0022 FFF7FEFF 		bl	memcpy
  63              	.LVL5:
  64 0026 F8BD     		pop	{r3, r4, r5, r6, r7, pc}
  65              	.LVL6:
  66              	.L4:
  67              		.align	2
  68              	.L3:
  69 0028 00000000 		.word	imageBufferCache
  70              		.cfi_endproc
  71              	.LFE693:
  72              		.size	UpdateDisplay, .-UpdateDisplay
  73              		.section	.text.maximum_1,"ax",%progbits
  74              		.align	2
  75              		.global	maximum_1
  76              		.thumb
  77              		.thumb_func
  78              		.type	maximum_1, %function
  79              	maximum_1:
  80              	.LFB694:
  34:DISPLAY.c     **** }
ARM GAS  C:\Users\user\AppData\Local\Temp\ccSIFDDJ.s 			page 3


  35:DISPLAY.c     **** 
  36:DISPLAY.c     **** //Fonctions qui permet de d√©terminer le maximum d'un vecteur de type uint32_t de taille n
  37:DISPLAY.c     **** uint32_t maximum_1(uint32_t arr[], int n){   
  81              		.loc 1 37 0
  82              		.cfi_startproc
  83              		@ args = 0, pretend = 0, frame = 0
  84              		@ frame_needed = 0, uses_anonymous_args = 0
  85              		@ link register save eliminated.
  86              	.LVL7:
  87 0000 10B4     		push	{r4}
  88              		.cfi_def_cfa_offset 4
  89              		.cfi_offset 4, -4
  90 0002 0446     		mov	r4, r0
  38:DISPLAY.c     ****     int i;
  39:DISPLAY.c     ****     // Initialize maximum element
  40:DISPLAY.c     ****     uint32_t max = arr[0];
  91              		.loc 1 40 0
  92 0004 0068     		ldr	r0, [r0]
  93              	.LVL8:
  41:DISPLAY.c     ****     // Traverse array elements from second and
  42:DISPLAY.c     ****     // compare every element with current max 
  43:DISPLAY.c     ****     for (i = 1; i < n; i++){
  94              		.loc 1 43 0
  95 0006 0123     		movs	r3, #1
  96 0008 05E0     		b	.L6
  97              	.LVL9:
  98              	.L8:
  44:DISPLAY.c     ****         if (arr[i] > max){
  99              		.loc 1 44 0
 100 000a 54F82320 		ldr	r2, [r4, r3, lsl #2]
 101 000e 9042     		cmp	r0, r2
 102 0010 00D2     		bcs	.L7
  45:DISPLAY.c     ****             max = arr[i];}}
 103              		.loc 1 45 0
 104 0012 1046     		mov	r0, r2
 105              	.LVL10:
 106              	.L7:
  43:DISPLAY.c     ****         if (arr[i] > max){
 107              		.loc 1 43 0 discriminator 2
 108 0014 0133     		adds	r3, r3, #1
 109              	.LVL11:
 110              	.L6:
  43:DISPLAY.c     ****         if (arr[i] > max){
 111              		.loc 1 43 0 is_stmt 0 discriminator 1
 112 0016 8B42     		cmp	r3, r1
 113 0018 F7DB     		blt	.L8
  46:DISPLAY.c     ****     return max;
  47:DISPLAY.c     **** }
 114              		.loc 1 47 0 is_stmt 1
 115 001a 5DF8044B 		ldr	r4, [sp], #4
 116              		.cfi_restore 4
 117              		.cfi_def_cfa_offset 0
 118              	.LVL12:
 119 001e 7047     		bx	lr
 120              		.cfi_endproc
 121              	.LFE694:
 122              		.size	maximum_1, .-maximum_1
ARM GAS  C:\Users\user\AppData\Local\Temp\ccSIFDDJ.s 			page 4


 123              		.section	.text.minimum_1,"ax",%progbits
 124              		.align	2
 125              		.global	minimum_1
 126              		.thumb
 127              		.thumb_func
 128              		.type	minimum_1, %function
 129              	minimum_1:
 130              	.LFB695:
  48:DISPLAY.c     **** //Fonctions qui permet de d√©terminer le minimum d'un vecteur de type uint32_t de taille n
  49:DISPLAY.c     **** uint32_t minimum_1(uint32_t arr[], int n)      
  50:DISPLAY.c     **** {
 131              		.loc 1 50 0
 132              		.cfi_startproc
 133              		@ args = 0, pretend = 0, frame = 0
 134              		@ frame_needed = 0, uses_anonymous_args = 0
 135              		@ link register save eliminated.
 136              	.LVL13:
 137 0000 10B4     		push	{r4}
 138              		.cfi_def_cfa_offset 4
 139              		.cfi_offset 4, -4
 140 0002 0446     		mov	r4, r0
  51:DISPLAY.c     ****     int i;
  52:DISPLAY.c     ****     // Initialize maximum element
  53:DISPLAY.c     ****     uint32_t min = arr[0];
 141              		.loc 1 53 0
 142 0004 0068     		ldr	r0, [r0]
 143              	.LVL14:
  54:DISPLAY.c     ****     // Traverse array elements from second and
  55:DISPLAY.c     ****     // compare every element with current max 
  56:DISPLAY.c     ****     for (i = 1; i < n; i++){
 144              		.loc 1 56 0
 145 0006 0123     		movs	r3, #1
 146 0008 05E0     		b	.L12
 147              	.LVL15:
 148              	.L14:
  57:DISPLAY.c     ****         if (arr[i] < min){
 149              		.loc 1 57 0
 150 000a 54F82320 		ldr	r2, [r4, r3, lsl #2]
 151 000e 9042     		cmp	r0, r2
 152 0010 00D9     		bls	.L13
  58:DISPLAY.c     ****             min = arr[i];}}
 153              		.loc 1 58 0
 154 0012 1046     		mov	r0, r2
 155              	.LVL16:
 156              	.L13:
  56:DISPLAY.c     ****         if (arr[i] < min){
 157              		.loc 1 56 0 discriminator 2
 158 0014 0133     		adds	r3, r3, #1
 159              	.LVL17:
 160              	.L12:
  56:DISPLAY.c     ****         if (arr[i] < min){
 161              		.loc 1 56 0 is_stmt 0 discriminator 1
 162 0016 8B42     		cmp	r3, r1
 163 0018 F7DB     		blt	.L14
  59:DISPLAY.c     ****     return min;
  60:DISPLAY.c     **** }
 164              		.loc 1 60 0 is_stmt 1
ARM GAS  C:\Users\user\AppData\Local\Temp\ccSIFDDJ.s 			page 5


 165 001a 5DF8044B 		ldr	r4, [sp], #4
 166              		.cfi_restore 4
 167              		.cfi_def_cfa_offset 0
 168              	.LVL18:
 169 001e 7047     		bx	lr
 170              		.cfi_endproc
 171              	.LFE695:
 172              		.size	minimum_1, .-minimum_1
 173              		.section	.text.drawGraph,"ax",%progbits
 174              		.align	2
 175              		.global	drawGraph
 176              		.thumb
 177              		.thumb_func
 178              		.type	drawGraph, %function
 179              	drawGraph:
 180              	.LFB696:
  61:DISPLAY.c     **** // Fonction qui permet d'afficher la courbe d'absoprtion voulue √† partir du signal filtr√© par l'e
  62:DISPLAY.c     **** // du traitement de signal. Cette fonction prends en param√®tre ce vecteur signal, un espacement ai
  63:DISPLAY.c     **** // taille du vecteur signal. Sachant que la fr√©quence d'√©chantillonage est grande, les donn√©es p
  64:DISPLAY.c     **** // trop proches et repr√©sente seulement un signal local. De ce fait, on introduit un espacement en
  65:DISPLAY.c     **** // √† afficher afin de visualier un signal √©largie. 
  66:DISPLAY.c     **** void drawGraph(uint32_t donnees[1300], uint8_t espacement, int size ){   //size est d√©clarer comme
 181              		.loc 1 66 0
 182              		.cfi_startproc
 183              		@ args = 0, pretend = 0, frame = 0
 184              		@ frame_needed = 0, uses_anonymous_args = 0
 185              	.LVL19:
 186 0000 2DE9F843 		push	{r3, r4, r5, r6, r7, r8, r9, lr}
 187              		.cfi_def_cfa_offset 32
 188              		.cfi_offset 3, -32
 189              		.cfi_offset 4, -28
 190              		.cfi_offset 5, -24
 191              		.cfi_offset 6, -20
 192              		.cfi_offset 7, -16
 193              		.cfi_offset 8, -12
 194              		.cfi_offset 9, -8
 195              		.cfi_offset 14, -4
 196 0004 0646     		mov	r6, r0
 197 0006 0F46     		mov	r7, r1
 198 0008 9046     		mov	r8, r2
  67:DISPLAY.c     ****     
  68:DISPLAY.c     ****     GUI_SetPenSize(1);
 199              		.loc 1 68 0
 200 000a 0120     		movs	r0, #1
 201              	.LVL20:
 202 000c FFF7FEFF 		bl	GUI_SetPenSize
 203              	.LVL21:
  69:DISPLAY.c     ****     
  70:DISPLAY.c     ****     
  71:DISPLAY.c     ****     
  72:DISPLAY.c     ****     
  73:DISPLAY.c     ****     // Durant les essai logistique, nous avons r√©alis√© que le d√©but du signal contient des valeu
  74:DISPLAY.c     ****     // que les param√®tre du signal pr√©c√©dement translat√©, tel que son maximum et son minimum, s
  75:DISPLAY.c     ****     // on proc√®de d'abord par √©liminer les 300 premi√®res donn√©es de ce signal afin de s'assurer
  76:DISPLAY.c     ****     // Le signal √©tant p√©riodique, la troncation de celui-ci ne comporte pas une perte de donn√©e
  77:DISPLAY.c     ****     int z=0; 
  78:DISPLAY.c     ****     int taille = size-300;
ARM GAS  C:\Users\user\AppData\Local\Temp\ccSIFDDJ.s 			page 6


 204              		.loc 1 78 0
 205 0010 A8F59675 		sub	r5, r8, #300
 206              	.LVL22:
 207              	.LBB14:
  79:DISPLAY.c     ****     for (int x=300; x<size; x++){
 208              		.loc 1 79 0
 209 0014 4FF49673 		mov	r3, #300
 210              	.LBE14:
  77:DISPLAY.c     ****     int taille = size-300;
 211              		.loc 1 77 0
 212 0018 0022     		movs	r2, #0
 213              	.LBB15:
 214              		.loc 1 79 0
 215 001a 05E0     		b	.L18
 216              	.LVL23:
 217              	.L19:
  80:DISPLAY.c     ****         donnees[z]= donnees[x]; 
 218              		.loc 1 80 0 discriminator 3
 219 001c 56F82310 		ldr	r1, [r6, r3, lsl #2]
 220 0020 46F82210 		str	r1, [r6, r2, lsl #2]
  81:DISPLAY.c     ****         z++; 
 221              		.loc 1 81 0 discriminator 3
 222 0024 0132     		adds	r2, r2, #1
 223              	.LVL24:
  79:DISPLAY.c     ****         donnees[z]= donnees[x]; 
 224              		.loc 1 79 0 discriminator 3
 225 0026 0133     		adds	r3, r3, #1
 226              	.LVL25:
 227              	.L18:
  79:DISPLAY.c     ****         donnees[z]= donnees[x]; 
 228              		.loc 1 79 0 is_stmt 0 discriminator 1
 229 0028 4345     		cmp	r3, r8
 230 002a F7DB     		blt	.L19
 231              	.LVL26:
 232              	.LBE15:
  82:DISPLAY.c     ****         //printf("%d\r\n", donnees[z]);
  83:DISPLAY.c     ****     }
  84:DISPLAY.c     ****    
  85:DISPLAY.c     ****     // D√©termination du maximum et du minimum du signal. Notons que la fonction GUI_DrawGraph ne p
  86:DISPLAY.c     ****     // qu'un vecteur de type uint16_t. Donc, les donn√©es de celui-ci doivent √™tre compris dans l'
  87:DISPLAY.c     ****     //Toutefois, cela n'est pas le cas pour le vecteur du signal √† affich√©, sachant que les donn√
  88:DISPLAY.c     ****     // de 10^5. De ce fait, il est possible de divis√© ce signal par 5 afin de r√©duire ces valeurs
  89:DISPLAY.c     ****     // Ce changement ne comporte aucune perte de donn√©es, simplement une modification physique du 
  90:DISPLAY.c     ****    uint32_t maximum=0; 
  91:DISPLAY.c     ****    uint32_t minimum=0;
  92:DISPLAY.c     ****     
  93:DISPLAY.c     ****    maximum = (maximum_1(donnees, taille))/5;
 233              		.loc 1 93 0 is_stmt 1
 234 002c 2946     		mov	r1, r5
 235 002e 3046     		mov	r0, r6
 236 0030 FFF7FEFF 		bl	maximum_1
 237              	.LVL27:
 238 0034 DFF8D090 		ldr	r9, .L27
 239 0038 A9FB0034 		umull	r3, r4, r9, r0
 240 003c A408     		lsrs	r4, r4, #2
 241              	.LVL28:
  94:DISPLAY.c     ****    minimum= (minimum_1(donnees, size))/5; 
ARM GAS  C:\Users\user\AppData\Local\Temp\ccSIFDDJ.s 			page 7


 242              		.loc 1 94 0
 243 003e 4146     		mov	r1, r8
 244 0040 3046     		mov	r0, r6
 245 0042 FFF7FEFF 		bl	minimum_1
 246              	.LVL29:
 247 0046 A9FB0030 		umull	r3, r0, r9, r0
 248 004a 8008     		lsrs	r0, r0, #2
 249              	.LVL30:
 250              	.LBB16:
  95:DISPLAY.c     ****   
  96:DISPLAY.c     ****    //Modification des valeurs du vecteur signal afin de les adapter aux pixels de l'√©cran E-INK di
  97:DISPLAY.c     ****     
  98:DISPLAY.c     ****     for(int y=0;y<taille;y++){
 251              		.loc 1 98 0
 252 004c 0021     		movs	r1, #0
 253 004e 10E0     		b	.L20
 254              	.LVL31:
 255              	.L21:
  99:DISPLAY.c     ****        data[y]=(((donnees[y]/5)-minimum)*(maximum-minimum))/(2*maximum);
 256              		.loc 1 99 0 discriminator 3
 257 0050 56F82130 		ldr	r3, [r6, r1, lsl #2]
 258 0054 2C4A     		ldr	r2, .L27
 259 0056 A2FB0323 		umull	r2, r3, r2, r3
 260 005a C0EB9303 		rsb	r3, r0, r3, lsr #2
 261 005e 221A     		subs	r2, r4, r0
 262 0060 02FB03F3 		mul	r3, r2, r3
 263 0064 6200     		lsls	r2, r4, #1
 264 0066 B3FBF2F3 		udiv	r3, r3, r2
 265 006a 284A     		ldr	r2, .L27+4
 266 006c 22F81130 		strh	r3, [r2, r1, lsl #1]	@ movhi
  98:DISPLAY.c     ****        data[y]=(((donnees[y]/5)-minimum)*(maximum-minimum))/(2*maximum);
 267              		.loc 1 98 0 discriminator 3
 268 0070 0131     		adds	r1, r1, #1
 269              	.LVL32:
 270              	.L20:
  98:DISPLAY.c     ****        data[y]=(((donnees[y]/5)-minimum)*(maximum-minimum))/(2*maximum);
 271              		.loc 1 98 0 is_stmt 0 discriminator 1
 272 0072 A942     		cmp	r1, r5
 273 0074 ECDB     		blt	.L21
 274 0076 0023     		movs	r3, #0
 275 0078 1A46     		mov	r2, r3
 276 007a 07E0     		b	.L22
 277              	.LVL33:
 278              	.L23:
 279              	.LBE16:
 280              	.LBB17:
 100:DISPLAY.c     ****     }
 101:DISPLAY.c     ****     
 102:DISPLAY.c     ****     // Espacement des donn√©es √† afficher du vecteur signal afin d'obtenir un signal global 
 103:DISPLAY.c     ****     int a=0; 
 104:DISPLAY.c     ****         for (int b=0; b<taille;  b+=espacement) {  
 105:DISPLAY.c     ****             vecteurespacee[a]= data[b]; 
 281              		.loc 1 105 0 is_stmt 1 discriminator 3
 282 007c 2349     		ldr	r1, .L27+4
 283 007e 31F91300 		ldrsh	r0, [r1, r3, lsl #1]
 284 0082 2349     		ldr	r1, .L27+8
 285 0084 21F81200 		strh	r0, [r1, r2, lsl #1]	@ movhi
ARM GAS  C:\Users\user\AppData\Local\Temp\ccSIFDDJ.s 			page 8


 106:DISPLAY.c     ****             a++; 
 286              		.loc 1 106 0 discriminator 3
 287 0088 0132     		adds	r2, r2, #1
 288              	.LVL34:
 104:DISPLAY.c     ****             vecteurespacee[a]= data[b]; 
 289              		.loc 1 104 0 discriminator 3
 290 008a 3B44     		add	r3, r3, r7
 291              	.LVL35:
 292              	.L22:
 104:DISPLAY.c     ****             vecteurespacee[a]= data[b]; 
 293              		.loc 1 104 0 is_stmt 0 discriminator 1
 294 008c AB42     		cmp	r3, r5
 295 008e F5DB     		blt	.L23
 296              	.LBE17:
 107:DISPLAY.c     ****             
 108:DISPLAY.c     ****         }
 109:DISPLAY.c     ****         
 110:DISPLAY.c     ****     // Affichage de la page principal
 111:DISPLAY.c     ****     GUI_DrawGraph(vecteurespacee, 250, 5,20); //250 est la taille du vecteurespacee, donc changer c
 297              		.loc 1 111 0 is_stmt 1
 298 0090 1423     		movs	r3, #20
 299              	.LVL36:
 300 0092 0522     		movs	r2, #5
 301              	.LVL37:
 302 0094 FA21     		movs	r1, #250
 303 0096 1E48     		ldr	r0, .L27+8
 304 0098 FFF7FEFF 		bl	GUI_DrawGraph
 305              	.LVL38:
 112:DISPLAY.c     ****     
 113:DISPLAY.c     ****     GUI_DrawRect(1,1,263,125);
 306              		.loc 1 113 0
 307 009c 7D23     		movs	r3, #125
 308 009e 40F20712 		movw	r2, #263
 309 00a2 0121     		movs	r1, #1
 310 00a4 0846     		mov	r0, r1
 311 00a6 FFF7FEFF 		bl	GUI_DrawRect
 312              	.LVL39:
 114:DISPLAY.c     ****     GUI_DrawRect(153,129,263,175);
 313              		.loc 1 114 0
 314 00aa AF23     		movs	r3, #175
 315 00ac 40F20712 		movw	r2, #263
 316 00b0 8121     		movs	r1, #129
 317 00b2 9920     		movs	r0, #153
 318 00b4 FFF7FEFF 		bl	GUI_DrawRect
 319              	.LVL40:
 115:DISPLAY.c     ****     GUI_DispStringAt ("COURBE AFFICHEE:", 160, 133);
 320              		.loc 1 115 0
 321 00b8 8522     		movs	r2, #133
 322 00ba A021     		movs	r1, #160
 323 00bc 1548     		ldr	r0, .L27+12
 324 00be FFF7FEFF 		bl	GUI_DispStringAt
 325              	.LVL41:
 116:DISPLAY.c     ****     GUI_SetFont(GUI_FONT_16B_1);
 326              		.loc 1 116 0
 327 00c2 1548     		ldr	r0, .L27+16
 328 00c4 FFF7FEFF 		bl	GUI_SetFont
 329              	.LVL42:
ARM GAS  C:\Users\user\AppData\Local\Temp\ccSIFDDJ.s 			page 9


 117:DISPLAY.c     ****     GUI_DispStringAt ("SPECTRE", 155, 143);
 330              		.loc 1 117 0
 331 00c8 8F22     		movs	r2, #143
 332 00ca 9B21     		movs	r1, #155
 333 00cc 1348     		ldr	r0, .L27+20
 334 00ce FFF7FEFF 		bl	GUI_DispStringAt
 335              	.LVL43:
 118:DISPLAY.c     ****        
 119:DISPLAY.c     ****         if (currentScreen.TYPEGRAPH){GUI_DispStringAt ("INFRAROUGE", 155, 157);}
 336              		.loc 1 119 0
 337 00d2 134B     		ldr	r3, .L27+24
 338 00d4 5B79     		ldrb	r3, [r3, #5]	@ zero_extendqisi2
 339 00d6 13F0FF0F 		tst	r3, #255
 340 00da 04D0     		beq	.L24
 341              		.loc 1 119 0 is_stmt 0 discriminator 1
 342 00dc 9D22     		movs	r2, #157
 343 00de 9B21     		movs	r1, #155
 344 00e0 1048     		ldr	r0, .L27+28
 345 00e2 FFF7FEFF 		bl	GUI_DispStringAt
 346              	.LVL44:
 347              	.L24:
 120:DISPLAY.c     ****         if (currentScreen.TYPEGRAPH==0) {GUI_DispStringAt ( "ROUGE", 155, 157);}
 348              		.loc 1 120 0 is_stmt 1
 349 00e6 0E4B     		ldr	r3, .L27+24
 350 00e8 5B79     		ldrb	r3, [r3, #5]	@ zero_extendqisi2
 351 00ea 13F0FF0F 		tst	r3, #255
 352 00ee 04D1     		bne	.L25
 353              		.loc 1 120 0 is_stmt 0 discriminator 1
 354 00f0 9D22     		movs	r2, #157
 355 00f2 9B21     		movs	r1, #155
 356 00f4 0C48     		ldr	r0, .L27+32
 357 00f6 FFF7FEFF 		bl	GUI_DispStringAt
 358              	.LVL45:
 359              	.L25:
 121:DISPLAY.c     ****     
 122:DISPLAY.c     ****     UpdateDisplay(CY_EINK_FULL_4STAGE, true);   
 360              		.loc 1 122 0 is_stmt 1
 361 00fa 0121     		movs	r1, #1
 362 00fc 0846     		mov	r0, r1
 363 00fe FFF7FEFF 		bl	UpdateDisplay
 364              	.LVL46:
 365 0102 BDE8F883 		pop	{r3, r4, r5, r6, r7, r8, r9, pc}
 366              	.LVL47:
 367              	.L28:
 368 0106 00BF     		.align	2
 369              	.L27:
 370 0108 CDCCCCCC 		.word	-858993459
 371 010c 00000000 		.word	data
 372 0110 00000000 		.word	vecteurespacee
 373 0114 00000000 		.word	.LC0
 374 0118 00000000 		.word	GUI_Font16B_1
 375 011c 14000000 		.word	.LC1
 376 0120 00000000 		.word	currentScreen
 377 0124 1C000000 		.word	.LC2
 378 0128 28000000 		.word	.LC3
 379              		.cfi_endproc
 380              	.LFE696:
ARM GAS  C:\Users\user\AppData\Local\Temp\ccSIFDDJ.s 			page 10


 381              		.size	drawGraph, .-drawGraph
 382              		.section	.text.updateParameters,"ax",%progbits
 383              		.align	2
 384              		.global	updateParameters
 385              		.thumb
 386              		.thumb_func
 387              		.type	updateParameters, %function
 388              	updateParameters:
 389              	.LFB697:
 123:DISPLAY.c     ****     
 124:DISPLAY.c     **** }
 125:DISPLAY.c     **** 
 126:DISPLAY.c     **** // Fonction qui permet d'afficher les param√®tres de la fr√©quence cardiaque et le taux d'oxyg√®ne 
 127:DISPLAY.c     **** // sur la page principale 
 128:DISPLAY.c     **** void updateParameters(int param1, int param2){
 390              		.loc 1 128 0
 391              		.cfi_startproc
 392              		@ args = 0, pretend = 0, frame = 104
 393              		@ frame_needed = 0, uses_anonymous_args = 0
 394              	.LVL48:
 395 0000 30B5     		push	{r4, r5, lr}
 396              		.cfi_def_cfa_offset 12
 397              		.cfi_offset 4, -12
 398              		.cfi_offset 5, -8
 399              		.cfi_offset 14, -4
 400 0002 9BB0     		sub	sp, sp, #108
 401              		.cfi_def_cfa_offset 120
 402 0004 0546     		mov	r5, r0
 403 0006 0C46     		mov	r4, r1
 129:DISPLAY.c     ****     
 130:DISPLAY.c     ****     GUI_Clear(); 
 404              		.loc 1 130 0
 405 0008 FFF7FEFF 		bl	GUI_Clear
 406              	.LVL49:
 131:DISPLAY.c     ****     char frequence[50];
 132:DISPLAY.c     ****     char Saturation[50];
 133:DISPLAY.c     ****     sprintf(frequence,"Frequence cardiaque: %d ",param1);
 407              		.loc 1 133 0
 408 000c 2A46     		mov	r2, r5
 409 000e 1349     		ldr	r1, .L31
 410 0010 0DA8     		add	r0, sp, #52
 411 0012 FFF7FEFF 		bl	sprintf
 412              	.LVL50:
 134:DISPLAY.c     ****     sprintf(Saturation,"Taux d'oxygene: %d ",param2);
 413              		.loc 1 134 0
 414 0016 2246     		mov	r2, r4
 415 0018 1149     		ldr	r1, .L31+4
 416 001a 6846     		mov	r0, sp
 417 001c FFF7FEFF 		bl	sprintf
 418              	.LVL51:
 135:DISPLAY.c     ****     
 136:DISPLAY.c     ****     GUI_SetFont(GUI_FONT_8_1);
 419              		.loc 1 136 0
 420 0020 1048     		ldr	r0, .L31+8
 421 0022 FFF7FEFF 		bl	GUI_SetFont
 422              	.LVL52:
 137:DISPLAY.c     ****     GUI_DispStringAt(frequence, 3, 140); 
ARM GAS  C:\Users\user\AppData\Local\Temp\ccSIFDDJ.s 			page 11


 423              		.loc 1 137 0
 424 0026 8C22     		movs	r2, #140
 425 0028 0321     		movs	r1, #3
 426 002a 0DA8     		add	r0, sp, #52
 427 002c FFF7FEFF 		bl	GUI_DispStringAt
 428              	.LVL53:
 138:DISPLAY.c     ****     GUI_DispStringAt("BPM ", 125, 140);     
 429              		.loc 1 138 0
 430 0030 8C22     		movs	r2, #140
 431 0032 7D21     		movs	r1, #125
 432 0034 0C48     		ldr	r0, .L31+12
 433 0036 FFF7FEFF 		bl	GUI_DispStringAt
 434              	.LVL54:
 139:DISPLAY.c     ****     GUI_DispStringAt(Saturation, 3, 160);
 435              		.loc 1 139 0
 436 003a A022     		movs	r2, #160
 437 003c 0321     		movs	r1, #3
 438 003e 6846     		mov	r0, sp
 439 0040 FFF7FEFF 		bl	GUI_DispStringAt
 440              	.LVL55:
 140:DISPLAY.c     ****     GUI_DispStringAt(" %", 98, 160);     
 441              		.loc 1 140 0
 442 0044 A022     		movs	r2, #160
 443 0046 6221     		movs	r1, #98
 444 0048 0848     		ldr	r0, .L31+16
 445 004a FFF7FEFF 		bl	GUI_DispStringAt
 446              	.LVL56:
 141:DISPLAY.c     ****     
 142:DISPLAY.c     ****     UpdateDisplay(CY_EINK_FULL_4STAGE, true);
 447              		.loc 1 142 0
 448 004e 0121     		movs	r1, #1
 449 0050 0846     		mov	r0, r1
 450 0052 FFF7FEFF 		bl	UpdateDisplay
 451              	.LVL57:
 143:DISPLAY.c     **** }
 452              		.loc 1 143 0
 453 0056 1BB0     		add	sp, sp, #108
 454              		.cfi_def_cfa_offset 12
 455              		@ sp needed
 456 0058 30BD     		pop	{r4, r5, pc}
 457              	.LVL58:
 458              	.L32:
 459 005a 00BF     		.align	2
 460              	.L31:
 461 005c 30000000 		.word	.LC4
 462 0060 4C000000 		.word	.LC5
 463 0064 00000000 		.word	GUI_Font8_1
 464 0068 60000000 		.word	.LC6
 465 006c 68000000 		.word	.LC7
 466              		.cfi_endproc
 467              	.LFE697:
 468              		.size	updateParameters, .-updateParameters
 469              		.section	.text.DrawMenu,"ax",%progbits
 470              		.align	2
 471              		.global	DrawMenu
 472              		.thumb
 473              		.thumb_func
ARM GAS  C:\Users\user\AppData\Local\Temp\ccSIFDDJ.s 			page 12


 474              		.type	DrawMenu, %function
 475              	DrawMenu:
 476              	.LFB698:
 144:DISPLAY.c     **** 
 145:DISPLAY.c     **** // Fonction qui permet de tra√ßer la page MENU avec la position du curseur √† l'endroit d√©sir√© 
 146:DISPLAY.c     **** void DrawMenu ( uint8_t pos_curseur) { 
 477              		.loc 1 146 0
 478              		.cfi_startproc
 479              		@ args = 0, pretend = 0, frame = 0
 480              		@ frame_needed = 0, uses_anonymous_args = 0
 481              	.LVL59:
 482 0000 10B5     		push	{r4, lr}
 483              		.cfi_def_cfa_offset 8
 484              		.cfi_offset 4, -8
 485              		.cfi_offset 14, -4
 486 0002 0446     		mov	r4, r0
 147:DISPLAY.c     ****     
 148:DISPLAY.c     ****     GUI_Clear(); 
 487              		.loc 1 148 0
 488 0004 FFF7FEFF 		bl	GUI_Clear
 489              	.LVL60:
 149:DISPLAY.c     ****     GUI_SetFont(GUI_FONT_32B_1);
 490              		.loc 1 149 0
 491 0008 1848     		ldr	r0, .L35
 492 000a FFF7FEFF 		bl	GUI_SetFont
 493              	.LVL61:
 150:DISPLAY.c     ****     GUI_SetTextAlign(GUI_TA_CENTER);
 494              		.loc 1 150 0
 495 000e 0220     		movs	r0, #2
 496 0010 FFF7FEFF 		bl	GUI_SetTextAlign
 497              	.LVL62:
 151:DISPLAY.c     ****     GUI_DispStringAt("MENU", 132, 2);
 498              		.loc 1 151 0
 499 0014 0222     		movs	r2, #2
 500 0016 8421     		movs	r1, #132
 501 0018 1548     		ldr	r0, .L35+4
 502 001a FFF7FEFF 		bl	GUI_DispStringAt
 503              	.LVL63:
 152:DISPLAY.c     ****         GUI_SetFont(GUI_FONT_8_1);
 504              		.loc 1 152 0
 505 001e 1548     		ldr	r0, .L35+8
 506 0020 FFF7FEFF 		bl	GUI_SetFont
 507              	.LVL64:
 153:DISPLAY.c     ****     GUI_DispStringAt ("ETAT DE L'ALARME D'ACCELERATION", 15, 40);
 508              		.loc 1 153 0
 509 0024 2822     		movs	r2, #40
 510 0026 0F21     		movs	r1, #15
 511 0028 1348     		ldr	r0, .L35+12
 512 002a FFF7FEFF 		bl	GUI_DispStringAt
 513              	.LVL65:
 154:DISPLAY.c     ****     GUI_DispStringAt ("MODIFICATION DU COURANT DES LEDS", 15, 70);
 514              		.loc 1 154 0
 515 002e 4622     		movs	r2, #70
 516 0030 0F21     		movs	r1, #15
 517 0032 1248     		ldr	r0, .L35+16
 518 0034 FFF7FEFF 		bl	GUI_DispStringAt
 519              	.LVL66:
ARM GAS  C:\Users\user\AppData\Local\Temp\ccSIFDDJ.s 			page 13


 155:DISPLAY.c     ****     GUI_DispStringAt ("BORNE SUPERIEUR- RYTHME CARDIAQUE", 15, 100); 
 520              		.loc 1 155 0
 521 0038 6422     		movs	r2, #100
 522 003a 0F21     		movs	r1, #15
 523 003c 1048     		ldr	r0, .L35+20
 524 003e FFF7FEFF 		bl	GUI_DispStringAt
 525              	.LVL67:
 156:DISPLAY.c     ****     GUI_DispStringAt ("BORNE INFERIEUR- RYTHME CARDIAQUE", 15, 130); 
 526              		.loc 1 156 0
 527 0042 8222     		movs	r2, #130
 528 0044 0F21     		movs	r1, #15
 529 0046 0F48     		ldr	r0, .L35+24
 530 0048 FFF7FEFF 		bl	GUI_DispStringAt
 531              	.LVL68:
 157:DISPLAY.c     ****     GUI_DispStringAt ("ETAT DE L'ALARME DE LA FC", 15, 160);
 532              		.loc 1 157 0
 533 004c A022     		movs	r2, #160
 534 004e 0F21     		movs	r1, #15
 535 0050 0D48     		ldr	r0, .L35+28
 536 0052 FFF7FEFF 		bl	GUI_DispStringAt
 537              	.LVL69:
 158:DISPLAY.c     ****     GUI_DrawCircle (4, pos_curseur+2, 3);
 538              		.loc 1 158 0
 539 0056 0322     		movs	r2, #3
 540 0058 A11C     		adds	r1, r4, #2
 541 005a 0420     		movs	r0, #4
 542 005c FFF7FEFF 		bl	GUI_DrawCircle
 543              	.LVL70:
 159:DISPLAY.c     ****     UpdateDisplay(CY_EINK_FULL_4STAGE, true);
 544              		.loc 1 159 0
 545 0060 0121     		movs	r1, #1
 546 0062 0846     		mov	r0, r1
 547 0064 FFF7FEFF 		bl	UpdateDisplay
 548              	.LVL71:
 549 0068 10BD     		pop	{r4, pc}
 550              	.L36:
 551 006a 00BF     		.align	2
 552              	.L35:
 553 006c 00000000 		.word	GUI_Font32B_1
 554 0070 6C000000 		.word	.LC8
 555 0074 00000000 		.word	GUI_Font8_1
 556 0078 74000000 		.word	.LC9
 557 007c 94000000 		.word	.LC10
 558 0080 B8000000 		.word	.LC11
 559 0084 DC000000 		.word	.LC12
 560 0088 00010000 		.word	.LC13
 561              		.cfi_endproc
 562              	.LFE698:
 563              		.size	DrawMenu, .-DrawMenu
 564              		.section	.text.DrawOption1,"ax",%progbits
 565              		.align	2
 566              		.global	DrawOption1
 567              		.thumb
 568              		.thumb_func
 569              		.type	DrawOption1, %function
 570              	DrawOption1:
 571              	.LFB699:
ARM GAS  C:\Users\user\AppData\Local\Temp\ccSIFDDJ.s 			page 14


 160:DISPLAY.c     **** } 
 161:DISPLAY.c     **** // Fonction qui permet d'afficher l'OPTION 1 de MENU 
 162:DISPLAY.c     **** void DrawOption1 ()
 163:DISPLAY.c     **** {       
 572              		.loc 1 163 0
 573              		.cfi_startproc
 574              		@ args = 0, pretend = 0, frame = 0
 575              		@ frame_needed = 0, uses_anonymous_args = 0
 576 0000 10B5     		push	{r4, lr}
 577              		.cfi_def_cfa_offset 8
 578              		.cfi_offset 4, -8
 579              		.cfi_offset 14, -4
 164:DISPLAY.c     ****           GUI_Clear(); 
 580              		.loc 1 164 0
 581 0002 FFF7FEFF 		bl	GUI_Clear
 582              	.LVL72:
 165:DISPLAY.c     ****     GUI_SetFont(GUI_FONT_16_1);
 583              		.loc 1 165 0
 584 0006 164C     		ldr	r4, .L39
 585 0008 2046     		mov	r0, r4
 586 000a FFF7FEFF 		bl	GUI_SetFont
 587              	.LVL73:
 166:DISPLAY.c     ****     GUI_SetTextAlign(GUI_TA_CENTER);
 588              		.loc 1 166 0
 589 000e 0220     		movs	r0, #2
 590 0010 FFF7FEFF 		bl	GUI_SetTextAlign
 591              	.LVL74:
 167:DISPLAY.c     ****     GUI_DispStringAt("ALARME D'ACCELERATION", 132, 20);
 592              		.loc 1 167 0
 593 0014 1422     		movs	r2, #20
 594 0016 8421     		movs	r1, #132
 595 0018 1248     		ldr	r0, .L39+4
 596 001a FFF7FEFF 		bl	GUI_DispStringAt
 597              	.LVL75:
 168:DISPLAY.c     ****     GUI_DrawLine(48,34,215,34);
 598              		.loc 1 168 0
 599 001e 2223     		movs	r3, #34
 600 0020 D722     		movs	r2, #215
 601 0022 1946     		mov	r1, r3
 602 0024 3020     		movs	r0, #48
 603 0026 FFF7FEFF 		bl	GUI_DrawLine
 604              	.LVL76:
 169:DISPLAY.c     ****         GUI_SetFont(GUI_FONT_8_1);
 605              		.loc 1 169 0
 606 002a 0F48     		ldr	r0, .L39+8
 607 002c FFF7FEFF 		bl	GUI_SetFont
 608              	.LVL77:
 170:DISPLAY.c     ****     GUI_DispStringAt ("APPUYE SUR LE BOUTON 00 POUR ACTIVER L'ALARME", 10, 70);
 609              		.loc 1 170 0
 610 0030 4622     		movs	r2, #70
 611 0032 0A21     		movs	r1, #10
 612 0034 0D48     		ldr	r0, .L39+12
 613 0036 FFF7FEFF 		bl	GUI_DispStringAt
 614              	.LVL78:
 171:DISPLAY.c     ****     GUI_DispStringAt ("APPUYE SUR LE BOUTON 01 POUR DESACTIVER L'ALARME", 3, 100); 
 615              		.loc 1 171 0
 616 003a 6422     		movs	r2, #100
ARM GAS  C:\Users\user\AppData\Local\Temp\ccSIFDDJ.s 			page 15


 617 003c 0321     		movs	r1, #3
 618 003e 0C48     		ldr	r0, .L39+16
 619 0040 FFF7FEFF 		bl	GUI_DispStringAt
 620              	.LVL79:
 172:DISPLAY.c     ****      GUI_DrawRect(7,120,230,160);
 621              		.loc 1 172 0
 622 0044 A023     		movs	r3, #160
 623 0046 E622     		movs	r2, #230
 624 0048 7821     		movs	r1, #120
 625 004a 0720     		movs	r0, #7
 626 004c FFF7FEFF 		bl	GUI_DrawRect
 627              	.LVL80:
 173:DISPLAY.c     ****      GUI_SetFont(GUI_FONT_16_1);
 628              		.loc 1 173 0
 629 0050 2046     		mov	r0, r4
 630 0052 FFF7FEFF 		bl	GUI_SetFont
 631              	.LVL81:
 174:DISPLAY.c     ****     UpdateDisplay(CY_EINK_FULL_4STAGE, true);
 632              		.loc 1 174 0
 633 0056 0121     		movs	r1, #1
 634 0058 0846     		mov	r0, r1
 635 005a FFF7FEFF 		bl	UpdateDisplay
 636              	.LVL82:
 637 005e 10BD     		pop	{r4, pc}
 638              	.L40:
 639              		.align	2
 640              	.L39:
 641 0060 00000000 		.word	GUI_Font16_1
 642 0064 1C010000 		.word	.LC14
 643 0068 00000000 		.word	GUI_Font8_1
 644 006c 34010000 		.word	.LC15
 645 0070 64010000 		.word	.LC16
 646              		.cfi_endproc
 647              	.LFE699:
 648              		.size	DrawOption1, .-DrawOption1
 649              		.section	.text.DrawOption2,"ax",%progbits
 650              		.align	2
 651              		.global	DrawOption2
 652              		.thumb
 653              		.thumb_func
 654              		.type	DrawOption2, %function
 655              	DrawOption2:
 656              	.LFB700:
 175:DISPLAY.c     **** } 
 176:DISPLAY.c     **** 
 177:DISPLAY.c     **** // Fonction qui permet d'afficher l'OPTION 2 du MENU
 178:DISPLAY.c     **** void DrawOption2 ()
 179:DISPLAY.c     **** {         GUI_Clear(); 
 657              		.loc 1 179 0
 658              		.cfi_startproc
 659              		@ args = 0, pretend = 0, frame = 0
 660              		@ frame_needed = 0, uses_anonymous_args = 0
 661 0000 10B5     		push	{r4, lr}
 662              		.cfi_def_cfa_offset 8
 663              		.cfi_offset 4, -8
 664              		.cfi_offset 14, -4
 665              		.loc 1 179 0
ARM GAS  C:\Users\user\AppData\Local\Temp\ccSIFDDJ.s 			page 16


 666 0002 FFF7FEFF 		bl	GUI_Clear
 667              	.LVL83:
 180:DISPLAY.c     ****     GUI_SetFont(GUI_FONT_32B_1);
 668              		.loc 1 180 0
 669 0006 2348     		ldr	r0, .L43
 670 0008 FFF7FEFF 		bl	GUI_SetFont
 671              	.LVL84:
 181:DISPLAY.c     ****     GUI_SetTextAlign(GUI_TA_CENTER);
 672              		.loc 1 181 0
 673 000c 0220     		movs	r0, #2
 674 000e FFF7FEFF 		bl	GUI_SetTextAlign
 675              	.LVL85:
 182:DISPLAY.c     ****     GUI_DispStringAt("COURANT DELs", 132, 20);
 676              		.loc 1 182 0
 677 0012 1422     		movs	r2, #20
 678 0014 8421     		movs	r1, #132
 679 0016 2048     		ldr	r0, .L43+4
 680 0018 FFF7FEFF 		bl	GUI_DispStringAt
 681              	.LVL86:
 183:DISPLAY.c     ****     GUI_DrawLine(20,50,240,50);
 682              		.loc 1 183 0
 683 001c 3223     		movs	r3, #50
 684 001e F022     		movs	r2, #240
 685 0020 1946     		mov	r1, r3
 686 0022 1420     		movs	r0, #20
 687 0024 FFF7FEFF 		bl	GUI_DrawLine
 688              	.LVL87:
 184:DISPLAY.c     ****         GUI_SetFont(GUI_FONT_8_1);
 689              		.loc 1 184 0
 690 0028 1C48     		ldr	r0, .L43+8
 691 002a FFF7FEFF 		bl	GUI_SetFont
 692              	.LVL88:
 185:DISPLAY.c     ****        GUI_SetTextAlign(GUI_TA_CENTER);
 693              		.loc 1 185 0
 694 002e 0220     		movs	r0, #2
 695 0030 FFF7FEFF 		bl	GUI_SetTextAlign
 696              	.LVL89:
 186:DISPLAY.c     ****     GUI_DispStringAt ("LE COURANT CONFIGURE DES LEDS", 132, 70);
 697              		.loc 1 186 0
 698 0034 4622     		movs	r2, #70
 699 0036 8421     		movs	r1, #132
 700 0038 1948     		ldr	r0, .L43+12
 701 003a FFF7FEFF 		bl	GUI_DispStringAt
 702              	.LVL90:
 187:DISPLAY.c     ****     GUI_SetTextAlign(GUI_TA_CENTER);
 703              		.loc 1 187 0
 704 003e 0220     		movs	r0, #2
 705 0040 FFF7FEFF 		bl	GUI_SetTextAlign
 706              	.LVL91:
 188:DISPLAY.c     ****     GUI_DispStringAt ("DU CAPTEUR SPO2 MAX30102 EST:", 132, 80);
 707              		.loc 1 188 0
 708 0044 5022     		movs	r2, #80
 709 0046 8421     		movs	r1, #132
 710 0048 1648     		ldr	r0, .L43+16
 711 004a FFF7FEFF 		bl	GUI_DispStringAt
 712              	.LVL92:
 189:DISPLAY.c     ****     GUI_SetFont(GUI_FONT_16B_1);
ARM GAS  C:\Users\user\AppData\Local\Temp\ccSIFDDJ.s 			page 17


 713              		.loc 1 189 0
 714 004e 1648     		ldr	r0, .L43+20
 715 0050 FFF7FEFF 		bl	GUI_SetFont
 716              	.LVL93:
 190:DISPLAY.c     ****     GUI_DrawLine(114,140,153,140);
 717              		.loc 1 190 0
 718 0054 8C23     		movs	r3, #140
 719 0056 9922     		movs	r2, #153
 720 0058 1946     		mov	r1, r3
 721 005a 7220     		movs	r0, #114
 722 005c FFF7FEFF 		bl	GUI_DrawLine
 723              	.LVL94:
 191:DISPLAY.c     ****    GUI_SetTextAlign(GUI_TA_CENTER);
 724              		.loc 1 191 0
 725 0060 0220     		movs	r0, #2
 726 0062 FFF7FEFF 		bl	GUI_SetTextAlign
 727              	.LVL95:
 192:DISPLAY.c     ****    sprintf(buffer,"%d\n\r",courant);
 728              		.loc 1 192 0
 729 0066 114B     		ldr	r3, .L43+24
 730 0068 1A78     		ldrb	r2, [r3]	@ zero_extendqisi2
 731 006a 114C     		ldr	r4, .L43+28
 732 006c 1149     		ldr	r1, .L43+32
 733 006e 2046     		mov	r0, r4
 734 0070 FFF7FEFF 		bl	sprintf
 735              	.LVL96:
 193:DISPLAY.c     ****      GUI_DispStringAt (buffer, 125, 120);
 736              		.loc 1 193 0
 737 0074 7822     		movs	r2, #120
 738 0076 7D21     		movs	r1, #125
 739 0078 2046     		mov	r0, r4
 740 007a FFF7FEFF 		bl	GUI_DispStringAt
 741              	.LVL97:
 194:DISPLAY.c     ****     GUI_DispStringAt ("mA", 132, 120);
 742              		.loc 1 194 0
 743 007e 7822     		movs	r2, #120
 744 0080 8421     		movs	r1, #132
 745 0082 0D48     		ldr	r0, .L43+36
 746 0084 FFF7FEFF 		bl	GUI_DispStringAt
 747              	.LVL98:
 195:DISPLAY.c     ****     UpdateDisplay(CY_EINK_FULL_4STAGE, true);
 748              		.loc 1 195 0
 749 0088 0121     		movs	r1, #1
 750 008a 0846     		mov	r0, r1
 751 008c FFF7FEFF 		bl	UpdateDisplay
 752              	.LVL99:
 753 0090 10BD     		pop	{r4, pc}
 754              	.L44:
 755 0092 00BF     		.align	2
 756              	.L43:
 757 0094 00000000 		.word	GUI_Font32B_1
 758 0098 98010000 		.word	.LC17
 759 009c 00000000 		.word	GUI_Font8_1
 760 00a0 A8010000 		.word	.LC18
 761 00a4 C8010000 		.word	.LC19
 762 00a8 00000000 		.word	GUI_Font16B_1
 763 00ac 00000000 		.word	courant
ARM GAS  C:\Users\user\AppData\Local\Temp\ccSIFDDJ.s 			page 18


 764 00b0 00000000 		.word	buffer
 765 00b4 E8010000 		.word	.LC20
 766 00b8 F0010000 		.word	.LC21
 767              		.cfi_endproc
 768              	.LFE700:
 769              		.size	DrawOption2, .-DrawOption2
 770              		.section	.text.DrawOption3_superieur,"ax",%progbits
 771              		.align	2
 772              		.global	DrawOption3_superieur
 773              		.thumb
 774              		.thumb_func
 775              		.type	DrawOption3_superieur, %function
 776              	DrawOption3_superieur:
 777              	.LFB701:
 196:DISPLAY.c     **** }
 197:DISPLAY.c     **** // Fonction qui permet d'afficher l'OPTION du MENU qui permet de d√©finir la borne sup√©rieure 
 198:DISPLAY.c     **** // de l'intervall de la fr√©quence cardiaque desir√©e 
 199:DISPLAY.c     **** void DrawOption3_superieur (){    
 778              		.loc 1 199 0
 779              		.cfi_startproc
 780              		@ args = 0, pretend = 0, frame = 0
 781              		@ frame_needed = 0, uses_anonymous_args = 0
 782 0000 10B5     		push	{r4, lr}
 783              		.cfi_def_cfa_offset 8
 784              		.cfi_offset 4, -8
 785              		.cfi_offset 14, -4
 200:DISPLAY.c     ****    GUI_Clear(); 
 786              		.loc 1 200 0
 787 0002 FFF7FEFF 		bl	GUI_Clear
 788              	.LVL100:
 201:DISPLAY.c     ****     GUI_SetFont(GUI_FONT_8_1);
 789              		.loc 1 201 0
 790 0006 1D4C     		ldr	r4, .L47
 791 0008 2046     		mov	r0, r4
 792 000a FFF7FEFF 		bl	GUI_SetFont
 793              	.LVL101:
 202:DISPLAY.c     ****     GUI_SetTextAlign(GUI_TA_CENTER);
 794              		.loc 1 202 0
 795 000e 0220     		movs	r0, #2
 796 0010 FFF7FEFF 		bl	GUI_SetTextAlign
 797              	.LVL102:
 203:DISPLAY.c     ****     GUI_DispStringAt("DEFINITION DE L'INTERVALLE DE L'ALARME", 132, 20);
 798              		.loc 1 203 0
 799 0014 1422     		movs	r2, #20
 800 0016 8421     		movs	r1, #132
 801 0018 1948     		ldr	r0, .L47+4
 802 001a FFF7FEFF 		bl	GUI_DispStringAt
 803              	.LVL103:
 204:DISPLAY.c     ****     GUI_DrawLine(25,30,240,30);
 804              		.loc 1 204 0
 805 001e 1E23     		movs	r3, #30
 806 0020 F022     		movs	r2, #240
 807 0022 1946     		mov	r1, r3
 808 0024 1920     		movs	r0, #25
 809 0026 FFF7FEFF 		bl	GUI_DrawLine
 810              	.LVL104:
 205:DISPLAY.c     ****     GUI_SetFont(GUI_FONT_8_1);
ARM GAS  C:\Users\user\AppData\Local\Temp\ccSIFDDJ.s 			page 19


 811              		.loc 1 205 0
 812 002a 2046     		mov	r0, r4
 813 002c FFF7FEFF 		bl	GUI_SetFont
 814              	.LVL105:
 206:DISPLAY.c     ****     GUI_DispStringAt ("DEFINIISSEZ LA BORNE SUPERIEUR DE LA FC", 10, 70);
 815              		.loc 1 206 0
 816 0030 4622     		movs	r2, #70
 817 0032 0A21     		movs	r1, #10
 818 0034 1348     		ldr	r0, .L47+8
 819 0036 FFF7FEFF 		bl	GUI_DispStringAt
 820              	.LVL106:
 207:DISPLAY.c     ****     GUI_SetFont(GUI_FONT_16_1);
 821              		.loc 1 207 0
 822 003a 1348     		ldr	r0, .L47+12
 823 003c FFF7FEFF 		bl	GUI_SetFont
 824              	.LVL107:
 208:DISPLAY.c     ****     GUI_DispStringAt ("BORNE SUPERIEUR: ", 10, 110);
 825              		.loc 1 208 0
 826 0040 6E22     		movs	r2, #110
 827 0042 0A21     		movs	r1, #10
 828 0044 1148     		ldr	r0, .L47+16
 829 0046 FFF7FEFF 		bl	GUI_DispStringAt
 830              	.LVL108:
 209:DISPLAY.c     ****     GUI_SetFont(GUI_FONT_32B_1);
 831              		.loc 1 209 0
 832 004a 1148     		ldr	r0, .L47+20
 833 004c FFF7FEFF 		bl	GUI_SetFont
 834              	.LVL109:
 210:DISPLAY.c     ****     sprintf(buffer,"%d\n\r",borne_superieur);
 835              		.loc 1 210 0
 836 0050 104C     		ldr	r4, .L47+24
 837 0052 114B     		ldr	r3, .L47+28
 838 0054 1A78     		ldrb	r2, [r3]	@ zero_extendqisi2
 839 0056 1149     		ldr	r1, .L47+32
 840 0058 2046     		mov	r0, r4
 841 005a FFF7FEFF 		bl	sprintf
 842              	.LVL110:
 211:DISPLAY.c     ****      GUI_DispStringAt (buffer, 139, 99);
 843              		.loc 1 211 0
 844 005e 6322     		movs	r2, #99
 845 0060 8B21     		movs	r1, #139
 846 0062 2046     		mov	r0, r4
 847 0064 FFF7FEFF 		bl	GUI_DispStringAt
 848              	.LVL111:
 212:DISPLAY.c     ****      GUI_DispStringAt ("BPM ", 187, 98);
 849              		.loc 1 212 0
 850 0068 6222     		movs	r2, #98
 851 006a BB21     		movs	r1, #187
 852 006c 0C48     		ldr	r0, .L47+36
 853 006e FFF7FEFF 		bl	GUI_DispStringAt
 854              	.LVL112:
 213:DISPLAY.c     ****      UpdateDisplay(CY_EINK_FULL_4STAGE, true); 
 855              		.loc 1 213 0
 856 0072 0121     		movs	r1, #1
 857 0074 0846     		mov	r0, r1
 858 0076 FFF7FEFF 		bl	UpdateDisplay
 859              	.LVL113:
ARM GAS  C:\Users\user\AppData\Local\Temp\ccSIFDDJ.s 			page 20


 860 007a 10BD     		pop	{r4, pc}
 861              	.L48:
 862              		.align	2
 863              	.L47:
 864 007c 00000000 		.word	GUI_Font8_1
 865 0080 F4010000 		.word	.LC22
 866 0084 1C020000 		.word	.LC23
 867 0088 00000000 		.word	GUI_Font16_1
 868 008c 44020000 		.word	.LC24
 869 0090 00000000 		.word	GUI_Font32B_1
 870 0094 00000000 		.word	buffer
 871 0098 00000000 		.word	borne_superieur
 872 009c E8010000 		.word	.LC20
 873 00a0 60000000 		.word	.LC6
 874              		.cfi_endproc
 875              	.LFE701:
 876              		.size	DrawOption3_superieur, .-DrawOption3_superieur
 877              		.section	.text.DrawOption3_inferieur,"ax",%progbits
 878              		.align	2
 879              		.global	DrawOption3_inferieur
 880              		.thumb
 881              		.thumb_func
 882              		.type	DrawOption3_inferieur, %function
 883              	DrawOption3_inferieur:
 884              	.LFB702:
 214:DISPLAY.c     **** 
 215:DISPLAY.c     **** }
 216:DISPLAY.c     **** // Fonction qui permet d'afficher l'OPTION du MENU qui permet de d√©finir la borne sup√©rieure 
 217:DISPLAY.c     **** // de l'intervall de la fr√©quence cardiaque desir√©e 
 218:DISPLAY.c     **** void DrawOption3_inferieur (){    
 885              		.loc 1 218 0
 886              		.cfi_startproc
 887              		@ args = 0, pretend = 0, frame = 0
 888              		@ frame_needed = 0, uses_anonymous_args = 0
 889 0000 10B5     		push	{r4, lr}
 890              		.cfi_def_cfa_offset 8
 891              		.cfi_offset 4, -8
 892              		.cfi_offset 14, -4
 219:DISPLAY.c     ****   GUI_Clear(); 
 893              		.loc 1 219 0
 894 0002 FFF7FEFF 		bl	GUI_Clear
 895              	.LVL114:
 220:DISPLAY.c     ****     GUI_SetFont(GUI_FONT_8_1);
 896              		.loc 1 220 0
 897 0006 1D4C     		ldr	r4, .L51
 898 0008 2046     		mov	r0, r4
 899 000a FFF7FEFF 		bl	GUI_SetFont
 900              	.LVL115:
 221:DISPLAY.c     ****     GUI_SetTextAlign(GUI_TA_CENTER);
 901              		.loc 1 221 0
 902 000e 0220     		movs	r0, #2
 903 0010 FFF7FEFF 		bl	GUI_SetTextAlign
 904              	.LVL116:
 222:DISPLAY.c     ****     GUI_DispStringAt("DEFINITION DE L'INTERVALLE DE L'ALARME", 132, 20);
 905              		.loc 1 222 0
 906 0014 1422     		movs	r2, #20
 907 0016 8421     		movs	r1, #132
ARM GAS  C:\Users\user\AppData\Local\Temp\ccSIFDDJ.s 			page 21


 908 0018 1948     		ldr	r0, .L51+4
 909 001a FFF7FEFF 		bl	GUI_DispStringAt
 910              	.LVL117:
 223:DISPLAY.c     ****     GUI_DrawLine(25,30,240,30);
 911              		.loc 1 223 0
 912 001e 1E23     		movs	r3, #30
 913 0020 F022     		movs	r2, #240
 914 0022 1946     		mov	r1, r3
 915 0024 1920     		movs	r0, #25
 916 0026 FFF7FEFF 		bl	GUI_DrawLine
 917              	.LVL118:
 224:DISPLAY.c     ****     GUI_SetFont(GUI_FONT_8_1);
 918              		.loc 1 224 0
 919 002a 2046     		mov	r0, r4
 920 002c FFF7FEFF 		bl	GUI_SetFont
 921              	.LVL119:
 225:DISPLAY.c     ****     GUI_DispStringAt ("DEFINIISSEZ LA BORNE INFERIEUR DE LA FC", 10, 70);
 922              		.loc 1 225 0
 923 0030 4622     		movs	r2, #70
 924 0032 0A21     		movs	r1, #10
 925 0034 1348     		ldr	r0, .L51+8
 926 0036 FFF7FEFF 		bl	GUI_DispStringAt
 927              	.LVL120:
 226:DISPLAY.c     ****     GUI_SetFont(GUI_FONT_16_1);
 928              		.loc 1 226 0
 929 003a 1348     		ldr	r0, .L51+12
 930 003c FFF7FEFF 		bl	GUI_SetFont
 931              	.LVL121:
 227:DISPLAY.c     ****     GUI_DispStringAt ("BORNE INFERIEUR: ", 10, 110);
 932              		.loc 1 227 0
 933 0040 6E22     		movs	r2, #110
 934 0042 0A21     		movs	r1, #10
 935 0044 1148     		ldr	r0, .L51+16
 936 0046 FFF7FEFF 		bl	GUI_DispStringAt
 937              	.LVL122:
 228:DISPLAY.c     ****     GUI_SetFont(GUI_FONT_32B_1);
 938              		.loc 1 228 0
 939 004a 1148     		ldr	r0, .L51+20
 940 004c FFF7FEFF 		bl	GUI_SetFont
 941              	.LVL123:
 229:DISPLAY.c     ****     sprintf(buffer,"%d\n\r",borne_inferieur);
 942              		.loc 1 229 0
 943 0050 104C     		ldr	r4, .L51+24
 944 0052 114B     		ldr	r3, .L51+28
 945 0054 1A78     		ldrb	r2, [r3]	@ zero_extendqisi2
 946 0056 1149     		ldr	r1, .L51+32
 947 0058 2046     		mov	r0, r4
 948 005a FFF7FEFF 		bl	sprintf
 949              	.LVL124:
 230:DISPLAY.c     ****      GUI_DispStringAt (buffer, 139, 99);
 950              		.loc 1 230 0
 951 005e 6322     		movs	r2, #99
 952 0060 8B21     		movs	r1, #139
 953 0062 2046     		mov	r0, r4
 954 0064 FFF7FEFF 		bl	GUI_DispStringAt
 955              	.LVL125:
 231:DISPLAY.c     ****      GUI_DispStringAt ("BPM ", 187, 98);
ARM GAS  C:\Users\user\AppData\Local\Temp\ccSIFDDJ.s 			page 22


 956              		.loc 1 231 0
 957 0068 6222     		movs	r2, #98
 958 006a BB21     		movs	r1, #187
 959 006c 0C48     		ldr	r0, .L51+36
 960 006e FFF7FEFF 		bl	GUI_DispStringAt
 961              	.LVL126:
 232:DISPLAY.c     ****      UpdateDisplay(CY_EINK_FULL_4STAGE, true); 
 962              		.loc 1 232 0
 963 0072 0121     		movs	r1, #1
 964 0074 0846     		mov	r0, r1
 965 0076 FFF7FEFF 		bl	UpdateDisplay
 966              	.LVL127:
 967 007a 10BD     		pop	{r4, pc}
 968              	.L52:
 969              		.align	2
 970              	.L51:
 971 007c 00000000 		.word	GUI_Font8_1
 972 0080 F4010000 		.word	.LC22
 973 0084 58020000 		.word	.LC25
 974 0088 00000000 		.word	GUI_Font16_1
 975 008c 80020000 		.word	.LC26
 976 0090 00000000 		.word	GUI_Font32B_1
 977 0094 00000000 		.word	buffer
 978 0098 00000000 		.word	borne_inferieur
 979 009c E8010000 		.word	.LC20
 980 00a0 60000000 		.word	.LC6
 981              		.cfi_endproc
 982              	.LFE702:
 983              		.size	DrawOption3_inferieur, .-DrawOption3_inferieur
 984              		.section	.text.DrawOption3_ETAT,"ax",%progbits
 985              		.align	2
 986              		.global	DrawOption3_ETAT
 987              		.thumb
 988              		.thumb_func
 989              		.type	DrawOption3_ETAT, %function
 990              	DrawOption3_ETAT:
 991              	.LFB703:
 233:DISPLAY.c     **** }
 234:DISPLAY.c     **** // Fonction qui permet d'afficher l'OPTION du MENU qui permet de d√©finir l'√©tat de l'alarme de fr
 235:DISPLAY.c     **** void DrawOption3_ETAT ()
 236:DISPLAY.c     **** {       
 992              		.loc 1 236 0
 993              		.cfi_startproc
 994              		@ args = 0, pretend = 0, frame = 0
 995              		@ frame_needed = 0, uses_anonymous_args = 0
 996 0000 10B5     		push	{r4, lr}
 997              		.cfi_def_cfa_offset 8
 998              		.cfi_offset 4, -8
 999              		.cfi_offset 14, -4
 237:DISPLAY.c     ****           GUI_Clear(); 
 1000              		.loc 1 237 0
 1001 0002 FFF7FEFF 		bl	GUI_Clear
 1002              	.LVL128:
 238:DISPLAY.c     ****     GUI_SetFont(GUI_FONT_16_1);
 1003              		.loc 1 238 0
 1004 0006 174C     		ldr	r4, .L55
 1005 0008 2046     		mov	r0, r4
ARM GAS  C:\Users\user\AppData\Local\Temp\ccSIFDDJ.s 			page 23


 1006 000a FFF7FEFF 		bl	GUI_SetFont
 1007              	.LVL129:
 239:DISPLAY.c     ****     GUI_SetTextAlign(GUI_TA_CENTER);
 1008              		.loc 1 239 0
 1009 000e 0220     		movs	r0, #2
 1010 0010 FFF7FEFF 		bl	GUI_SetTextAlign
 1011              	.LVL130:
 240:DISPLAY.c     ****     GUI_DispStringAt("ALARME DE LA FREQUENCE CARDIAQUE", 132, 20);
 1012              		.loc 1 240 0
 1013 0014 1422     		movs	r2, #20
 1014 0016 8421     		movs	r1, #132
 1015 0018 1348     		ldr	r0, .L55+4
 1016 001a FFF7FEFF 		bl	GUI_DispStringAt
 1017              	.LVL131:
 241:DISPLAY.c     ****     GUI_DrawLine(3,34,260,34);
 1018              		.loc 1 241 0
 1019 001e 2223     		movs	r3, #34
 1020 0020 4FF48272 		mov	r2, #260
 1021 0024 1946     		mov	r1, r3
 1022 0026 0320     		movs	r0, #3
 1023 0028 FFF7FEFF 		bl	GUI_DrawLine
 1024              	.LVL132:
 242:DISPLAY.c     ****         GUI_SetFont(GUI_FONT_8_1);
 1025              		.loc 1 242 0
 1026 002c 0F48     		ldr	r0, .L55+8
 1027 002e FFF7FEFF 		bl	GUI_SetFont
 1028              	.LVL133:
 243:DISPLAY.c     ****     GUI_DispStringAt ("APPUYE SUR LE BOUTON 00 POUR ACTIVER L'ALARME", 10, 70);
 1029              		.loc 1 243 0
 1030 0032 4622     		movs	r2, #70
 1031 0034 0A21     		movs	r1, #10
 1032 0036 0E48     		ldr	r0, .L55+12
 1033 0038 FFF7FEFF 		bl	GUI_DispStringAt
 1034              	.LVL134:
 244:DISPLAY.c     ****     GUI_DispStringAt ("APPUYE SUR LE BOUTON 01 POUR DESACTIVER L'ALARME", 3, 100); 
 1035              		.loc 1 244 0
 1036 003c 6422     		movs	r2, #100
 1037 003e 0321     		movs	r1, #3
 1038 0040 0C48     		ldr	r0, .L55+16
 1039 0042 FFF7FEFF 		bl	GUI_DispStringAt
 1040              	.LVL135:
 245:DISPLAY.c     ****      GUI_DrawRect(7,120,230,160);
 1041              		.loc 1 245 0
 1042 0046 A023     		movs	r3, #160
 1043 0048 E622     		movs	r2, #230
 1044 004a 7821     		movs	r1, #120
 1045 004c 0720     		movs	r0, #7
 1046 004e FFF7FEFF 		bl	GUI_DrawRect
 1047              	.LVL136:
 246:DISPLAY.c     ****      GUI_SetFont(GUI_FONT_16_1);
 1048              		.loc 1 246 0
 1049 0052 2046     		mov	r0, r4
 1050 0054 FFF7FEFF 		bl	GUI_SetFont
 1051              	.LVL137:
 247:DISPLAY.c     ****     UpdateDisplay(CY_EINK_FULL_4STAGE, true);
 1052              		.loc 1 247 0
 1053 0058 0121     		movs	r1, #1
ARM GAS  C:\Users\user\AppData\Local\Temp\ccSIFDDJ.s 			page 24


 1054 005a 0846     		mov	r0, r1
 1055 005c FFF7FEFF 		bl	UpdateDisplay
 1056              	.LVL138:
 1057 0060 10BD     		pop	{r4, pc}
 1058              	.L56:
 1059 0062 00BF     		.align	2
 1060              	.L55:
 1061 0064 00000000 		.word	GUI_Font16_1
 1062 0068 94020000 		.word	.LC27
 1063 006c 00000000 		.word	GUI_Font8_1
 1064 0070 34010000 		.word	.LC15
 1065 0074 64010000 		.word	.LC16
 1066              		.cfi_endproc
 1067              	.LFE703:
 1068              		.size	DrawOption3_ETAT, .-DrawOption3_ETAT
 1069              		.section	.text.display_task,"ax",%progbits
 1070              		.align	2
 1071              		.global	display_task
 1072              		.thumb
 1073              		.thumb_func
 1074              		.type	display_task, %function
 1075              	display_task:
 1076              	.LFB704:
 248:DISPLAY.c     **** } 
 249:DISPLAY.c     **** 
 250:DISPLAY.c     **** // La t√¢che d'affichage 
 251:DISPLAY.c     **** void display_task( void ) {
 1077              		.loc 1 251 0
 1078              		.cfi_startproc
 1079              		@ Volatile: function does not return.
 1080              		@ args = 0, pretend = 0, frame = 0
 1081              		@ frame_needed = 0, uses_anonymous_args = 0
 1082 0000 08B5     		push	{r3, lr}
 1083              		.cfi_def_cfa_offset 8
 1084              		.cfi_offset 3, -8
 1085              		.cfi_offset 14, -4
 252:DISPLAY.c     ****    
 253:DISPLAY.c     ****     // intialisation des param√®tres de l'affichahe sur l'√©cran E-INK display Shield Board CY8CKIT
 254:DISPLAY.c     ****     GUI_Init();
 1086              		.loc 1 254 0
 1087 0002 FFF7FEFF 		bl	GUI_Init
 1088              	.LVL139:
 255:DISPLAY.c     ****     Cy_EINK_Start(20);
 1089              		.loc 1 255 0
 1090 0006 1420     		movs	r0, #20
 1091 0008 FFF7FEFF 		bl	Cy_EINK_Start
 1092              	.LVL140:
 256:DISPLAY.c     ****     Cy_EINK_Power(1);
 1093              		.loc 1 256 0
 1094 000c 0120     		movs	r0, #1
 1095 000e FFF7FEFF 		bl	Cy_EINK_Power
 1096              	.LVL141:
 257:DISPLAY.c     ****     GUI_Clear(); 
 1097              		.loc 1 257 0
 1098 0012 FFF7FEFF 		bl	GUI_Clear
 1099              	.LVL142:
 258:DISPLAY.c     ****     GUI_SetColor(GUI_BLACK);
ARM GAS  C:\Users\user\AppData\Local\Temp\ccSIFDDJ.s 			page 25


 1100              		.loc 1 258 0
 1101 0016 0020     		movs	r0, #0
 1102 0018 FFF7FEFF 		bl	GUI_SetColor
 1103              	.LVL143:
 259:DISPLAY.c     ****     GUI_SetBkColor(GUI_WHITE);
 1104              		.loc 1 259 0
 1105 001c 6FF07F40 		mvn	r0, #-16777216
 1106 0020 FFF7FEFF 		bl	GUI_SetBkColor
 1107              	.LVL144:
 260:DISPLAY.c     ****     GUI_SetPenSize(1);
 1108              		.loc 1 260 0
 1109 0024 0120     		movs	r0, #1
 1110 0026 FFF7FEFF 		bl	GUI_SetPenSize
 1111              	.LVL145:
 261:DISPLAY.c     ****     GUI_SetFont(GUI_FONT_8_1);
 1112              		.loc 1 261 0
 1113 002a 2D48     		ldr	r0, .L94
 1114 002c FFF7FEFF 		bl	GUI_SetFont
 1115              	.LVL146:
 1116              	.L92:
 262:DISPLAY.c     ****         
 263:DISPLAY.c     ****     for (;;) {       
 264:DISPLAY.c     ****         
 265:DISPLAY.c     ****                 if (currentScreen.FLAG_DEPART) {
 1117              		.loc 1 265 0
 1118 0030 2C4B     		ldr	r3, .L94+4
 1119 0032 1B79     		ldrb	r3, [r3, #4]	@ zero_extendqisi2
 1120 0034 13F0FF0F 		tst	r3, #255
 1121 0038 24D0     		beq	.L58
 266:DISPLAY.c     ****                              updateParameters(BPM,pourcentageSpO2);     
 1122              		.loc 1 266 0
 1123 003a 2B4B     		ldr	r3, .L94+8
 1124 003c 1878     		ldrb	r0, [r3]	@ zero_extendqisi2
 1125 003e 2B4B     		ldr	r3, .L94+12
 1126 0040 D3ED007A 		vldr.32	s15, [r3]
 1127 0044 FDEEE77A 		vcvt.s32.f32	s15, s15
 1128 0048 17EE901A 		vmov	r1, s15	@ int
 1129 004c FFF7FEFF 		bl	updateParameters
 1130              	.LVL147:
 267:DISPLAY.c     ****                              
 268:DISPLAY.c     ****                            if (currentScreen.TYPEGRAPH)                
 1131              		.loc 1 268 0
 1132 0050 244B     		ldr	r3, .L94+4
 1133 0052 5B79     		ldrb	r3, [r3, #5]	@ zero_extendqisi2
 1134 0054 13F0FF0F 		tst	r3, #255
 1135 0058 05D0     		beq	.L59
 269:DISPLAY.c     ****                                         {   
 270:DISPLAY.c     ****                                             drawGraph(INFRAROUGE, 3,BUFFER_LENGTH ) ;              
 1136              		.loc 1 270 0
 1137 005a 40F24C42 		movw	r2, #1100
 1138 005e 0321     		movs	r1, #3
 1139 0060 2348     		ldr	r0, .L94+16
 1140 0062 FFF7FEFF 		bl	drawGraph
 1141              	.LVL148:
 1142              	.L59:
 271:DISPLAY.c     ****                                         } 
 272:DISPLAY.c     ****                             if (currentScreen.TYPEGRAPH==0) 
ARM GAS  C:\Users\user\AppData\Local\Temp\ccSIFDDJ.s 			page 26


 1143              		.loc 1 272 0
 1144 0066 1F4B     		ldr	r3, .L94+4
 1145 0068 5B79     		ldrb	r3, [r3, #5]	@ zero_extendqisi2
 1146 006a 13F0FF0F 		tst	r3, #255
 1147 006e 05D1     		bne	.L60
 273:DISPLAY.c     ****                                         {
 274:DISPLAY.c     ****                                            drawGraph(ROUGE, 3,BUFFER_LENGTH ) ;     
 1148              		.loc 1 274 0
 1149 0070 40F24C42 		movw	r2, #1100
 1150 0074 0321     		movs	r1, #3
 1151 0076 1F48     		ldr	r0, .L94+20
 1152 0078 FFF7FEFF 		bl	drawGraph
 1153              	.LVL149:
 1154              	.L60:
 275:DISPLAY.c     ****                                         } 
 276:DISPLAY.c     ****                             currentScreen.screen= PRINCIPAL_PAGE; 
 1155              		.loc 1 276 0
 1156 007c 194B     		ldr	r3, .L94+4
 1157 007e 0022     		movs	r2, #0
 1158 0080 1A70     		strb	r2, [r3]
 277:DISPLAY.c     ****                             currentScreen.FLAG_DEPART=0;        
 1159              		.loc 1 277 0
 1160 0082 1A71     		strb	r2, [r3, #4]
 1161              	.L58:
 278:DISPLAY.c     ****                  }  // √† l'appuie du bouton SW2, le type de courbe d'absorption est modifi√©e 
 279:DISPLAY.c     ****                 if (currentScreen.FLAG1==1 || currentScreen.FLAG3==1) {
 1162              		.loc 1 279 0
 1163 0084 174B     		ldr	r3, .L94+4
 1164 0086 5B78     		ldrb	r3, [r3, #1]	@ zero_extendqisi2
 1165 0088 DBB2     		uxtb	r3, r3
 1166 008a 012B     		cmp	r3, #1
 1167 008c 04D0     		beq	.L61
 1168              		.loc 1 279 0 is_stmt 0 discriminator 1
 1169 008e 154B     		ldr	r3, .L94+4
 1170 0090 DB78     		ldrb	r3, [r3, #3]	@ zero_extendqisi2
 1171 0092 DBB2     		uxtb	r3, r3
 1172 0094 012B     		cmp	r3, #1
 1173 0096 15D1     		bne	.L62
 1174              	.L61:
 280:DISPLAY.c     ****                      
 281:DISPLAY.c     ****                      currentScreen.screen= MAIN_MENU; 
 1175              		.loc 1 281 0 is_stmt 1
 1176 0098 124C     		ldr	r4, .L94+4
 1177 009a 0123     		movs	r3, #1
 1178 009c 2370     		strb	r3, [r4]
 282:DISPLAY.c     ****                      postion_MENU=40;
 1179              		.loc 1 282 0
 1180 009e 2820     		movs	r0, #40
 1181 00a0 154B     		ldr	r3, .L94+24
 1182 00a2 1870     		strb	r0, [r3]
 283:DISPLAY.c     ****                     DrawMenu(postion_MENU);
 1183              		.loc 1 283 0
 1184 00a4 FFF7FEFF 		bl	DrawMenu
 1185              	.LVL150:
 284:DISPLAY.c     ****                     if (currentScreen.FLAG1==1) {currentScreen.FLAG1=0;}
 1186              		.loc 1 284 0
 1187 00a8 6378     		ldrb	r3, [r4, #1]	@ zero_extendqisi2
ARM GAS  C:\Users\user\AppData\Local\Temp\ccSIFDDJ.s 			page 27


 1188 00aa DBB2     		uxtb	r3, r3
 1189 00ac 012B     		cmp	r3, #1
 1190 00ae 01D1     		bne	.L63
 1191              		.loc 1 284 0 is_stmt 0 discriminator 1
 1192 00b0 0022     		movs	r2, #0
 1193 00b2 6270     		strb	r2, [r4, #1]
 1194              	.L63:
 285:DISPLAY.c     ****                     if (currentScreen.FLAG3==1) {currentScreen.FLAG3=0;}
 1195              		.loc 1 285 0 is_stmt 1
 1196 00b4 0B4B     		ldr	r3, .L94+4
 1197 00b6 DB78     		ldrb	r3, [r3, #3]	@ zero_extendqisi2
 1198 00b8 DBB2     		uxtb	r3, r3
 1199 00ba 012B     		cmp	r3, #1
 1200 00bc 02D1     		bne	.L62
 1201              		.loc 1 285 0 is_stmt 0 discriminator 1
 1202 00be 0022     		movs	r2, #0
 1203 00c0 084B     		ldr	r3, .L94+4
 1204 00c2 DA70     		strb	r2, [r3, #3]
 1205              	.L62:
 286:DISPLAY.c     ****                 } // √† l'appuie du bouton SW2 ou le bouton 0 dans la page principale, la page du M
 287:DISPLAY.c     ****                 if (currentScreen.FLAG1==2)
 1206              		.loc 1 287 0 is_stmt 1
 1207 00c4 074B     		ldr	r3, .L94+4
 1208 00c6 5B78     		ldrb	r3, [r3, #1]	@ zero_extendqisi2
 1209 00c8 DBB2     		uxtb	r3, r3
 1210 00ca 022B     		cmp	r3, #2
 1211 00cc 20D1     		bne	.L64
 288:DISPLAY.c     ****                 {
 289:DISPLAY.c     ****                     if (postion_MENU==160)
 1212              		.loc 1 289 0
 1213 00ce 0A4B     		ldr	r3, .L94+24
 1214 00d0 1B78     		ldrb	r3, [r3]	@ zero_extendqisi2
 1215 00d2 A02B     		cmp	r3, #160
 1216 00d4 12D1     		bne	.L65
 290:DISPLAY.c     ****                     {postion_MENU=40; }
 1217              		.loc 1 290 0
 1218 00d6 2822     		movs	r2, #40
 1219 00d8 074B     		ldr	r3, .L94+24
 1220 00da 1A70     		strb	r2, [r3]
 1221 00dc 11E0     		b	.L66
 1222              	.L95:
 1223 00de 00BF     		.align	2
 1224              	.L94:
 1225 00e0 00000000 		.word	GUI_Font8_1
 1226 00e4 00000000 		.word	currentScreen
 1227 00e8 00000000 		.word	BPM
 1228 00ec 00000000 		.word	pourcentageSpO2
 1229 00f0 00000000 		.word	INFRAROUGE
 1230 00f4 00000000 		.word	ROUGE
 1231 00f8 00000000 		.word	postion_MENU
 1232              	.L65:
 291:DISPLAY.c     ****                     else 
 292:DISPLAY.c     ****                     {postion_MENU= postion_MENU+30;} 
 1233              		.loc 1 292 0
 1234 00fc 1E33     		adds	r3, r3, #30
 1235 00fe A04A     		ldr	r2, .L96
 1236 0100 1370     		strb	r3, [r2]
ARM GAS  C:\Users\user\AppData\Local\Temp\ccSIFDDJ.s 			page 28


 1237              	.L66:
 293:DISPLAY.c     ****                     DrawMenu(postion_MENU); 
 1238              		.loc 1 293 0
 1239 0102 9F4B     		ldr	r3, .L96
 1240 0104 1878     		ldrb	r0, [r3]	@ zero_extendqisi2
 1241 0106 FFF7FEFF 		bl	DrawMenu
 1242              	.LVL151:
 294:DISPLAY.c     ****                     currentScreen.FLAG1=0; 
 1243              		.loc 1 294 0
 1244 010a 0022     		movs	r2, #0
 1245 010c 9D4B     		ldr	r3, .L96+4
 1246 010e 5A70     		strb	r2, [r3, #1]
 1247              	.L64:
 295:DISPLAY.c     ****                 } // √† l'appuie du bouton 0 dans la page de MENU, le curseur change de position ve
 296:DISPLAY.c     ****                 if (currentScreen.FLAG1== 3 || selection_MENU==1 || currentScreen.FLAG2== 3 )
 1248              		.loc 1 296 0
 1249 0110 9C4B     		ldr	r3, .L96+4
 1250 0112 5B78     		ldrb	r3, [r3, #1]	@ zero_extendqisi2
 1251 0114 DBB2     		uxtb	r3, r3
 1252 0116 032B     		cmp	r3, #3
 1253 0118 08D0     		beq	.L67
 1254              		.loc 1 296 0 is_stmt 0 discriminator 1
 1255 011a 9B4B     		ldr	r3, .L96+8
 1256 011c 1B78     		ldrb	r3, [r3]	@ zero_extendqisi2
 1257 011e 012B     		cmp	r3, #1
 1258 0120 04D0     		beq	.L67
 1259              		.loc 1 296 0 discriminator 2
 1260 0122 984B     		ldr	r3, .L96+4
 1261 0124 9B78     		ldrb	r3, [r3, #2]	@ zero_extendqisi2
 1262 0126 DBB2     		uxtb	r3, r3
 1263 0128 032B     		cmp	r3, #3
 1264 012a 3BD1     		bne	.L68
 1265              	.L67:
 297:DISPLAY.c     ****                 {
 298:DISPLAY.c     **** 
 299:DISPLAY.c     ****                     DrawOption1 (); 
 1266              		.loc 1 299 0 is_stmt 1
 1267 012c FFF7FEFF 		bl	DrawOption1
 1268              	.LVL152:
 300:DISPLAY.c     ****                    
 301:DISPLAY.c     ****                     //Activation  de l'alarme de l'acc√©l√©rom√®tre √† l'appuie du bouton 0 sur la 
 302:DISPLAY.c     ****                     //Permet la lecture des variables transmis par l'expert communication
 303:DISPLAY.c     ****                                         if  (currentScreen.FLAG1==3) {
 1269              		.loc 1 303 0
 1270 0130 944B     		ldr	r3, .L96+4
 1271 0132 5B78     		ldrb	r3, [r3, #1]	@ zero_extendqisi2
 1272 0134 DBB2     		uxtb	r3, r3
 1273 0136 032B     		cmp	r3, #3
 1274 0138 11D1     		bne	.L69
 304:DISPLAY.c     ****                                              alarme_acc= true; 
 1275              		.loc 1 304 0
 1276 013a 0124     		movs	r4, #1
 1277 013c 934B     		ldr	r3, .L96+12
 1278 013e 1C70     		strb	r4, [r3]
 305:DISPLAY.c     ****                                              GUI_SetFont(GUI_FONT_16B_1);
 1279              		.loc 1 305 0
 1280 0140 9348     		ldr	r0, .L96+16
ARM GAS  C:\Users\user\AppData\Local\Temp\ccSIFDDJ.s 			page 29


 1281 0142 FFF7FEFF 		bl	GUI_SetFont
 1282              	.LVL153:
 306:DISPLAY.c     ****                                              GUI_DispStringAt ("L'alarme est activee ",25, 130); 
 1283              		.loc 1 306 0
 1284 0146 8222     		movs	r2, #130
 1285 0148 1921     		movs	r1, #25
 1286 014a 9248     		ldr	r0, .L96+20
 1287 014c FFF7FEFF 		bl	GUI_DispStringAt
 1288              	.LVL154:
 307:DISPLAY.c     ****                                                UpdateDisplay(CY_EINK_FULL_4STAGE, true);
 1289              		.loc 1 307 0
 1290 0150 2146     		mov	r1, r4
 1291 0152 2046     		mov	r0, r4
 1292 0154 FFF7FEFF 		bl	UpdateDisplay
 1293              	.LVL155:
 308:DISPLAY.c     ****                                             currentScreen.FLAG1=0; }
 1294              		.loc 1 308 0
 1295 0158 0022     		movs	r2, #0
 1296 015a 8A4B     		ldr	r3, .L96+4
 1297 015c 5A70     		strb	r2, [r3, #1]
 1298              	.L69:
 309:DISPLAY.c     ****                   //D√©sactivation  de l'alarme de l'acc√©l√©rom√®tre √† l'appuie du bouton 1 sur l
 310:DISPLAY.c     ****                   //Bloque la lecture des variables transmis par l'expert communication
 311:DISPLAY.c     ****                                         if  (currentScreen.FLAG2==3) { 
 1299              		.loc 1 311 0
 1300 015e 894B     		ldr	r3, .L96+4
 1301 0160 9B78     		ldrb	r3, [r3, #2]	@ zero_extendqisi2
 1302 0162 DBB2     		uxtb	r3, r3
 1303 0164 032B     		cmp	r3, #3
 1304 0166 13D1     		bne	.L70
 312:DISPLAY.c     ****                                              alarme_acc= false;
 1305              		.loc 1 312 0
 1306 0168 0024     		movs	r4, #0
 1307 016a 884B     		ldr	r3, .L96+12
 1308 016c 1C70     		strb	r4, [r3]
 1309              	.LVL156:
 1310              	.LBB18:
 1311              	.LBB19:
 1312              		.file 2 "Generated_Source\\PSoC6\\pdl\\drivers/peripheral/gpio/cy_gpio.h"
   1:Generated_Source\PSoC6\pdl\drivers/peripheral/gpio/cy_gpio.h **** /***************************************************************************//**
   2:Generated_Source\PSoC6\pdl\drivers/peripheral/gpio/cy_gpio.h **** * \file cy_gpio.h
   3:Generated_Source\PSoC6\pdl\drivers/peripheral/gpio/cy_gpio.h **** * \version 1.20
   4:Generated_Source\PSoC6\pdl\drivers/peripheral/gpio/cy_gpio.h **** *
   5:Generated_Source\PSoC6\pdl\drivers/peripheral/gpio/cy_gpio.h **** * Provides an API declaration of the GPIO driver
   6:Generated_Source\PSoC6\pdl\drivers/peripheral/gpio/cy_gpio.h **** *
   7:Generated_Source\PSoC6\pdl\drivers/peripheral/gpio/cy_gpio.h **** ********************************************************************************
   8:Generated_Source\PSoC6\pdl\drivers/peripheral/gpio/cy_gpio.h **** * \copyright
   9:Generated_Source\PSoC6\pdl\drivers/peripheral/gpio/cy_gpio.h **** * Copyright 2016-2018, Cypress Semiconductor Corporation. All rights reserved.
  10:Generated_Source\PSoC6\pdl\drivers/peripheral/gpio/cy_gpio.h **** * You may use this file only in accordance with the license, terms, conditions,
  11:Generated_Source\PSoC6\pdl\drivers/peripheral/gpio/cy_gpio.h **** * disclaimers, and limitations in the end user license agreement accompanying
  12:Generated_Source\PSoC6\pdl\drivers/peripheral/gpio/cy_gpio.h **** * the software package with which this file was provided.
  13:Generated_Source\PSoC6\pdl\drivers/peripheral/gpio/cy_gpio.h **** *******************************************************************************/
  14:Generated_Source\PSoC6\pdl\drivers/peripheral/gpio/cy_gpio.h **** 
  15:Generated_Source\PSoC6\pdl\drivers/peripheral/gpio/cy_gpio.h **** /**
  16:Generated_Source\PSoC6\pdl\drivers/peripheral/gpio/cy_gpio.h **** * \addtogroup group_gpio
  17:Generated_Source\PSoC6\pdl\drivers/peripheral/gpio/cy_gpio.h **** * \{
  18:Generated_Source\PSoC6\pdl\drivers/peripheral/gpio/cy_gpio.h **** * The GPIO driver provides an API to configure and access device Input/Output pins.
ARM GAS  C:\Users\user\AppData\Local\Temp\ccSIFDDJ.s 			page 30


  19:Generated_Source\PSoC6\pdl\drivers/peripheral/gpio/cy_gpio.h **** *
  20:Generated_Source\PSoC6\pdl\drivers/peripheral/gpio/cy_gpio.h **** * The functions and other declarations used in this driver are in cy_gpio.h. 
  21:Generated_Source\PSoC6\pdl\drivers/peripheral/gpio/cy_gpio.h **** * You can include cy_pdl.h (ModusToolbox only) to get access to all functions 
  22:Generated_Source\PSoC6\pdl\drivers/peripheral/gpio/cy_gpio.h **** * and declarations in the PDL.
  23:Generated_Source\PSoC6\pdl\drivers/peripheral/gpio/cy_gpio.h **** *
  24:Generated_Source\PSoC6\pdl\drivers/peripheral/gpio/cy_gpio.h **** * IO pins include all general purpose types such as GPIO, SIO, HSIO, AUXIO, and
  25:Generated_Source\PSoC6\pdl\drivers/peripheral/gpio/cy_gpio.h **** * their variants.
  26:Generated_Source\PSoC6\pdl\drivers/peripheral/gpio/cy_gpio.h **** *
  27:Generated_Source\PSoC6\pdl\drivers/peripheral/gpio/cy_gpio.h **** * Initialization can be performed either at the port level or by configuring the
  28:Generated_Source\PSoC6\pdl\drivers/peripheral/gpio/cy_gpio.h **** * individual pins. For efficient use of code space, port
  29:Generated_Source\PSoC6\pdl\drivers/peripheral/gpio/cy_gpio.h **** * configuration should be used in the field. Refer to the product device header files 
  30:Generated_Source\PSoC6\pdl\drivers/peripheral/gpio/cy_gpio.h **** * for the list of supported ports and pins.
  31:Generated_Source\PSoC6\pdl\drivers/peripheral/gpio/cy_gpio.h **** * 
  32:Generated_Source\PSoC6\pdl\drivers/peripheral/gpio/cy_gpio.h **** * - Single pin configuration is performed by using \ref Cy_GPIO_Pin_FastInit 
  33:Generated_Source\PSoC6\pdl\drivers/peripheral/gpio/cy_gpio.h **** *   (provide specific values) or \ref Cy_GPIO_Pin_Init (provide a filled
  34:Generated_Source\PSoC6\pdl\drivers/peripheral/gpio/cy_gpio.h **** *   cy_stc_gpio_pin_config_t structure).
  35:Generated_Source\PSoC6\pdl\drivers/peripheral/gpio/cy_gpio.h **** * - An entire port can be configured using \ref Cy_GPIO_Port_Init. Provide a filled 
  36:Generated_Source\PSoC6\pdl\drivers/peripheral/gpio/cy_gpio.h **** *   cy_stc_gpio_prt_config_t structure. The values in the structure are 
  37:Generated_Source\PSoC6\pdl\drivers/peripheral/gpio/cy_gpio.h **** *   bitfields representing the desired value for each pin in the port.
  38:Generated_Source\PSoC6\pdl\drivers/peripheral/gpio/cy_gpio.h **** * - Pin configuration and management is based on the port address and pin number.
  39:Generated_Source\PSoC6\pdl\drivers/peripheral/gpio/cy_gpio.h **** *   \ref Cy_GPIO_PortToAddr function can optionally be used to calculate the port
  40:Generated_Source\PSoC6\pdl\drivers/peripheral/gpio/cy_gpio.h **** *   address from the port number at run-time.
  41:Generated_Source\PSoC6\pdl\drivers/peripheral/gpio/cy_gpio.h **** *
  42:Generated_Source\PSoC6\pdl\drivers/peripheral/gpio/cy_gpio.h **** * Once the pin/port initialization is complete, each pin can be accessed by 
  43:Generated_Source\PSoC6\pdl\drivers/peripheral/gpio/cy_gpio.h **** * specifying the port (GPIO_PRT_Type) and the pin (0-7) in the provided API 
  44:Generated_Source\PSoC6\pdl\drivers/peripheral/gpio/cy_gpio.h **** * functions.
  45:Generated_Source\PSoC6\pdl\drivers/peripheral/gpio/cy_gpio.h **** *
  46:Generated_Source\PSoC6\pdl\drivers/peripheral/gpio/cy_gpio.h **** * \section group_gpio_configuration Configuration Considerations
  47:Generated_Source\PSoC6\pdl\drivers/peripheral/gpio/cy_gpio.h **** *
  48:Generated_Source\PSoC6\pdl\drivers/peripheral/gpio/cy_gpio.h **** * 1. Pin multiplexing is controlled through the High-Speed IO Matrix (HSIOM) selection.
  49:Generated_Source\PSoC6\pdl\drivers/peripheral/gpio/cy_gpio.h **** *    This allows the pin to connect to signal sources/sinks throughout the device,
  50:Generated_Source\PSoC6\pdl\drivers/peripheral/gpio/cy_gpio.h **** *    as defined by the pin HSIOM selection options (en_hsiom_sel_t).
  51:Generated_Source\PSoC6\pdl\drivers/peripheral/gpio/cy_gpio.h **** * 2. All pins are initialized to High-Z drive mode with HSIOM connected to CPU (SW
  52:Generated_Source\PSoC6\pdl\drivers/peripheral/gpio/cy_gpio.h **** *    control digital pin only) at Power-On-Reset(POR).
  53:Generated_Source\PSoC6\pdl\drivers/peripheral/gpio/cy_gpio.h **** * 3. Some API functions perform read-modify-write operations on shared port
  54:Generated_Source\PSoC6\pdl\drivers/peripheral/gpio/cy_gpio.h **** *    registers. These functions are not thread safe and care must be taken when
  55:Generated_Source\PSoC6\pdl\drivers/peripheral/gpio/cy_gpio.h **** *    called by the application.
  56:Generated_Source\PSoC6\pdl\drivers/peripheral/gpio/cy_gpio.h **** * 4. Digital input buffer provides a high-impedance buffer for the external 
  57:Generated_Source\PSoC6\pdl\drivers/peripheral/gpio/cy_gpio.h **** *    digital input. The input buffer is connected to the HSIOM for routing to 
  58:Generated_Source\PSoC6\pdl\drivers/peripheral/gpio/cy_gpio.h **** *    the CPU port registers and selected peripheral. Enabling the input 
  59:Generated_Source\PSoC6\pdl\drivers/peripheral/gpio/cy_gpio.h **** *    buffer provides possibility to read the pin state via the CPU.
  60:Generated_Source\PSoC6\pdl\drivers/peripheral/gpio/cy_gpio.h **** *    If pin is connected to an analog signal, the input buffer should be 
  61:Generated_Source\PSoC6\pdl\drivers/peripheral/gpio/cy_gpio.h **** *    disabled to avoid crowbar currents. For more information refer to device 
  62:Generated_Source\PSoC6\pdl\drivers/peripheral/gpio/cy_gpio.h **** *    TRM and the device datasheet.
  63:Generated_Source\PSoC6\pdl\drivers/peripheral/gpio/cy_gpio.h **** *
  64:Generated_Source\PSoC6\pdl\drivers/peripheral/gpio/cy_gpio.h **** * Multiple pins on a port can be updated using direct port register writes with an
  65:Generated_Source\PSoC6\pdl\drivers/peripheral/gpio/cy_gpio.h **** * appropriate port mask. An example is shown below, highlighting the different ways of 
  66:Generated_Source\PSoC6\pdl\drivers/peripheral/gpio/cy_gpio.h **** * configuring Port 1 pins using:
  67:Generated_Source\PSoC6\pdl\drivers/peripheral/gpio/cy_gpio.h **** * 
  68:Generated_Source\PSoC6\pdl\drivers/peripheral/gpio/cy_gpio.h **** * - Port output data register
  69:Generated_Source\PSoC6\pdl\drivers/peripheral/gpio/cy_gpio.h **** * - Port output data set register
  70:Generated_Source\PSoC6\pdl\drivers/peripheral/gpio/cy_gpio.h **** * - Port output data clear register
  71:Generated_Source\PSoC6\pdl\drivers/peripheral/gpio/cy_gpio.h **** *
  72:Generated_Source\PSoC6\pdl\drivers/peripheral/gpio/cy_gpio.h **** * \snippet gpio/gpio_v1_10_sut_01.cydsn/main_cm4.c Cy_GPIO_Snippet
  73:Generated_Source\PSoC6\pdl\drivers/peripheral/gpio/cy_gpio.h **** *
  74:Generated_Source\PSoC6\pdl\drivers/peripheral/gpio/cy_gpio.h **** * \section group_gpio_more_information More Information
  75:Generated_Source\PSoC6\pdl\drivers/peripheral/gpio/cy_gpio.h **** *
ARM GAS  C:\Users\user\AppData\Local\Temp\ccSIFDDJ.s 			page 31


  76:Generated_Source\PSoC6\pdl\drivers/peripheral/gpio/cy_gpio.h **** * Refer to the technical reference manual (TRM) and the device datasheet.
  77:Generated_Source\PSoC6\pdl\drivers/peripheral/gpio/cy_gpio.h **** *
  78:Generated_Source\PSoC6\pdl\drivers/peripheral/gpio/cy_gpio.h **** * \section group_gpio_MISRA MISRA-C Compliance
  79:Generated_Source\PSoC6\pdl\drivers/peripheral/gpio/cy_gpio.h **** * The GPIO driver has the following specific deviations:
  80:Generated_Source\PSoC6\pdl\drivers/peripheral/gpio/cy_gpio.h **** *
  81:Generated_Source\PSoC6\pdl\drivers/peripheral/gpio/cy_gpio.h **** * <table class="doxtable">
  82:Generated_Source\PSoC6\pdl\drivers/peripheral/gpio/cy_gpio.h **** *   <tr>
  83:Generated_Source\PSoC6\pdl\drivers/peripheral/gpio/cy_gpio.h **** *     <th>MISRA Rule</th>
  84:Generated_Source\PSoC6\pdl\drivers/peripheral/gpio/cy_gpio.h **** *     <th>Rule Class (Required/Advisory)</th>
  85:Generated_Source\PSoC6\pdl\drivers/peripheral/gpio/cy_gpio.h **** *     <th>Rule Description</th>
  86:Generated_Source\PSoC6\pdl\drivers/peripheral/gpio/cy_gpio.h **** *     <th>Description of Deviation(s)</th>
  87:Generated_Source\PSoC6\pdl\drivers/peripheral/gpio/cy_gpio.h **** *   </tr>
  88:Generated_Source\PSoC6\pdl\drivers/peripheral/gpio/cy_gpio.h **** *   <tr>
  89:Generated_Source\PSoC6\pdl\drivers/peripheral/gpio/cy_gpio.h **** *     <td>11.4</td>
  90:Generated_Source\PSoC6\pdl\drivers/peripheral/gpio/cy_gpio.h **** *     <td>A</td>
  91:Generated_Source\PSoC6\pdl\drivers/peripheral/gpio/cy_gpio.h **** *     <td>A cast should not be performed between a pointer to object type and
  92:Generated_Source\PSoC6\pdl\drivers/peripheral/gpio/cy_gpio.h **** *         a different pointer to object type.</td>
  93:Generated_Source\PSoC6\pdl\drivers/peripheral/gpio/cy_gpio.h **** *     <td> This code is safe because the elements of both GPIO_PRT_V1_Type and GPIO_PRT_V2_Type 
  94:Generated_Source\PSoC6\pdl\drivers/peripheral/gpio/cy_gpio.h **** *          types have identical alignment.</td>
  95:Generated_Source\PSoC6\pdl\drivers/peripheral/gpio/cy_gpio.h **** *   </tr>
  96:Generated_Source\PSoC6\pdl\drivers/peripheral/gpio/cy_gpio.h **** *   <tr>
  97:Generated_Source\PSoC6\pdl\drivers/peripheral/gpio/cy_gpio.h **** *     <td>16.7</td>
  98:Generated_Source\PSoC6\pdl\drivers/peripheral/gpio/cy_gpio.h **** *     <td>A</td>
  99:Generated_Source\PSoC6\pdl\drivers/peripheral/gpio/cy_gpio.h **** *     <td>A pointer parameter in a function prototype should be declared as pointer 
 100:Generated_Source\PSoC6\pdl\drivers/peripheral/gpio/cy_gpio.h **** *         to const if the pointer is not used to modify the addressed object.</td>
 101:Generated_Source\PSoC6\pdl\drivers/peripheral/gpio/cy_gpio.h **** *     <td>The objects pointed to by the base addresses of the GPIO port are not always modified.
 102:Generated_Source\PSoC6\pdl\drivers/peripheral/gpio/cy_gpio.h **** *         While a const qualifier can be used in select scenarios, it brings little benefit
 103:Generated_Source\PSoC6\pdl\drivers/peripheral/gpio/cy_gpio.h **** *         in adding this to the affected functions. </td>
 104:Generated_Source\PSoC6\pdl\drivers/peripheral/gpio/cy_gpio.h **** *   </tr>
 105:Generated_Source\PSoC6\pdl\drivers/peripheral/gpio/cy_gpio.h **** * </table>
 106:Generated_Source\PSoC6\pdl\drivers/peripheral/gpio/cy_gpio.h **** *
 107:Generated_Source\PSoC6\pdl\drivers/peripheral/gpio/cy_gpio.h **** * \section group_gpio_changelog Changelog
 108:Generated_Source\PSoC6\pdl\drivers/peripheral/gpio/cy_gpio.h **** * <table class="doxtable">
 109:Generated_Source\PSoC6\pdl\drivers/peripheral/gpio/cy_gpio.h **** *   <tr><th>Version</th><th>Changes</th><th>Reason for Change</th></tr>
 110:Generated_Source\PSoC6\pdl\drivers/peripheral/gpio/cy_gpio.h **** *   <tr>
 111:Generated_Source\PSoC6\pdl\drivers/peripheral/gpio/cy_gpio.h **** *     <td rowspan="3">1.20</td>
 112:Generated_Source\PSoC6\pdl\drivers/peripheral/gpio/cy_gpio.h **** *     <td>Flattened the organization of the driver source code into the single source directory and
 113:Generated_Source\PSoC6\pdl\drivers/peripheral/gpio/cy_gpio.h **** *     <td>Driver library directory-structure simplification.</td>
 114:Generated_Source\PSoC6\pdl\drivers/peripheral/gpio/cy_gpio.h **** *   </tr>
 115:Generated_Source\PSoC6\pdl\drivers/peripheral/gpio/cy_gpio.h **** *   <tr>
 116:Generated_Source\PSoC6\pdl\drivers/peripheral/gpio/cy_gpio.h **** *     <td>Added the functions for configuring the AMux bus splitter switch cells:
 117:Generated_Source\PSoC6\pdl\drivers/peripheral/gpio/cy_gpio.h **** *     - \ref Cy_GPIO_SetAmuxSplit
 118:Generated_Source\PSoC6\pdl\drivers/peripheral/gpio/cy_gpio.h **** *     - \ref Cy_GPIO_GetAmuxSplit
 119:Generated_Source\PSoC6\pdl\drivers/peripheral/gpio/cy_gpio.h **** *     </td>
 120:Generated_Source\PSoC6\pdl\drivers/peripheral/gpio/cy_gpio.h **** *     <td>Added a new functionality related to AMux bus.</td>
 121:Generated_Source\PSoC6\pdl\drivers/peripheral/gpio/cy_gpio.h **** *   </tr>
 122:Generated_Source\PSoC6\pdl\drivers/peripheral/gpio/cy_gpio.h **** *   <tr>
 123:Generated_Source\PSoC6\pdl\drivers/peripheral/gpio/cy_gpio.h **** *     <td>Added register access layer. Use register access macros instead
 124:Generated_Source\PSoC6\pdl\drivers/peripheral/gpio/cy_gpio.h **** *         of direct register access using dereferenced pointers.</td>
 125:Generated_Source\PSoC6\pdl\drivers/peripheral/gpio/cy_gpio.h **** *     <td>Makes register access device-independent, so that the PDL does 
 126:Generated_Source\PSoC6\pdl\drivers/peripheral/gpio/cy_gpio.h **** *         not need to be recompiled for each supported part number.</td>
 127:Generated_Source\PSoC6\pdl\drivers/peripheral/gpio/cy_gpio.h **** *   </tr>
 128:Generated_Source\PSoC6\pdl\drivers/peripheral/gpio/cy_gpio.h **** *   <tr>
 129:Generated_Source\PSoC6\pdl\drivers/peripheral/gpio/cy_gpio.h **** *     <td>1.10.1</td>
 130:Generated_Source\PSoC6\pdl\drivers/peripheral/gpio/cy_gpio.h **** *     <td>Updated description for the functions: \ref Cy_GPIO_GetInterruptStatus, 
 131:Generated_Source\PSoC6\pdl\drivers/peripheral/gpio/cy_gpio.h **** *         \ref Cy_GPIO_GetInterruptMask, \ref Cy_GPIO_GetInterruptStatusMasked.
 132:Generated_Source\PSoC6\pdl\drivers/peripheral/gpio/cy_gpio.h **** *
ARM GAS  C:\Users\user\AppData\Local\Temp\ccSIFDDJ.s 			page 32


 133:Generated_Source\PSoC6\pdl\drivers/peripheral/gpio/cy_gpio.h **** *         Minor documentation edits.
 134:Generated_Source\PSoC6\pdl\drivers/peripheral/gpio/cy_gpio.h **** *     </td>
 135:Generated_Source\PSoC6\pdl\drivers/peripheral/gpio/cy_gpio.h **** *     <td>Documentation update and clarification</td>
 136:Generated_Source\PSoC6\pdl\drivers/peripheral/gpio/cy_gpio.h **** *   </tr>
 137:Generated_Source\PSoC6\pdl\drivers/peripheral/gpio/cy_gpio.h **** *   <tr>
 138:Generated_Source\PSoC6\pdl\drivers/peripheral/gpio/cy_gpio.h **** *     <td>1.10</td>
 139:Generated_Source\PSoC6\pdl\drivers/peripheral/gpio/cy_gpio.h **** *     <td>Added input parameter validation to the API functions</td>
 140:Generated_Source\PSoC6\pdl\drivers/peripheral/gpio/cy_gpio.h **** *     <td></td>
 141:Generated_Source\PSoC6\pdl\drivers/peripheral/gpio/cy_gpio.h **** *   </tr>
 142:Generated_Source\PSoC6\pdl\drivers/peripheral/gpio/cy_gpio.h **** *   <tr>
 143:Generated_Source\PSoC6\pdl\drivers/peripheral/gpio/cy_gpio.h **** *     <td>1.0</td>
 144:Generated_Source\PSoC6\pdl\drivers/peripheral/gpio/cy_gpio.h **** *     <td>Initial version</td>
 145:Generated_Source\PSoC6\pdl\drivers/peripheral/gpio/cy_gpio.h **** *     <td></td>
 146:Generated_Source\PSoC6\pdl\drivers/peripheral/gpio/cy_gpio.h **** *   </tr>
 147:Generated_Source\PSoC6\pdl\drivers/peripheral/gpio/cy_gpio.h **** * </table>
 148:Generated_Source\PSoC6\pdl\drivers/peripheral/gpio/cy_gpio.h **** *
 149:Generated_Source\PSoC6\pdl\drivers/peripheral/gpio/cy_gpio.h **** * \defgroup group_gpio_macros Macros
 150:Generated_Source\PSoC6\pdl\drivers/peripheral/gpio/cy_gpio.h **** * \defgroup group_gpio_functions Functions
 151:Generated_Source\PSoC6\pdl\drivers/peripheral/gpio/cy_gpio.h **** * \{
 152:Generated_Source\PSoC6\pdl\drivers/peripheral/gpio/cy_gpio.h **** *   \defgroup group_gpio_functions_init       Initialization Functions
 153:Generated_Source\PSoC6\pdl\drivers/peripheral/gpio/cy_gpio.h **** *   \defgroup group_gpio_functions_gpio       GPIO Functions
 154:Generated_Source\PSoC6\pdl\drivers/peripheral/gpio/cy_gpio.h **** *   \defgroup group_gpio_functions_sio        SIO Functions
 155:Generated_Source\PSoC6\pdl\drivers/peripheral/gpio/cy_gpio.h **** *   \defgroup group_gpio_functions_interrupt  Port Interrupt Functions
 156:Generated_Source\PSoC6\pdl\drivers/peripheral/gpio/cy_gpio.h **** * \}
 157:Generated_Source\PSoC6\pdl\drivers/peripheral/gpio/cy_gpio.h **** * \defgroup group_gpio_data_structures Data Structures
 158:Generated_Source\PSoC6\pdl\drivers/peripheral/gpio/cy_gpio.h **** * \defgroup group_gpio_enums Enumerated Types
 159:Generated_Source\PSoC6\pdl\drivers/peripheral/gpio/cy_gpio.h **** */
 160:Generated_Source\PSoC6\pdl\drivers/peripheral/gpio/cy_gpio.h **** 
 161:Generated_Source\PSoC6\pdl\drivers/peripheral/gpio/cy_gpio.h **** #if !defined(CY_GPIO_H)
 162:Generated_Source\PSoC6\pdl\drivers/peripheral/gpio/cy_gpio.h **** #define CY_GPIO_H
 163:Generated_Source\PSoC6\pdl\drivers/peripheral/gpio/cy_gpio.h **** 
 164:Generated_Source\PSoC6\pdl\drivers/peripheral/gpio/cy_gpio.h **** #include <stddef.h>
 165:Generated_Source\PSoC6\pdl\drivers/peripheral/gpio/cy_gpio.h **** #include "cy_device.h"
 166:Generated_Source\PSoC6\pdl\drivers/peripheral/gpio/cy_gpio.h **** #include "cy_device_headers.h"
 167:Generated_Source\PSoC6\pdl\drivers/peripheral/gpio/cy_gpio.h **** #include "cy_syslib.h"
 168:Generated_Source\PSoC6\pdl\drivers/peripheral/gpio/cy_gpio.h **** 
 169:Generated_Source\PSoC6\pdl\drivers/peripheral/gpio/cy_gpio.h **** #if defined(__cplusplus)
 170:Generated_Source\PSoC6\pdl\drivers/peripheral/gpio/cy_gpio.h **** extern "C" {
 171:Generated_Source\PSoC6\pdl\drivers/peripheral/gpio/cy_gpio.h **** #endif
 172:Generated_Source\PSoC6\pdl\drivers/peripheral/gpio/cy_gpio.h **** 
 173:Generated_Source\PSoC6\pdl\drivers/peripheral/gpio/cy_gpio.h **** /** \addtogroup group_gpio_macros
 174:Generated_Source\PSoC6\pdl\drivers/peripheral/gpio/cy_gpio.h **** * \{
 175:Generated_Source\PSoC6\pdl\drivers/peripheral/gpio/cy_gpio.h **** */
 176:Generated_Source\PSoC6\pdl\drivers/peripheral/gpio/cy_gpio.h **** 
 177:Generated_Source\PSoC6\pdl\drivers/peripheral/gpio/cy_gpio.h **** /** Driver major version */
 178:Generated_Source\PSoC6\pdl\drivers/peripheral/gpio/cy_gpio.h **** #define CY_GPIO_DRV_VERSION_MAJOR       1
 179:Generated_Source\PSoC6\pdl\drivers/peripheral/gpio/cy_gpio.h **** 
 180:Generated_Source\PSoC6\pdl\drivers/peripheral/gpio/cy_gpio.h **** /** Driver minor version */
 181:Generated_Source\PSoC6\pdl\drivers/peripheral/gpio/cy_gpio.h **** #define CY_GPIO_DRV_VERSION_MINOR       20
 182:Generated_Source\PSoC6\pdl\drivers/peripheral/gpio/cy_gpio.h **** 
 183:Generated_Source\PSoC6\pdl\drivers/peripheral/gpio/cy_gpio.h **** /** GPIO driver ID */
 184:Generated_Source\PSoC6\pdl\drivers/peripheral/gpio/cy_gpio.h **** #define CY_GPIO_ID CY_PDL_DRV_ID(0x16U)
 185:Generated_Source\PSoC6\pdl\drivers/peripheral/gpio/cy_gpio.h **** 
 186:Generated_Source\PSoC6\pdl\drivers/peripheral/gpio/cy_gpio.h **** /** \} group_gpio_macros */
 187:Generated_Source\PSoC6\pdl\drivers/peripheral/gpio/cy_gpio.h **** 
 188:Generated_Source\PSoC6\pdl\drivers/peripheral/gpio/cy_gpio.h **** 
 189:Generated_Source\PSoC6\pdl\drivers/peripheral/gpio/cy_gpio.h **** /***************************************
ARM GAS  C:\Users\user\AppData\Local\Temp\ccSIFDDJ.s 			page 33


 190:Generated_Source\PSoC6\pdl\drivers/peripheral/gpio/cy_gpio.h **** *       Enumerations
 191:Generated_Source\PSoC6\pdl\drivers/peripheral/gpio/cy_gpio.h **** ***************************************/
 192:Generated_Source\PSoC6\pdl\drivers/peripheral/gpio/cy_gpio.h **** /**
 193:Generated_Source\PSoC6\pdl\drivers/peripheral/gpio/cy_gpio.h **** * \addtogroup group_gpio_enums
 194:Generated_Source\PSoC6\pdl\drivers/peripheral/gpio/cy_gpio.h **** * \{
 195:Generated_Source\PSoC6\pdl\drivers/peripheral/gpio/cy_gpio.h **** */
 196:Generated_Source\PSoC6\pdl\drivers/peripheral/gpio/cy_gpio.h **** 
 197:Generated_Source\PSoC6\pdl\drivers/peripheral/gpio/cy_gpio.h **** /** GPIO Driver error codes */
 198:Generated_Source\PSoC6\pdl\drivers/peripheral/gpio/cy_gpio.h **** typedef enum 
 199:Generated_Source\PSoC6\pdl\drivers/peripheral/gpio/cy_gpio.h **** {
 200:Generated_Source\PSoC6\pdl\drivers/peripheral/gpio/cy_gpio.h ****     CY_GPIO_SUCCESS   = 0x00U,                                    /**< Returned successful */
 201:Generated_Source\PSoC6\pdl\drivers/peripheral/gpio/cy_gpio.h ****     CY_GPIO_BAD_PARAM = CY_GPIO_ID | CY_PDL_STATUS_ERROR | 0x01U, /**< Bad parameter was passed */
 202:Generated_Source\PSoC6\pdl\drivers/peripheral/gpio/cy_gpio.h **** } cy_en_gpio_status_t;
 203:Generated_Source\PSoC6\pdl\drivers/peripheral/gpio/cy_gpio.h **** 
 204:Generated_Source\PSoC6\pdl\drivers/peripheral/gpio/cy_gpio.h **** /** AMux switch open/close config */
 205:Generated_Source\PSoC6\pdl\drivers/peripheral/gpio/cy_gpio.h **** typedef enum
 206:Generated_Source\PSoC6\pdl\drivers/peripheral/gpio/cy_gpio.h **** {
 207:Generated_Source\PSoC6\pdl\drivers/peripheral/gpio/cy_gpio.h ****     CY_GPIO_AMUX_OPENALL,   /**< Open ground switch. Open right switch. Open left switch */
 208:Generated_Source\PSoC6\pdl\drivers/peripheral/gpio/cy_gpio.h ****     CY_GPIO_AMUX_L,         /**< Open ground switch. Open right switch. Close left switch */
 209:Generated_Source\PSoC6\pdl\drivers/peripheral/gpio/cy_gpio.h ****     CY_GPIO_AMUX_R,         /**< Open ground switch. Close right switch. Open left switch */
 210:Generated_Source\PSoC6\pdl\drivers/peripheral/gpio/cy_gpio.h ****     CY_GPIO_AMUX_LR,        /**< Open ground switch. Close right switch. Close left switch */
 211:Generated_Source\PSoC6\pdl\drivers/peripheral/gpio/cy_gpio.h ****     CY_GPIO_AMUX_G,         /**< Close ground switch. Open right switch. Open left switch */
 212:Generated_Source\PSoC6\pdl\drivers/peripheral/gpio/cy_gpio.h ****     CY_GPIO_AMUX_GL,        /**< Close ground switch. Open right switch. Close left switch */
 213:Generated_Source\PSoC6\pdl\drivers/peripheral/gpio/cy_gpio.h ****     CY_GPIO_AMUX_GR,        /**< Close ground switch. Close right switch. Open left switch */
 214:Generated_Source\PSoC6\pdl\drivers/peripheral/gpio/cy_gpio.h ****     CY_GPIO_AMUX_GLR,       /**< Close ground switch. Close right switch. Close left switch */
 215:Generated_Source\PSoC6\pdl\drivers/peripheral/gpio/cy_gpio.h **** }cy_en_gpio_amuxconnect_t;
 216:Generated_Source\PSoC6\pdl\drivers/peripheral/gpio/cy_gpio.h **** 
 217:Generated_Source\PSoC6\pdl\drivers/peripheral/gpio/cy_gpio.h **** /**
 218:Generated_Source\PSoC6\pdl\drivers/peripheral/gpio/cy_gpio.h **** * AMux Bus selection
 219:Generated_Source\PSoC6\pdl\drivers/peripheral/gpio/cy_gpio.h **** */
 220:Generated_Source\PSoC6\pdl\drivers/peripheral/gpio/cy_gpio.h **** typedef enum
 221:Generated_Source\PSoC6\pdl\drivers/peripheral/gpio/cy_gpio.h **** {
 222:Generated_Source\PSoC6\pdl\drivers/peripheral/gpio/cy_gpio.h ****     CY_GPIO_AMUXBUSA,       /**< AMuxBus A */
 223:Generated_Source\PSoC6\pdl\drivers/peripheral/gpio/cy_gpio.h ****     CY_GPIO_AMUXBUSB        /**< AMuxBus B */
 224:Generated_Source\PSoC6\pdl\drivers/peripheral/gpio/cy_gpio.h **** }cy_en_gpio_amuxselect_t;
 225:Generated_Source\PSoC6\pdl\drivers/peripheral/gpio/cy_gpio.h **** 
 226:Generated_Source\PSoC6\pdl\drivers/peripheral/gpio/cy_gpio.h **** /** \} group_gpio_enums */
 227:Generated_Source\PSoC6\pdl\drivers/peripheral/gpio/cy_gpio.h **** 
 228:Generated_Source\PSoC6\pdl\drivers/peripheral/gpio/cy_gpio.h **** 
 229:Generated_Source\PSoC6\pdl\drivers/peripheral/gpio/cy_gpio.h **** /***************************************
 230:Generated_Source\PSoC6\pdl\drivers/peripheral/gpio/cy_gpio.h **** *       Configuration Structures
 231:Generated_Source\PSoC6\pdl\drivers/peripheral/gpio/cy_gpio.h **** ***************************************/
 232:Generated_Source\PSoC6\pdl\drivers/peripheral/gpio/cy_gpio.h **** 
 233:Generated_Source\PSoC6\pdl\drivers/peripheral/gpio/cy_gpio.h **** /**
 234:Generated_Source\PSoC6\pdl\drivers/peripheral/gpio/cy_gpio.h **** * \addtogroup group_gpio_data_structures
 235:Generated_Source\PSoC6\pdl\drivers/peripheral/gpio/cy_gpio.h **** * \{
 236:Generated_Source\PSoC6\pdl\drivers/peripheral/gpio/cy_gpio.h **** */
 237:Generated_Source\PSoC6\pdl\drivers/peripheral/gpio/cy_gpio.h **** 
 238:Generated_Source\PSoC6\pdl\drivers/peripheral/gpio/cy_gpio.h **** /** This structure is used to initialize a port of GPIO pins */
 239:Generated_Source\PSoC6\pdl\drivers/peripheral/gpio/cy_gpio.h **** typedef struct 
 240:Generated_Source\PSoC6\pdl\drivers/peripheral/gpio/cy_gpio.h **** {
 241:Generated_Source\PSoC6\pdl\drivers/peripheral/gpio/cy_gpio.h ****     uint32_t out;           /**< Initial output data for the IO pins in the port */
 242:Generated_Source\PSoC6\pdl\drivers/peripheral/gpio/cy_gpio.h ****     uint32_t intrMask;      /**< Interrupt enable mask for the port interrupt */
 243:Generated_Source\PSoC6\pdl\drivers/peripheral/gpio/cy_gpio.h ****     uint32_t intrCfg;       /**< Port pin interrupt edge detection configuration */
 244:Generated_Source\PSoC6\pdl\drivers/peripheral/gpio/cy_gpio.h ****     uint32_t cfg;           /**< Port pin drive modes and input buffer enable configuration */
 245:Generated_Source\PSoC6\pdl\drivers/peripheral/gpio/cy_gpio.h ****     uint32_t cfgIn;         /**< Port pin input buffer configuration */
 246:Generated_Source\PSoC6\pdl\drivers/peripheral/gpio/cy_gpio.h ****     uint32_t cfgOut;        /**< Port pin output buffer configuration */
ARM GAS  C:\Users\user\AppData\Local\Temp\ccSIFDDJ.s 			page 34


 247:Generated_Source\PSoC6\pdl\drivers/peripheral/gpio/cy_gpio.h ****     uint32_t cfgSIO;        /**< Port SIO pins configuration */
 248:Generated_Source\PSoC6\pdl\drivers/peripheral/gpio/cy_gpio.h ****     uint32_t sel0Active;    /**< HSIOM selection for port pins 0,1,2,3 */
 249:Generated_Source\PSoC6\pdl\drivers/peripheral/gpio/cy_gpio.h ****     uint32_t sel1Active;    /**< HSIOM selection for port pins 4,5,6,7 */
 250:Generated_Source\PSoC6\pdl\drivers/peripheral/gpio/cy_gpio.h **** } cy_stc_gpio_prt_config_t;
 251:Generated_Source\PSoC6\pdl\drivers/peripheral/gpio/cy_gpio.h **** 
 252:Generated_Source\PSoC6\pdl\drivers/peripheral/gpio/cy_gpio.h **** /** This structure is used to initialize a single GPIO pin */
 253:Generated_Source\PSoC6\pdl\drivers/peripheral/gpio/cy_gpio.h **** typedef struct
 254:Generated_Source\PSoC6\pdl\drivers/peripheral/gpio/cy_gpio.h **** {
 255:Generated_Source\PSoC6\pdl\drivers/peripheral/gpio/cy_gpio.h ****     uint32_t outVal;         /**< Pin output state */
 256:Generated_Source\PSoC6\pdl\drivers/peripheral/gpio/cy_gpio.h ****     uint32_t driveMode;      /**< Drive mode */
 257:Generated_Source\PSoC6\pdl\drivers/peripheral/gpio/cy_gpio.h ****     en_hsiom_sel_t hsiom;    /**< HSIOM selection */
 258:Generated_Source\PSoC6\pdl\drivers/peripheral/gpio/cy_gpio.h ****     uint32_t intEdge;        /**< Interrupt Edge type */
 259:Generated_Source\PSoC6\pdl\drivers/peripheral/gpio/cy_gpio.h ****     uint32_t intMask;        /**< Interrupt enable mask */
 260:Generated_Source\PSoC6\pdl\drivers/peripheral/gpio/cy_gpio.h ****     uint32_t vtrip;          /**< Input buffer voltage trip type */
 261:Generated_Source\PSoC6\pdl\drivers/peripheral/gpio/cy_gpio.h ****     uint32_t slewRate;       /**< Output buffer slew rate */
 262:Generated_Source\PSoC6\pdl\drivers/peripheral/gpio/cy_gpio.h ****     uint32_t driveSel;       /**< Drive strength */
 263:Generated_Source\PSoC6\pdl\drivers/peripheral/gpio/cy_gpio.h ****     uint32_t vregEn;         /**< SIO pair output buffer mode */
 264:Generated_Source\PSoC6\pdl\drivers/peripheral/gpio/cy_gpio.h ****     uint32_t ibufMode;       /**< SIO pair input buffer mode */
 265:Generated_Source\PSoC6\pdl\drivers/peripheral/gpio/cy_gpio.h ****     uint32_t vtripSel;       /**< SIO pair input buffer trip point */
 266:Generated_Source\PSoC6\pdl\drivers/peripheral/gpio/cy_gpio.h ****     uint32_t vrefSel;        /**< SIO pair reference voltage for input buffer trip point */
 267:Generated_Source\PSoC6\pdl\drivers/peripheral/gpio/cy_gpio.h ****     uint32_t vohSel;         /**< SIO pair regulated voltage output level */
 268:Generated_Source\PSoC6\pdl\drivers/peripheral/gpio/cy_gpio.h **** } cy_stc_gpio_pin_config_t;
 269:Generated_Source\PSoC6\pdl\drivers/peripheral/gpio/cy_gpio.h **** 
 270:Generated_Source\PSoC6\pdl\drivers/peripheral/gpio/cy_gpio.h **** /** \} group_gpio_data_structures */
 271:Generated_Source\PSoC6\pdl\drivers/peripheral/gpio/cy_gpio.h **** 
 272:Generated_Source\PSoC6\pdl\drivers/peripheral/gpio/cy_gpio.h **** /***************************************
 273:Generated_Source\PSoC6\pdl\drivers/peripheral/gpio/cy_gpio.h **** *        Constants
 274:Generated_Source\PSoC6\pdl\drivers/peripheral/gpio/cy_gpio.h **** ***************************************/
 275:Generated_Source\PSoC6\pdl\drivers/peripheral/gpio/cy_gpio.h **** 
 276:Generated_Source\PSoC6\pdl\drivers/peripheral/gpio/cy_gpio.h **** /** \cond INTERNAL */
 277:Generated_Source\PSoC6\pdl\drivers/peripheral/gpio/cy_gpio.h **** 
 278:Generated_Source\PSoC6\pdl\drivers/peripheral/gpio/cy_gpio.h **** /* General Constants */
 279:Generated_Source\PSoC6\pdl\drivers/peripheral/gpio/cy_gpio.h **** #define CY_GPIO_PRT_HALF                       (4UL)      /**< Half-way point of a GPIO port */
 280:Generated_Source\PSoC6\pdl\drivers/peripheral/gpio/cy_gpio.h **** #define CY_GPIO_PRT_DEINIT                     (0UL)      /**< De-init value for port registers */
 281:Generated_Source\PSoC6\pdl\drivers/peripheral/gpio/cy_gpio.h **** 
 282:Generated_Source\PSoC6\pdl\drivers/peripheral/gpio/cy_gpio.h **** /* GPIO Masks */
 283:Generated_Source\PSoC6\pdl\drivers/peripheral/gpio/cy_gpio.h **** #define CY_GPIO_HSIOM_MASK                     (0x1FUL)   /**< HSIOM selection mask */
 284:Generated_Source\PSoC6\pdl\drivers/peripheral/gpio/cy_gpio.h **** #define CY_GPIO_OUT_MASK                       (0x01UL)   /**< Single pin mask for OUT register */
 285:Generated_Source\PSoC6\pdl\drivers/peripheral/gpio/cy_gpio.h **** #define CY_GPIO_IN_MASK                        (0x01UL)   /**< Single pin mask for IN register */
 286:Generated_Source\PSoC6\pdl\drivers/peripheral/gpio/cy_gpio.h **** #define CY_GPIO_CFG_DM_MASK                    (0x0FUL)   /**< Single pin mask for drive mode in CF
 287:Generated_Source\PSoC6\pdl\drivers/peripheral/gpio/cy_gpio.h **** #define CY_GPIO_CFG_IN_VTRIP_SEL_MASK          (0x01UL)   /**< Single pin mask for VTRIP selection 
 288:Generated_Source\PSoC6\pdl\drivers/peripheral/gpio/cy_gpio.h **** #define CY_GPIO_CFG_OUT_SLOW_MASK              (0x01UL)   /**< Single pin mask for slew rate in CFG
 289:Generated_Source\PSoC6\pdl\drivers/peripheral/gpio/cy_gpio.h **** #define CY_GPIO_CFG_OUT_DRIVE_SEL_MASK         (0x03UL)   /**< Single pin mask for drive strength i
 290:Generated_Source\PSoC6\pdl\drivers/peripheral/gpio/cy_gpio.h **** #define CY_GPIO_INTR_STATUS_MASK               (0x01UL)   /**< Single pin mask for interrupt status
 291:Generated_Source\PSoC6\pdl\drivers/peripheral/gpio/cy_gpio.h **** #define CY_GPIO_INTR_EN_MASK                   (0x01UL)   /**< Single pin mask for interrupt status
 292:Generated_Source\PSoC6\pdl\drivers/peripheral/gpio/cy_gpio.h **** #define CY_GPIO_INTR_MASKED_MASK               (0x01UL)   /**< Single pin mask for masked interrupt
 293:Generated_Source\PSoC6\pdl\drivers/peripheral/gpio/cy_gpio.h **** #define CY_GPIO_INTR_SET_MASK                  (0x01UL)   /**< Single pin mask for setting the inte
 294:Generated_Source\PSoC6\pdl\drivers/peripheral/gpio/cy_gpio.h **** #define CY_GPIO_INTR_EDGE_MASK                 (0x03UL)   /**< Single pin mask for interrupt edge t
 295:Generated_Source\PSoC6\pdl\drivers/peripheral/gpio/cy_gpio.h **** #define CY_GPIO_INTR_FLT_EDGE_MASK             (0x07UL)   /**< Single pin mask for setting filtered
 296:Generated_Source\PSoC6\pdl\drivers/peripheral/gpio/cy_gpio.h **** 
 297:Generated_Source\PSoC6\pdl\drivers/peripheral/gpio/cy_gpio.h **** /* SIO Masks */
 298:Generated_Source\PSoC6\pdl\drivers/peripheral/gpio/cy_gpio.h **** #define CY_GPIO_VREG_EN_MASK                   (0x01UL)   /**< Single SIO pin mask for voltage regu
 299:Generated_Source\PSoC6\pdl\drivers/peripheral/gpio/cy_gpio.h **** #define CY_GPIO_IBUF_MASK                      (0x01UL)   /**< Single SIO pin mask for input buffer
 300:Generated_Source\PSoC6\pdl\drivers/peripheral/gpio/cy_gpio.h **** #define CY_GPIO_IBUF_SHIFT                     (0x01UL)   /**< Single SIO pin shift for input buffe
 301:Generated_Source\PSoC6\pdl\drivers/peripheral/gpio/cy_gpio.h **** #define CY_GPIO_VTRIP_SEL_MASK                 (0x01UL)   /**< Single SIO pin mask for the input bu
 302:Generated_Source\PSoC6\pdl\drivers/peripheral/gpio/cy_gpio.h **** #define CY_GPIO_VTRIP_SEL_SHIFT                (0x02UL)   /**< Single SIO pin shift for the input b
 303:Generated_Source\PSoC6\pdl\drivers/peripheral/gpio/cy_gpio.h **** #define CY_GPIO_VREF_SEL_MASK                  (0x03UL)   /**< Single SIO pin mask for voltage refe
ARM GAS  C:\Users\user\AppData\Local\Temp\ccSIFDDJ.s 			page 35


 304:Generated_Source\PSoC6\pdl\drivers/peripheral/gpio/cy_gpio.h **** #define CY_GPIO_VREF_SEL_SHIFT                 (0x03UL)   /**< Single SIO pin shift for voltage ref
 305:Generated_Source\PSoC6\pdl\drivers/peripheral/gpio/cy_gpio.h **** #define CY_GPIO_VOH_SEL_MASK                   (0x07UL)   /**< Single SIO pin mask for VOH */
 306:Generated_Source\PSoC6\pdl\drivers/peripheral/gpio/cy_gpio.h **** #define CY_GPIO_VOH_SEL_SHIFT                  (0x05UL)   /**< Single SIO pin shift for VOH */
 307:Generated_Source\PSoC6\pdl\drivers/peripheral/gpio/cy_gpio.h **** 
 308:Generated_Source\PSoC6\pdl\drivers/peripheral/gpio/cy_gpio.h **** /* Special mask for SIO pin pair setting */
 309:Generated_Source\PSoC6\pdl\drivers/peripheral/gpio/cy_gpio.h **** #define CY_GPIO_SIO_ODD_PIN_MASK               (0x00FEUL) /**< SIO pin pair selection mask */
 310:Generated_Source\PSoC6\pdl\drivers/peripheral/gpio/cy_gpio.h **** #define CY_GPIO_SIO_PIN_MASK                   (0x00FFUL) /**< SIO pin pair mask */
 311:Generated_Source\PSoC6\pdl\drivers/peripheral/gpio/cy_gpio.h **** 
 312:Generated_Source\PSoC6\pdl\drivers/peripheral/gpio/cy_gpio.h **** /* Offsets */
 313:Generated_Source\PSoC6\pdl\drivers/peripheral/gpio/cy_gpio.h **** #define CY_GPIO_HSIOM_OFFSET                   (3UL)      /**< Offset for HSIOM */
 314:Generated_Source\PSoC6\pdl\drivers/peripheral/gpio/cy_gpio.h **** #define CY_GPIO_DRIVE_MODE_OFFSET              (2UL)      /**< Offset for Drive mode */
 315:Generated_Source\PSoC6\pdl\drivers/peripheral/gpio/cy_gpio.h **** #define CY_GPIO_INBUF_OFFSET                   (3UL)      /**< Offset for input buffer */
 316:Generated_Source\PSoC6\pdl\drivers/peripheral/gpio/cy_gpio.h **** #define CY_GPIO_CFG_OUT_DRIVE_OFFSET           (16UL)     /**< Offset for drive strength */
 317:Generated_Source\PSoC6\pdl\drivers/peripheral/gpio/cy_gpio.h **** #define CY_GPIO_INTR_CFG_OFFSET                (1UL)      /**< Offset for interrupt config */
 318:Generated_Source\PSoC6\pdl\drivers/peripheral/gpio/cy_gpio.h **** #define CY_GPIO_INTR_FILT_OFFSET               (18UL)     /**< Offset for filtered interrupt config
 319:Generated_Source\PSoC6\pdl\drivers/peripheral/gpio/cy_gpio.h **** #define CY_GPIO_CFG_SIO_OFFSET                 (2UL)      /**< Offset for SIO config */
 320:Generated_Source\PSoC6\pdl\drivers/peripheral/gpio/cy_gpio.h **** 
 321:Generated_Source\PSoC6\pdl\drivers/peripheral/gpio/cy_gpio.h **** /* Parameter validation constants */
 322:Generated_Source\PSoC6\pdl\drivers/peripheral/gpio/cy_gpio.h **** #define CY_GPIO_PINS_MAX                       (8UL)      /**< Number of pins in the port */
 323:Generated_Source\PSoC6\pdl\drivers/peripheral/gpio/cy_gpio.h **** #define CY_GPIO_PRT_PINS_MASK                  (0x0000000FFUL)
 324:Generated_Source\PSoC6\pdl\drivers/peripheral/gpio/cy_gpio.h **** #define CY_GPIO_PRT_INTR_CFG_EDGE_SEL_MASK     (GPIO_PRT_INTR_CFG_EDGE0_SEL_Msk | \
 325:Generated_Source\PSoC6\pdl\drivers/peripheral/gpio/cy_gpio.h ****                                                 GPIO_PRT_INTR_CFG_EDGE1_SEL_Msk | \
 326:Generated_Source\PSoC6\pdl\drivers/peripheral/gpio/cy_gpio.h ****                                                 GPIO_PRT_INTR_CFG_EDGE2_SEL_Msk | \
 327:Generated_Source\PSoC6\pdl\drivers/peripheral/gpio/cy_gpio.h ****                                                 GPIO_PRT_INTR_CFG_EDGE3_SEL_Msk | \
 328:Generated_Source\PSoC6\pdl\drivers/peripheral/gpio/cy_gpio.h ****                                                 GPIO_PRT_INTR_CFG_EDGE4_SEL_Msk | \
 329:Generated_Source\PSoC6\pdl\drivers/peripheral/gpio/cy_gpio.h ****                                                 GPIO_PRT_INTR_CFG_EDGE5_SEL_Msk | \
 330:Generated_Source\PSoC6\pdl\drivers/peripheral/gpio/cy_gpio.h ****                                                 GPIO_PRT_INTR_CFG_EDGE6_SEL_Msk | \
 331:Generated_Source\PSoC6\pdl\drivers/peripheral/gpio/cy_gpio.h ****                                                 GPIO_PRT_INTR_CFG_EDGE7_SEL_Msk)
 332:Generated_Source\PSoC6\pdl\drivers/peripheral/gpio/cy_gpio.h **** #define CY_GPIO_PRT_INTR_CFG_RANGE_MASK        (CY_GPIO_PRT_INTR_CFG_EDGE_SEL_MASK | \
 333:Generated_Source\PSoC6\pdl\drivers/peripheral/gpio/cy_gpio.h ****                                                 GPIO_PRT_INTR_CFG_FLT_EDGE_SEL_Msk | \
 334:Generated_Source\PSoC6\pdl\drivers/peripheral/gpio/cy_gpio.h ****                                                 GPIO_PRT_INTR_CFG_FLT_SEL_Msk)
 335:Generated_Source\PSoC6\pdl\drivers/peripheral/gpio/cy_gpio.h **** #define CY_GPIO_PRT_INT_MASK_MASK              (0x0000001FFUL)
 336:Generated_Source\PSoC6\pdl\drivers/peripheral/gpio/cy_gpio.h **** #define CY_GPIO_PRT_SEL_ACTIVE_MASK            (0x1FFFFFFFUL)
 337:Generated_Source\PSoC6\pdl\drivers/peripheral/gpio/cy_gpio.h **** 
 338:Generated_Source\PSoC6\pdl\drivers/peripheral/gpio/cy_gpio.h **** #define GPIO_MAX_SPLIT_CELL_SEGMENTS           (9U)
 339:Generated_Source\PSoC6\pdl\drivers/peripheral/gpio/cy_gpio.h **** 
 340:Generated_Source\PSoC6\pdl\drivers/peripheral/gpio/cy_gpio.h **** /* Parameter validation macros */
 341:Generated_Source\PSoC6\pdl\drivers/peripheral/gpio/cy_gpio.h **** #define CY_GPIO_IS_PIN_VALID(pinNum)           (CY_GPIO_PINS_MAX > (pinNum))
 342:Generated_Source\PSoC6\pdl\drivers/peripheral/gpio/cy_gpio.h **** #define CY_GPIO_IS_FILTER_PIN_VALID(pinNum)    (CY_GPIO_PINS_MAX >= (pinNum))
 343:Generated_Source\PSoC6\pdl\drivers/peripheral/gpio/cy_gpio.h **** #define CY_GPIO_IS_VALUE_VALID(outVal)         (1UL >= (outVal))
 344:Generated_Source\PSoC6\pdl\drivers/peripheral/gpio/cy_gpio.h **** #define CY_GPIO_IS_DM_VALID(driveMode)         (0U == ((driveMode) & (uint32_t)~CY_GPIO_CFG_DM_MASK
 345:Generated_Source\PSoC6\pdl\drivers/peripheral/gpio/cy_gpio.h **** 
 346:Generated_Source\PSoC6\pdl\drivers/peripheral/gpio/cy_gpio.h **** #define CY_GPIO_IS_HSIOM_VALID(hsiom)          (0U == ((hsiom) & (uint32_t)~CY_GPIO_HSIOM_MASK))
 347:Generated_Source\PSoC6\pdl\drivers/peripheral/gpio/cy_gpio.h **** 
 348:Generated_Source\PSoC6\pdl\drivers/peripheral/gpio/cy_gpio.h **** #define CY_GPIO_IS_INT_EDGE_VALID(intEdge)     ((CY_GPIO_INTR_DISABLE  == (intEdge)) || \
 349:Generated_Source\PSoC6\pdl\drivers/peripheral/gpio/cy_gpio.h ****                                                 (CY_GPIO_INTR_RISING   == (intEdge)) || \
 350:Generated_Source\PSoC6\pdl\drivers/peripheral/gpio/cy_gpio.h ****                                                 (CY_GPIO_INTR_FALLING  == (intEdge)) || \
 351:Generated_Source\PSoC6\pdl\drivers/peripheral/gpio/cy_gpio.h ****                                                 (CY_GPIO_INTR_BOTH     == (intEdge)))
 352:Generated_Source\PSoC6\pdl\drivers/peripheral/gpio/cy_gpio.h **** 
 353:Generated_Source\PSoC6\pdl\drivers/peripheral/gpio/cy_gpio.h **** #define CY_GPIO_IS_DRIVE_SEL_VALID(driveSel)   ((CY_GPIO_DRIVE_FULL    == (driveSel)) || \
 354:Generated_Source\PSoC6\pdl\drivers/peripheral/gpio/cy_gpio.h ****                                                 (CY_GPIO_DRIVE_1_2     == (driveSel)) || \
 355:Generated_Source\PSoC6\pdl\drivers/peripheral/gpio/cy_gpio.h ****                                                 (CY_GPIO_DRIVE_1_4     == (driveSel)) || \
 356:Generated_Source\PSoC6\pdl\drivers/peripheral/gpio/cy_gpio.h ****                                                 (CY_GPIO_DRIVE_1_8     == (driveSel)))
 357:Generated_Source\PSoC6\pdl\drivers/peripheral/gpio/cy_gpio.h **** 
 358:Generated_Source\PSoC6\pdl\drivers/peripheral/gpio/cy_gpio.h **** #define CY_GPIO_IS_VREF_SEL_VALID(vrefSel)     ((CY_SIO_VREF_PINREF    == (vrefSel)) || \
 359:Generated_Source\PSoC6\pdl\drivers/peripheral/gpio/cy_gpio.h ****                                                 (CY_SIO_VREF_1_2V      == (vrefSel)) || \
 360:Generated_Source\PSoC6\pdl\drivers/peripheral/gpio/cy_gpio.h ****                                                 (CY_SIO_VREF_AMUX_A    == (vrefSel)) || \
ARM GAS  C:\Users\user\AppData\Local\Temp\ccSIFDDJ.s 			page 36


 361:Generated_Source\PSoC6\pdl\drivers/peripheral/gpio/cy_gpio.h ****                                                 (CY_SIO_VREF_AMUX_B    == (vrefSel)))
 362:Generated_Source\PSoC6\pdl\drivers/peripheral/gpio/cy_gpio.h **** 
 363:Generated_Source\PSoC6\pdl\drivers/peripheral/gpio/cy_gpio.h **** #define CY_GPIO_IS_VOH_SEL_VALID(vrefSel)      ((CY_SIO_VOH_1_00       == (vrefSel)) || \
 364:Generated_Source\PSoC6\pdl\drivers/peripheral/gpio/cy_gpio.h ****                                                 (CY_SIO_VOH_1_25       == (vrefSel)) || \
 365:Generated_Source\PSoC6\pdl\drivers/peripheral/gpio/cy_gpio.h ****                                                 (CY_SIO_VOH_1_49       == (vrefSel)) || \
 366:Generated_Source\PSoC6\pdl\drivers/peripheral/gpio/cy_gpio.h ****                                                 (CY_SIO_VOH_1_67       == (vrefSel)) || \
 367:Generated_Source\PSoC6\pdl\drivers/peripheral/gpio/cy_gpio.h ****                                                 (CY_SIO_VOH_2_08       == (vrefSel)) || \
 368:Generated_Source\PSoC6\pdl\drivers/peripheral/gpio/cy_gpio.h ****                                                 (CY_SIO_VOH_2_50       == (vrefSel)) || \
 369:Generated_Source\PSoC6\pdl\drivers/peripheral/gpio/cy_gpio.h ****                                                 (CY_SIO_VOH_2_78       == (vrefSel)) || \
 370:Generated_Source\PSoC6\pdl\drivers/peripheral/gpio/cy_gpio.h ****                                                 (CY_SIO_VOH_4_16       == (vrefSel)))
 371:Generated_Source\PSoC6\pdl\drivers/peripheral/gpio/cy_gpio.h ****                    
 372:Generated_Source\PSoC6\pdl\drivers/peripheral/gpio/cy_gpio.h **** #define CY_GPIO_IS_PIN_BIT_VALID(pinBit)       (0U == ((pinBit) & (uint32_t)~CY_GPIO_PRT_PINS_MASK)
 373:Generated_Source\PSoC6\pdl\drivers/peripheral/gpio/cy_gpio.h **** #define CY_GPIO_IS_INTR_CFG_VALID(intrCfg)     (0U == ((intrCfg) & (uint32_t)~CY_GPIO_PRT_INTR_CFG_
 374:Generated_Source\PSoC6\pdl\drivers/peripheral/gpio/cy_gpio.h **** #define CY_GPIO_IS_INTR_MASK_VALID(intrMask)   (0U == ((intrMask) & (uint32_t)~CY_GPIO_PRT_INT_MASK
 375:Generated_Source\PSoC6\pdl\drivers/peripheral/gpio/cy_gpio.h **** #define CY_GPIO_IS_SEL_ACT_VALID(selActive)    (0U == ((selActive) & (uint32_t)~CY_GPIO_PRT_SEL_ACT
 376:Generated_Source\PSoC6\pdl\drivers/peripheral/gpio/cy_gpio.h **** 
 377:Generated_Source\PSoC6\pdl\drivers/peripheral/gpio/cy_gpio.h **** #define CY_GPIO_IS_AMUX_SPLIT_VALID(switchCtrl)       (((uint32_t) (switchCtrl)) < GPIO_MAX_SPLIT_C
 378:Generated_Source\PSoC6\pdl\drivers/peripheral/gpio/cy_gpio.h **** 
 379:Generated_Source\PSoC6\pdl\drivers/peripheral/gpio/cy_gpio.h **** #define CY_GPIO_IS_AMUX_CONNECT_VALID(amuxConnect)    ((CY_GPIO_AMUX_OPENALL == (amuxConnect)) || \
 380:Generated_Source\PSoC6\pdl\drivers/peripheral/gpio/cy_gpio.h ****                                                        (CY_GPIO_AMUX_L       == (amuxConnect)) || \
 381:Generated_Source\PSoC6\pdl\drivers/peripheral/gpio/cy_gpio.h ****                                                        (CY_GPIO_AMUX_R       == (amuxConnect)) || \
 382:Generated_Source\PSoC6\pdl\drivers/peripheral/gpio/cy_gpio.h ****                                                        (CY_GPIO_AMUX_LR      == (amuxConnect)) || \
 383:Generated_Source\PSoC6\pdl\drivers/peripheral/gpio/cy_gpio.h ****                                                        (CY_GPIO_AMUX_G       == (amuxConnect)) || \
 384:Generated_Source\PSoC6\pdl\drivers/peripheral/gpio/cy_gpio.h ****                                                        (CY_GPIO_AMUX_GL      == (amuxConnect)) || \
 385:Generated_Source\PSoC6\pdl\drivers/peripheral/gpio/cy_gpio.h ****                                                        (CY_GPIO_AMUX_GR      == (amuxConnect)) || \
 386:Generated_Source\PSoC6\pdl\drivers/peripheral/gpio/cy_gpio.h ****                                                        (CY_GPIO_AMUX_GLR     == (amuxConnect)))
 387:Generated_Source\PSoC6\pdl\drivers/peripheral/gpio/cy_gpio.h **** 
 388:Generated_Source\PSoC6\pdl\drivers/peripheral/gpio/cy_gpio.h **** #define CY_GPIO_IS_AMUX_SELECT_VALID(amuxBus)       ((CY_GPIO_AMUXBUSA       == (amuxBus)) || \
 389:Generated_Source\PSoC6\pdl\drivers/peripheral/gpio/cy_gpio.h ****                                                      (CY_GPIO_AMUXBUSB       == (amuxBus)))
 390:Generated_Source\PSoC6\pdl\drivers/peripheral/gpio/cy_gpio.h **** /** \endcond */
 391:Generated_Source\PSoC6\pdl\drivers/peripheral/gpio/cy_gpio.h **** 
 392:Generated_Source\PSoC6\pdl\drivers/peripheral/gpio/cy_gpio.h **** 
 393:Generated_Source\PSoC6\pdl\drivers/peripheral/gpio/cy_gpio.h **** /***************************************
 394:Generated_Source\PSoC6\pdl\drivers/peripheral/gpio/cy_gpio.h **** *        Function Constants
 395:Generated_Source\PSoC6\pdl\drivers/peripheral/gpio/cy_gpio.h **** ***************************************/
 396:Generated_Source\PSoC6\pdl\drivers/peripheral/gpio/cy_gpio.h **** 
 397:Generated_Source\PSoC6\pdl\drivers/peripheral/gpio/cy_gpio.h **** /**
 398:Generated_Source\PSoC6\pdl\drivers/peripheral/gpio/cy_gpio.h **** * \addtogroup group_gpio_macros
 399:Generated_Source\PSoC6\pdl\drivers/peripheral/gpio/cy_gpio.h **** * \{
 400:Generated_Source\PSoC6\pdl\drivers/peripheral/gpio/cy_gpio.h **** */
 401:Generated_Source\PSoC6\pdl\drivers/peripheral/gpio/cy_gpio.h **** 
 402:Generated_Source\PSoC6\pdl\drivers/peripheral/gpio/cy_gpio.h **** /**
 403:Generated_Source\PSoC6\pdl\drivers/peripheral/gpio/cy_gpio.h **** * \defgroup group_gpio_driveModes Pin drive mode
 404:Generated_Source\PSoC6\pdl\drivers/peripheral/gpio/cy_gpio.h **** * \{
 405:Generated_Source\PSoC6\pdl\drivers/peripheral/gpio/cy_gpio.h **** * Constants to be used for setting the drive mode of the pin.
 406:Generated_Source\PSoC6\pdl\drivers/peripheral/gpio/cy_gpio.h **** */
 407:Generated_Source\PSoC6\pdl\drivers/peripheral/gpio/cy_gpio.h **** #define CY_GPIO_DM_ANALOG                      (0x00UL) /**< Analog High-Z. Input buffer off */
 408:Generated_Source\PSoC6\pdl\drivers/peripheral/gpio/cy_gpio.h **** #define CY_GPIO_DM_PULLUP_IN_OFF               (0x02UL) /**< Resistive Pull-Up. Input buffer off */
 409:Generated_Source\PSoC6\pdl\drivers/peripheral/gpio/cy_gpio.h **** #define CY_GPIO_DM_PULLDOWN_IN_OFF             (0x03UL) /**< Resistive Pull-Down. Input buffer off 
 410:Generated_Source\PSoC6\pdl\drivers/peripheral/gpio/cy_gpio.h **** #define CY_GPIO_DM_OD_DRIVESLOW_IN_OFF         (0x04UL) /**< Open Drain, Drives Low. Input buffer o
 411:Generated_Source\PSoC6\pdl\drivers/peripheral/gpio/cy_gpio.h **** #define CY_GPIO_DM_OD_DRIVESHIGH_IN_OFF        (0x05UL) /**< Open Drain, Drives High. Input buffer 
 412:Generated_Source\PSoC6\pdl\drivers/peripheral/gpio/cy_gpio.h **** #define CY_GPIO_DM_STRONG_IN_OFF               (0x06UL) /**< Strong Drive. Input buffer off */
 413:Generated_Source\PSoC6\pdl\drivers/peripheral/gpio/cy_gpio.h **** #define CY_GPIO_DM_PULLUP_DOWN_IN_OFF          (0x07UL) /**< Resistive Pull-Up/Down. Input buffer o
 414:Generated_Source\PSoC6\pdl\drivers/peripheral/gpio/cy_gpio.h **** #define CY_GPIO_DM_HIGHZ                       (0x08UL) /**< Digital High-Z. Input buffer on */
 415:Generated_Source\PSoC6\pdl\drivers/peripheral/gpio/cy_gpio.h **** #define CY_GPIO_DM_PULLUP                      (0x0AUL) /**< Resistive Pull-Up. Input buffer on */
 416:Generated_Source\PSoC6\pdl\drivers/peripheral/gpio/cy_gpio.h **** #define CY_GPIO_DM_PULLDOWN                    (0x0BUL) /**< Resistive Pull-Down. Input buffer on *
 417:Generated_Source\PSoC6\pdl\drivers/peripheral/gpio/cy_gpio.h **** #define CY_GPIO_DM_OD_DRIVESLOW                (0x0CUL) /**< Open Drain, Drives Low. Input buffer o
ARM GAS  C:\Users\user\AppData\Local\Temp\ccSIFDDJ.s 			page 37


 418:Generated_Source\PSoC6\pdl\drivers/peripheral/gpio/cy_gpio.h **** #define CY_GPIO_DM_OD_DRIVESHIGH               (0x0DUL) /**< Open Drain, Drives High. Input buffer 
 419:Generated_Source\PSoC6\pdl\drivers/peripheral/gpio/cy_gpio.h **** #define CY_GPIO_DM_STRONG                      (0x0EUL) /**< Strong Drive. Input buffer on */
 420:Generated_Source\PSoC6\pdl\drivers/peripheral/gpio/cy_gpio.h **** #define CY_GPIO_DM_PULLUP_DOWN                 (0x0FUL) /**< Resistive Pull-Up/Down. Input buffer o
 421:Generated_Source\PSoC6\pdl\drivers/peripheral/gpio/cy_gpio.h **** /** \} */
 422:Generated_Source\PSoC6\pdl\drivers/peripheral/gpio/cy_gpio.h **** 
 423:Generated_Source\PSoC6\pdl\drivers/peripheral/gpio/cy_gpio.h **** /**
 424:Generated_Source\PSoC6\pdl\drivers/peripheral/gpio/cy_gpio.h **** * \defgroup group_gpio_vtrip Voltage trip mode
 425:Generated_Source\PSoC6\pdl\drivers/peripheral/gpio/cy_gpio.h **** * \{
 426:Generated_Source\PSoC6\pdl\drivers/peripheral/gpio/cy_gpio.h **** * Constants to be used for setting the voltage trip type on the pin.
 427:Generated_Source\PSoC6\pdl\drivers/peripheral/gpio/cy_gpio.h **** */
 428:Generated_Source\PSoC6\pdl\drivers/peripheral/gpio/cy_gpio.h **** #define CY_GPIO_VTRIP_CMOS                     (0x00UL) /**< Input buffer compatible with CMOS and 
 429:Generated_Source\PSoC6\pdl\drivers/peripheral/gpio/cy_gpio.h **** #define CY_GPIO_VTRIP_TTL                      (0x01UL) /**< Input buffer compatible with TTL and M
 430:Generated_Source\PSoC6\pdl\drivers/peripheral/gpio/cy_gpio.h **** /** \} */
 431:Generated_Source\PSoC6\pdl\drivers/peripheral/gpio/cy_gpio.h **** 
 432:Generated_Source\PSoC6\pdl\drivers/peripheral/gpio/cy_gpio.h **** /**
 433:Generated_Source\PSoC6\pdl\drivers/peripheral/gpio/cy_gpio.h **** * \defgroup group_gpio_slewRate Slew Rate Mode
 434:Generated_Source\PSoC6\pdl\drivers/peripheral/gpio/cy_gpio.h **** * \{
 435:Generated_Source\PSoC6\pdl\drivers/peripheral/gpio/cy_gpio.h **** * Constants to be used for setting the slew rate of the pin.
 436:Generated_Source\PSoC6\pdl\drivers/peripheral/gpio/cy_gpio.h **** */
 437:Generated_Source\PSoC6\pdl\drivers/peripheral/gpio/cy_gpio.h **** #define CY_GPIO_SLEW_FAST                      (0x00UL) /**< Fast slew rate */
 438:Generated_Source\PSoC6\pdl\drivers/peripheral/gpio/cy_gpio.h **** #define CY_GPIO_SLEW_SLOW                      (0x01UL) /**< Slow slew rate */
 439:Generated_Source\PSoC6\pdl\drivers/peripheral/gpio/cy_gpio.h **** /** \} */
 440:Generated_Source\PSoC6\pdl\drivers/peripheral/gpio/cy_gpio.h **** 
 441:Generated_Source\PSoC6\pdl\drivers/peripheral/gpio/cy_gpio.h **** /**
 442:Generated_Source\PSoC6\pdl\drivers/peripheral/gpio/cy_gpio.h **** * \defgroup group_gpio_driveStrength Pin drive strength
 443:Generated_Source\PSoC6\pdl\drivers/peripheral/gpio/cy_gpio.h **** * \{
 444:Generated_Source\PSoC6\pdl\drivers/peripheral/gpio/cy_gpio.h **** * Constants to be used for setting the drive strength of the pin.
 445:Generated_Source\PSoC6\pdl\drivers/peripheral/gpio/cy_gpio.h **** */
 446:Generated_Source\PSoC6\pdl\drivers/peripheral/gpio/cy_gpio.h **** #define CY_GPIO_DRIVE_FULL                     (0x00UL) /**< Full drive strength: Max drive current
 447:Generated_Source\PSoC6\pdl\drivers/peripheral/gpio/cy_gpio.h **** #define CY_GPIO_DRIVE_1_2                      (0x01UL) /**< 1/2 drive strength: 1/2 drive current 
 448:Generated_Source\PSoC6\pdl\drivers/peripheral/gpio/cy_gpio.h **** #define CY_GPIO_DRIVE_1_4                      (0x02UL) /**< 1/4 drive strength: 1/4 drive current 
 449:Generated_Source\PSoC6\pdl\drivers/peripheral/gpio/cy_gpio.h **** #define CY_GPIO_DRIVE_1_8                      (0x03UL) /**< 1/8 drive strength: 1/8 drive current 
 450:Generated_Source\PSoC6\pdl\drivers/peripheral/gpio/cy_gpio.h **** /** \} */
 451:Generated_Source\PSoC6\pdl\drivers/peripheral/gpio/cy_gpio.h **** 
 452:Generated_Source\PSoC6\pdl\drivers/peripheral/gpio/cy_gpio.h **** /**
 453:Generated_Source\PSoC6\pdl\drivers/peripheral/gpio/cy_gpio.h **** * \defgroup group_gpio_interruptTrigger Interrupt trigger type
 454:Generated_Source\PSoC6\pdl\drivers/peripheral/gpio/cy_gpio.h **** * \{
 455:Generated_Source\PSoC6\pdl\drivers/peripheral/gpio/cy_gpio.h **** * Constants to be used for setting the interrupt trigger type on the pin.
 456:Generated_Source\PSoC6\pdl\drivers/peripheral/gpio/cy_gpio.h **** */
 457:Generated_Source\PSoC6\pdl\drivers/peripheral/gpio/cy_gpio.h **** #define CY_GPIO_INTR_DISABLE                   (0x00UL) /**< Disable the pin interrupt generation *
 458:Generated_Source\PSoC6\pdl\drivers/peripheral/gpio/cy_gpio.h **** #define CY_GPIO_INTR_RISING                    (0x01UL) /**< Rising-Edge interrupt */
 459:Generated_Source\PSoC6\pdl\drivers/peripheral/gpio/cy_gpio.h **** #define CY_GPIO_INTR_FALLING                   (0x02UL) /**< Falling-Edge interrupt */
 460:Generated_Source\PSoC6\pdl\drivers/peripheral/gpio/cy_gpio.h **** #define CY_GPIO_INTR_BOTH                      (0x03UL) /**< Both-Edge interrupt */
 461:Generated_Source\PSoC6\pdl\drivers/peripheral/gpio/cy_gpio.h **** /** \} */
 462:Generated_Source\PSoC6\pdl\drivers/peripheral/gpio/cy_gpio.h **** 
 463:Generated_Source\PSoC6\pdl\drivers/peripheral/gpio/cy_gpio.h **** /**
 464:Generated_Source\PSoC6\pdl\drivers/peripheral/gpio/cy_gpio.h **** * \defgroup group_gpio_sioVreg SIO output buffer mode
 465:Generated_Source\PSoC6\pdl\drivers/peripheral/gpio/cy_gpio.h **** * \{
 466:Generated_Source\PSoC6\pdl\drivers/peripheral/gpio/cy_gpio.h **** * Constants to be used for setting the SIO output buffer mode on the pin.
 467:Generated_Source\PSoC6\pdl\drivers/peripheral/gpio/cy_gpio.h **** */
 468:Generated_Source\PSoC6\pdl\drivers/peripheral/gpio/cy_gpio.h **** #define CY_SIO_VREG_UNREGULATED                (0x00UL) /**< Unregulated output buffer */
 469:Generated_Source\PSoC6\pdl\drivers/peripheral/gpio/cy_gpio.h **** #define CY_SIO_VREG_REGULATED                  (0x01UL) /**< Regulated output buffer */
 470:Generated_Source\PSoC6\pdl\drivers/peripheral/gpio/cy_gpio.h **** /** \} */
 471:Generated_Source\PSoC6\pdl\drivers/peripheral/gpio/cy_gpio.h **** 
 472:Generated_Source\PSoC6\pdl\drivers/peripheral/gpio/cy_gpio.h **** /**
 473:Generated_Source\PSoC6\pdl\drivers/peripheral/gpio/cy_gpio.h **** * \defgroup group_gpio_sioIbuf SIO input buffer mode
 474:Generated_Source\PSoC6\pdl\drivers/peripheral/gpio/cy_gpio.h **** * \{
ARM GAS  C:\Users\user\AppData\Local\Temp\ccSIFDDJ.s 			page 38


 475:Generated_Source\PSoC6\pdl\drivers/peripheral/gpio/cy_gpio.h **** * Constants to be used for setting the SIO input buffer mode on the pin.
 476:Generated_Source\PSoC6\pdl\drivers/peripheral/gpio/cy_gpio.h **** */
 477:Generated_Source\PSoC6\pdl\drivers/peripheral/gpio/cy_gpio.h **** #define CY_SIO_IBUF_SINGLEENDED                (0x00UL) /**< Single ended input buffer */
 478:Generated_Source\PSoC6\pdl\drivers/peripheral/gpio/cy_gpio.h **** #define CY_SIO_IBUF_DIFFERENTIAL               (0x01UL) /**< Differential input buffer */
 479:Generated_Source\PSoC6\pdl\drivers/peripheral/gpio/cy_gpio.h **** /** \} */
 480:Generated_Source\PSoC6\pdl\drivers/peripheral/gpio/cy_gpio.h **** 
 481:Generated_Source\PSoC6\pdl\drivers/peripheral/gpio/cy_gpio.h **** /**
 482:Generated_Source\PSoC6\pdl\drivers/peripheral/gpio/cy_gpio.h **** * \defgroup group_gpio_sioVtrip SIO input buffer trip-point
 483:Generated_Source\PSoC6\pdl\drivers/peripheral/gpio/cy_gpio.h **** * \{
 484:Generated_Source\PSoC6\pdl\drivers/peripheral/gpio/cy_gpio.h **** * Constants to be used for setting the SIO input buffer trip-point of the pin.
 485:Generated_Source\PSoC6\pdl\drivers/peripheral/gpio/cy_gpio.h **** */
 486:Generated_Source\PSoC6\pdl\drivers/peripheral/gpio/cy_gpio.h **** #define CY_SIO_VTRIP_CMOS                      (0x00UL) /**< CMOS input buffer (single-ended) */
 487:Generated_Source\PSoC6\pdl\drivers/peripheral/gpio/cy_gpio.h **** #define CY_SIO_VTRIP_TTL                       (0x01UL) /**< TTL input buffer (single-ended) */
 488:Generated_Source\PSoC6\pdl\drivers/peripheral/gpio/cy_gpio.h **** #define CY_SIO_VTRIP_0_5VDDIO_0_5VOH           (0x00UL) /**< 0.5xVddio or 0.5xVoh (differential) */
 489:Generated_Source\PSoC6\pdl\drivers/peripheral/gpio/cy_gpio.h **** #define CY_SIO_VTRIP_0_4VDDIO_1_0VREF          (0x01UL) /**< 0.4xVddio or 0.4xVoh (differential) */
 490:Generated_Source\PSoC6\pdl\drivers/peripheral/gpio/cy_gpio.h **** /** \} */
 491:Generated_Source\PSoC6\pdl\drivers/peripheral/gpio/cy_gpio.h **** 
 492:Generated_Source\PSoC6\pdl\drivers/peripheral/gpio/cy_gpio.h **** /**
 493:Generated_Source\PSoC6\pdl\drivers/peripheral/gpio/cy_gpio.h **** * \defgroup group_gpio_sioVref SIO reference voltage for input buffer trip-point
 494:Generated_Source\PSoC6\pdl\drivers/peripheral/gpio/cy_gpio.h **** * \{
 495:Generated_Source\PSoC6\pdl\drivers/peripheral/gpio/cy_gpio.h **** * Constants to be used for setting the reference voltage of SIO input buffer trip-point.
 496:Generated_Source\PSoC6\pdl\drivers/peripheral/gpio/cy_gpio.h **** */
 497:Generated_Source\PSoC6\pdl\drivers/peripheral/gpio/cy_gpio.h **** #define CY_SIO_VREF_PINREF                     (0x00UL) /**< Vref from analog pin */
 498:Generated_Source\PSoC6\pdl\drivers/peripheral/gpio/cy_gpio.h **** #define CY_SIO_VREF_1_2V                       (0x01UL) /**< Vref from internal 1.2V reference */
 499:Generated_Source\PSoC6\pdl\drivers/peripheral/gpio/cy_gpio.h **** #define CY_SIO_VREF_AMUX_A                     (0x02UL) /**< Vref from AMUXBUS_A */
 500:Generated_Source\PSoC6\pdl\drivers/peripheral/gpio/cy_gpio.h **** #define CY_SIO_VREF_AMUX_B                     (0x03UL) /**< Vref from AMUXBUS_B */
 501:Generated_Source\PSoC6\pdl\drivers/peripheral/gpio/cy_gpio.h **** /** \} */
 502:Generated_Source\PSoC6\pdl\drivers/peripheral/gpio/cy_gpio.h **** 
 503:Generated_Source\PSoC6\pdl\drivers/peripheral/gpio/cy_gpio.h **** /**
 504:Generated_Source\PSoC6\pdl\drivers/peripheral/gpio/cy_gpio.h **** * \defgroup group_gpio_sioVoh Regulated output voltage level (Voh) and input buffer trip-point of a
 505:Generated_Source\PSoC6\pdl\drivers/peripheral/gpio/cy_gpio.h **** * \{
 506:Generated_Source\PSoC6\pdl\drivers/peripheral/gpio/cy_gpio.h **** * Constants to be used for setting the Voh and input buffer trip-point of an SIO pair
 507:Generated_Source\PSoC6\pdl\drivers/peripheral/gpio/cy_gpio.h **** */
 508:Generated_Source\PSoC6\pdl\drivers/peripheral/gpio/cy_gpio.h **** #define CY_SIO_VOH_1_00                        (0x00UL) /**< Voh = 1 x Reference */
 509:Generated_Source\PSoC6\pdl\drivers/peripheral/gpio/cy_gpio.h **** #define CY_SIO_VOH_1_25                        (0x01UL) /**< Voh = 1.25 x Reference */
 510:Generated_Source\PSoC6\pdl\drivers/peripheral/gpio/cy_gpio.h **** #define CY_SIO_VOH_1_49                        (0x02UL) /**< Voh = 1.49 x Reference */
 511:Generated_Source\PSoC6\pdl\drivers/peripheral/gpio/cy_gpio.h **** #define CY_SIO_VOH_1_67                        (0x03UL) /**< Voh = 1.67 x Reference */
 512:Generated_Source\PSoC6\pdl\drivers/peripheral/gpio/cy_gpio.h **** #define CY_SIO_VOH_2_08                        (0x04UL) /**< Voh = 2.08 x Reference */
 513:Generated_Source\PSoC6\pdl\drivers/peripheral/gpio/cy_gpio.h **** #define CY_SIO_VOH_2_50                        (0x05UL) /**< Voh = 2.50 x Reference */
 514:Generated_Source\PSoC6\pdl\drivers/peripheral/gpio/cy_gpio.h **** #define CY_SIO_VOH_2_78                        (0x06UL) /**< Voh = 2.78 x Reference */
 515:Generated_Source\PSoC6\pdl\drivers/peripheral/gpio/cy_gpio.h **** #define CY_SIO_VOH_4_16                        (0x07UL) /**< Voh = 4.16 x Reference */
 516:Generated_Source\PSoC6\pdl\drivers/peripheral/gpio/cy_gpio.h **** /** \} */
 517:Generated_Source\PSoC6\pdl\drivers/peripheral/gpio/cy_gpio.h **** 
 518:Generated_Source\PSoC6\pdl\drivers/peripheral/gpio/cy_gpio.h **** /** \} group_gpio_macros */
 519:Generated_Source\PSoC6\pdl\drivers/peripheral/gpio/cy_gpio.h **** 
 520:Generated_Source\PSoC6\pdl\drivers/peripheral/gpio/cy_gpio.h **** /***************************************
 521:Generated_Source\PSoC6\pdl\drivers/peripheral/gpio/cy_gpio.h **** *        Function Prototypes
 522:Generated_Source\PSoC6\pdl\drivers/peripheral/gpio/cy_gpio.h **** ***************************************/
 523:Generated_Source\PSoC6\pdl\drivers/peripheral/gpio/cy_gpio.h **** 
 524:Generated_Source\PSoC6\pdl\drivers/peripheral/gpio/cy_gpio.h **** /**
 525:Generated_Source\PSoC6\pdl\drivers/peripheral/gpio/cy_gpio.h **** * \addtogroup group_gpio_functions
 526:Generated_Source\PSoC6\pdl\drivers/peripheral/gpio/cy_gpio.h **** * \{
 527:Generated_Source\PSoC6\pdl\drivers/peripheral/gpio/cy_gpio.h **** */
 528:Generated_Source\PSoC6\pdl\drivers/peripheral/gpio/cy_gpio.h **** 
 529:Generated_Source\PSoC6\pdl\drivers/peripheral/gpio/cy_gpio.h **** /**
 530:Generated_Source\PSoC6\pdl\drivers/peripheral/gpio/cy_gpio.h **** * \addtogroup group_gpio_functions_init
 531:Generated_Source\PSoC6\pdl\drivers/peripheral/gpio/cy_gpio.h **** * \{
ARM GAS  C:\Users\user\AppData\Local\Temp\ccSIFDDJ.s 			page 39


 532:Generated_Source\PSoC6\pdl\drivers/peripheral/gpio/cy_gpio.h **** */
 533:Generated_Source\PSoC6\pdl\drivers/peripheral/gpio/cy_gpio.h **** 
 534:Generated_Source\PSoC6\pdl\drivers/peripheral/gpio/cy_gpio.h **** cy_en_gpio_status_t Cy_GPIO_Pin_Init(GPIO_PRT_Type* base, uint32_t pinNum, const cy_stc_gpio_pin_co
 535:Generated_Source\PSoC6\pdl\drivers/peripheral/gpio/cy_gpio.h **** cy_en_gpio_status_t Cy_GPIO_Port_Init(GPIO_PRT_Type* base, const cy_stc_gpio_prt_config_t *config);
 536:Generated_Source\PSoC6\pdl\drivers/peripheral/gpio/cy_gpio.h **** void Cy_GPIO_Pin_FastInit(GPIO_PRT_Type* base, uint32_t pinNum, uint32_t driveMode, uint32_t outVal
 537:Generated_Source\PSoC6\pdl\drivers/peripheral/gpio/cy_gpio.h **** void Cy_GPIO_Port_Deinit(GPIO_PRT_Type* base);
 538:Generated_Source\PSoC6\pdl\drivers/peripheral/gpio/cy_gpio.h **** __STATIC_INLINE void Cy_GPIO_SetHSIOM(GPIO_PRT_Type* base, uint32_t pinNum, en_hsiom_sel_t value);
 539:Generated_Source\PSoC6\pdl\drivers/peripheral/gpio/cy_gpio.h **** __STATIC_INLINE en_hsiom_sel_t Cy_GPIO_GetHSIOM(GPIO_PRT_Type* base, uint32_t pinNum);
 540:Generated_Source\PSoC6\pdl\drivers/peripheral/gpio/cy_gpio.h **** __STATIC_INLINE GPIO_PRT_Type* Cy_GPIO_PortToAddr(uint32_t portNum);
 541:Generated_Source\PSoC6\pdl\drivers/peripheral/gpio/cy_gpio.h **** 
 542:Generated_Source\PSoC6\pdl\drivers/peripheral/gpio/cy_gpio.h **** /** \} group_gpio_functions_init */
 543:Generated_Source\PSoC6\pdl\drivers/peripheral/gpio/cy_gpio.h **** 
 544:Generated_Source\PSoC6\pdl\drivers/peripheral/gpio/cy_gpio.h **** /**
 545:Generated_Source\PSoC6\pdl\drivers/peripheral/gpio/cy_gpio.h **** * \addtogroup group_gpio_functions_gpio
 546:Generated_Source\PSoC6\pdl\drivers/peripheral/gpio/cy_gpio.h **** * \{
 547:Generated_Source\PSoC6\pdl\drivers/peripheral/gpio/cy_gpio.h **** */
 548:Generated_Source\PSoC6\pdl\drivers/peripheral/gpio/cy_gpio.h **** 
 549:Generated_Source\PSoC6\pdl\drivers/peripheral/gpio/cy_gpio.h **** void Cy_GPIO_SetAmuxSplit(cy_en_amux_split_t switchCtrl, cy_en_gpio_amuxconnect_t amuxConnect, cy_e
 550:Generated_Source\PSoC6\pdl\drivers/peripheral/gpio/cy_gpio.h **** cy_en_gpio_amuxconnect_t Cy_GPIO_GetAmuxSplit(cy_en_amux_split_t switchCtrl, cy_en_gpio_amuxselect_
 551:Generated_Source\PSoC6\pdl\drivers/peripheral/gpio/cy_gpio.h **** 
 552:Generated_Source\PSoC6\pdl\drivers/peripheral/gpio/cy_gpio.h **** __STATIC_INLINE uint32_t Cy_GPIO_Read(GPIO_PRT_Type* base, uint32_t pinNum);
 553:Generated_Source\PSoC6\pdl\drivers/peripheral/gpio/cy_gpio.h **** __STATIC_INLINE void Cy_GPIO_Write(GPIO_PRT_Type* base, uint32_t pinNum, uint32_t value);
 554:Generated_Source\PSoC6\pdl\drivers/peripheral/gpio/cy_gpio.h **** __STATIC_INLINE uint32_t Cy_GPIO_ReadOut(GPIO_PRT_Type* base, uint32_t pinNum);
 555:Generated_Source\PSoC6\pdl\drivers/peripheral/gpio/cy_gpio.h **** __STATIC_INLINE void Cy_GPIO_Set(GPIO_PRT_Type* base, uint32_t pinNum);
 556:Generated_Source\PSoC6\pdl\drivers/peripheral/gpio/cy_gpio.h **** __STATIC_INLINE void Cy_GPIO_Clr(GPIO_PRT_Type* base, uint32_t pinNum);
 557:Generated_Source\PSoC6\pdl\drivers/peripheral/gpio/cy_gpio.h **** __STATIC_INLINE void Cy_GPIO_Inv(GPIO_PRT_Type* base, uint32_t pinNum);
 558:Generated_Source\PSoC6\pdl\drivers/peripheral/gpio/cy_gpio.h **** __STATIC_INLINE void Cy_GPIO_SetDrivemode(GPIO_PRT_Type* base, uint32_t pinNum, uint32_t value);
 559:Generated_Source\PSoC6\pdl\drivers/peripheral/gpio/cy_gpio.h **** __STATIC_INLINE uint32_t Cy_GPIO_GetDrivemode(GPIO_PRT_Type* base, uint32_t pinNum);
 560:Generated_Source\PSoC6\pdl\drivers/peripheral/gpio/cy_gpio.h **** __STATIC_INLINE void Cy_GPIO_SetVtrip(GPIO_PRT_Type* base, uint32_t pinNum, uint32_t value);
 561:Generated_Source\PSoC6\pdl\drivers/peripheral/gpio/cy_gpio.h **** __STATIC_INLINE uint32_t Cy_GPIO_GetVtrip(GPIO_PRT_Type* base, uint32_t pinNum);
 562:Generated_Source\PSoC6\pdl\drivers/peripheral/gpio/cy_gpio.h **** __STATIC_INLINE void Cy_GPIO_SetSlewRate(GPIO_PRT_Type* base, uint32_t pinNum, uint32_t value);
 563:Generated_Source\PSoC6\pdl\drivers/peripheral/gpio/cy_gpio.h **** __STATIC_INLINE uint32_t Cy_GPIO_GetSlewRate(GPIO_PRT_Type* base, uint32_t pinNum);
 564:Generated_Source\PSoC6\pdl\drivers/peripheral/gpio/cy_gpio.h **** __STATIC_INLINE void Cy_GPIO_SetDriveSel(GPIO_PRT_Type* base, uint32_t pinNum, uint32_t value);
 565:Generated_Source\PSoC6\pdl\drivers/peripheral/gpio/cy_gpio.h **** __STATIC_INLINE uint32_t Cy_GPIO_GetDriveSel(GPIO_PRT_Type* base, uint32_t pinNum);
 566:Generated_Source\PSoC6\pdl\drivers/peripheral/gpio/cy_gpio.h **** 
 567:Generated_Source\PSoC6\pdl\drivers/peripheral/gpio/cy_gpio.h **** /** \} group_gpio_functions_gpio */
 568:Generated_Source\PSoC6\pdl\drivers/peripheral/gpio/cy_gpio.h **** 
 569:Generated_Source\PSoC6\pdl\drivers/peripheral/gpio/cy_gpio.h **** /**
 570:Generated_Source\PSoC6\pdl\drivers/peripheral/gpio/cy_gpio.h **** * \addtogroup group_gpio_functions_sio
 571:Generated_Source\PSoC6\pdl\drivers/peripheral/gpio/cy_gpio.h **** * \{
 572:Generated_Source\PSoC6\pdl\drivers/peripheral/gpio/cy_gpio.h **** */
 573:Generated_Source\PSoC6\pdl\drivers/peripheral/gpio/cy_gpio.h **** 
 574:Generated_Source\PSoC6\pdl\drivers/peripheral/gpio/cy_gpio.h **** __STATIC_INLINE void Cy_GPIO_SetVregEn(GPIO_PRT_Type* base, uint32_t pinNum, uint32_t value);
 575:Generated_Source\PSoC6\pdl\drivers/peripheral/gpio/cy_gpio.h **** __STATIC_INLINE uint32_t Cy_GPIO_GetVregEn(GPIO_PRT_Type* base, uint32_t pinNum);
 576:Generated_Source\PSoC6\pdl\drivers/peripheral/gpio/cy_gpio.h **** __STATIC_INLINE void Cy_GPIO_SetIbufMode(GPIO_PRT_Type* base, uint32_t pinNum, uint32_t value);
 577:Generated_Source\PSoC6\pdl\drivers/peripheral/gpio/cy_gpio.h **** __STATIC_INLINE uint32_t Cy_GPIO_GetIbufMode(GPIO_PRT_Type* base, uint32_t pinNum);
 578:Generated_Source\PSoC6\pdl\drivers/peripheral/gpio/cy_gpio.h **** __STATIC_INLINE void Cy_GPIO_SetVtripSel(GPIO_PRT_Type* base, uint32_t pinNum, uint32_t value);
 579:Generated_Source\PSoC6\pdl\drivers/peripheral/gpio/cy_gpio.h **** __STATIC_INLINE uint32_t Cy_GPIO_GetVtripSel(GPIO_PRT_Type* base, uint32_t pinNum);
 580:Generated_Source\PSoC6\pdl\drivers/peripheral/gpio/cy_gpio.h **** __STATIC_INLINE void Cy_GPIO_SetVrefSel(GPIO_PRT_Type* base, uint32_t pinNum, uint32_t value);
 581:Generated_Source\PSoC6\pdl\drivers/peripheral/gpio/cy_gpio.h **** __STATIC_INLINE uint32_t Cy_GPIO_GetVrefSel(GPIO_PRT_Type* base, uint32_t pinNum);
 582:Generated_Source\PSoC6\pdl\drivers/peripheral/gpio/cy_gpio.h **** __STATIC_INLINE void Cy_GPIO_SetVohSel(GPIO_PRT_Type* base, uint32_t pinNum, uint32_t value);
 583:Generated_Source\PSoC6\pdl\drivers/peripheral/gpio/cy_gpio.h **** __STATIC_INLINE uint32_t Cy_GPIO_GetVohSel(GPIO_PRT_Type* base, uint32_t pinNum);
 584:Generated_Source\PSoC6\pdl\drivers/peripheral/gpio/cy_gpio.h **** 
 585:Generated_Source\PSoC6\pdl\drivers/peripheral/gpio/cy_gpio.h **** /** \} group_gpio_functions_sio */
 586:Generated_Source\PSoC6\pdl\drivers/peripheral/gpio/cy_gpio.h **** 
 587:Generated_Source\PSoC6\pdl\drivers/peripheral/gpio/cy_gpio.h **** /**
 588:Generated_Source\PSoC6\pdl\drivers/peripheral/gpio/cy_gpio.h **** * \addtogroup group_gpio_functions_interrupt
ARM GAS  C:\Users\user\AppData\Local\Temp\ccSIFDDJ.s 			page 40


 589:Generated_Source\PSoC6\pdl\drivers/peripheral/gpio/cy_gpio.h **** * \{
 590:Generated_Source\PSoC6\pdl\drivers/peripheral/gpio/cy_gpio.h **** */
 591:Generated_Source\PSoC6\pdl\drivers/peripheral/gpio/cy_gpio.h **** 
 592:Generated_Source\PSoC6\pdl\drivers/peripheral/gpio/cy_gpio.h **** __STATIC_INLINE uint32_t Cy_GPIO_GetInterruptStatus(GPIO_PRT_Type* base, uint32_t pinNum);
 593:Generated_Source\PSoC6\pdl\drivers/peripheral/gpio/cy_gpio.h **** __STATIC_INLINE void Cy_GPIO_ClearInterrupt(GPIO_PRT_Type* base, uint32_t pinNum);
 594:Generated_Source\PSoC6\pdl\drivers/peripheral/gpio/cy_gpio.h **** __STATIC_INLINE void Cy_GPIO_SetInterruptMask(GPIO_PRT_Type* base, uint32_t pinNum, uint32_t value)
 595:Generated_Source\PSoC6\pdl\drivers/peripheral/gpio/cy_gpio.h **** __STATIC_INLINE uint32_t Cy_GPIO_GetInterruptMask(GPIO_PRT_Type* base, uint32_t pinNum);
 596:Generated_Source\PSoC6\pdl\drivers/peripheral/gpio/cy_gpio.h **** __STATIC_INLINE uint32_t Cy_GPIO_GetInterruptStatusMasked(GPIO_PRT_Type* base, uint32_t pinNum);
 597:Generated_Source\PSoC6\pdl\drivers/peripheral/gpio/cy_gpio.h **** __STATIC_INLINE void Cy_GPIO_SetSwInterrupt(GPIO_PRT_Type* base, uint32_t pinNum);
 598:Generated_Source\PSoC6\pdl\drivers/peripheral/gpio/cy_gpio.h **** __STATIC_INLINE void Cy_GPIO_SetInterruptEdge(GPIO_PRT_Type* base, uint32_t pinNum, uint32_t value)
 599:Generated_Source\PSoC6\pdl\drivers/peripheral/gpio/cy_gpio.h **** __STATIC_INLINE uint32_t Cy_GPIO_GetInterruptEdge(GPIO_PRT_Type* base, uint32_t pinNum);
 600:Generated_Source\PSoC6\pdl\drivers/peripheral/gpio/cy_gpio.h **** __STATIC_INLINE void Cy_GPIO_SetFilter(GPIO_PRT_Type* base, uint32_t value);
 601:Generated_Source\PSoC6\pdl\drivers/peripheral/gpio/cy_gpio.h **** __STATIC_INLINE uint32_t Cy_GPIO_GetFilter(GPIO_PRT_Type* base);
 602:Generated_Source\PSoC6\pdl\drivers/peripheral/gpio/cy_gpio.h **** 
 603:Generated_Source\PSoC6\pdl\drivers/peripheral/gpio/cy_gpio.h **** __STATIC_INLINE uint32_t Cy_GPIO_GetInterruptCause0(void);
 604:Generated_Source\PSoC6\pdl\drivers/peripheral/gpio/cy_gpio.h **** __STATIC_INLINE uint32_t Cy_GPIO_GetInterruptCause1(void);
 605:Generated_Source\PSoC6\pdl\drivers/peripheral/gpio/cy_gpio.h **** __STATIC_INLINE uint32_t Cy_GPIO_GetInterruptCause2(void);
 606:Generated_Source\PSoC6\pdl\drivers/peripheral/gpio/cy_gpio.h **** __STATIC_INLINE uint32_t Cy_GPIO_GetInterruptCause3(void);
 607:Generated_Source\PSoC6\pdl\drivers/peripheral/gpio/cy_gpio.h **** 
 608:Generated_Source\PSoC6\pdl\drivers/peripheral/gpio/cy_gpio.h **** /** \} group_gpio_functions_interrupt */
 609:Generated_Source\PSoC6\pdl\drivers/peripheral/gpio/cy_gpio.h **** 
 610:Generated_Source\PSoC6\pdl\drivers/peripheral/gpio/cy_gpio.h **** 
 611:Generated_Source\PSoC6\pdl\drivers/peripheral/gpio/cy_gpio.h **** /**
 612:Generated_Source\PSoC6\pdl\drivers/peripheral/gpio/cy_gpio.h **** * \addtogroup group_gpio_functions_init
 613:Generated_Source\PSoC6\pdl\drivers/peripheral/gpio/cy_gpio.h **** * \{
 614:Generated_Source\PSoC6\pdl\drivers/peripheral/gpio/cy_gpio.h **** */
 615:Generated_Source\PSoC6\pdl\drivers/peripheral/gpio/cy_gpio.h **** 
 616:Generated_Source\PSoC6\pdl\drivers/peripheral/gpio/cy_gpio.h **** /*******************************************************************************
 617:Generated_Source\PSoC6\pdl\drivers/peripheral/gpio/cy_gpio.h **** * Function Name: Cy_GPIO_SetHSIOM
 618:Generated_Source\PSoC6\pdl\drivers/peripheral/gpio/cy_gpio.h **** ****************************************************************************//**
 619:Generated_Source\PSoC6\pdl\drivers/peripheral/gpio/cy_gpio.h **** *
 620:Generated_Source\PSoC6\pdl\drivers/peripheral/gpio/cy_gpio.h **** * Configures the HSIOM connection to the pin.
 621:Generated_Source\PSoC6\pdl\drivers/peripheral/gpio/cy_gpio.h **** *
 622:Generated_Source\PSoC6\pdl\drivers/peripheral/gpio/cy_gpio.h **** * Connects the specified High-Speed Input Output Multiplexer (HSIOM) selection
 623:Generated_Source\PSoC6\pdl\drivers/peripheral/gpio/cy_gpio.h **** * to the pin.
 624:Generated_Source\PSoC6\pdl\drivers/peripheral/gpio/cy_gpio.h **** *
 625:Generated_Source\PSoC6\pdl\drivers/peripheral/gpio/cy_gpio.h **** * \param base
 626:Generated_Source\PSoC6\pdl\drivers/peripheral/gpio/cy_gpio.h **** * Pointer to the pin's port register base address
 627:Generated_Source\PSoC6\pdl\drivers/peripheral/gpio/cy_gpio.h **** *
 628:Generated_Source\PSoC6\pdl\drivers/peripheral/gpio/cy_gpio.h **** * \param pinNum
 629:Generated_Source\PSoC6\pdl\drivers/peripheral/gpio/cy_gpio.h **** * Position of the pin bit-field within the port register
 630:Generated_Source\PSoC6\pdl\drivers/peripheral/gpio/cy_gpio.h **** *
 631:Generated_Source\PSoC6\pdl\drivers/peripheral/gpio/cy_gpio.h **** * \param value
 632:Generated_Source\PSoC6\pdl\drivers/peripheral/gpio/cy_gpio.h **** * HSIOM input selection
 633:Generated_Source\PSoC6\pdl\drivers/peripheral/gpio/cy_gpio.h **** *
 634:Generated_Source\PSoC6\pdl\drivers/peripheral/gpio/cy_gpio.h **** * \note 
 635:Generated_Source\PSoC6\pdl\drivers/peripheral/gpio/cy_gpio.h **** * This function modifies a port register in a read-modify-write operation. It is
 636:Generated_Source\PSoC6\pdl\drivers/peripheral/gpio/cy_gpio.h **** * not thread safe as the resource is shared among multiple pins on a port.
 637:Generated_Source\PSoC6\pdl\drivers/peripheral/gpio/cy_gpio.h **** *
 638:Generated_Source\PSoC6\pdl\drivers/peripheral/gpio/cy_gpio.h **** * \funcusage
 639:Generated_Source\PSoC6\pdl\drivers/peripheral/gpio/cy_gpio.h **** * \snippet gpio/gpio_v1_10_sut_01.cydsn/main_cm4.c snippet_Cy_GPIO_SetHSIOM
 640:Generated_Source\PSoC6\pdl\drivers/peripheral/gpio/cy_gpio.h **** *
 641:Generated_Source\PSoC6\pdl\drivers/peripheral/gpio/cy_gpio.h **** *******************************************************************************/
 642:Generated_Source\PSoC6\pdl\drivers/peripheral/gpio/cy_gpio.h **** __STATIC_INLINE void Cy_GPIO_SetHSIOM(GPIO_PRT_Type* base, uint32_t pinNum, en_hsiom_sel_t value)
 643:Generated_Source\PSoC6\pdl\drivers/peripheral/gpio/cy_gpio.h **** {
 644:Generated_Source\PSoC6\pdl\drivers/peripheral/gpio/cy_gpio.h ****     uint32_t portNum;
 645:Generated_Source\PSoC6\pdl\drivers/peripheral/gpio/cy_gpio.h ****     uint32_t tempReg;
ARM GAS  C:\Users\user\AppData\Local\Temp\ccSIFDDJ.s 			page 41


 646:Generated_Source\PSoC6\pdl\drivers/peripheral/gpio/cy_gpio.h ****     HSIOM_PRT_V1_Type* portAddrHSIOM;
 647:Generated_Source\PSoC6\pdl\drivers/peripheral/gpio/cy_gpio.h **** 
 648:Generated_Source\PSoC6\pdl\drivers/peripheral/gpio/cy_gpio.h ****     CY_ASSERT_L2(CY_GPIO_IS_PIN_VALID(pinNum));
 649:Generated_Source\PSoC6\pdl\drivers/peripheral/gpio/cy_gpio.h ****     CY_ASSERT_L2(CY_GPIO_IS_HSIOM_VALID(value));
 650:Generated_Source\PSoC6\pdl\drivers/peripheral/gpio/cy_gpio.h **** 
 651:Generated_Source\PSoC6\pdl\drivers/peripheral/gpio/cy_gpio.h ****     portNum = ((uint32_t)(base) - CY_GPIO_BASE) / GPIO_PRT_SECTION_SIZE;
 652:Generated_Source\PSoC6\pdl\drivers/peripheral/gpio/cy_gpio.h ****     portAddrHSIOM = (HSIOM_PRT_V1_Type*)(CY_HSIOM_BASE + (HSIOM_PRT_SECTION_SIZE * portNum));
 653:Generated_Source\PSoC6\pdl\drivers/peripheral/gpio/cy_gpio.h **** 
 654:Generated_Source\PSoC6\pdl\drivers/peripheral/gpio/cy_gpio.h ****     if(pinNum < CY_GPIO_PRT_HALF)
 655:Generated_Source\PSoC6\pdl\drivers/peripheral/gpio/cy_gpio.h ****     {
 656:Generated_Source\PSoC6\pdl\drivers/peripheral/gpio/cy_gpio.h ****         tempReg = HSIOM_PRT_PORT_SEL0(portAddrHSIOM) & ~(CY_GPIO_HSIOM_MASK << (pinNum << CY_GPIO_H
 657:Generated_Source\PSoC6\pdl\drivers/peripheral/gpio/cy_gpio.h ****         HSIOM_PRT_PORT_SEL0(portAddrHSIOM) = tempReg | ((value & CY_GPIO_HSIOM_MASK) << (pinNum << 
 658:Generated_Source\PSoC6\pdl\drivers/peripheral/gpio/cy_gpio.h ****     }
 659:Generated_Source\PSoC6\pdl\drivers/peripheral/gpio/cy_gpio.h ****     else
 660:Generated_Source\PSoC6\pdl\drivers/peripheral/gpio/cy_gpio.h ****     {
 661:Generated_Source\PSoC6\pdl\drivers/peripheral/gpio/cy_gpio.h ****         pinNum -= CY_GPIO_PRT_HALF;
 662:Generated_Source\PSoC6\pdl\drivers/peripheral/gpio/cy_gpio.h ****         tempReg = HSIOM_PRT_PORT_SEL1(portAddrHSIOM) & ~(CY_GPIO_HSIOM_MASK << (pinNum << CY_GPIO_H
 663:Generated_Source\PSoC6\pdl\drivers/peripheral/gpio/cy_gpio.h ****         HSIOM_PRT_PORT_SEL1(portAddrHSIOM) = tempReg | ((value & CY_GPIO_HSIOM_MASK) << (pinNum << 
 664:Generated_Source\PSoC6\pdl\drivers/peripheral/gpio/cy_gpio.h ****     }
 665:Generated_Source\PSoC6\pdl\drivers/peripheral/gpio/cy_gpio.h **** }
 666:Generated_Source\PSoC6\pdl\drivers/peripheral/gpio/cy_gpio.h **** 
 667:Generated_Source\PSoC6\pdl\drivers/peripheral/gpio/cy_gpio.h **** 
 668:Generated_Source\PSoC6\pdl\drivers/peripheral/gpio/cy_gpio.h **** /*******************************************************************************
 669:Generated_Source\PSoC6\pdl\drivers/peripheral/gpio/cy_gpio.h **** * Function Name: Cy_GPIO_GetHSIOM
 670:Generated_Source\PSoC6\pdl\drivers/peripheral/gpio/cy_gpio.h **** ****************************************************************************//**
 671:Generated_Source\PSoC6\pdl\drivers/peripheral/gpio/cy_gpio.h **** *
 672:Generated_Source\PSoC6\pdl\drivers/peripheral/gpio/cy_gpio.h **** * Returns the current HSIOM multiplexer connection to the pin.
 673:Generated_Source\PSoC6\pdl\drivers/peripheral/gpio/cy_gpio.h **** *
 674:Generated_Source\PSoC6\pdl\drivers/peripheral/gpio/cy_gpio.h **** * \param base
 675:Generated_Source\PSoC6\pdl\drivers/peripheral/gpio/cy_gpio.h **** * Pointer to the pin's port register base address
 676:Generated_Source\PSoC6\pdl\drivers/peripheral/gpio/cy_gpio.h **** *
 677:Generated_Source\PSoC6\pdl\drivers/peripheral/gpio/cy_gpio.h **** * \param pinNum
 678:Generated_Source\PSoC6\pdl\drivers/peripheral/gpio/cy_gpio.h **** * Position of the pin bit-field within the port register
 679:Generated_Source\PSoC6\pdl\drivers/peripheral/gpio/cy_gpio.h **** *
 680:Generated_Source\PSoC6\pdl\drivers/peripheral/gpio/cy_gpio.h **** * \return
 681:Generated_Source\PSoC6\pdl\drivers/peripheral/gpio/cy_gpio.h **** * HSIOM input selection
 682:Generated_Source\PSoC6\pdl\drivers/peripheral/gpio/cy_gpio.h **** *
 683:Generated_Source\PSoC6\pdl\drivers/peripheral/gpio/cy_gpio.h **** * \funcusage
 684:Generated_Source\PSoC6\pdl\drivers/peripheral/gpio/cy_gpio.h **** * \snippet gpio/gpio_v1_10_sut_01.cydsn/main_cm4.c snippet_Cy_GPIO_SetHSIOM
 685:Generated_Source\PSoC6\pdl\drivers/peripheral/gpio/cy_gpio.h **** *
 686:Generated_Source\PSoC6\pdl\drivers/peripheral/gpio/cy_gpio.h **** *******************************************************************************/
 687:Generated_Source\PSoC6\pdl\drivers/peripheral/gpio/cy_gpio.h **** __STATIC_INLINE en_hsiom_sel_t Cy_GPIO_GetHSIOM(GPIO_PRT_Type* base, uint32_t pinNum)
 688:Generated_Source\PSoC6\pdl\drivers/peripheral/gpio/cy_gpio.h **** {
 689:Generated_Source\PSoC6\pdl\drivers/peripheral/gpio/cy_gpio.h ****     uint32_t returnValue;
 690:Generated_Source\PSoC6\pdl\drivers/peripheral/gpio/cy_gpio.h ****     uint32_t portNum;
 691:Generated_Source\PSoC6\pdl\drivers/peripheral/gpio/cy_gpio.h ****     HSIOM_PRT_V1_Type* portAddrHSIOM;
 692:Generated_Source\PSoC6\pdl\drivers/peripheral/gpio/cy_gpio.h ****     
 693:Generated_Source\PSoC6\pdl\drivers/peripheral/gpio/cy_gpio.h ****     CY_ASSERT_L2(CY_GPIO_IS_PIN_VALID(pinNum));
 694:Generated_Source\PSoC6\pdl\drivers/peripheral/gpio/cy_gpio.h **** 
 695:Generated_Source\PSoC6\pdl\drivers/peripheral/gpio/cy_gpio.h ****     portNum = ((uint32_t)(base) - CY_GPIO_BASE) / GPIO_PRT_SECTION_SIZE;
 696:Generated_Source\PSoC6\pdl\drivers/peripheral/gpio/cy_gpio.h ****     portAddrHSIOM = (HSIOM_PRT_V1_Type*)(CY_HSIOM_BASE + (HSIOM_PRT_SECTION_SIZE * portNum));
 697:Generated_Source\PSoC6\pdl\drivers/peripheral/gpio/cy_gpio.h **** 
 698:Generated_Source\PSoC6\pdl\drivers/peripheral/gpio/cy_gpio.h ****     if(pinNum < CY_GPIO_PRT_HALF)
 699:Generated_Source\PSoC6\pdl\drivers/peripheral/gpio/cy_gpio.h ****     {
 700:Generated_Source\PSoC6\pdl\drivers/peripheral/gpio/cy_gpio.h ****         returnValue = (HSIOM_PRT_PORT_SEL0(portAddrHSIOM) >> (pinNum << CY_GPIO_HSIOM_OFFSET)) & CY
 701:Generated_Source\PSoC6\pdl\drivers/peripheral/gpio/cy_gpio.h ****     }
 702:Generated_Source\PSoC6\pdl\drivers/peripheral/gpio/cy_gpio.h ****     else
ARM GAS  C:\Users\user\AppData\Local\Temp\ccSIFDDJ.s 			page 42


 703:Generated_Source\PSoC6\pdl\drivers/peripheral/gpio/cy_gpio.h ****     {
 704:Generated_Source\PSoC6\pdl\drivers/peripheral/gpio/cy_gpio.h ****         pinNum -= CY_GPIO_PRT_HALF;
 705:Generated_Source\PSoC6\pdl\drivers/peripheral/gpio/cy_gpio.h ****         returnValue = (HSIOM_PRT_PORT_SEL1(portAddrHSIOM) >> (pinNum << CY_GPIO_HSIOM_OFFSET)) & CY
 706:Generated_Source\PSoC6\pdl\drivers/peripheral/gpio/cy_gpio.h ****     }
 707:Generated_Source\PSoC6\pdl\drivers/peripheral/gpio/cy_gpio.h **** 
 708:Generated_Source\PSoC6\pdl\drivers/peripheral/gpio/cy_gpio.h ****     return (en_hsiom_sel_t)returnValue;
 709:Generated_Source\PSoC6\pdl\drivers/peripheral/gpio/cy_gpio.h **** }
 710:Generated_Source\PSoC6\pdl\drivers/peripheral/gpio/cy_gpio.h **** 
 711:Generated_Source\PSoC6\pdl\drivers/peripheral/gpio/cy_gpio.h **** 
 712:Generated_Source\PSoC6\pdl\drivers/peripheral/gpio/cy_gpio.h **** /*******************************************************************************
 713:Generated_Source\PSoC6\pdl\drivers/peripheral/gpio/cy_gpio.h **** * Function Name: Cy_GPIO_PortToAddr
 714:Generated_Source\PSoC6\pdl\drivers/peripheral/gpio/cy_gpio.h **** ****************************************************************************//**
 715:Generated_Source\PSoC6\pdl\drivers/peripheral/gpio/cy_gpio.h **** *
 716:Generated_Source\PSoC6\pdl\drivers/peripheral/gpio/cy_gpio.h **** * Retrieves the port address based on the given port number.
 717:Generated_Source\PSoC6\pdl\drivers/peripheral/gpio/cy_gpio.h **** *
 718:Generated_Source\PSoC6\pdl\drivers/peripheral/gpio/cy_gpio.h **** * This is a helper function to calculate the port base address when given a port
 719:Generated_Source\PSoC6\pdl\drivers/peripheral/gpio/cy_gpio.h **** * number. It is to be used when pin access needs to be calculated at runtime.
 720:Generated_Source\PSoC6\pdl\drivers/peripheral/gpio/cy_gpio.h **** *
 721:Generated_Source\PSoC6\pdl\drivers/peripheral/gpio/cy_gpio.h **** * \param portNum
 722:Generated_Source\PSoC6\pdl\drivers/peripheral/gpio/cy_gpio.h **** * Port number
 723:Generated_Source\PSoC6\pdl\drivers/peripheral/gpio/cy_gpio.h **** *
 724:Generated_Source\PSoC6\pdl\drivers/peripheral/gpio/cy_gpio.h **** * \return
 725:Generated_Source\PSoC6\pdl\drivers/peripheral/gpio/cy_gpio.h **** * Base address of the port register structure
 726:Generated_Source\PSoC6\pdl\drivers/peripheral/gpio/cy_gpio.h **** *
 727:Generated_Source\PSoC6\pdl\drivers/peripheral/gpio/cy_gpio.h **** * \funcusage
 728:Generated_Source\PSoC6\pdl\drivers/peripheral/gpio/cy_gpio.h **** * \snippet gpio/gpio_v1_10_sut_01.cydsn/main_cm4.c snippet_Cy_GPIO_PortToAddr
 729:Generated_Source\PSoC6\pdl\drivers/peripheral/gpio/cy_gpio.h **** *
 730:Generated_Source\PSoC6\pdl\drivers/peripheral/gpio/cy_gpio.h **** *******************************************************************************/
 731:Generated_Source\PSoC6\pdl\drivers/peripheral/gpio/cy_gpio.h **** __STATIC_INLINE GPIO_PRT_Type* Cy_GPIO_PortToAddr(uint32_t portNum)
 732:Generated_Source\PSoC6\pdl\drivers/peripheral/gpio/cy_gpio.h **** {
 733:Generated_Source\PSoC6\pdl\drivers/peripheral/gpio/cy_gpio.h ****     GPIO_PRT_Type* portBase;
 734:Generated_Source\PSoC6\pdl\drivers/peripheral/gpio/cy_gpio.h ****     
 735:Generated_Source\PSoC6\pdl\drivers/peripheral/gpio/cy_gpio.h ****     if(portNum < (uint32_t)IOSS_GPIO_GPIO_PORT_NR)
 736:Generated_Source\PSoC6\pdl\drivers/peripheral/gpio/cy_gpio.h ****     {
 737:Generated_Source\PSoC6\pdl\drivers/peripheral/gpio/cy_gpio.h ****         portBase = (GPIO_PRT_Type *)(CY_GPIO_BASE + (GPIO_PRT_SECTION_SIZE * portNum));
 738:Generated_Source\PSoC6\pdl\drivers/peripheral/gpio/cy_gpio.h ****     }
 739:Generated_Source\PSoC6\pdl\drivers/peripheral/gpio/cy_gpio.h ****     else
 740:Generated_Source\PSoC6\pdl\drivers/peripheral/gpio/cy_gpio.h ****     {
 741:Generated_Source\PSoC6\pdl\drivers/peripheral/gpio/cy_gpio.h ****         /* Error: Return default base address */
 742:Generated_Source\PSoC6\pdl\drivers/peripheral/gpio/cy_gpio.h ****         portBase = (GPIO_PRT_Type *)(CY_GPIO_BASE);
 743:Generated_Source\PSoC6\pdl\drivers/peripheral/gpio/cy_gpio.h ****     }
 744:Generated_Source\PSoC6\pdl\drivers/peripheral/gpio/cy_gpio.h **** 
 745:Generated_Source\PSoC6\pdl\drivers/peripheral/gpio/cy_gpio.h ****     return (portBase);
 746:Generated_Source\PSoC6\pdl\drivers/peripheral/gpio/cy_gpio.h **** }
 747:Generated_Source\PSoC6\pdl\drivers/peripheral/gpio/cy_gpio.h **** 
 748:Generated_Source\PSoC6\pdl\drivers/peripheral/gpio/cy_gpio.h **** /** \} group_gpio_functions_init */
 749:Generated_Source\PSoC6\pdl\drivers/peripheral/gpio/cy_gpio.h **** 
 750:Generated_Source\PSoC6\pdl\drivers/peripheral/gpio/cy_gpio.h **** /**
 751:Generated_Source\PSoC6\pdl\drivers/peripheral/gpio/cy_gpio.h **** * \addtogroup group_gpio_functions_gpio
 752:Generated_Source\PSoC6\pdl\drivers/peripheral/gpio/cy_gpio.h **** * \{
 753:Generated_Source\PSoC6\pdl\drivers/peripheral/gpio/cy_gpio.h **** */
 754:Generated_Source\PSoC6\pdl\drivers/peripheral/gpio/cy_gpio.h **** 
 755:Generated_Source\PSoC6\pdl\drivers/peripheral/gpio/cy_gpio.h **** /*******************************************************************************
 756:Generated_Source\PSoC6\pdl\drivers/peripheral/gpio/cy_gpio.h **** * Function Name: Cy_GPIO_Read
 757:Generated_Source\PSoC6\pdl\drivers/peripheral/gpio/cy_gpio.h **** ****************************************************************************//**
 758:Generated_Source\PSoC6\pdl\drivers/peripheral/gpio/cy_gpio.h **** *
 759:Generated_Source\PSoC6\pdl\drivers/peripheral/gpio/cy_gpio.h **** * Reads the current logic level on the input buffer of the pin.
ARM GAS  C:\Users\user\AppData\Local\Temp\ccSIFDDJ.s 			page 43


 760:Generated_Source\PSoC6\pdl\drivers/peripheral/gpio/cy_gpio.h **** *
 761:Generated_Source\PSoC6\pdl\drivers/peripheral/gpio/cy_gpio.h **** * \param base
 762:Generated_Source\PSoC6\pdl\drivers/peripheral/gpio/cy_gpio.h **** * Pointer to the pin's port register base address
 763:Generated_Source\PSoC6\pdl\drivers/peripheral/gpio/cy_gpio.h **** *
 764:Generated_Source\PSoC6\pdl\drivers/peripheral/gpio/cy_gpio.h **** * \param pinNum
 765:Generated_Source\PSoC6\pdl\drivers/peripheral/gpio/cy_gpio.h **** * Position of the pin bit-field within the port register.
 766:Generated_Source\PSoC6\pdl\drivers/peripheral/gpio/cy_gpio.h **** * Bit position 8 is the routed pin through the port glitch filter.
 767:Generated_Source\PSoC6\pdl\drivers/peripheral/gpio/cy_gpio.h **** *
 768:Generated_Source\PSoC6\pdl\drivers/peripheral/gpio/cy_gpio.h **** * \return
 769:Generated_Source\PSoC6\pdl\drivers/peripheral/gpio/cy_gpio.h **** * Logic level present on the pin
 770:Generated_Source\PSoC6\pdl\drivers/peripheral/gpio/cy_gpio.h **** *
 771:Generated_Source\PSoC6\pdl\drivers/peripheral/gpio/cy_gpio.h **** * \funcusage
 772:Generated_Source\PSoC6\pdl\drivers/peripheral/gpio/cy_gpio.h **** * \snippet gpio/gpio_v1_10_sut_01.cydsn/main_cm4.c snippet_Cy_GPIO_Read
 773:Generated_Source\PSoC6\pdl\drivers/peripheral/gpio/cy_gpio.h **** *
 774:Generated_Source\PSoC6\pdl\drivers/peripheral/gpio/cy_gpio.h **** *******************************************************************************/
 775:Generated_Source\PSoC6\pdl\drivers/peripheral/gpio/cy_gpio.h **** __STATIC_INLINE uint32_t Cy_GPIO_Read(GPIO_PRT_Type* base, uint32_t pinNum)
 776:Generated_Source\PSoC6\pdl\drivers/peripheral/gpio/cy_gpio.h **** {
 777:Generated_Source\PSoC6\pdl\drivers/peripheral/gpio/cy_gpio.h ****     CY_ASSERT_L2(CY_GPIO_IS_FILTER_PIN_VALID(pinNum));
 778:Generated_Source\PSoC6\pdl\drivers/peripheral/gpio/cy_gpio.h ****     
 779:Generated_Source\PSoC6\pdl\drivers/peripheral/gpio/cy_gpio.h ****     return (GPIO_PRT_IN(base) >> (pinNum)) & CY_GPIO_IN_MASK;
 780:Generated_Source\PSoC6\pdl\drivers/peripheral/gpio/cy_gpio.h **** }
 781:Generated_Source\PSoC6\pdl\drivers/peripheral/gpio/cy_gpio.h **** 
 782:Generated_Source\PSoC6\pdl\drivers/peripheral/gpio/cy_gpio.h **** 
 783:Generated_Source\PSoC6\pdl\drivers/peripheral/gpio/cy_gpio.h **** /*******************************************************************************
 784:Generated_Source\PSoC6\pdl\drivers/peripheral/gpio/cy_gpio.h **** * Function Name: Cy_GPIO_Write
 785:Generated_Source\PSoC6\pdl\drivers/peripheral/gpio/cy_gpio.h **** ****************************************************************************//**
 786:Generated_Source\PSoC6\pdl\drivers/peripheral/gpio/cy_gpio.h **** *
 787:Generated_Source\PSoC6\pdl\drivers/peripheral/gpio/cy_gpio.h **** * Write a logic 0 or logic 1 state to the output driver.
 788:Generated_Source\PSoC6\pdl\drivers/peripheral/gpio/cy_gpio.h **** *
 789:Generated_Source\PSoC6\pdl\drivers/peripheral/gpio/cy_gpio.h **** * This function should be used only for software driven pins. It does not have
 790:Generated_Source\PSoC6\pdl\drivers/peripheral/gpio/cy_gpio.h **** * any effect on peripheral driven pins.
 791:Generated_Source\PSoC6\pdl\drivers/peripheral/gpio/cy_gpio.h **** *
 792:Generated_Source\PSoC6\pdl\drivers/peripheral/gpio/cy_gpio.h **** * \param base
 793:Generated_Source\PSoC6\pdl\drivers/peripheral/gpio/cy_gpio.h **** * Pointer to the pin's port register base address
 794:Generated_Source\PSoC6\pdl\drivers/peripheral/gpio/cy_gpio.h **** *
 795:Generated_Source\PSoC6\pdl\drivers/peripheral/gpio/cy_gpio.h **** * \param pinNum
 796:Generated_Source\PSoC6\pdl\drivers/peripheral/gpio/cy_gpio.h **** * Position of the pin bit-field within the port register
 797:Generated_Source\PSoC6\pdl\drivers/peripheral/gpio/cy_gpio.h **** *
 798:Generated_Source\PSoC6\pdl\drivers/peripheral/gpio/cy_gpio.h **** * \param value
 799:Generated_Source\PSoC6\pdl\drivers/peripheral/gpio/cy_gpio.h **** * Logic level to drive out on the pin
 800:Generated_Source\PSoC6\pdl\drivers/peripheral/gpio/cy_gpio.h **** *
 801:Generated_Source\PSoC6\pdl\drivers/peripheral/gpio/cy_gpio.h **** * \funcusage
 802:Generated_Source\PSoC6\pdl\drivers/peripheral/gpio/cy_gpio.h **** * \snippet gpio/gpio_v1_10_sut_01.cydsn/main_cm4.c snippet_Cy_GPIO_Write
 803:Generated_Source\PSoC6\pdl\drivers/peripheral/gpio/cy_gpio.h **** *
 804:Generated_Source\PSoC6\pdl\drivers/peripheral/gpio/cy_gpio.h **** *******************************************************************************/
 805:Generated_Source\PSoC6\pdl\drivers/peripheral/gpio/cy_gpio.h **** __STATIC_INLINE void Cy_GPIO_Write(GPIO_PRT_Type* base, uint32_t pinNum, uint32_t value)
 806:Generated_Source\PSoC6\pdl\drivers/peripheral/gpio/cy_gpio.h **** {
 807:Generated_Source\PSoC6\pdl\drivers/peripheral/gpio/cy_gpio.h ****     CY_ASSERT_L2(CY_GPIO_IS_PIN_VALID(pinNum));
 808:Generated_Source\PSoC6\pdl\drivers/peripheral/gpio/cy_gpio.h ****     CY_ASSERT_L2(CY_GPIO_IS_VALUE_VALID(value));
 809:Generated_Source\PSoC6\pdl\drivers/peripheral/gpio/cy_gpio.h **** 
 810:Generated_Source\PSoC6\pdl\drivers/peripheral/gpio/cy_gpio.h ****     /* Thread-safe: Directly access the pin registers instead of base->OUT */
 811:Generated_Source\PSoC6\pdl\drivers/peripheral/gpio/cy_gpio.h ****     if(0UL == value)
 812:Generated_Source\PSoC6\pdl\drivers/peripheral/gpio/cy_gpio.h ****     {
 813:Generated_Source\PSoC6\pdl\drivers/peripheral/gpio/cy_gpio.h ****         GPIO_PRT_OUT_CLR(base) = CY_GPIO_OUT_MASK << pinNum;
 814:Generated_Source\PSoC6\pdl\drivers/peripheral/gpio/cy_gpio.h ****     }
 815:Generated_Source\PSoC6\pdl\drivers/peripheral/gpio/cy_gpio.h ****     else
 816:Generated_Source\PSoC6\pdl\drivers/peripheral/gpio/cy_gpio.h ****     {
ARM GAS  C:\Users\user\AppData\Local\Temp\ccSIFDDJ.s 			page 44


 817:Generated_Source\PSoC6\pdl\drivers/peripheral/gpio/cy_gpio.h ****         GPIO_PRT_OUT_SET(base) = CY_GPIO_OUT_MASK << pinNum;
 1313              		.loc 2 817 0
 1314 016e 0222     		movs	r2, #2
 1315 0170 894B     		ldr	r3, .L96+24
 1316 0172 9A60     		str	r2, [r3, #8]
 1317              	.LVL157:
 1318              	.LBE19:
 1319              	.LBE18:
 313:DISPLAY.c     ****                                             Cy_GPIO_Write (Pin_ACC_0_PORT,Pin_ACC_0_NUM,1);
 314:DISPLAY.c     ****                                             GUI_SetFont(GUI_FONT_16B_1);
 1320              		.loc 1 314 0
 1321 0174 8648     		ldr	r0, .L96+16
 1322 0176 FFF7FEFF 		bl	GUI_SetFont
 1323              	.LVL158:
 315:DISPLAY.c     ****                                             GUI_DispStringAt ("L'alarme est desactivee", 25, 130);
 1324              		.loc 1 315 0
 1325 017a 8222     		movs	r2, #130
 1326 017c 1921     		movs	r1, #25
 1327 017e 8748     		ldr	r0, .L96+28
 1328 0180 FFF7FEFF 		bl	GUI_DispStringAt
 1329              	.LVL159:
 316:DISPLAY.c     ****                                                UpdateDisplay(CY_EINK_FULL_4STAGE, true);
 1330              		.loc 1 316 0
 1331 0184 0121     		movs	r1, #1
 1332 0186 0846     		mov	r0, r1
 1333 0188 FFF7FEFF 		bl	UpdateDisplay
 1334              	.LVL160:
 317:DISPLAY.c     ****                                             currentScreen.FLAG2=0; }
 1335              		.loc 1 317 0
 1336 018c 7D4B     		ldr	r3, .L96+4
 1337 018e 9C70     		strb	r4, [r3, #2]
 1338              	.L70:
 318:DISPLAY.c     ****                   //Affichage de l'OPTION 1  √† l'appuie du bouton 1 sur le MENU pour une position 
 319:DISPLAY.c     ****                                         if (selection_MENU==1) {
 1339              		.loc 1 319 0
 1340 0190 7D4B     		ldr	r3, .L96+8
 1341 0192 1B78     		ldrb	r3, [r3]	@ zero_extendqisi2
 1342 0194 012B     		cmp	r3, #1
 1343 0196 05D1     		bne	.L68
 320:DISPLAY.c     ****                                             currentScreen.screen= OPTION_1; 
 1344              		.loc 1 320 0
 1345 0198 0222     		movs	r2, #2
 1346 019a 7A4B     		ldr	r3, .L96+4
 1347 019c 1A70     		strb	r2, [r3]
 321:DISPLAY.c     ****                                             selection_MENU=0;}
 1348              		.loc 1 321 0
 1349 019e 0022     		movs	r2, #0
 1350 01a0 794B     		ldr	r3, .L96+8
 1351 01a2 1A70     		strb	r2, [r3]
 1352              	.L68:
 322:DISPLAY.c     **** 
 323:DISPLAY.c     ****                 } 
 324:DISPLAY.c     ****                 if (currentScreen.FLAG1==4 || currentScreen.FLAG2==4 || selection_MENU==2){       
 1353              		.loc 1 324 0
 1354 01a4 774B     		ldr	r3, .L96+4
 1355 01a6 5B78     		ldrb	r3, [r3, #1]	@ zero_extendqisi2
 1356 01a8 DBB2     		uxtb	r3, r3
ARM GAS  C:\Users\user\AppData\Local\Temp\ccSIFDDJ.s 			page 45


 1357 01aa 042B     		cmp	r3, #4
 1358 01ac 08D0     		beq	.L71
 1359              		.loc 1 324 0 is_stmt 0 discriminator 1
 1360 01ae 754B     		ldr	r3, .L96+4
 1361 01b0 9B78     		ldrb	r3, [r3, #2]	@ zero_extendqisi2
 1362 01b2 DBB2     		uxtb	r3, r3
 1363 01b4 042B     		cmp	r3, #4
 1364 01b6 03D0     		beq	.L71
 1365              		.loc 1 324 0 discriminator 2
 1366 01b8 734B     		ldr	r3, .L96+8
 1367 01ba 1B78     		ldrb	r3, [r3]	@ zero_extendqisi2
 1368 01bc 022B     		cmp	r3, #2
 1369 01be 1BD1     		bne	.L72
 1370              	.L71:
 325:DISPLAY.c     ****                     DrawOption2();
 1371              		.loc 1 325 0 is_stmt 1
 1372 01c0 FFF7FEFF 		bl	DrawOption2
 1373              	.LVL161:
 326:DISPLAY.c     ****                    
 327:DISPLAY.c     ****                                         if  (currentScreen.FLAG1==4) { currentScreen.FLAG1=0; } // 
 1374              		.loc 1 327 0
 1375 01c4 6F4B     		ldr	r3, .L96+4
 1376 01c6 5B78     		ldrb	r3, [r3, #1]	@ zero_extendqisi2
 1377 01c8 DBB2     		uxtb	r3, r3
 1378 01ca 042B     		cmp	r3, #4
 1379 01cc 02D1     		bne	.L73
 1380              		.loc 1 327 0 is_stmt 0 discriminator 1
 1381 01ce 0022     		movs	r2, #0
 1382 01d0 6C4B     		ldr	r3, .L96+4
 1383 01d2 5A70     		strb	r2, [r3, #1]
 1384              	.L73:
 328:DISPLAY.c     ****                                         if  (currentScreen.FLAG2==4) { currentScreen.FLAG2=0; } // 
 1385              		.loc 1 328 0 is_stmt 1
 1386 01d4 6B4B     		ldr	r3, .L96+4
 1387 01d6 9B78     		ldrb	r3, [r3, #2]	@ zero_extendqisi2
 1388 01d8 DBB2     		uxtb	r3, r3
 1389 01da 042B     		cmp	r3, #4
 1390 01dc 02D1     		bne	.L74
 1391              		.loc 1 328 0 is_stmt 0 discriminator 1
 1392 01de 0022     		movs	r2, #0
 1393 01e0 684B     		ldr	r3, .L96+4
 1394 01e2 9A70     		strb	r2, [r3, #2]
 1395              	.L74:
 329:DISPLAY.c     ****                                         if (selection_MENU==2) {
 1396              		.loc 1 329 0 is_stmt 1
 1397 01e4 684B     		ldr	r3, .L96+8
 1398 01e6 1B78     		ldrb	r3, [r3]	@ zero_extendqisi2
 1399 01e8 022B     		cmp	r3, #2
 1400 01ea 05D1     		bne	.L72
 330:DISPLAY.c     ****                                             currentScreen.screen= OPTION_2; 
 1401              		.loc 1 330 0
 1402 01ec 0322     		movs	r2, #3
 1403 01ee 654B     		ldr	r3, .L96+4
 1404 01f0 1A70     		strb	r2, [r3]
 331:DISPLAY.c     ****                                             selection_MENU=0;} //Affichage de l'OPTION 2  √† l'appu
 1405              		.loc 1 331 0
 1406 01f2 0022     		movs	r2, #0
ARM GAS  C:\Users\user\AppData\Local\Temp\ccSIFDDJ.s 			page 46


 1407 01f4 644B     		ldr	r3, .L96+8
 1408 01f6 1A70     		strb	r2, [r3]
 1409              	.L72:
 332:DISPLAY.c     ****                 } 
 333:DISPLAY.c     ****                 if (currentScreen.FLAG1==5 || currentScreen.FLAG2==5 || selection_MENU==3) {       
 1410              		.loc 1 333 0
 1411 01f8 624B     		ldr	r3, .L96+4
 1412 01fa 5B78     		ldrb	r3, [r3, #1]	@ zero_extendqisi2
 1413 01fc DBB2     		uxtb	r3, r3
 1414 01fe 052B     		cmp	r3, #5
 1415 0200 08D0     		beq	.L75
 1416              		.loc 1 333 0 is_stmt 0 discriminator 1
 1417 0202 604B     		ldr	r3, .L96+4
 1418 0204 9B78     		ldrb	r3, [r3, #2]	@ zero_extendqisi2
 1419 0206 DBB2     		uxtb	r3, r3
 1420 0208 052B     		cmp	r3, #5
 1421 020a 03D0     		beq	.L75
 1422              		.loc 1 333 0 discriminator 2
 1423 020c 5E4B     		ldr	r3, .L96+8
 1424 020e 1B78     		ldrb	r3, [r3]	@ zero_extendqisi2
 1425 0210 032B     		cmp	r3, #3
 1426 0212 1BD1     		bne	.L76
 1427              	.L75:
 334:DISPLAY.c     ****                     DrawOption3_superieur();
 1428              		.loc 1 334 0 is_stmt 1
 1429 0214 FFF7FEFF 		bl	DrawOption3_superieur
 1430              	.LVL162:
 335:DISPLAY.c     ****                    
 336:DISPLAY.c     ****                                         if  (currentScreen.FLAG1==5) { currentScreen.FLAG1=0; } // 
 1431              		.loc 1 336 0
 1432 0218 5A4B     		ldr	r3, .L96+4
 1433 021a 5B78     		ldrb	r3, [r3, #1]	@ zero_extendqisi2
 1434 021c DBB2     		uxtb	r3, r3
 1435 021e 052B     		cmp	r3, #5
 1436 0220 02D1     		bne	.L77
 1437              		.loc 1 336 0 is_stmt 0 discriminator 1
 1438 0222 0022     		movs	r2, #0
 1439 0224 574B     		ldr	r3, .L96+4
 1440 0226 5A70     		strb	r2, [r3, #1]
 1441              	.L77:
 337:DISPLAY.c     ****                                         if  (currentScreen.FLAG2==5) { currentScreen.FLAG2=0; } // 
 1442              		.loc 1 337 0 is_stmt 1
 1443 0228 564B     		ldr	r3, .L96+4
 1444 022a 9B78     		ldrb	r3, [r3, #2]	@ zero_extendqisi2
 1445 022c DBB2     		uxtb	r3, r3
 1446 022e 052B     		cmp	r3, #5
 1447 0230 02D1     		bne	.L78
 1448              		.loc 1 337 0 is_stmt 0 discriminator 1
 1449 0232 0022     		movs	r2, #0
 1450 0234 534B     		ldr	r3, .L96+4
 1451 0236 9A70     		strb	r2, [r3, #2]
 1452              	.L78:
 338:DISPLAY.c     ****                                         if (selection_MENU==3) {
 1453              		.loc 1 338 0 is_stmt 1
 1454 0238 534B     		ldr	r3, .L96+8
 1455 023a 1B78     		ldrb	r3, [r3]	@ zero_extendqisi2
 1456 023c 032B     		cmp	r3, #3
ARM GAS  C:\Users\user\AppData\Local\Temp\ccSIFDDJ.s 			page 47


 1457 023e 05D1     		bne	.L76
 339:DISPLAY.c     **** 
 340:DISPLAY.c     ****                                             currentScreen.screen= OPTION_3_superieur;
 1458              		.loc 1 340 0
 1459 0240 0422     		movs	r2, #4
 1460 0242 504B     		ldr	r3, .L96+4
 1461 0244 1A70     		strb	r2, [r3]
 341:DISPLAY.c     ****                                             selection_MENU=0;} //Affichage de l'OPTION 3  √† l'appu
 1462              		.loc 1 341 0
 1463 0246 0022     		movs	r2, #0
 1464 0248 4F4B     		ldr	r3, .L96+8
 1465 024a 1A70     		strb	r2, [r3]
 1466              	.L76:
 342:DISPLAY.c     ****                 }
 343:DISPLAY.c     ****                 if (currentScreen.FLAG1==6 || currentScreen.FLAG2==6 || selection_MENU==4) {       
 1467              		.loc 1 343 0
 1468 024c 4D4B     		ldr	r3, .L96+4
 1469 024e 5B78     		ldrb	r3, [r3, #1]	@ zero_extendqisi2
 1470 0250 DBB2     		uxtb	r3, r3
 1471 0252 062B     		cmp	r3, #6
 1472 0254 08D0     		beq	.L79
 1473              		.loc 1 343 0 is_stmt 0 discriminator 1
 1474 0256 4B4B     		ldr	r3, .L96+4
 1475 0258 9B78     		ldrb	r3, [r3, #2]	@ zero_extendqisi2
 1476 025a DBB2     		uxtb	r3, r3
 1477 025c 062B     		cmp	r3, #6
 1478 025e 03D0     		beq	.L79
 1479              		.loc 1 343 0 discriminator 2
 1480 0260 494B     		ldr	r3, .L96+8
 1481 0262 1B78     		ldrb	r3, [r3]	@ zero_extendqisi2
 1482 0264 042B     		cmp	r3, #4
 1483 0266 1BD1     		bne	.L80
 1484              	.L79:
 344:DISPLAY.c     **** 
 345:DISPLAY.c     ****                     DrawOption3_inferieur();
 1485              		.loc 1 345 0 is_stmt 1
 1486 0268 FFF7FEFF 		bl	DrawOption3_inferieur
 1487              	.LVL163:
 346:DISPLAY.c     ****                     
 347:DISPLAY.c     ****                                         if  (currentScreen.FLAG1==6) { currentScreen.FLAG1=0; } // 
 1488              		.loc 1 347 0
 1489 026c 454B     		ldr	r3, .L96+4
 1490 026e 5B78     		ldrb	r3, [r3, #1]	@ zero_extendqisi2
 1491 0270 DBB2     		uxtb	r3, r3
 1492 0272 062B     		cmp	r3, #6
 1493 0274 02D1     		bne	.L81
 1494              		.loc 1 347 0 is_stmt 0 discriminator 1
 1495 0276 0022     		movs	r2, #0
 1496 0278 424B     		ldr	r3, .L96+4
 1497 027a 5A70     		strb	r2, [r3, #1]
 1498              	.L81:
 348:DISPLAY.c     ****                                         if  (currentScreen.FLAG2==6) { currentScreen.FLAG2=0; } // 
 1499              		.loc 1 348 0 is_stmt 1
 1500 027c 414B     		ldr	r3, .L96+4
 1501 027e 9B78     		ldrb	r3, [r3, #2]	@ zero_extendqisi2
 1502 0280 DBB2     		uxtb	r3, r3
 1503 0282 062B     		cmp	r3, #6
ARM GAS  C:\Users\user\AppData\Local\Temp\ccSIFDDJ.s 			page 48


 1504 0284 02D1     		bne	.L82
 1505              		.loc 1 348 0 is_stmt 0 discriminator 1
 1506 0286 0022     		movs	r2, #0
 1507 0288 3E4B     		ldr	r3, .L96+4
 1508 028a 9A70     		strb	r2, [r3, #2]
 1509              	.L82:
 349:DISPLAY.c     ****                                         if (selection_MENU==4) {
 1510              		.loc 1 349 0 is_stmt 1
 1511 028c 3E4B     		ldr	r3, .L96+8
 1512 028e 1B78     		ldrb	r3, [r3]	@ zero_extendqisi2
 1513 0290 042B     		cmp	r3, #4
 1514 0292 05D1     		bne	.L80
 350:DISPLAY.c     ****                                             currentScreen.screen= OPTION_3_inferieur; 
 1515              		.loc 1 350 0
 1516 0294 0522     		movs	r2, #5
 1517 0296 3B4B     		ldr	r3, .L96+4
 1518 0298 1A70     		strb	r2, [r3]
 351:DISPLAY.c     ****                                             selection_MENU=0;} //Affichage de l'OPTION 4  √† l'appu
 1519              		.loc 1 351 0
 1520 029a 0022     		movs	r2, #0
 1521 029c 3A4B     		ldr	r3, .L96+8
 1522 029e 1A70     		strb	r2, [r3]
 1523              	.L80:
 352:DISPLAY.c     ****                 }
 353:DISPLAY.c     ****                 if (currentScreen.FLAG1==7 || currentScreen.FLAG2==7 || selection_MENU==5) {       
 1524              		.loc 1 353 0
 1525 02a0 384B     		ldr	r3, .L96+4
 1526 02a2 5B78     		ldrb	r3, [r3, #1]	@ zero_extendqisi2
 1527 02a4 DBB2     		uxtb	r3, r3
 1528 02a6 072B     		cmp	r3, #7
 1529 02a8 08D0     		beq	.L83
 1530              		.loc 1 353 0 is_stmt 0 discriminator 1
 1531 02aa 364B     		ldr	r3, .L96+4
 1532 02ac 9B78     		ldrb	r3, [r3, #2]	@ zero_extendqisi2
 1533 02ae DBB2     		uxtb	r3, r3
 1534 02b0 072B     		cmp	r3, #7
 1535 02b2 03D0     		beq	.L83
 1536              		.loc 1 353 0 discriminator 2
 1537 02b4 344B     		ldr	r3, .L96+8
 1538 02b6 1B78     		ldrb	r3, [r3]	@ zero_extendqisi2
 1539 02b8 052B     		cmp	r3, #5
 1540 02ba 3BD1     		bne	.L84
 1541              	.L83:
 354:DISPLAY.c     **** 
 355:DISPLAY.c     ****                     DrawOption3_ETAT();
 1542              		.loc 1 355 0 is_stmt 1
 1543 02bc FFF7FEFF 		bl	DrawOption3_ETAT
 1544              	.LVL164:
 356:DISPLAY.c     ****                     //Activation  de l'alarme de la FC √† l'appuie du bouton 0 sur la page de l'OPT
 357:DISPLAY.c     ****                     //Permet la comparaison de l'intervalle de FC d√©sir√©e et la FC pr√©lev√©e 
 358:DISPLAY.c     ****                                         if  (currentScreen.FLAG1==7) {
 1545              		.loc 1 358 0
 1546 02c0 304B     		ldr	r3, .L96+4
 1547 02c2 5B78     		ldrb	r3, [r3, #1]	@ zero_extendqisi2
 1548 02c4 DBB2     		uxtb	r3, r3
 1549 02c6 072B     		cmp	r3, #7
 1550 02c8 11D1     		bne	.L85
ARM GAS  C:\Users\user\AppData\Local\Temp\ccSIFDDJ.s 			page 49


 359:DISPLAY.c     ****                                              alarme_FC= true; 
 1551              		.loc 1 359 0
 1552 02ca 0124     		movs	r4, #1
 1553 02cc 344B     		ldr	r3, .L96+32
 1554 02ce 1C70     		strb	r4, [r3]
 360:DISPLAY.c     ****                                              GUI_SetFont(GUI_FONT_16B_1);
 1555              		.loc 1 360 0
 1556 02d0 2F48     		ldr	r0, .L96+16
 1557 02d2 FFF7FEFF 		bl	GUI_SetFont
 1558              	.LVL165:
 361:DISPLAY.c     ****                                              GUI_DispStringAt ("L'alarme est activee ",25, 130); 
 1559              		.loc 1 361 0
 1560 02d6 8222     		movs	r2, #130
 1561 02d8 1921     		movs	r1, #25
 1562 02da 2E48     		ldr	r0, .L96+20
 1563 02dc FFF7FEFF 		bl	GUI_DispStringAt
 1564              	.LVL166:
 362:DISPLAY.c     ****                                                UpdateDisplay(CY_EINK_FULL_4STAGE, true);
 1565              		.loc 1 362 0
 1566 02e0 2146     		mov	r1, r4
 1567 02e2 2046     		mov	r0, r4
 1568 02e4 FFF7FEFF 		bl	UpdateDisplay
 1569              	.LVL167:
 363:DISPLAY.c     ****                                             currentScreen.FLAG1=0; }
 1570              		.loc 1 363 0
 1571 02e8 0022     		movs	r2, #0
 1572 02ea 264B     		ldr	r3, .L96+4
 1573 02ec 5A70     		strb	r2, [r3, #1]
 1574              	.L85:
 364:DISPLAY.c     ****                     //D√©sactivation  de l'alarme de la FC √† l'appuie du bouton 1 sur la page de l
 365:DISPLAY.c     ****                     //Bloque la comparaison de l'intervalle de FC d√©sir√©e et la FC pr√©lev√©e 
 366:DISPLAY.c     ****                                         if  (currentScreen.FLAG2==7) { 
 1575              		.loc 1 366 0
 1576 02ee 254B     		ldr	r3, .L96+4
 1577 02f0 9B78     		ldrb	r3, [r3, #2]	@ zero_extendqisi2
 1578 02f2 DBB2     		uxtb	r3, r3
 1579 02f4 072B     		cmp	r3, #7
 1580 02f6 13D1     		bne	.L86
 367:DISPLAY.c     ****                                              alarme_FC= false;
 1581              		.loc 1 367 0
 1582 02f8 0024     		movs	r4, #0
 1583 02fa 294B     		ldr	r3, .L96+32
 1584 02fc 1C70     		strb	r4, [r3]
 1585              	.LVL168:
 1586              	.LBB20:
 1587              	.LBB21:
 1588              		.loc 2 817 0
 1589 02fe 2022     		movs	r2, #32
 1590 0300 254B     		ldr	r3, .L96+24
 1591 0302 9A60     		str	r2, [r3, #8]
 1592              	.LVL169:
 1593              	.LBE21:
 1594              	.LBE20:
 368:DISPLAY.c     ****                                             Cy_GPIO_Write (Pin_FC_0_PORT,Pin_FC_0_NUM,1);
 369:DISPLAY.c     ****                                             GUI_SetFont(GUI_FONT_16B_1);
 1595              		.loc 1 369 0
 1596 0304 2248     		ldr	r0, .L96+16
ARM GAS  C:\Users\user\AppData\Local\Temp\ccSIFDDJ.s 			page 50


 1597 0306 FFF7FEFF 		bl	GUI_SetFont
 1598              	.LVL170:
 370:DISPLAY.c     ****                                             GUI_DispStringAt ("L'alarme est desactivee", 25, 130);
 1599              		.loc 1 370 0
 1600 030a 8222     		movs	r2, #130
 1601 030c 1921     		movs	r1, #25
 1602 030e 2348     		ldr	r0, .L96+28
 1603 0310 FFF7FEFF 		bl	GUI_DispStringAt
 1604              	.LVL171:
 371:DISPLAY.c     ****                                                UpdateDisplay(CY_EINK_FULL_4STAGE, true);
 1605              		.loc 1 371 0
 1606 0314 0121     		movs	r1, #1
 1607 0316 0846     		mov	r0, r1
 1608 0318 FFF7FEFF 		bl	UpdateDisplay
 1609              	.LVL172:
 372:DISPLAY.c     ****                                             currentScreen.FLAG2=0; }
 1610              		.loc 1 372 0
 1611 031c 194B     		ldr	r3, .L96+4
 1612 031e 9C70     		strb	r4, [r3, #2]
 1613              	.L86:
 373:DISPLAY.c     ****                       //Affichage de l'OPTION 5  √† l'appuie du bouton 1 sur le MENU pour une posit
 374:DISPLAY.c     ****                                         if (selection_MENU==5) {
 1614              		.loc 1 374 0
 1615 0320 194B     		ldr	r3, .L96+8
 1616 0322 1B78     		ldrb	r3, [r3]	@ zero_extendqisi2
 1617 0324 052B     		cmp	r3, #5
 1618 0326 05D1     		bne	.L84
 375:DISPLAY.c     ****                                             currentScreen.screen= OPTION_3_ETAT; 
 1619              		.loc 1 375 0
 1620 0328 0622     		movs	r2, #6
 1621 032a 164B     		ldr	r3, .L96+4
 1622 032c 1A70     		strb	r2, [r3]
 376:DISPLAY.c     ****                                             selection_MENU=0;}
 1623              		.loc 1 376 0
 1624 032e 0022     		movs	r2, #0
 1625 0330 154B     		ldr	r3, .L96+8
 1626 0332 1A70     		strb	r2, [r3]
 1627              	.L84:
 377:DISPLAY.c     ****                 }
 378:DISPLAY.c     ****                 
 379:DISPLAY.c     ****                 // Si l'alarme de l'acc√©l√©rom√®tre est activ√©e, on lit les donn√©es transmise pa
 380:DISPLAY.c     ****                 // si celle-ci s'enclenche ou pas 
 381:DISPLAY.c     ****                 if (alarme_acc) 
 1628              		.loc 1 381 0
 1629 0334 154B     		ldr	r3, .L96+12
 1630 0336 1B78     		ldrb	r3, [r3]	@ zero_extendqisi2
 1631 0338 5BB1     		cbz	r3, .L87
 382:DISPLAY.c     ****                 {
 383:DISPLAY.c     ****                     // signal venant de la communication qui permet d'indiquer s'il y a un mouvemen
 384:DISPLAY.c     ****                         if (AlarmeBMI160) {
 1632              		.loc 1 384 0
 1633 033a 1A4B     		ldr	r3, .L96+36
 1634 033c 1B78     		ldrb	r3, [r3]	@ zero_extendqisi2
 1635 033e 13F0FF0F 		tst	r3, #255
 1636 0342 03D0     		beq	.L88
 1637              	.LVL173:
 1638              	.LBB22:
ARM GAS  C:\Users\user\AppData\Local\Temp\ccSIFDDJ.s 			page 51


 1639              	.LBB23:
 813:Generated_Source\PSoC6\pdl\drivers/peripheral/gpio/cy_gpio.h ****     }
 1640              		.loc 2 813 0
 1641 0344 0222     		movs	r2, #2
 1642 0346 144B     		ldr	r3, .L96+24
 1643 0348 5A60     		str	r2, [r3, #4]
 1644 034a 02E0     		b	.L87
 1645              	.LVL174:
 1646              	.L88:
 1647              	.LBE23:
 1648              	.LBE22:
 1649              	.LBB24:
 1650              	.LBB25:
 1651              		.loc 2 817 0
 1652 034c 0222     		movs	r2, #2
 1653 034e 124B     		ldr	r3, .L96+24
 1654 0350 9A60     		str	r2, [r3, #8]
 1655              	.LVL175:
 1656              	.L87:
 1657              	.LBE25:
 1658              	.LBE24:
 385:DISPLAY.c     ****                          Cy_GPIO_Write(Pin_ACC_0_PORT,Pin_ACC_0_NUM, 0);
 386:DISPLAY.c     ****                         }
 387:DISPLAY.c     ****                         else {Cy_GPIO_Write (Pin_ACC_0_PORT,Pin_ACC_0_NUM,1); }  
 388:DISPLAY.c     ****                 }
 389:DISPLAY.c     ****                 // Si l'alarme de la FC est activ√©e, on compare l'intervalle de FC √©tablie √† la 
 390:DISPLAY.c     ****                 // si l'alarme s'enclenche ou pas 
 391:DISPLAY.c     ****                if (alarme_FC) 
 1659              		.loc 1 391 0
 1660 0352 134B     		ldr	r3, .L96+32
 1661 0354 1B78     		ldrb	r3, [r3]	@ zero_extendqisi2
 1662 0356 002B     		cmp	r3, #0
 1663 0358 2FD0     		beq	.L89
 392:DISPLAY.c     ****                 {
 393:DISPLAY.c     ****                      
 394:DISPLAY.c     ****                         if (BPM<borne_inferieur || BPM>borne_superieur) {                         
 1664              		.loc 1 394 0
 1665 035a 134B     		ldr	r3, .L96+40
 1666 035c 1B78     		ldrb	r3, [r3]	@ zero_extendqisi2
 1667 035e DBB2     		uxtb	r3, r3
 1668 0360 124A     		ldr	r2, .L96+44
 1669 0362 1278     		ldrb	r2, [r2]	@ zero_extendqisi2
 1670 0364 9342     		cmp	r3, r2
 1671 0366 06D3     		bcc	.L90
 1672              		.loc 1 394 0 is_stmt 0 discriminator 1
 1673 0368 0F4B     		ldr	r3, .L96+40
 1674 036a 1B78     		ldrb	r3, [r3]	@ zero_extendqisi2
 1675 036c DBB2     		uxtb	r3, r3
 1676 036e 104A     		ldr	r2, .L96+48
 1677 0370 1278     		ldrb	r2, [r2]	@ zero_extendqisi2
 1678 0372 9342     		cmp	r3, r2
 1679 0374 1ED9     		bls	.L91
 1680              	.L90:
 1681              	.LVL176:
 1682              	.LBB26:
 1683              	.LBB27:
 813:Generated_Source\PSoC6\pdl\drivers/peripheral/gpio/cy_gpio.h ****     }
ARM GAS  C:\Users\user\AppData\Local\Temp\ccSIFDDJ.s 			page 52


 1684              		.loc 2 813 0 is_stmt 1
 1685 0376 2022     		movs	r2, #32
 1686 0378 074B     		ldr	r3, .L96+24
 1687 037a 5A60     		str	r2, [r3, #4]
 1688 037c 1DE0     		b	.L89
 1689              	.L97:
 1690 037e 00BF     		.align	2
 1691              	.L96:
 1692 0380 00000000 		.word	postion_MENU
 1693 0384 00000000 		.word	currentScreen
 1694 0388 00000000 		.word	selection_MENU
 1695 038c 00000000 		.word	alarme_acc
 1696 0390 00000000 		.word	GUI_Font16B_1
 1697 0394 B8020000 		.word	.LC28
 1698 0398 80003240 		.word	1077018752
 1699 039c D0020000 		.word	.LC29
 1700 03a0 00000000 		.word	alarme_FC
 1701 03a4 00000000 		.word	AlarmeBMI160
 1702 03a8 00000000 		.word	BPM
 1703 03ac 00000000 		.word	borne_inferieur
 1704 03b0 00000000 		.word	borne_superieur
 1705              	.LVL177:
 1706              	.L91:
 1707              	.LBE27:
 1708              	.LBE26:
 1709              	.LBB28:
 1710              	.LBB29:
 1711              		.loc 2 817 0
 1712 03b4 2022     		movs	r2, #32
 1713 03b6 034B     		ldr	r3, .L98
 1714 03b8 9A60     		str	r2, [r3, #8]
 1715              	.LVL178:
 1716              	.L89:
 1717              	.LBE29:
 1718              	.LBE28:
 395:DISPLAY.c     ****                          Cy_GPIO_Write(Pin_FC_0_PORT,Pin_FC_0_NUM, 0); 
 396:DISPLAY.c     ****                         }
 397:DISPLAY.c     ****                         else {Cy_GPIO_Write (Pin_FC_0_PORT,Pin_FC_0_NUM,1); }     
 398:DISPLAY.c     ****                 }
 399:DISPLAY.c     ****                
 400:DISPLAY.c     ****                  vTaskDelay(pdMS_TO_TICKS(350));
 1719              		.loc 1 400 0
 1720 03ba 4FF4AF70 		mov	r0, #350
 1721 03be FFF7FEFF 		bl	vTaskDelay
 1722              	.LVL179:
 401:DISPLAY.c     ****         }
 1723              		.loc 1 401 0
 1724 03c2 35E6     		b	.L92
 1725              	.L99:
 1726              		.align	2
 1727              	.L98:
 1728 03c4 80003240 		.word	1077018752
 1729              		.cfi_endproc
 1730              	.LFE704:
 1731              		.size	display_task, .-display_task
 1732              		.comm	ROUGE_minimum_abs,400,4
 1733              		.comm	INFRAROUGE_minimum_abs,400,4
ARM GAS  C:\Users\user\AppData\Local\Temp\ccSIFDDJ.s 			page 53


 1734              		.comm	ROUGE,4400,4
 1735              		.comm	INFRAROUGE,4400,4
 1736              		.comm	vecteurespacee,500,4
 1737              		.comm	data,672,4
 1738              		.comm	selection_MENU,1,1
 1739              		.comm	postion_MENU,1,1
 1740              		.comm	currentScreen,6,4
 1741              		.comm	imageBufferCache,5808,4
 1742              		.comm	buffer,100,4
 1743              		.comm	borne_superieur,1,1
 1744              		.comm	borne_inferieur,1,1
 1745              		.comm	alarme_FC,1,1
 1746              		.comm	alarme_acc,1,1
 1747              		.comm	courant,1,1
 1748              		.comm	taille_rouge,4,4
 1749              		.comm	taille_infrarouge,4,4
 1750              		.comm	minimum_rouge,4,4
 1751              		.comm	minimum_infrarouge,4,4
 1752              		.comm	blockSize,4,4
 1753              		.comm	firCoeffs32_HighPass,44,4
 1754              		.comm	firCoeffs32_LowPass,44,4
 1755              		.comm	entree,1,1
 1756              		.comm	AlarmeBMI160,1,1
 1757              		.comm	BPM,1,1
 1758              		.comm	pourcentageSpO2,4,4
 1759              		.comm	dataSpo2,26400,4
 1760              		.comm	indexBuffer,4,4
 1761              		.section	.rodata.str1.4,"aMS",%progbits,1
 1762              		.align	2
 1763              	.LC0:
 1764 0000 434F5552 		.ascii	"COURBE AFFICHEE:\000"
 1764      42452041 
 1764      46464943 
 1764      4845453A 
 1764      00
 1765 0011 000000   		.space	3
 1766              	.LC1:
 1767 0014 53504543 		.ascii	"SPECTRE\000"
 1767      54524500 
 1768              	.LC2:
 1769 001c 494E4652 		.ascii	"INFRAROUGE\000"
 1769      41524F55 
 1769      474500
 1770 0027 00       		.space	1
 1771              	.LC3:
 1772 0028 524F5547 		.ascii	"ROUGE\000"
 1772      4500
 1773 002e 0000     		.space	2
 1774              	.LC4:
 1775 0030 46726571 		.ascii	"Frequence cardiaque: %d \000"
 1775      75656E63 
 1775      65206361 
 1775      72646961 
 1775      7175653A 
 1776 0049 000000   		.space	3
 1777              	.LC5:
 1778 004c 54617578 		.ascii	"Taux d'oxygene: %d \000"
ARM GAS  C:\Users\user\AppData\Local\Temp\ccSIFDDJ.s 			page 54


 1778      2064276F 
 1778      78796765 
 1778      6E653A20 
 1778      25642000 
 1779              	.LC6:
 1780 0060 42504D20 		.ascii	"BPM \000"
 1780      00
 1781 0065 000000   		.space	3
 1782              	.LC7:
 1783 0068 202500   		.ascii	" %\000"
 1784 006b 00       		.space	1
 1785              	.LC8:
 1786 006c 4D454E55 		.ascii	"MENU\000"
 1786      00
 1787 0071 000000   		.space	3
 1788              	.LC9:
 1789 0074 45544154 		.ascii	"ETAT DE L'ALARME D'ACCELERATION\000"
 1789      20444520 
 1789      4C27414C 
 1789      41524D45 
 1789      20442741 
 1790              	.LC10:
 1791 0094 4D4F4449 		.ascii	"MODIFICATION DU COURANT DES LEDS\000"
 1791      46494341 
 1791      54494F4E 
 1791      20445520 
 1791      434F5552 
 1792 00b5 000000   		.space	3
 1793              	.LC11:
 1794 00b8 424F524E 		.ascii	"BORNE SUPERIEUR- RYTHME CARDIAQUE\000"
 1794      45205355 
 1794      50455249 
 1794      4555522D 
 1794      20525954 
 1795 00da 0000     		.space	2
 1796              	.LC12:
 1797 00dc 424F524E 		.ascii	"BORNE INFERIEUR- RYTHME CARDIAQUE\000"
 1797      4520494E 
 1797      46455249 
 1797      4555522D 
 1797      20525954 
 1798 00fe 0000     		.space	2
 1799              	.LC13:
 1800 0100 45544154 		.ascii	"ETAT DE L'ALARME DE LA FC\000"
 1800      20444520 
 1800      4C27414C 
 1800      41524D45 
 1800      20444520 
 1801 011a 0000     		.space	2
 1802              	.LC14:
 1803 011c 414C4152 		.ascii	"ALARME D'ACCELERATION\000"
 1803      4D452044 
 1803      27414343 
 1803      454C4552 
 1803      4154494F 
 1804 0132 0000     		.space	2
 1805              	.LC15:
ARM GAS  C:\Users\user\AppData\Local\Temp\ccSIFDDJ.s 			page 55


 1806 0134 41505055 		.ascii	"APPUYE SUR LE BOUTON 00 POUR ACTIVER L'ALARME\000"
 1806      59452053 
 1806      5552204C 
 1806      4520424F 
 1806      55544F4E 
 1807 0162 0000     		.space	2
 1808              	.LC16:
 1809 0164 41505055 		.ascii	"APPUYE SUR LE BOUTON 01 POUR DESACTIVER L'ALARME\000"
 1809      59452053 
 1809      5552204C 
 1809      4520424F 
 1809      55544F4E 
 1810 0195 000000   		.space	3
 1811              	.LC17:
 1812 0198 434F5552 		.ascii	"COURANT DELs\000"
 1812      414E5420 
 1812      44454C73 
 1812      00
 1813 01a5 000000   		.space	3
 1814              	.LC18:
 1815 01a8 4C452043 		.ascii	"LE COURANT CONFIGURE DES LEDS\000"
 1815      4F555241 
 1815      4E542043 
 1815      4F4E4649 
 1815      47555245 
 1816 01c6 0000     		.space	2
 1817              	.LC19:
 1818 01c8 44552043 		.ascii	"DU CAPTEUR SPO2 MAX30102 EST:\000"
 1818      41505445 
 1818      55522053 
 1818      504F3220 
 1818      4D415833 
 1819 01e6 0000     		.space	2
 1820              	.LC20:
 1821 01e8 25640A0D 		.ascii	"%d\012\015\000"
 1821      00
 1822 01ed 000000   		.space	3
 1823              	.LC21:
 1824 01f0 6D4100   		.ascii	"mA\000"
 1825 01f3 00       		.space	1
 1826              	.LC22:
 1827 01f4 44454649 		.ascii	"DEFINITION DE L'INTERVALLE DE L'ALARME\000"
 1827      4E495449 
 1827      4F4E2044 
 1827      45204C27 
 1827      494E5445 
 1828 021b 00       		.space	1
 1829              	.LC23:
 1830 021c 44454649 		.ascii	"DEFINIISSEZ LA BORNE SUPERIEUR DE LA FC\000"
 1830      4E494953 
 1830      53455A20 
 1830      4C412042 
 1830      4F524E45 
 1831              	.LC24:
 1832 0244 424F524E 		.ascii	"BORNE SUPERIEUR: \000"
 1832      45205355 
 1832      50455249 
ARM GAS  C:\Users\user\AppData\Local\Temp\ccSIFDDJ.s 			page 56


 1832      4555523A 
 1832      2000
 1833 0256 0000     		.space	2
 1834              	.LC25:
 1835 0258 44454649 		.ascii	"DEFINIISSEZ LA BORNE INFERIEUR DE LA FC\000"
 1835      4E494953 
 1835      53455A20 
 1835      4C412042 
 1835      4F524E45 
 1836              	.LC26:
 1837 0280 424F524E 		.ascii	"BORNE INFERIEUR: \000"
 1837      4520494E 
 1837      46455249 
 1837      4555523A 
 1837      2000
 1838 0292 0000     		.space	2
 1839              	.LC27:
 1840 0294 414C4152 		.ascii	"ALARME DE LA FREQUENCE CARDIAQUE\000"
 1840      4D452044 
 1840      45204C41 
 1840      20465245 
 1840      5155454E 
 1841 02b5 000000   		.space	3
 1842              	.LC28:
 1843 02b8 4C27616C 		.ascii	"L'alarme est activee \000"
 1843      61726D65 
 1843      20657374 
 1843      20616374 
 1843      69766565 
 1844 02ce 0000     		.space	2
 1845              	.LC29:
 1846 02d0 4C27616C 		.ascii	"L'alarme est desactivee\000"
 1846      61726D65 
 1846      20657374 
 1846      20646573 
 1846      61637469 
 1847              		.text
 1848              	.Letext0:
 1849              		.file 3 "c:\\program files (x86)\\cypress\\psoc creator\\4.4\\psoc creator\\import\\gnu\\arm\\5.4.
 1850              		.file 4 "c:\\program files (x86)\\cypress\\psoc creator\\4.4\\psoc creator\\import\\gnu\\arm\\5.4.
 1851              		.file 5 "Generated_Source\\PSoC6\\pdl\\devices/psoc6/include/ip/cyip_gpio.h"
 1852              		.file 6 "Generated_Source\\PSoC6\\pdl\\devices/psoc6/include/psoc6_01_config.h"
 1853              		.file 7 "Generated_Source\\PSoC6\\pdl\\drivers/peripheral/device/cy_device.h"
 1854              		.file 8 "Generated_Source\\PSoC6\\pdl\\drivers/peripheral/syslib/cy_syslib.h"
 1855              		.file 9 "Generated_Source\\PSoC6\\pdl\\drivers/peripheral/scb/cy_scb_i2c.h"
 1856              		.file 10 "Generated_Source\\PSoC6\\pdl\\drivers/peripheral/scb/cy_scb_spi.h"
 1857              		.file 11 "Generated_Source\\PSoC6\\pdl\\drivers/peripheral/scb/cy_scb_uart.h"
 1858              		.file 12 "Generated_Source\\PSoC6\\pdl\\drivers/peripheral/tcpwm/cy_tcpwm_counter.h"
 1859              		.file 13 "Generated_Source\\PSoC6\\pdl\\middleware/emWin/code/include/GUI_Type.h"
 1860              		.file 14 ".\\eInk Library/pervasive_eink_hardware_driver.h"
 1861              		.file 15 ".\\eInk Library/cy_eink_library.h"
 1862              		.file 16 "Generated_Source\\PSoC6\\pdl\\rtos/FreeRTOS/10.0.1/Source/portable/GCC/CM4F/portmacro.h"
 1863              		.file 17 "DISPLAY.h"
 1864              		.file 18 ".\\CMSIS\\Core\\Include/core_cm4.h"
 1865              		.file 19 "Generated_Source\\PSoC6/CY_EINK_SPIM.h"
 1866              		.file 20 "Generated_Source\\PSoC6/CY_EINK_Timer.h"
 1867              		.file 21 "Generated_Source\\PSoC6/UART_1.h"
ARM GAS  C:\Users\user\AppData\Local\Temp\ccSIFDDJ.s 			page 57


 1868              		.file 22 "Generated_Source\\PSoC6/I2C_1.h"
 1869              		.file 23 "Generated_Source\\PSoC6/I2C_2.h"
 1870              		.file 24 "Generated_Source\\PSoC6\\pdl\\middleware/emWin/code/include/GUI.h"
 1871              		.file 25 "Declaration.h"
 1872              		.file 26 "TraitementSignal.h"
 1873              		.file 27 "CAPSENS.h"
 1874              		.file 28 "LCDConf.h"
 1875              		.file 29 "c:\\program files (x86)\\cypress\\psoc creator\\4.4\\psoc creator\\import\\gnu\\arm\\5.4
 1876              		.file 30 "Generated_Source\\PSoC6\\pdl\\rtos/FreeRTOS/10.0.1/Source/include/task.h"