ARM GAS  C:\Users\user\AppData\Local\Temp\ccSIFDDJ.s 			page 1


   1              		.syntax unified
   2              		.cpu cortex-m4
   3              		.eabi_attribute 27, 1
   4              		.fpu fpv4-sp-d16
   5              		.eabi_attribute 20, 1
   6              		.eabi_attribute 21, 1
   7              		.eabi_attribute 23, 3
   8              		.eabi_attribute 24, 1
   9              		.eabi_attribute 25, 1
  10              		.eabi_attribute 26, 1
  11              		.eabi_attribute 30, 1
  12              		.eabi_attribute 34, 1
  13              		.eabi_attribute 18, 4
  14              		.thumb
  15              		.syntax unified
  16              		.file	"DISPLAY.c"
  17              		.text
  18              	.Ltext0:
  19              		.cfi_sections	.debug_frame
  20              		.section	.text.UpdateDisplay,"ax",%progbits
  21              		.align	2
  22              		.global	UpdateDisplay
  23              		.thumb
  24              		.thumb_func
  25              		.type	UpdateDisplay, %function
  26              	UpdateDisplay:
  27              	.LFB693:
  28              		.file 1 "DISPLAY.c"
   1:DISPLAY.c     **** /* ========================================
   2:DISPLAY.c     ****  *
   3:DISPLAY.c     ****  * Copyright YOUR COMPANY, THE YEAR
   4:DISPLAY.c     ****  * All Rights Reserved
   5:DISPLAY.c     ****  * UNPUBLISHED, LICENSED SOFTWARE.
   6:DISPLAY.c     ****  *
   7:DISPLAY.c     ****  * CONFIDENTIAL AND PROPRIETARY INFORMATION
   8:DISPLAY.c     ****  * WHICH IS THE PROPERTY OF your company.
   9:DISPLAY.c     ****  *
  10:DISPLAY.c     ****  * ========================================
  11:DISPLAY.c     **** 
  12:DISPLAY.c     **** 
  13:DISPLAY.c     **** */
  14:DISPLAY.c     **** 
  15:DISPLAY.c     **** #include "CAPSENS.h"
  16:DISPLAY.c     **** #include "DISPLAY.h"
  17:DISPLAY.c     **** 
  18:DISPLAY.c     **** // Notons que nous n'avons pas d√©clar√© certaines fonctions de ce fichier dans le HEADERFILE DISPL
  19:DISPLAY.c     **** // utilit√©s n'est que dans le pr√©sent fichier. 
  20:DISPLAY.c     **** // Le principe de ma t√¢che d'affichage s'appuie sur les FLAGS. En effet, ayant en m√©moire la page
  21:DISPLAY.c     **** // et le bouton appuy√©e, il est possible de d√©terminer quel page il faudra afficher. Pour all√©ge
  22:DISPLAY.c     **** // qui permettent d'afficher les diff√©rentes page de mon interface. 
  23:DISPLAY.c     **** 
  24:DISPLAY.c     **** // Fonction qui permet de rafra√Æchir les modifications apport√©es √† l'√©cran 
  25:DISPLAY.c     **** void UpdateDisplay(cy_eink_update_t updateMethod, bool powerCycle)
  26:DISPLAY.c     **** {
  29              		.loc 1 26 0
  30              		.cfi_startproc
  31              		@ args = 0, pretend = 0, frame = 0
ARM GAS  C:\Users\user\AppData\Local\Temp\ccSIFDDJ.s 			page 2


  32              		@ frame_needed = 0, uses_anonymous_args = 0
  33              	.LVL0:
  34 0000 F8B5     		push	{r3, r4, r5, r6, r7, lr}
  35              		.cfi_def_cfa_offset 24
  36              		.cfi_offset 3, -24
  37              		.cfi_offset 4, -20
  38              		.cfi_offset 5, -16
  39              		.cfi_offset 6, -12
  40              		.cfi_offset 7, -8
  41              		.cfi_offset 14, -4
  42 0002 0646     		mov	r6, r0
  43 0004 0F46     		mov	r7, r1
  27:DISPLAY.c     ****     cy_eink_frame_t* pEmwinBuffer;
  28:DISPLAY.c     ****     /* Get the pointer to Emwin's display buffer */
  29:DISPLAY.c     ****    pEmwinBuffer = (cy_eink_frame_t*)LCD_GetDisplayBuffer();
  44              		.loc 1 29 0
  45 0006 FFF7FEFF 		bl	LCD_GetDisplayBuffer
  46              	.LVL1:
  47 000a 0546     		mov	r5, r0
  48              	.LVL2:
  30:DISPLAY.c     ****     /* Update the EInk display */
  31:DISPLAY.c     ****     Cy_EINK_ShowFrame(imageBufferCache, pEmwinBuffer, updateMethod, powerCycle);
  49              		.loc 1 31 0
  50 000c 064C     		ldr	r4, .L3
  51 000e 3B46     		mov	r3, r7
  52 0010 3246     		mov	r2, r6
  53 0012 0146     		mov	r1, r0
  54 0014 2046     		mov	r0, r4
  55              	.LVL3:
  56 0016 FFF7FEFF 		bl	Cy_EINK_ShowFrame
  57              	.LVL4:
  32:DISPLAY.c     ****     /* Copy the EmWin display buffer to the imageBuffer cache*/
  33:DISPLAY.c     ****     memcpy(imageBufferCache, pEmwinBuffer, CY_EINK_FRAME_SIZE);
  58              		.loc 1 33 0
  59 001a 41F2B062 		movw	r2, #5808
  60 001e 2946     		mov	r1, r5
  61 0020 2046     		mov	r0, r4
  62 0022 FFF7FEFF 		bl	memcpy
  63              	.LVL5:
  64 0026 F8BD     		pop	{r3, r4, r5, r6, r7, pc}
  65              	.LVL6:
  66              	.L4:
  67              		.align	2
  68              	.L3:
  69 0028 00000000 		.word	imageBufferCache
  70              		.cfi_endproc
  71              	.LFE693:
  72              		.size	UpdateDisplay, .-UpdateDisplay
  73              		.section	.text.maximum_1,"ax",%progbits
  74              		.align	2
  75              		.global	maximum_1
  76              		.thumb
  77              		.thumb_func
  78              		.type	maximum_1, %function
  79              	maximum_1:
  80              	.LFB694:
  34:DISPLAY.c     **** }
ARM GAS  C:\Users\user\AppData\Local\Temp\ccSIFDDJ.s 			page 3


  35:DISPLAY.c     **** 
  36:DISPLAY.c     **** //Fonctions qui permet de d√©terminer le maximum d'un vecteur de type uint32_t de taille n
  37:DISPLAY.c     **** uint32_t maximum_1(uint32_t arr[], int n){   
  81              		.loc 1 37 0
  82              		.cfi_startproc
  83              		@ args = 0, pretend = 0, frame = 0
  84              		@ frame_needed = 0, uses_anonymous_args = 0
  85              		@ link register save eliminated.
  86              	.LVL7:
  87 0000 10B4     		push	{r4}
  88              		.cfi_def_cfa_offset 4
  89              		.cfi_offset 4, -4
  90 0002 0446     		mov	r4, r0
  38:DISPLAY.c     ****     int i;
  39:DISPLAY.c     ****     // Initialize maximum element
  40:DISPLAY.c     ****     uint32_t max = arr[0];
  91              		.loc 1 40 0
  92 0004 0068     		ldr	r0, [r0]
  93              	.LVL8:
  41:DISPLAY.c     ****     // Traverse array elements from second and
  42:DISPLAY.c     ****     // compare every element with current max 
  43:DISPLAY.c     ****     for (i = 1; i < n; i++){
  94              		.loc 1 43 0
  95 0006 0123     		movs	r3, #1
  96 0008 05E0     		b	.L6
  97              	.LVL9:
  98              	.L8:
  44:DISPLAY.c     ****         if (arr[i] > max){
  99              		.loc 1 44 0
 100 000a 54F82320 		ldr	r2, [r4, r3, lsl #2]
 101 000e 9042     		cmp	r0, r2
 102 0010 00D2     		bcs	.L7
  45:DISPLAY.c     ****             max = arr[i];}}
 103              		.loc 1 45 0
 104 0012 1046     		mov	r0, r2
 105              	.LVL10:
 106              	.L7:
  43:DISPLAY.c     ****         if (arr[i] > max){
 107              		.loc 1 43 0 discriminator 2
 108 0014 0133     		adds	r3, r3, #1
 109              	.LVL11:
 110              	.L6:
  43:DISPLAY.c     ****         if (arr[i] > max){
 111              		.loc 1 43 0 is_stmt 0 discriminator 1
 112 0016 8B42     		cmp	r3, r1
 113 0018 F7DB     		blt	.L8
  46:DISPLAY.c     ****     return max;
  47:DISPLAY.c     **** }
 114              		.loc 1 47 0 is_stmt 1
 115 001a 5DF8044B 		ldr	r4, [sp], #4
 116              		.cfi_restore 4
 117              		.cfi_def_cfa_offset 0
 118              	.LVL12:
 119 001e 7047     		bx	lr
 120              		.cfi_endproc
 121              	.LFE694:
 122              		.size	maximum_1, .-maximum_1
ARM GAS  C:\Users\user\AppData\Local\Temp\ccSIFDDJ.s 			page 4


 123              		.section	.text.minimum_1,"ax",%progbits
 124              		.align	2
 125              		.global	minimum_1
 126              		.thumb
 127              		.thumb_func
 128              		.type	minimum_1, %function
 129              	minimum_1:
 130              	.LFB695:
  48:DISPLAY.c     **** //Fonctions qui permet de d√©terminer le minimum d'un vecteur de type uint32_t de taille n
  49:DISPLAY.c     **** uint32_t minimum_1(uint32_t arr[], int n)      
  50:DISPLAY.c     **** {
 131              		.loc 1 50 0
 132              		.cfi_startproc
 133              		@ args = 0, pretend = 0, frame = 0
 134              		@ frame_needed = 0, uses_anonymous_args = 0
 135              		@ link register save eliminated.
 136              	.LVL13:
 137 0000 10B4     		push	{r4}
 138              		.cfi_def_cfa_offset 4
 139              		.cfi_offset 4, -4
 140 0002 0446     		mov	r4, r0
  51:DISPLAY.c     ****     int i;
  52:DISPLAY.c     ****     // Initialize maximum element
  53:DISPLAY.c     ****     uint32_t min = arr[0];
 141              		.loc 1 53 0
 142 0004 0068     		ldr	r0, [r0]
 143              	.LVL14:
  54:DISPLAY.c     ****     // Traverse array elements from second and
  55:DISPLAY.c     ****     // compare every element with current max 
  56:DISPLAY.c     ****     for (i = 1; i < n; i++){
 144              		.loc 1 56 0
 145 0006 0123     		movs	r3, #1
 146 0008 05E0     		b	.L12
 147              	.LVL15:
 148              	.L14:
  57:DISPLAY.c     ****         if (arr[i] < min){
 149              		.loc 1 57 0
 150 000a 54F82320 		ldr	r2, [r4, r3, lsl #2]
 151 000e 9042     		cmp	r0, r2
 152 0010 00D9     		bls	.L13
  58:DISPLAY.c     ****             min = arr[i];}}
 153              		.loc 1 58 0
 154 0012 1046     		mov	r0, r2
 155              	.LVL16:
 156              	.L13:
  56:DISPLAY.c     ****         if (arr[i] < min){
 157              		.loc 1 56 0 discriminator 2
 158 0014 0133     		adds	r3, r3, #1
 159              	.LVL17:
 160              	.L12:
  56:DISPLAY.c     ****         if (arr[i] < min){
 161              		.loc 1 56 0 is_stmt 0 discriminator 1
 162 0016 8B42     		cmp	r3, r1
 163 0018 F7DB     		blt	.L14
  59:DISPLAY.c     ****     return min;
  60:DISPLAY.c     **** }
 164              		.loc 1 60 0 is_stmt 1
ARM GAS  C:\Users\user\AppData\Local\Temp\ccSIFDDJ.s 			page 5


 165 001a 5DF8044B 		ldr	r4, [sp], #4
 166              		.cfi_restore 4
 167              		.cfi_def_cfa_offset 0
 168              	.LVL18:
 169 001e 7047     		bx	lr
 170              		.cfi_endproc
 171              	.LFE695:
 172              		.size	minimum_1, .-minimum_1
 173              		.section	.text.drawGraph,"ax",%progbits
 174              		.align	2
 175              		.global	drawGraph
 176              		.thumb
 177              		.thumb_func
 178              		.type	drawGraph, %function
 179              	drawGraph:
 180              	.LFB696:
  61:DISPLAY.c     **** // Fonction qui permet d'afficher la courbe d'absoprtion voulue √† partir du signal filtr√© par l'e
  62:DISPLAY.c     **** // du traitement de signal. Cette fonction prends en param√®tre ce vecteur signal, un espacement ai
  63:DISPLAY.c     **** // taille du vecteur signal. Sachant que la fr√©quence d'√©chantillonage est grande, les donn√©es p
  64:DISPLAY.c     **** // trop proches et repr√©sente seulement un signal local. De ce fait, on introduit un espacement en
  65:DISPLAY.c     **** // √† afficher afin de visualier un signal √©largie. 
  66:DISPLAY.c     **** void drawGraph(uint32_t donnees[1300], uint8_t espacement, int size ){   //size est d√©clarer comme
 181              		.loc 1 66 0
 182              		.cfi_startproc
 183              		@ args = 0, pretend = 0, frame = 0
 184              		@ frame_needed = 0, uses_anonymous_args = 0
 185              	.LVL19:
 186 0000 2DE9F843 		push	{r3, r4, r5, r6, r7, r8, r9, lr}
 187              		.cfi_def_cfa_offset 32
 188              		.cfi_offset 3, -32
 189              		.cfi_offset 4, -28
 190              		.cfi_offset 5, -24
 191              		.cfi_offset 6, -20
 192              		.cfi_offset 7, -16
 193              		.cfi_offset 8, -12
 194              		.cfi_offset 9, -8
 195              		.cfi_offset 14, -4
 196 0004 0646     		mov	r6, r0
 197 0006 0F46     		mov	r7, r1
 198 0008 9046     		mov	r8, r2
  67:DISPLAY.c     ****     
  68:DISPLAY.c     ****     GUI_SetPenSize(1);
 199              		.loc 1 68 0
 200 000a 0120     		movs	r0, #1
 201              	.LVL20:
 202 000c FFF7FEFF 		bl	GUI_SetPenSize
 203              	.LVL21:
  69:DISPLAY.c     ****     
  70:DISPLAY.c     ****     
  71:DISPLAY.c     ****     
  72:DISPLAY.c     ****     
  73:DISPLAY.c     ****     // Durant les essai logistique, nous avons r√©alis√© que le d√©but du signal contient des valeu
  74:DISPLAY.c     ****     // que les param√®tre du signal pr√©c√©dement translat√©, tel que son maximum et son minimum, s
  75:DISPLAY.c     ****     // on proc√®de d'abord par √©liminer les 300 premi√®res donn√©es de ce signal afin de s'assurer
  76:DISPLAY.c     ****     // Le signal √©tant p√©riodique, la troncation de celui-ci ne comporte pas une perte de donn√©e
  77:DISPLAY.c     ****     int z=0; 
  78:DISPLAY.c     ****     int taille = size-300;
ARM GAS  C:\Users\user\AppData\Local\Temp\ccSIFDDJ.s 			page 6


 204              		.loc 1 78 0
 205 0010 A8F59675 		sub	r5, r8, #300
 206              	.LVL22:
 207              	.LBB14:
  79:DISPLAY.c     ****     for (int x=300; x<size; x++){
 208              		.loc 1 79 0
 209 0014 4FF49673 		mov	r3, #300
 210              	.LBE14:
  77:DISPLAY.c     ****     int taille = size-300;
 211              		.loc 1 77 0
 212 0018 0022     		movs	r2, #0
 213              	.LBB15:
 214              		.loc 1 79 0
 215 001a 05E0     		b	.L18
 216              	.LVL23:
 217              	.L19:
  80:DISPLAY.c     ****         donnees[z]= donnees[x]; 
 218              		.loc 1 80 0 discriminator 3
 219 001c 56F82310 		ldr	r1, [r6, r3, lsl #2]
 220 0020 46F82210 		str	r1, [r6, r2, lsl #2]
  81:DISPLAY.c     ****         z++; 
 221              		.loc 1 81 0 discriminator 3
 222 0024 0132     		adds	r2, r2, #1
 223              	.LVL24:
  79:DISPLAY.c     ****         donnees[z]= donnees[x]; 
 224              		.loc 1 79 0 discriminator 3
 225 0026 0133     		adds	r3, r3, #1
 226              	.LVL25:
 227              	.L18:
  79:DISPLAY.c     ****         donnees[z]= donnees[x]; 
 228              		.loc 1 79 0 is_stmt 0 discriminator 1
 229 0028 4345     		cmp	r3, r8
 230 002a F7DB     		blt	.L19
 231              	.LVL26:
 232              	.LBE15:
  82:DISPLAY.c     ****         //printf("%d\r\n", donnees[z]);
  83:DISPLAY.c     ****     }
  84:DISPLAY.c     ****    
  85:DISPLAY.c     ****     // D√©termination du maximum et du minimum du signal. Notons que la fonction GUI_DrawGraph ne p
  86:DISPLAY.c     ****     // qu'un vecteur de type uint16_t. Donc, les donn√©es de celui-ci doivent √™tre compris dans l'
  87:DISPLAY.c     ****     //Toutefois, cela n'est pas le cas pour le vecteur du signal √† affich√©, sachant que les donn√
  88:DISPLAY.c     ****     // de 10^5. De ce fait, il est possible de divis√© ce signal par 5 afin de r√©duire ces valeurs
  89:DISPLAY.c     ****     // Ce changement ne comporte aucune perte de donn√©es, simplement une modification physique du 
  90:DISPLAY.c     ****    uint32_t maximum=0; 
  91:DISPLAY.c     ****    uint32_t minimum=0;
  92:DISPLAY.c     ****     
  93:DISPLAY.c     ****    maximum = (maximum_1(donnees, taille))/5;
 233              		.loc 1 93 0 is_stmt 1
 234 002c 2946     		mov	r1, r5
 235 002e 3046     		mov	r0, r6
 236 0030 FFF7FEFF 		bl	maximum_1
 237              	.LVL27:
 238 0034 DFF8D090 		ldr	r9, .L27
 239 0038 A9FB0034 		umull	r3, r4, r9, r0
 240 003c A408     		lsrs	r4, r4, #2
 241              	.LVL28:
  94:DISPLAY.c     ****    minimum= (minimum_1(donnees, size))/5; 
ARM GAS  C:\Users\user\AppData\Local\Temp\ccSIFDDJ.s 			page 7


 242              		.loc 1 94 0
 243 003e 4146     		mov	r1, r8
 244 0040 3046     		mov	r0, r6
 245 0042 FFF7FEFF 		bl	minimum_1
 246              	.LVL29:
 247 0046 A9FB0030 		umull	r3, r0, r9, r0
 248 004a 8008     		lsrs	r0, r0, #2
 249              	.LVL30:
 250              	.LBB16:
  95:DISPLAY.c     ****   
  96:DISPLAY.c     ****    //Modification des valeurs du vecteur signal afin de les adapter aux pixels de l'√©cran E-INK di
  97:DISPLAY.c     ****     
  98:DISPLAY.c     ****     for(int y=0;y<taille;y++){
 251              		.loc 1 98 0
 252 004c 0021     		movs	r1, #0
 253 004e 10E0     		b	.L20
 254              	.LVL31:
 255              	.L21:
  99:DISPLAY.c     ****        data[y]=(((donnees[y]/5)-minimum)*(maximum-minimum))/(2*maximum);
 256              		.loc 1 99 0 discriminator 3
 257 0050 56F82130 		ldr	r3, [r6, r1, lsl #2]
 258 0054 2C4A     		ldr	r2, .L27
 259 0056 A2FB0323 		umull	r2, r3, r2, r3
 260 005a C0EB9303 		rsb	r3, r0, r3, lsr #2
 261 005e 221A     		subs	r2, r4, r0
 262 0060 02FB03F3 		mul	r3, r2, r3
 263 0064 6200     		lsls	r2, r4, #1
 264 0066 B3FBF2F3 		udiv	r3, r3, r2
 265 006a 284A     		ldr	r2, .L27+4
 266 006c 22F81130 		strh	r3, [r2, r1, lsl #1]	@ movhi
  98:DISPLAY.c     ****        data[y]=(((donnees[y]/5)-minimum)*(maximum-minimum))/(2*maximum);
 267              		.loc 1 98 0 discriminator 3
 268 0070 0131     		adds	r1, r1, #1
 269              	.LVL32:
 270              	.L20:
  98:DISPLAY.c     ****        data[y]=(((donnees[y]/5)-minimum)*(maximum-minimum))/(2*maximum);
 271              		.loc 1 98 0 is_stmt 0 discriminator 1
 272 0072 A942     		cmp	r1, r5
 273 0074 ECDB     		blt	.L21
 274 0076 0023     		movs	r3, #0
 275 0078 1A46     		mov	r2, r3
 276 007a 07E0     		b	.L22
 277              	.LVL33:
 278              	.L23:
 279              	.LBE16:
 280              	.LBB17:
 100:DISPLAY.c     ****     }
 101:DISPLAY.c     ****     
 102:DISPLAY.c     ****     // Espacement des donn√©es √† afficher du vecteur signal afin d'obtenir un signal global 
 103:DISPLAY.c     ****     int a=0; 
 104:DISPLAY.c     ****         for (int b=0; b<taille;  b+=espacement) {  
 105:DISPLAY.c     ****             vecteurespacee[a]= data[b]; 
 281              		.loc 1 105 0 is_stmt 1 discriminator 3
 282 007c 2349     		ldr	r1, .L27+4
 283 007e 31F91300 		ldrsh	r0, [r1, r3, lsl #1]
 284 0082 2349     		ldr	r1, .L27+8
 285 0084 21F81200 		strh	r0, [r1, r2, lsl #1]	@ movhi
ARM GAS  C:\Users\user\AppData\Local\Temp\ccSIFDDJ.s 			page 8


 106:DISPLAY.c     ****             a++; 
 286              		.loc 1 106 0 discriminator 3
 287 0088 0132     		adds	r2, r2, #1
 288              	.LVL34:
 104:DISPLAY.c     ****             vecteurespacee[a]= data[b]; 
 289              		.loc 1 104 0 discriminator 3
 290 008a 3B44     		add	r3, r3, r7
 291              	.LVL35:
 292              	.L22:
 104:DISPLAY.c     ****             vecteurespacee[a]= data[b]; 
 293              		.loc 1 104 0 is_stmt 0 discriminator 1
 294 008c AB42     		cmp	r3, r5
 295 008e F5DB     		blt	.L23
 296              	.LBE17:
 107:DISPLAY.c     ****             
 108:DISPLAY.c     ****         }
 109:DISPLAY.c     ****         
 110:DISPLAY.c     ****     // Affichage de la page principal
 111:DISPLAY.c     ****     GUI_DrawGraph(vecteurespacee, 250, 5,20); //250 est la taille du vecteurespacee, donc changer c
 297              		.loc 1 111 0 is_stmt 1
 298 0090 1423     		movs	r3, #20
 299              	.LVL36:
 300 0092 0522     		movs	r2, #5
 301              	.LVL37:
 302 0094 FA21     		movs	r1, #250
 303 0096 1E48     		ldr	r0, .L27+8
 304 0098 FFF7FEFF 		bl	GUI_DrawGraph
 305              	.LVL38:
 112:DISPLAY.c     ****     
 113:DISPLAY.c     ****     GUI_DrawRect(1,1,263,125);
 306              		.loc 1 113 0
 307 009c 7D23     		movs	r3, #125
 308 009e 40F20712 		movw	r2, #263
 309 00a2 0121     		movs	r1, #1
 310 00a4 0846     		mov	r0, r1
 311 00a6 FFF7FEFF 		bl	GUI_DrawRect
 312              	.LVL39:
 114:DISPLAY.c     ****     GUI_DrawRect(153,129,263,175);
 313              		.loc 1 114 0
 314 00aa AF23     		movs	r3, #175
 315 00ac 40F20712 		movw	r2, #263
 316 00b0 8121     		movs	r1, #129
 317 00b2 9920     		movs	r0, #153
 318 00b4 FFF7FEFF 		bl	GUI_DrawRect
 319              	.LVL40:
 115:DISPLAY.c     ****     GUI_DispStringAt ("COURBE AFFICHEE:", 160, 133);
 320              		.loc 1 115 0
 321 00b8 8522     		movs	r2, #133
 322 00ba A021     		movs	r1, #160
 323 00bc 1548     		ldr	r0, .L27+12
 324 00be FFF7FEFF 		bl	GUI_DispStringAt
 325              	.LVL41:
 116:DISPLAY.c     ****     GUI_SetFont(GUI_FONT_16B_1);
 326              		.loc 1 116 0
 327 00c2 1548     		ldr	r0, .L27+16
 328 00c4 FFF7FEFF 		bl	GUI_SetFont
 329              	.LVL42:
ARM GAS  C:\Users\user\AppData\Local\Temp\ccSIFDDJ.s 			page 9


 117:DISPLAY.c     ****     GUI_DispStringAt ("SPECTRE", 155, 143);
 330              		.loc 1 117 0
 331 00c8 8F22     		movs	r2, #143
 332 00ca 9B21     		movs	r1, #155
 333 00cc 1348     		ldr	r0, .L27+20
 334 00ce FFF7FEFF 		bl	GUI_DispStringAt
 335              	.LVL43:
 118:DISPLAY.c     ****        
 119:DISPLAY.c     ****         if (currentScreen.TYPEGRAPH){GUI_DispStringAt ("INFRAROUGE", 155, 157);}
 336              		.loc 1 119 0
 337 00d2 134B     		ldr	r3, .L27+24
 338 00d4 5B79     		ldrb	r3, [r3, #5]	@ zero_extendqisi2
 339 00d6 13F0FF0F 		tst	r3, #255
 340 00da 04D0     		beq	.L24
 341              		.loc 1 119 0 is_stmt 0 discriminator 1
 342 00dc 9D22     		movs	r2, #157
 343 00de 9B21     		movs	r1, #155
 344 00e0 1048     		ldr	r0, .L27+28
 345 00e2 FFF7FEFF 		bl	GUI_DispStringAt
 346              	.LVL44:
 347              	.L24:
 120:DISPLAY.c     ****         if (currentScreen.TYPEGRAPH==0) {GUI_DispStringAt ( "ROUGE", 155, 157);}
 348              		.loc 1 120 0 is_stmt 1
 349 00e6 0E4B     		ldr	r3, .L27+24
 350 00e8 5B79     		ldrb	r3, [r3, #5]	@ zero_extendqisi2
 351 00ea 13F0FF0F 		tst	r3, #255
 352 00ee 04D1     		bne	.L25
 353              		.loc 1 120 0 is_stmt 0 discriminator 1
 354 00f0 9D22     		movs	r2, #157
 355 00f2 9B21     		movs	r1, #155
 356 00f4 0C48     		ldr	r0, .L27+32
 357 00f6 FFF7FEFF 		bl	GUI_DispStringAt
 358              	.LVL45:
 359              	.L25:
 121:DISPLAY.c     ****     
 122:DISPLAY.c     ****     UpdateDisplay(CY_EINK_FULL_4STAGE, true);   
 360              		.loc 1 122 0 is_stmt 1
 361 00fa 0121     		movs	r1, #1
 362 00fc 0846     		mov	r0, r1
 363 00fe FFF7FEFF 		bl	UpdateDisplay
 364              	.LVL46:
 365 0102 BDE8F883 		pop	{r3, r4, r5, r6, r7, r8, r9, pc}
 366              	.LVL47:
 367              	.L28:
 368 0106 00BF     		.align	2
 369              	.L27:
 370 0108 CDCCCCCC 		.word	-858993459
 371 010c 00000000 		.word	data
 372 0110 00000000 		.word	vecteurespacee
 373 0114 00000000 		.word	.LC0
 374 0118 00000000 		.word	GUI_Font16B_1
 375 011c 14000000 		.word	.LC1
 376 0120 00000000 		.word	currentScreen
 377 0124 1C000000 		.word	.LC2
 378 0128 28000000 		.word	.LC3
 379              		.cfi_endproc
 380              	.LFE696:
ARM GAS  C:\Users\user\AppData\Local\Temp\ccSIFDDJ.s 			page 10


 381              		.size	drawGraph, .-drawGraph
 382              		.section	.text.updateParameters,"ax",%progbits
 383              		.align	2
 384              		.global	updateParameters
 385              		.thumb
 386              		.thumb_func
 387              		.type	updateParameters, %function
 388              	updateParameters:
 389              	.LFB697:
 123:DISPLAY.c     ****     
 124:DISPLAY.c     **** }
 125:DISPLAY.c     **** 
 126:DISPLAY.c     **** // Fonction qui permet d'afficher les param√®tres de la fr√©quence cardiaque et le taux d'oxyg√®ne 
 127:DISPLAY.c     **** // sur la page principale 
 128:DISPLAY.c     **** void updateParameters(int param1, int param2){
 390              		.loc 1 128 0
 391              		.cfi_startproc
 392              		@ args = 0, pretend = 0, frame = 104
 393              		@ frame_needed = 0, uses_anonymous_args = 0
 394              	.LVL48:
 395 0000 30B5     		push	{r4, r5, lr}
 396              		.cfi_def_cfa_offset 12
 397              		.cfi_offset 4, -12
 398              		.cfi_offset 5, -8
 399              		.cfi_offset 14, -4
 400 0002 9BB0     		sub	sp, sp, #108
 401              		.cfi_def_cfa_offset 120
 402 0004 0546     		mov	r5, r0
 403 0006 0C46     		mov	r4, r1
 129:DISPLAY.c     ****     
 130:DISPLAY.c     ****     GUI_Clear(); 
 404              		.loc 1 130 0
 405 0008 FFF7FEFF 		bl	GUI_Clear
 406              	.LVL49:
 131:DISPLAY.c     ****     char frequence[50];
 132:DISPLAY.c     ****     char Saturation[50];
 133:DISPLAY.c     ****     sprintf(frequence,"Frequence cardiaque: %d ",param1);
 407              		.loc 1 133 0
 408 000c 2A46     		mov	r2, r5
 409 000e 1349     		ldr	r1, .L31
 410 0010 0DA8     		add	r0, sp, #52
 411 0012 FFF7FEFF 		bl	sprintf
 412              	.LVL50:
 134:DISPLAY.c     ****     sprintf(Saturation,"Taux d'oxygene: %d ",param2);
 413              		.loc 1 134 0
 414 0016 2246     		mov	r2, r4
 415 0018 1149     		ldr	r1, .L31+4
 416 001a 6846     		mov	r0, sp
 417 001c FFF7FEFF 		bl	sprintf
 418              	.LVL51:
 135:DISPLAY.c     ****     
 136:DISPLAY.c     ****     GUI_SetFont(GUI_FONT_8_1);
 419              		.loc 1 136 0
 420 0020 1048     		ldr	r0, .L31+8
 421 0022 FFF7FEFF 		bl	GUI_SetFont
 422              	.LVL52:
 137:DISPLAY.c     ****     GUI_DispStringAt(frequence, 3, 140); 
ARM GAS  C:\Users\user\AppData\Local\Temp\ccSIFDDJ.s 			page 11


 423              		.loc 1 137 0
 424 0026 8C22     		movs	r2, #140
 425 0028 0321     		movs	r1, #3
 426 002a 0DA8     		add	r0, sp, #52
 427 002c FFF7FEFF 		bl	GUI_DispStringAt
 428              	.LVL53:
 138:DISPLAY.c     ****     GUI_DispStringAt("BPM ", 125, 140);     
 429              		.loc 1 138 0
 430 0030 8C22     		movs	r2, #140
 431 0032 7D21     		movs	r1, #125
 432 0034 0C48     		ldr	r0, .L31+12
 433 0036 FFF7FEFF 		bl	GUI_DispStringAt
 434              	.LVL54:
 139:DISPLAY.c     ****     GUI_DispStringAt(Saturation, 3, 160);
 435              		.loc 1 139 0
 436 003a A022     		movs	r2, #160
 437 003c 0321     		movs	r1, #3
 438 003e 6846     		mov	r0, sp
 439 0040 FFF7FEFF 		bl	GUI_DispStringAt
 440              	.LVL55:
 140:DISPLAY.c     ****     GUI_DispStringAt(" %", 98, 160);     
 441              		.loc 1 140 0
 442 0044 A022     		movs	r2, #160
 443 0046 6221     		movs	r1, #98
 444 0048 0848     		ldr	r0, .L31+16
 445 004a FFF7FEFF 		bl	GUI_DispStringAt
 446              	.LVL56:
 141:DISPLAY.c     ****     
 142:DISPLAY.c     ****     UpdateDisplay(CY_EINK_FULL_4STAGE, true);
 447              		.loc 1 142 0
 448 004e 0121     		movs	r1, #1
 449 0050 0846     		mov	r0, r1
 450 0052 FFF7FEFF 		bl	UpdateDisplay
 451              	.LVL57:
 143:DISPLAY.c     **** }
 452              		.loc 1 143 0
 453 0056 1BB0     		add	sp, sp, #108
 454              		.cfi_def_cfa_offset 12
 455              		@ sp needed
 456 0058 30BD     		pop	{r4, r5, pc}
 457              	.LVL58:
 458              	.L32:
 459 005a 00BF     		.align	2
 460              	.L31:
 461 005c 30000000 		.word	.LC4
 462 0060 4C000000 		.word	.LC5
 463 0064 00000000 		.word	GUI_Font8_1
 464 0068 60000000 		.word	.LC6
 465 006c 68000000 		.word	.LC7
 466              		.cfi_endproc
 467              	.LFE697:
 468              		.size	updateParameters, .-updateParameters
 469              		.section	.text.DrawMenu,"ax",%progbits
 470              		.align	2
 471              		.global	DrawMenu
 472              		.thumb
 473              		.thumb_func
ARM GAS  C:\Users\user\AppData\Local\Temp\ccSIFDDJ.s 			page 12


 474              		.type	DrawMenu, %function
 475              	DrawMenu:
 476              	.LFB698:
 144:DISPLAY.c     **** 
 145:DISPLAY.c     **** // Fonction qui permet de tra√ßer la page MENU avec la position du curseur √† l'endroit d√©sir√© 
 146:DISPLAY.c     **** void DrawMenu ( uint8_t pos_curseur) { 
 477              		.loc 1 146 0
 478              		.cfi_startproc
 479              		@ args = 0, pretend = 0, frame = 0
 480              		@ frame_needed = 0, uses_anonymous_args = 0
 481              	.LVL59:
 482 0000 10B5     		push	{r4, lr}
 483              		.cfi_def_cfa_offset 8
 484              		.cfi_offset 4, -8
 485              		.cfi_offset 14, -4
 486 0002 0446     		mov	r4, r0
 147:DISPLAY.c     ****     
 148:DISPLAY.c     ****     GUI_Clear(); 
 487              		.loc 1 148 0
 488 0004 FFF7FEFF 		bl	GUI_Clear
 489              	.LVL60:
 149:DISPLAY.c     ****     GUI_SetFont(GUI_FONT_32B_1);
 490              		.loc 1 149 0
 491 0008 1848     		ldr	r0, .L35
 492 000a FFF7FEFF 		bl	GUI_SetFont
 493              	.LVL61:
 150:DISPLAY.c     ****     GUI_SetTextAlign(GUI_TA_CENTER);
 494              		.loc 1 150 0
 495 000e 0220     		movs	r0, #2
 496 0010 FFF7FEFF 		bl	GUI_SetTextAlign
 497              	.LVL62:
 151:DISPLAY.c     ****     GUI_DispStringAt("MENU", 132, 2);
 498              		.loc 1 151 0
 499 0014 0222     		movs	r2, #2
 500 0016 8421     		movs	r1, #132
 501 0018 1548     		ldr	r0, .L35+4
 502 001a FFF7FEFF 		bl	GUI_DispStringAt
 503              	.LVL63:
 152:DISPLAY.c     ****         GUI_SetFont(GUI_FONT_8_1);
 504              		.loc 1 152 0
 505 001e 1548     		ldr	r0, .L35+8
 506 0020 FFF7FEFF 		bl	GUI_SetFont
 507              	.LVL64:
 153:DISPLAY.c     ****     GUI_DispStringAt ("ETAT DE L'ALARME D'ACCELERATION", 15, 40);
 508              		.loc 1 153 0
 509 0024 2822     		movs	r2, #40
 510 0026 0F21     		movs	r1, #15
 511 0028 1348     		ldr	r0, .L35+12
 512 002a FFF7FEFF 		bl	GUI_DispStringAt
 513              	.LVL65:
 154:DISPLAY.c     ****     GUI_DispStringAt ("MODIFICATION DU COURANT DES LEDS", 15, 70);
 514              		.loc 1 154 0
 515 002e 4622     		movs	r2, #70
 516 0030 0F21     		movs	r1, #15
 517 0032 1248     		ldr	r0, .L35+16
 518 0034 FFF7FEFF 		bl	GUI_DispStringAt
 519              	.LVL66:
ARM GAS  C:\Users\user\AppData\Local\Temp\ccSIFDDJ.s 			page 13


 155:DISPLAY.c     ****     GUI_DispStringAt ("BORNE SUPERIEUR- RYTHME CARDIAQUE", 15, 100); 
 520              		.loc 1 155 0
 521 0038 6422     		movs	r2, #100
 522 003a 0F21     		movs	r1, #15
 523 003c 1048     		ldr	r0, .L35+20
 524 003e FFF7FEFF 		bl	GUI_DispStringAt
 525              	.LVL67:
 156:DISPLAY.c     ****     GUI_DispStringAt ("BORNE INFERIEUR- RYTHME CARDIAQUE", 15, 130); 
 526              		.loc 1 156 0
 527 0042 8222     		movs	r2, #130
 528 0044 0F21     		movs	r1, #15
 529 0046 0F48     		ldr	r0, .L35+24
 530 0048 FFF7FEFF 		bl	GUI_DispStringAt
 531              	.LVL68:
 157:DISPLAY.c     ****     GUI_DispStringAt ("ETAT DE L'ALARME DE LA FC", 15, 160);
 532              		.loc 1 157 0
 533 004c A022     		movs	r2, #160
 534 004e 0F21     		movs	r1, #15
 535 0050 0D48     		ldr	r0, .L35+28
 536 0052 FFF7FEFF 		bl	GUI_DispStringAt
 537              	.LVL69:
 158:DISPLAY.c     ****     GUI_DrawCircle (4, pos_curseur+2, 3);
 538              		.loc 1 158 0
 539 0056 0322     		movs	r2, #3
 540 0058 A11C     		adds	r1, r4, #2
 541 005a 0420     		movs	r0, #4
 542 005c FFF7FEFF 		bl	GUI_DrawCircle
 543              	.LVL70:
 159:DISPLAY.c     ****     UpdateDisplay(CY_EINK_FULL_4STAGE, true);
 544              		.loc 1 159 0
 545 0060 0121     		movs	r1, #1
 546 0062 0846     		mov	r0, r1
 547 0064 FFF7FEFF 		bl	UpdateDisplay
 548              	.LVL71:
 549 0068 10BD     		pop	{r4, pc}
 550              	.L36:
 551 006a 00BF     		.align	2
 552              	.L35:
 553 006c 00000000 		.word	GUI_Font32B_1
 554 0070 6C000000 		.word	.LC8
 555 0074 00000000 		.word	GUI_Font8_1
 556 0078 74000000 		.word	.LC9
 557 007c 94000000 		.word	.LC10
 558 0080 B8000000 		.word	.LC11
 559 0084 DC000000 		.word	.LC12
 560 0088 00010000 		.word	.LC13
 561              		.cfi_endproc
 562              	.LFE698:
 563              		.size	DrawMenu, .-DrawMenu
 564              		.section	.text.DrawOption1,"ax",%progbits
 565              		.align	2
 566              		.global	DrawOption1
 567              		.thumb
 568              		.thumb_func
 569              		.type	DrawOption1, %function
 570              	DrawOption1:
 571              	.LFB699:
ARM GAS  C:\Users\user\AppData\Local\Temp\ccSIFDDJ.s 			page 14


 160:DISPLAY.c     **** } 
 161:DISPLAY.c     **** // Fonction qui permet d'afficher l'OPTION 1 de MENU 
 162:DISPLAY.c     **** void DrawOption1 ()
 163:DISPLAY.c     **** {       
 572              		.loc 1 163 0
 573              		.cfi_startproc
 574              		@ args = 0, pretend = 0, frame = 0
 575              		@ frame_needed = 0, uses_anonymous_args = 0
 576 0000 10B5     		push	{r4, lr}
 577              		.cfi_def_cfa_offset 8
 578              		.cfi_offset 4, -8
 579              		.cfi_offset 14, -4
 164:DISPLAY.c     ****           GUI_Clear(); 
 580              		.loc 1 164 0
 581 0002 FFF7FEFF 		bl	GUI_Clear
 582              	.LVL72:
 165:DISPLAY.c     ****     GUI_SetFont(GUI_FONT_16_1);
 583              		.loc 1 165 0
 584 0006 164C     		ldr	r4, .L39
 585 0008 2046     		mov	r0, r4
 586 000a FFF7FEFF 		bl	GUI_SetFont
 587              	.LVL73:
 166:DISPLAY.c     ****     GUI_SetTextAlign(GUI_TA_CENTER);
 588              		.loc 1 166 0
 589 000e 0220     		movs	r0, #2
 590 0010 FFF7FEFF 		bl	GUI_SetTextAlign
 591              	.LVL74:
 167:DISPLAY.c     ****     GUI_DispStringAt("ALARME D'ACCELERATION", 132, 20);
 592              		.loc 1 167 0
 593 0014 1422     		movs	r2, #20
 594 0016 8421     		movs	r1, #132
 595 0018 1248     		ldr	r0, .L39+4
 596 001a FFF7FEFF 		bl	GUI_DispStringAt
 597              	.LVL75:
 168:DISPLAY.c     ****     GUI_DrawLine(48,34,215,34);
 598              		.loc 1 168 0
 599 001e 2223     		movs	r3, #34
 600 0020 D722     		movs	r2, #215
 601 0022 1946     		mov	r1, r3
 602 0024 3020     		movs	r0, #48
 603 0026 FFF7FEFF 		bl	GUI_DrawLine
 604              	.LVL76:
 169:DISPLAY.c     ****         GUI_SetFont(GUI_FONT_8_1);
 605              		.loc 1 169 0
 606 002a 0F48     		ldr	r0, .L39+8
 607 002c FFF7FEFF 		bl	GUI_SetFont
 608              	.LVL77:
 170:DISPLAY.c     ****     GUI_DispStringAt ("APPUYE SUR LE BOUTON 00 POUR ACTIVER L'ALARME", 10, 70);
 609              		.loc 1 170 0
 610 0030 4622     		movs	r2, #70
 611 0032 0A21     		movs	r1, #10
 612 0034 0D48     		ldr	r0, .L39+12
 613 0036 FFF7FEFF 		bl	GUI_DispStringAt
 614              	.LVL78:
 171:DISPLAY.c     ****     GUI_DispStringAt ("APPUYE SUR LE BOUTON 01 POUR DESACTIVER L'ALARME", 3, 100); 
 615              		.loc 1 171 0
 616 003a 6422     		movs	r2, #100
ARM GAS  C:\Users\user\AppData\Local\Temp\ccSIFDDJ.s 			page 15


 617 003c 0321     		movs	r1, #3
 618 003e 0C48     		ldr	r0, .L39+16
 619 0040 FFF7FEFF 		bl	GUI_DispStringAt
 620              	.LVL79:
 172:DISPLAY.c     ****      GUI_DrawRect(7,120,230,160);
 621              		.loc 1 172 0
 622 0044 A023     		movs	r3, #160
 623 0046 E622     		movs	r2, #230
 624 0048 7821     		movs	r1, #120
 625 004a 0720     		movs	r0, #7
 626 004c FFF7FEFF 		bl	GUI_DrawRect
 627              	.LVL80:
 173:DISPLAY.c     ****      GUI_SetFont(GUI_FONT_16_1);
 628              		.loc 1 173 0
 629 0050 2046     		mov	r0, r4
 630 0052 FFF7FEFF 		bl	GUI_SetFont
 631              	.LVL81:
 174:DISPLAY.c     ****     UpdateDisplay(CY_EINK_FULL_4STAGE, true);
 632              		.loc 1 174 0
 633 0056 0121     		movs	r1, #1
 634 0058 0846     		mov	r0, r1
 635 005a FFF7FEFF 		bl	UpdateDisplay
 636              	.LVL82:
 637 005e 10BD     		pop	{r4, pc}
 638              	.L40:
 639              		.align	2
 640              	.L39:
 641 0060 00000000 		.word	GUI_Font16_1
 642 0064 1C010000 		.word	.LC14
 643 0068 00000000 		.word	GUI_Font8_1
 644 006c 34010000 		.word	.LC15
 645 0070 64010000 		.word	.LC16
 646              		.cfi_endproc
 647              	.LFE699:
 648              		.size	DrawOption1, .-DrawOption1
 649              		.section	.text.DrawOption2,"ax",%progbits
 650              		.align	2
 651              		.global	DrawOption2
 652              		.thumb
 653              		.thumb_func
 654              		.type	DrawOption2, %function
 655              	DrawOption2:
 656              	.LFB700:
 175:DISPLAY.c     **** } 
 176:DISPLAY.c     **** 
 177:DISPLAY.c     **** // Fonction qui permet d'afficher l'OPTION 2 du MENU
 178:DISPLAY.c     **** void DrawOption2 ()
 179:DISPLAY.c     **** {         GUI_Clear(); 
 657              		.loc 1 179 0
 658              		.cfi_startproc
 659              		@ args = 0, pretend = 0, frame = 0
 660              		@ frame_needed = 0, uses_anonymous_args = 0
 661 0000 10B5     		push	{r4, lr}
 662              		.cfi_def_cfa_offset 8
 663              		.cfi_offset 4, -8
 664              		.cfi_offset 14, -4
 665              		.loc 1 179 0
ARM GAS  C:\Users\user\AppData\Local\Temp\ccSIFDDJ.s 			page 16


 666 0002 FFF7FEFF 		bl	GUI_Clear
 667              	.LVL83:
 180:DISPLAY.c     ****     GUI_SetFont(GUI_FONT_32B_1);
 668              		.loc 1 180 0
 669 0006 2348     		ldr	r0, .L43
 670 0008 FFF7FEFF 		bl	GUI_SetFont
 671              	.LVL84:
 181:DISPLAY.c     ****     GUI_SetTextAlign(GUI_TA_CENTER);
 672              		.loc 1 181 0
 673 000c 0220     		movs	r0, #2
 674 000e FFF7FEFF 		bl	GUI_SetTextAlign
 675              	.LVL85:
 182:DISPLAY.c     ****     GUI_DispStringAt("COURANT DELs", 132, 20);
 676              		.loc 1 182 0
 677 0012 1422     		movs	r2, #20
 678 0014 8421     		movs	r1, #132
 679 0016 2048     		ldr	r0, .L43+4
 680 0018 FFF7FEFF 		bl	GUI_DispStringAt
 681              	.LVL86:
 183:DISPLAY.c     ****     GUI_DrawLine(20,50,240,50);
 682              		.loc 1 183 0
 683 001c 3223     		movs	r3, #50
 684 001e F022     		movs	r2, #240
 685 0020 1946     		mov	r1, r3
 686 0022 1420     		movs	r0, #20
 687 0024 FFF7FEFF 		bl	GUI_DrawLine
 688              	.LVL87:
 184:DISPLAY.c     ****         GUI_SetFont(GUI_FONT_8_1);
 689              		.loc 1 184 0
 690 0028 1C48     		ldr	r0, .L43+8
 691 002a FFF7FEFF 		bl	GUI_SetFont
 692              	.LVL88:
 185:DISPLAY.c     ****        GUI_SetTextAlign(GUI_TA_CENTER);
 693              		.loc 1 185 0
 694 002e 0220     		movs	r0, #2
 695 0030 FFF7FEFF 		bl	GUI_SetTextAlign
 696              	.LVL89:
 186:DISPLAY.c     ****     GUI_DispStringAt ("LE COURANT CONFIGURE DES LEDS", 132, 70);
 697              		.loc 1 186 0
 698 0034 4622     		movs	r2, #70
 699 0036 8421     		movs	r1, #132
 700 0038 1948     		ldr	r0, .L43+12
 701 003a FFF7FEFF 		bl	GUI_DispStringAt
 702              	.LVL90:
 187:DISPLAY.c     ****     GUI_SetTextAlign(GUI_TA_CENTER);
 703              		.loc 1 187 0
 704 003e 0220     		movs	r0, #2
 705 0040 FFF7FEFF 		bl	GUI_SetTextAlign
 706              	.LVL91:
 188:DISPLAY.c     ****     GUI_DispStringAt ("DU CAPTEUR SPO2 MAX30102 EST:", 132, 80);
 707              		.loc 1 188 0
 708 0044 5022     		movs	r2, #80
 709 0046 8421     		movs	r1, #132
 710 0048 1648     		ldr	r0, .L43+16
 711 004a FFF7FEFF 		bl	GUI_DispStringAt
 712              	.LVL92:
 189:DISPLAY.c     ****     GUI_SetFont(GUI_FONT_16B_1);
ARM GAS  C:\Users\user\AppData\Local\Temp\ccSIFDDJ.s 			page 17


 713              		.loc 1 189 0
 714 004e 1648     		ldr	r0, .L43+20
 715 0050 FFF7FEFF 		bl	GUI_SetFont
 716              	.LVL93:
 190:DISPLAY.c     ****     GUI_DrawLine(114,140,153,140);
 717              		.loc 1 190 0
 718 0054 8C23     		movs	r3, #140
 719 0056 9922     		movs	r2, #153
 720 0058 1946     		mov	r1, r3
 721 005a 7220     		movs	r0, #114
 722 005c FFF7FEFF 		bl	GUI_DrawLine
 723              	.LVL94:
 191:DISPLAY.c     ****    GUI_SetTextAlign(GUI_TA_CENTER);
 724              		.loc 1 191 0
 725 0060 0220     		movs	r0, #2
 726 0062 FFF7FEFF 		bl	GUI_SetTextAlign
 727              	.LVL95:
 192:DISPLAY.c     ****    sprintf(buffer,"%d\n\r",courant);
 728              		.loc 1 192 0
 729 0066 114B     		ldr	r3, .L43+24
 730 0068 1A78     		ldrb	r2, [r3]	@ zero_extendqisi2
 731 006a 114C     		ldr	r4, .L43+28
 732 006c 1149     		ldr	r1, .L43+32
 733 006e 2046     		mov	r0, r4
 734 0070 FFF7FEFF 		bl	sprintf
 735              	.LVL96:
 193:DISPLAY.c     ****      GUI_DispStringAt (buffer, 125, 120);
 736              		.loc 1 193 0
 737 0074 7822     		movs	r2, #120
 738 0076 7D21     		movs	r1, #125
 739 0078 2046     		mov	r0, r4
 740 007a FFF7FEFF 		bl	GUI_DispStringAt
 741              	.LVL97:
 194:DISPLAY.c     ****     GUI_DispStringAt ("mA", 132, 120);
 742              		.loc 1 194 0
 743 007e 7822     		movs	r2, #120
 744 0080 8421     		movs	r1, #132
 745 0082 0D48     		ldr	r0, .L43+36
 746 0084 FFF7FEFF 		bl	GUI_DispStringAt
 747              	.LVL98:
 195:DISPLAY.c     ****     UpdateDisplay(CY_EINK_FULL_4STAGE, true);
 748              		.loc 1 195 0
 749 0088 0121     		movs	r1, #1
 750 008a 0846     		mov	r0, r1
 751 008c FFF7FEFF 		bl	UpdateDisplay
 752              	.LVL99:
 753 0090 10BD     		pop	{r4, pc}
 754              	.L44:
 755 0092 00BF     		.align	2
 756              	.L43:
 757 0094 00000000 		.word	GUI_Font32B_1
 758 0098 98010000 		.word	.LC17
 759 009c 00000000 		.word	GUI_Font8_1
 760 00a0 A8010000 		.word	.LC18
 761 00a4 C8010000 		.word	.LC19
 762 00a8 00000000 		.word	GUI_Font16B_1
 763 00ac 00000000 		.word	courant
ARM GAS  C:\Users\user\AppData\Local\Temp\ccSIFDDJ.s 			page 18


 764 00b0 00000000 		.word	buffer
 765 00b4 E8010000 		.word	.LC20
 766 00b8 F0010000 		.word	.LC21
 767              		.cfi_endproc
 768              	.LFE700:
 769              		.size	DrawOption2, .-DrawOption2
 770              		.section	.text.DrawOption3_superieur,"ax",%progbits
 771              		.align	2
 772              		.global	DrawOption3_superieur
 773              		.thumb
 774              		.thumb_func
 775              		.type	DrawOption3_superieur, %function
 776              	DrawOption3_superieur:
 777              	.LFB701:
 196:DISPLAY.c     **** }
 197:DISPLAY.c     **** // Fonction qui permet d'afficher l'OPTION du MENU qui permet de d√©finir la borne sup√©rieure 
 198:DISPLAY.c     **** // de l'intervall de la fr√©quence cardiaque desir√©e 
 199:DISPLAY.c     **** void DrawOption3_superieur (){    
 778              		.loc 1 199 0
 779              		.cfi_startproc
 780              		@ args = 0, pretend = 0, frame = 0
 781              		@ frame_needed = 0, uses_anonymous_args = 0
 782 0000 10B5     		push	{r4, lr}
 783              		.cfi_def_cfa_offset 8
 784              		.cfi_offset 4, -8
 785              		.cfi_offset 14, -4
 200:DISPLAY.c     ****    GUI_Clear(); 
 786              		.loc 1 200 0
 787 0002 FFF7FEFF 		bl	GUI_Clear
 788              	.LVL100:
 201:DISPLAY.c     ****     GUI_SetFont(GUI_FONT_8_1);
 789              		.loc 1 201 0
 790 0006 1D4C     		ldr	r4, .L47
 791 0008 2046     		mov	r0, r4
 792 000a FFF7FEFF 		bl	GUI_SetFont
 793              	.LVL101:
 202:DISPLAY.c     ****     GUI_SetTextAlign(GUI_TA_CENTER);
 794              		.loc 1 202 0
 795 000e 0220     		movs	r0, #2
 796 0010 FFF7FEFF 		bl	GUI_SetTextAlign
 797              	.LVL102:
 203:DISPLAY.c     ****     GUI_DispStringAt("DEFINITION DE L'INTERVALLE DE L'ALARME", 132, 20);
 798              		.loc 1 203 0
 799 0014 1422     		movs	r2, #20
 800 0016 8421     		movs	r1, #132
 801 0018 1948     		ldr	r0, .L47+4
 802 001a FFF7FEFF 		bl	GUI_DispStringAt
 803              	.LVL103:
 204:DISPLAY.c     ****     GUI_DrawLine(25,30,240,30);
 804              		.loc 1 204 0
 805 001e 1E23     		movs	r3, #30
 806 0020 F022     		movs	r2, #240
 807 0022 1946     		mov	r1, r3
 808 0024 1920     		movs	r0, #25
 809 0026 FFF7FEFF 		bl	GUI_DrawLine
 810              	.LVL104:
 205:DISPLAY.c     ****     GUI_SetFont(GUI_FONT_8_1);
ARM GAS  C:\Users\user\AppData\Local\Temp\ccSIFDDJ.s 			page 19


 811              		.loc 1 205 0
 812 002a 2046     		mov	r0, r4
 813 002c FFF7FEFF 		bl	GUI_SetFont
 814              	.LVL105:
 206:DISPLAY.c     ****     GUI_DispStringAt ("DEFINIISSEZ LA BORNE SUPERIEUR DE LA FC", 10, 70);
 815              		.loc 1 206 0
 816 0030 4622     		movs	r2, #70
 817 0032 0A21     		movs	r1, #10
 818 0034 1348     		ldr	r0, .L47+8
 819 0036 FFF7FEFF 		bl	GUI_DispStringAt
 820              	.LVL106:
 207:DISPLAY.c     ****     GUI_SetFont(GUI_FONT_16_1);
 821              		.loc 1 207 0
 822 003a 1348     		ldr	r0, .L47+12
 823 003c FFF7FEFF 		bl	GUI_SetFont
 824              	.LVL107:
 208:DISPLAY.c     ****     GUI_DispStringAt ("BORNE SUPERIEUR: ", 10, 110);
 825              		.loc 1 208 0
 826 0040 6E22     		movs	r2, #110
 827 0042 0A21     		movs	r1, #10
 828 0044 1148     		ldr	r0, .L47+16
 829 0046 FFF7FEFF 		bl	GUI_DispStringAt
 830              	.LVL108:
 209:DISPLAY.c     ****     GUI_SetFont(GUI_FONT_32B_1);
 831              		.loc 1 209 0
 832 004a 1148     		ldr	r0, .L47+20
 833 004c FFF7FEFF 		bl	GUI_SetFont
 834              	.LVL109:
 210:DISPLAY.c     ****     sprintf(buffer,"%d\n\r",borne_superieur);
 835              		.loc 1 210 0
 836 0050 104C     		ldr	r4, .L47+24
 837 0052 114B     		ldr	r3, .L47+28
 838 0054 1A78     		ldrb	r2, [r3]	@ zero_extendqisi2
 839 0056 1149     		ldr	r1, .L47+32
 840 0058 2046     		mov	r0, r4
 841 005a FFF7FEFF 		bl	sprintf
 842              	.LVL110:
 211:DISPLAY.c     ****      GUI_DispStringAt (buffer, 139, 99);
 843              		.loc 1 211 0
 844 005e 6322     		movs	r2, #99
 845 0060 8B21     		movs	r1, #139
 846 0062 2046     		mov	r0, r4
 847 0064 FFF7FEFF 		bl	GUI_DispStringAt
 848              	.LVL111:
 212:DISPLAY.c     ****      GUI_DispStringAt ("BPM ", 187, 98);
 849              		.loc 1 212 0
 850 0068 6222     		movs	r2, #98
 851 006a BB21     		movs	r1, #187
 852 006c 0C48     		ldr	r0, .L47+36
 853 006e FFF7FEFF 		bl	GUI_DispStringAt
 854              	.LVL112:
 213:DISPLAY.c     ****      UpdateDisplay(CY_EINK_FULL_4STAGE, true); 
 855              		.loc 1 213 0
 856 0072 0121     		movs	r1, #1
 857 0074 0846     		mov	r0, r1
 858 0076 FFF7FEFF 		bl	UpdateDisplay
 859              	.LVL113:
ARM GAS  C:\Users\user\AppData\Local\Temp\ccSIFDDJ.s 			page 20


 860 007a 10BD     		pop	{r4, pc}
 861              	.L48:
 862              		.align	2
 863              	.L47:
 864 007c 00000000 		.word	GUI_Font8_1
 865 0080 F4010000 		.word	.LC22
 866 0084 1C020000 		.word	.LC23
 867 0088 00000000 		.word	GUI_Font16_1
 868 008c 44020000 		.word	.LC24
 869 0090 00000000 		.word	GUI_Font32B_1
 870 0094 00000000 		.word	buffer
 871 0098 00000000 		.word	borne_superieur
 872 009c E8010000 		.word	.LC20
 873 00a0 60000000 		.word	.LC6
 874              		.cfi_endproc
 875              	.LFE701:
 876              		.size	DrawOption3_superieur, .-DrawOption3_superieur
 877              		.section	.text.DrawOption3_inferieur,"ax",%progbits
 878              		.align	2
 879              		.global	DrawOption3_inferieur
 880              		.thumb
 881              		.thumb_func
 882              		.type	DrawOption3_inferieur, %function
 883              	DrawOption3_inferieur:
 884              	.LFB702:
 214:DISPLAY.c     **** 
 215:DISPLAY.c     **** }
 216:DISPLAY.c     **** // Fonction qui permet d'afficher l'OPTION du MENU qui permet de d√©finir la borne sup√©rieure 
 217:DISPLAY.c     **** // de l'intervall de la fr√©quence cardiaque desir√©e 
 218:DISPLAY.c     **** void DrawOption3_inferieur (){    
 885              		.loc 1 218 0
 886              		.cfi_startproc
 887              		@ args = 0, pretend = 0, frame = 0
 888              		@ frame_needed = 0, uses_anonymous_args = 0
 889 0000 10B5     		push	{r4, lr}
 890              		.cfi_def_cfa_offset 8
 891              		.cfi_offset 4, -8
 892              		.cfi_offset 14, -4
 219:DISPLAY.c     ****   GUI_Clear(); 
 893              		.loc 1 219 0
 894 0002 FFF7FEFF 		bl	GUI_Clear
 895              	.LVL114:
 220:DISPLAY.c     ****     GUI_SetFont(GUI_FONT_8_1);
 896              		.loc 1 220 0
 897 0006 1D4C     		ldr	r4, .L51
 898 0008 2046     		mov	r0, r4
 899 000a FFF7FEFF 		bl	GUI_SetFont
 900              	.LVL115:
 221:DISPLAY.c     ****     GUI_SetTextAlign(GUI_TA_CENTER);
 901              		.loc 1 221 0
 902 000e 0220     		movs	r0, #2
 903 0010 FFF7FEFF 		bl	GUI_SetTextAlign
 904              	.LVL116:
 222:DISPLAY.c     ****     GUI_DispStringAt("DEFINITION DE L'INTERVALLE DE L'ALARME", 132, 20);
 905              		.loc 1 222 0
 906 0014 1422     		movs	r2, #20
 907 0016 8421     		movs	r1, #132
ARM GAS  C:\Users\user\AppData\Local\Temp\ccSIFDDJ.s 			page 21


 908 0018 1948     		ldr	r0, .L51+4
 909 001a FFF7FEFF 		bl	GUI_DispStringAt
 910              	.LVL117:
 223:DISPLAY.c     ****     GUI_DrawLine(25,30,240,30);
 911              		.loc 1 223 0
 912 001e 1E23     		movs	r3, #30
 913 0020 F022     		movs	r2, #240
 914 0022 1946     		mov	r1, r3
 915 0024 1920     		movs	r0, #25
 916 0026 FFF7FEFF 		bl	GUI_DrawLine
 917              	.LVL118:
 224:DISPLAY.c     ****     GUI_SetFont(GUI_FONT_8_1);
 918              		.loc 1 224 0
 919 002a 2046     		mov	r0, r4
 920 002c FFF7FEFF 		bl	GUI_SetFont
 921              	.LVL119:
 225:DISPLAY.c     ****     GUI_DispStringAt ("DEFINIISSEZ LA BORNE INFERIEUR DE LA FC", 10, 70);
 922              		.loc 1 225 0
 923 0030 4622     		movs	r2, #70
 924 0032 0A21     		movs	r1, #10
 925 0034 1348     		ldr	r0, .L51+8
 926 0036 FFF7FEFF 		bl	GUI_DispStringAt
 927              	.LVL120:
 226:DISPLAY.c     ****     GUI_SetFont(GUI_FONT_16_1);
 928              		.loc 1 226 0
 929 003a 1348     		ldr	r0, .L51+12
 930 003c FFF7FEFF 		bl	GUI_SetFont
 931              	.LVL121:
 227:DISPLAY.c     ****     GUI_DispStringAt ("BORNE INFERIEUR: ", 10, 110);
 932              		.loc 1 227 0
 933 0040 6E22     		movs	r2, #110
 934 0042 0A21     		movs	r1, #10
 935 0044 1148     		ldr	r0, .L51+16
 936 0046 FFF7FEFF 		bl	GUI_DispStringAt
 937              	.LVL122:
 228:DISPLAY.c     ****     GUI_SetFont(GUI_FONT_32B_1);
 938              		.loc 1 228 0
 939 004a 1148     		ldr	r0, .L51+20
 940 004c FFF7FEFF 		bl	GUI_SetFont
 941              	.LVL123:
 229:DISPLAY.c     ****     sprintf(buffer,"%d\n\r",borne_inferieur);
 942              		.loc 1 229 0
 943 0050 104C     		ldr	r4, .L51+24
 944 0052 114B     		ldr	r3, .L51+28
 945 0054 1A78     		ldrb	r2, [r3]	@ zero_extendqisi2
 946 0056 1149     		ldr	r1, .L51+32
 947 0058 2046     		mov	r0, r4
 948 005a FFF7FEFF 		bl	sprintf
 949              	.LVL124:
 230:DISPLAY.c     ****      GUI_DispStringAt (buffer, 139, 99);
 950              		.loc 1 230 0
 951 005e 6322     		movs	r2, #99
 952 0060 8B21     		movs	r1, #139
 953 0062 2046     		mov	r0, r4
 954 0064 FFF7FEFF 		bl	GUI_DispStringAt
 955              	.LVL125:
 231:DISPLAY.c     ****      GUI_DispStringAt ("BPM ", 187, 98);
ARM GAS  C:\Users\user\AppData\Local\Temp\ccSIFDDJ.s 			page 22


 956              		.loc 1 231 0
 957 0068 6222     		movs	r2, #98
 958 006a BB21     		movs	r1, #187
 959 006c 0C48     		ldr	r0, .L51+36
 960 006e FFF7FEFF 		bl	GUI_DispStringAt
 961              	.LVL126:
 232:DISPLAY.c     ****      UpdateDisplay(CY_EINK_FULL_4STAGE, true); 
 962              		.loc 1 232 0
 963 0072 0121     		movs	r1, #1
 964 0074 0846     		mov	r0, r1
 965 0076 FFF7FEFF 		bl	UpdateDisplay
 966              	.LVL127:
 967 007a 10BD     		pop	{r4, pc}
 968              	.L52:
 969              		.align	2
 970              	.L51:
 971 007c 00000000 		.word	GUI_Font8_1
 972 0080 F4010000 		.word	.LC22
 973 0084 58020000 		.word	.LC25
 974 0088 00000000 		.word	GUI_Font16_1
 975 008c 80020000 		.word	.LC26
 976 0090 00000000 		.word	GUI_Font32B_1
 977 0094 00000000 		.word	buffer
 978 0098 00000000 		.word	borne_inferieur
 979 009c E8010000 		.word	.LC20
 980 00a0 60000000 		.word	.LC6
 981              		.cfi_endproc
 982              	.LFE702:
 983              		.size	DrawOption3_inferieur, .-DrawOption3_inferieur
 984              		.section	.text.DrawOption3_ETAT,"ax",%progbits
 985              		.align	2
 986              		.global	DrawOption3_ETAT
 987              		.thumb
 988              		.thumb_func
 989              		.type	DrawOption3_ETAT, %function
 990              	DrawOption3_ETAT:
 991              	.LFB703:
 233:DISPLAY.c     **** }
 234:DISPLAY.c     **** // Fonction qui permet d'afficher l'OPTION du MENU qui permet de d√©finir l'√©tat de l'alarme de fr
 235:DISPLAY.c     **** void DrawOption3_ETAT ()
 236:DISPLAY.c     **** {       
 992              		.loc 1 236 0
 993              		.cfi_startproc
 994              		@ args = 0, pretend = 0, frame = 0
 995              		@ frame_needed = 0, uses_anonymous_args = 0
 996 0000 10B5     		push	{r4, lr}
 997              		.cfi_def_cfa_offset 8
 998              		.cfi_offset 4, -8
 999              		.cfi_offset 14, -4
 237:DISPLAY.c     ****           GUI_Clear(); 
 1000              		.loc 1 237 0
 1001 0002 FFF7FEFF 		bl	GUI_Clear
 1002              	.LVL128:
 238:DISPLAY.c     ****     GUI_SetFont(GUI_FONT_16_1);
 1003              		.loc 1 238 0
 1004 0006 174C     		ldr	r4, .L55
 1005 0008 2046     		mov	r0, r4
ARM GAS  C:\Users\user\AppData\Local\Temp\ccSIFDDJ.s 			page 23


 1006 000a FFF7FEFF 		bl	GUI_SetFont
 1007              	.LVL129:
 239:DISPLAY.c     ****     GUI_SetTextAlign(GUI_TA_CENTER);
 1008              		.loc 1 239 0
 1009 000e 0220     		movs	r0, #2
 1010 0010 FFF7FEFF 		bl	GUI_SetTextAlign
 1011              	.LVL130:
 240:DISPLAY.c     ****     GUI_DispStringAt("ALARME DE LA FREQUENCE CARDIAQUE", 132, 20);
 1012              		.loc 1 240 0
 1013 0014 1422     		movs	r2, #20
 1014 0016 8421     		movs	r1, #132
 1015 0018 1348     		ldr	r0, .L55+4
 1016 001a FFF7FEFF 		bl	GUI_DispStringAt
 1017              	.LVL131:
 241:DISPLAY.c     ****     GUI_DrawLine(3,34,260,34);
 1018              		.loc 1 241 0
 1019 001e 2223     		movs	r3, #34
 1020 0020 4FF48272 		mov	r2, #260
 1021 0024 1946     		mov	r1, r3
 1022 0026 0320     		movs	r0, #3
 1023 0028 FFF7FEFF 		bl	GUI_DrawLine
 1024              	.LVL132:
 242:DISPLAY.c     ****         GUI_SetFont(GUI_FONT_8_1);
 1025              		.loc 1 242 0
 1026 002c 0F48     		ldr	r0, .L55+8
 1027 002e FFF7FEFF 		bl	GUI_SetFont
 1028              	.LVL133:
 243:DISPLAY.c     ****     GUI_DispStringAt ("APPUYE SUR LE BOUTON 00 POUR ACTIVER L'ALARME", 10, 70);
 1029              		.loc 1 243 0
 1030 0032 4622     		movs	r2, #70
 1031 0034 0A21     		movs	r1, #10
 1032 0036 0E48     		ldr	r0, .L55+12
 1033 0038 FFF7FEFF 		bl	GUI_DispStringAt
 1034              	.LVL134:
 244:DISPLAY.c     ****     GUI_DispStringAt ("APPUYE SUR LE BOUTON 01 POUR DESACTIVER L'ALARME", 3, 100); 
 1035              		.loc 1 244 0
 1036 003c 6422     		movs	r2, #100
 1037 003e 0321     		movs	r1, #3
 1038 0040 0C48     		ldr	r0, .L55+16
 1039 0042 FFF7FEFF 		bl	GUI_DispStringAt
 1040              	.LVL135:
 245:DISPLAY.c     ****      GUI_DrawRect(7,120,230,160);
 1041              		.loc 1 245 0
 1042 0046 A023     		movs	r3, #160
 1043 0048 E622     		movs	r2, #230
 1044 004a 7821     		movs	r1, #120
 1045 004c 0720     		movs	r0, #7
 1046 004e FFF7FEFF 		bl	GUI_DrawRect
 1047              	.LVL136:
 246:DISPLAY.c     ****      GUI_SetFont(GUI_FONT_16_1);
 1048              		.loc 1 246 0
 1049 0052 2046     		mov	r0, r4
 1050 0054 FFF7FEFF 		bl	GUI_SetFont
 1051              	.LVL137:
 247:DISPLAY.c     ****     UpdateDisplay(CY_EINK_FULL_4STAGE, true);
 1052              		.loc 1 247 0
 1053 0058 0121     		movs	r1, #1
ARM GAS  C:\Users\user\AppData\Local\Temp\ccSIFDDJ.s 			page 24


 1054 005a 0846     		mov	r0, r1
 1055 005c FFF7FEFF 		bl	UpdateDisplay
 1056              	.LVL138:
 1057 0060 10BD     		pop	{r4, pc}
 1058              	.L56:
 1059 0062 00BF     		.align	2
 1060              	.L55:
 1061 0064 00000000 		.word	GUI_Font16_1
 1062 0068 94020000 		.word	.LC27
 1063 006c 00000000 		.word	GUI_Font8_1
 1064 0070 34010000 		.word	.LC15
 1065 0074 64010000 		.word	.LC16
 1066              		.cfi_endproc
 1067              	.LFE703:
 1068              		.size	DrawOption3_ETAT, .-DrawOption3_ETAT
 1069              		.section	.text.display_task,"ax",%progbits
 1070              		.align	2
 1071              		.global	display_task
 1072              		.thumb
 1073              		.thumb_func
 1074              		.type	display_task, %function
 1075              	display_task:
 1076              	.LFB704:
 248:DISPLAY.c     **** } 
 249:DISPLAY.c     **** 
 250:DISPLAY.c     **** // La t√¢che d'affichage 
 251:DISPLAY.c     **** void display_task( void ) {
 1077              		.loc 1 251 0
 1078              		.cfi_startproc
 1079              		@ Volatile: function does not return.
 1080              		@ args = 0, pretend = 0, frame = 0
 1081              		@ frame_needed = 0, uses_anonymous_args = 0
 1082 0000 08B5     		push	{r3, lr}
 1083              		.cfi_def_cfa_offset 8
 1084              		.cfi_offset 3, -8
 1085              		.cfi_offset 14, -4
 252:DISPLAY.c     ****    
 253:DISPLAY.c     ****     // intialisation des param√®tres de l'affichahe sur l'√©cran E-INK display Shield Board CY8CKIT
 254:DISPLAY.c     ****     GUI_Init();
 1086              		.loc 1 254 0
 1087 0002 FFF7FEFF 		bl	GUI_Init
 1088              	.LVL139:
 255:DISPLAY.c     ****     Cy_EINK_Start(20);
 1089              		.loc 1 255 0
 1090 0006 1420     		movs	r0, #20
 1091 0008 FFF7FEFF 		bl	Cy_EINK_Start
 1092              	.LVL140:
 256:DISPLAY.c     ****     Cy_EINK_Power(1);
 1093              		.loc 1 256 0
 1094 000c 0120     		movs	r0, #1
 1095 000e FFF7FEFF 		bl	Cy_EINK_Power
 1096              	.LVL141:
 257:DISPLAY.c     ****     GUI_Clear(); 
 1097              		.loc 1 257 0
 1098 0012 FFF7FEFF 		bl	GUI_Clear
 1099              	.LVL142:
 258:DISPLAY.c     ****     GUI_SetColor(GUI_BLACK);
ARM GAS  C:\Users\user\AppData\Local\Temp\ccSIFDDJ.s 			page 25


 1100              		.loc 1 258 0
 1101 0016 0020     		movs	r0, #0
 1102 0018 FFF7FEFF 		bl	GUI_SetColor
 1103              	.LVL143:
 259:DISPLAY.c     ****     GUI_SetBkColor(GUI_WHITE);
 1104              		.loc 1 259 0
 1105 001c 6FF07F40 		mvn	r0, #-16777216
 1106 0020 FFF7FEFF 		bl	GUI_SetBkColor
 1107              	.LVL144:
 260:DISPLAY.c     ****     GUI_SetPenSize(1);
 1108              		.loc 1 260 0
 1109 0024 0120     		movs	r0, #1
 1110 0026 FFF7FEFF 		bl	GUI_SetPenSize
 1111              	.LVL145:
 261:DISPLAY.c     ****     GUI_SetFont(GUI_FONT_8_1);
 1112              		.loc 1 261 0
 1113 002a 2D48     		ldr	r0, .L94
 1114 002c FFF7FEFF 		bl	GUI_SetFont
 1115              	.LVL146:
 1116              	.L92:
 262:DISPLAY.c     ****         
 263:DISPLAY.c     ****     for (;;) {       
 264:DISPLAY.c     ****         
 265:DISPLAY.c     ****                 if (currentScreen.FLAG_DEPART) {
 1117              		.loc 1 265 0
 1118 0030 2C4B     		ldr	r3, .L94+4
 1119 0032 1B79     		ldrb	r3, [r3, #4]	@ zero_extendqisi2
 1120 0034 13F0FF0F 		tst	r3, #255
 1121 0038 24D0     		beq	.L58
 266:DISPLAY.c     ****                              updateParameters(BPM,pourcentageSpO2);     
 1122              		.loc 1 266 0
 1123 003a 2B4B     		ldr	r3, .L94+8
 1124 003c 1878     		ldrb	r0, [r3]	@ zero_extendqisi2
 1125 003e 2B4B     		ldr	r3, .L94+12
 1126 0040 D3ED007A 		vldr.32	s15, [r3]
 1127 0044 FDEEE77A 		vcvt.s32.f32	s15, s15
 1128 0048 17EE901A 		vmov	r1, s15	@ int
 1129 004c FFF7FEFF 		bl	updateParameters
 1130              	.LVL147:
 267:DISPLAY.c     ****                              
 268:DISPLAY.c     ****                            if (currentScreen.TYPEGRAPH)                
 1131              		.loc 1 268 0
 1132 0050 244B     		ldr	r3, .L94+4
 1133 0052 5B79     		ldrb	r3, [r3, #5]	@ zero_extendqisi2
 1134 0054 13F0FF0F 		tst	r3, #255
 1135 0058 05D0     		beq	.L59
 269:DISPLAY.c     ****                                         {   
 270:DISPLAY.c     ****                                             drawGraph(INFRAROUGE, 3,BUFFER_LENGTH ) ;              
 1136              		.loc 1 270 0
 1137 005a 40F24C42 		movw	r2, #1100
 1138 005e 0321     		movs	r1, #3
 1139 0060 2348     		ldr	r0, .L94+16
 1140 0062 FFF7FEFF 		bl	drawGraph
 1141              	.LVL148:
 1142              	.L59:
 271:DISPLAY.c     ****                                         } 
 272:DISPLAY.c     ****                             if (currentScreen.TYPEGRAPH==0) 
ARM GAS  C:\Users\user\AppData\Local\Temp\ccSIFDDJ.s 			page 26


 1143              		.loc 1 272 0
 1144 0066 1F4B     		ldr	r3, .L94+4
 1145 0068 5B79     		ldrb	r3, [r3, #5]	@ zero_extendqisi2
 1146 006a 13F0FF0F 		tst	r3, #255
 1147 006e 05D1     		bne	.L60
 273:DISPLAY.c     ****                                         {
 274:DISPLAY.c     ****                                            drawGraph(ROUGE, 3,BUFFER_LENGTH ) ;     
 1148              		.loc 1 274 0
 1149 0070 40F24C42 		movw	r2, #1100
 1150 0074 0321     		movs	r1, #3
 1151 0076 1F48     		ldr	r0, .L94+20
 1152 0078 FFF7FEFF 		bl	drawGraph
 1153              	.LVL149:
 1154              	.L60:
 275:DISPLAY.c     ****                                         } 
 276:DISPLAY.c     ****                             currentScreen.screen= PRINCIPAL_PAGE; 
 1155              		.loc 1 276 0
 1156 007c 194B     		ldr	r3, .L94+4
 1157 007e 0022     		movs	r2, #0
 1158 0080 1A70     		strb	r2, [r3]
 277:DISPLAY.c     ****                             currentScreen.FLAG_DEPART=0;        
 1159              		.loc 1 277 0
 1160 0082 1A71     		strb	r2, [r3, #4]
 1161              	.L58:
 278:DISPLAY.c     ****                  }  // √† l'appuie du bouton SW2, le type de courbe d'absorption est modifi√©e 
 279:DISPLAY.c     ****                 if (currentScreen.FLAG1==1 || currentScreen.FLAG3==1) {
 1162              		.loc 1 279 0
 1163 0084 174B     		ldr	r3, .L94+4
 1164 0086 5B78     		ldrb	r3, [r3, #1]	@ zero_extendqisi2
 1165 0088 DBB2     		uxtb	r3, r3
 1166 008a 012B     		cmp	r3, #1
 1167 008c 04D0     		beq	.L61
 1168              		.loc 1 279 0 is_stmt 0 discriminator 1
 1169 008e 154B     		ldr	r3, .L94+4
 1170 0090 DB78     		ldrb	r3, [r3, #3]	@ zero_extendqisi2
 1171 0092 DBB2     		uxtb	r3, r3
 1172 0094 012B     		cmp	r3, #1
 1173 0096 15D1     		bne	.L62
 1174              	.L61:
 280:DISPLAY.c     ****                      
 281:DISPLAY.c     ****                      currentScreen.screen= MAIN_MENU; 
 1175              		.loc 1 281 0 is_stmt 1
 1176 0098 124C     		ldr	r4, .L94+4
 1177 009a 0123     		movs	r3, #1
 1178 009c 2370     		strb	r3, [r4]
 282:DISPLAY.c     ****                      postion_MENU=40;
 1179              		.loc 1 282 0
 1180 009e 2820     		movs	r0, #40
 1181 00a0 154B     		ldr	r3, .L94+24
 1182 00a2 1870     		strb	r0, [r3]
 283:DISPLAY.c     ****                     DrawMenu(postion_MENU);
 1183              		.loc 1 283 0
 1184 00a4 FFF7FEFF 		bl	DrawMenu
 1185              	.LVL150:
 284:DISPLAY.c     ****                     if (currentScreen.FLAG1==1) {currentScreen.FLAG1=0;}
 1186              		.loc 1 284 0
 1187 00a8 6378     		ldrb	r3, [r4, #1]	@ zero_extendqisi2
ARM GAS  C:\Users\user\AppData\Local\Temp\ccSIFDDJ.s 			page 27


 1188 00aa DBB2     		uxtb	r3, r3
 1189 00ac 012B     		cmp	r3, #1
 1190 00ae 01D1     		bne	.L63
 1191              		.loc 1 284 0 is_stmt 0 discriminator 1
 1192 00b0 0022     		movs	r2, #0
 1193 00b2 6270     		strb	r2, [r4, #1]
 1194              	.L63:
 285:DISPLAY.c     ****                     if (currentScreen.FLAG3==1) {currentScreen.FLAG3=0;}
 1195              		.loc 1 285 0 is_stmt 1
 1196 00b4 0B4B     		ldr	r3, .L94+4
 1197 00b6 DB78     		ldrb	r3, [r3, #3]	@ zero_extendqisi2
 1198 00b8 DBB2     		uxtb	r3, r3
 1199 00ba 012B     		cmp	r3, #1
 1200 00bc 02D1     		bne	.L62
 1201              		.loc 1 285 0 is_stmt 0 discriminator 1
 1202 00be 0022     		movs	r2, #0
 1203 00c0 084B     		ldr	r3, .L94+4
 1204 00c2 DA70     		strb	r2, [r3, #3]
 1205              	.L62:
 286:DISPLAY.c     ****                 } // √† l'appuie du bouton SW2 ou le bouton 0 dans la page principale, la page du M
 287:DISPLAY.c     ****                 if (currentScreen.FLAG1==2)
 1206              		.loc 1 287 0 is_stmt 1
 1207 00c4 074B     		ldr	r3, .L94+4
 1208 00c6 5B78     		ldrb	r3, [r3, #1]	@ zero_extendqisi2
 1209 00c8 DBB2     		uxtb	r3, r3
 1210 00ca 022B     		cmp	r3, #2
 1211 00cc 20D1     		bne	.L64
 288:DISPLAY.c     ****                 {
 289:DISPLAY.c     ****                     if (postion_MENU==160)
 1212              		.loc 1 289 0
 1213 00ce 0A4B     		ldr	r3, .L94+24
 1214 00d0 1B78     		ldrb	r3, [r3]	@ zero_extendqisi2
 1215 00d2 A02B     		cmp	r3, #160
 1216 00d4 12D1     		bne	.L65
 290:DISPLAY.c     ****                     {postion_MENU=40; }
 1217              		.loc 1 290 0
 1218 00d6 2822     		movs	r2, #40
 1219 00d8 074B     		ldr	r3, .L94+24
 1220 00da 1A70     		strb	r2, [r3]
 1221 00dc 11E0     		b	.L66
 1222              	.L95:
 1223 00de 00BF     		.align	2
 1224              	.L94:
 1225 00e0 00000000 		.word	GUI_Font8_1
 1226 00e4 00000000 		.word	currentScreen
 1227 00e8 00000000 		.word	BPM
 1228 00ec 00000000 		.word	pourcentageSpO2
 1229 00f0 00000000 		.word	INFRAROUGE
 1230 00f4 00000000 		.word	ROUGE
 1231 00f8 00000000 		.word	postion_MENU
 1232              	.L65:
 291:DISPLAY.c     ****                     else 
 292:DISPLAY.c     ****                     {postion_MENU= postion_MENU+30;} 
 1233              		.loc 1 292 0
 1234 00fc 1E33     		adds	r3, r3, #30
 1235 00fe A04A     		ldr	r2, .L96
 1236 0100 1370     		strb	r3, [r2]
ARM GAS  C:\Users\user\AppData\Local\Temp\ccSIFDDJ.s 			page 28


 1237              	.L66:
 293:DISPLAY.c     ****                     DrawMenu(postion_MENU); 
 1238              		.loc 1 293 0
 1239 0102 9F4B     		ldr	r3, .L96
 1240 0104 1878     		ldrb	r0, [r3]	@ zero_extendqisi2
 1241 0106 FFF7FEFF 		bl	DrawMenu
 1242              	.LVL151:
 294:DISPLAY.c     ****                     currentScreen.FLAG1=0; 
 1243              		.loc 1 294 0
 1244 010a 0022     		movs	r2, #0
 1245 010c 9D4B     		ldr	r3, .L96+4
 1246 010e 5A70     		strb	r2, [r3, #1]
 1247              	.L64:
 295:DISPLAY.c     ****                 } // √† l'appuie du bouton 0 dans la page de MENU, le curseur change de position ve
 296:DISPLAY.c     ****                 if (currentScreen.FLAG1== 3 || selection_MENU==1 || currentScreen.FLAG2== 3 )
 1248              		.loc 1 296 0
 1249 0110 9C4B     		ldr	r3, .L96+4
 1250 0112 5B78     		ldrb	r3, [r3, #1]	@ zero_extendqisi2
 1251 0114 DBB2     		uxtb	r3, r3
 1252 0116 032B     		cmp	r3, #3
 1253 0118 08D0     		beq	.L67
 1254              		.loc 1 296 0 is_stmt 0 discriminator 1
 1255 011a 9B4B     		ldr	r3, .L96+8
 1256 011c 1B78     		ldrb	r3, [r3]	@ zero_extendqisi2
 1257 011e 012B     		cmp	r3, #1
 1258 0120 04D0     		beq	.L67
 1259              		.loc 1 296 0 discriminator 2
 1260 0122 984B     		ldr	r3, .L96+4
 1261 0124 9B78     		ldrb	r3, [r3, #2]	@ zero_extendqisi2
 1262 0126 DBB2     		uxtb	r3, r3
 1263 0128 032B     		cmp	r3, #3
 1264 012a 3BD1     		bne	.L68
 1265              	.L67:
 297:DISPLAY.c     ****                 {
 298:DISPLAY.c     **** 
 299:DISPLAY.c     ****                     DrawOption1 (); 
 1266              		.loc 1 299 0 is_stmt 1
 1267 012c FFF7FEFF 		bl	DrawOption1
 1268              	.LVL152:
 300:DISPLAY.c     ****                    
 301:DISPLAY.c     ****                     //Activation  de l'alarme de l'acc√©l√©rom√®tre √† l'appuie du bouton 0 sur la 
 302:DISPLAY.c     ****                     //Permet la lecture des variables transmis par l'expert communication
 303:DISPLAY.c     ****                                         if  (currentScreen.FLAG1==3) {
 1269              		.loc 1 303 0
 1270 0130 944B     		ldr	r3, .L96+4
 1271 0132 5B78     		ldrb	r3, [r3, #1]	@ zero_extendqisi2
 1272 0134 DBB2     		uxtb	r3, r3
 1273 0136 032B     		cmp	r3, #3
 1274 0138 11D1     		bne	.L69
 304:DISPLAY.c     ****                                              alarme_acc= true; 
 1275              		.loc 1 304 0
 1276 013a 0124     		movs	r4, #1
 1277 013c 934B     		ldr	r3, .L96+12
 1278 013e 1C70     		strb	r4, [r3]
 305:DISPLAY.c     ****                                              GUI_SetFont(GUI_FONT_16B_1);
 1279              		.loc 1 305 0
 1280 0140 9348     		ldr	r0, .L96+16
ARM GAS  C:\Users\user\AppData\Local\Temp\ccSIFDDJ.s 			page 29


 1281 0142 FFF7FEFF 		bl	GUI_SetFont
 1282              	.LVL153:
 306:DISPLAY.c     ****                                              GUI_DispStringAt ("L'alarme est activee ",25, 130); 
 1283              		.loc 1 306 0
 1284 0146 8222     		movs	r2, #130
 1285 0148 1921     		movs	r1, #25
 1286 014a 9248     		ldr	r0, .L96+20
 1287 014c FFF7FEFF 		bl	GUI_DispStringAt
 1288              	.LVL154:
 307:DISPLAY.c     ****                                                UpdateDisplay(CY_EINK_FULL_4STAGE, true);
 1289              		.loc 1 307 0
 1290 0150 2146     		mov	r1, r4
 1291 0152 2046     		mov	r0, r4
 1292 0154 FFF7FEFF 		bl	UpdateDisplay
 1293              	.LVL155:
 308:DISPLAY.c     ****                                             currentScreen.FLAG1=0; }
 1294              		.loc 1 308 0
 1295 0158 0022     		movs	r2, #0
 1296 015a 8A4B     		ldr	r3, .L96+4
 1297 015c 5A70     		strb	r2, [r3, #1]
 1298              	.L69:
 309:DISPLAY.c     ****                   //D√©sactivation  de l'alarme de l'acc√©l√©rom√®tre √† l'appuie du bouton 1 sur l
 310:DISPLAY.c     ****                   //Bloque la lecture des variables transmis par l'expert communication
 311:DISPLAY.c     ****                                         if  (currentScreen.FLAG2==3) { 
 1299              		.loc 1 311 0
 1300 015e 894B     		ldr	r3, .L96+4
 1301 0160 9B78     		ldrb	r3, [r3, #2]	@ zero_extendqisi2
 1302 0162 DBB2     		uxtb	r3, r3
 1303 0164 032B     		cmp	r3, #3
 1304 0166 13D1     		bne	.L70
 312:DISPLAY.c     ****                                              alarme_acc= false;
 1305              		.loc 1 312 0
 1306 0168 0024     		movs	r4, #0
 1307 016a 884B     		ldr	r3, .L96+12
 1308 016c 1C70     		strb	r4, [r3]
 1309              	.LVL156:
 1310              	.LBB18:
 1311              	.LBB19:
 1312              		.file 2 "Generated_Source\\PSoC6\\pdl\\drivers/peripheral/gpio/cy_gpio.h"
   1:Generated_Source\PSoC6\pdl\drivers/peripheral/gpio/cy_gpio.h **** /***************************************************************************//**
   2:Generated_Source\PSoC6\pdl\drivers/peripheral/gpio/cy_gpio.h **** * \file cy_gpio.h
   3:Generated_Source\PSoC6\pdl\drivers/peripheral/gpio/cy_gpio.h **** * \version 1.20
   4:Generated_Source\PSoC6\pdl\drivers/peripheral/gpio/cy_gpio.h **** *
   5:Generated_Source\PSoC6\pdl\drivers/peripheral/gpio/cy_gpio.h **** * Provides an API declaration of the GPIO driver
   6:Generated_Source\PSoC6\pdl\drivers/peripheral/gpio/cy_gpio.h **** *
   7:Generated_Source\PSoC6\pdl\drivers/peripheral/gpio/cy_gpio.h **** ********************************************************************************
   8:Generated_Source\PSoC6\pdl\drivers/peripheral/gpio/cy_gpio.h **** * \copyright
   9:Generated_Source\PSoC6\pdl\drivers/peripheral/gpio/cy_gpio.h **** * Copyright 2016-2018, Cypress Semiconductor Corporation. All rights reserved.
  10:Generated_Source\PSoC6\pdl\drivers/peripheral/gpio/cy_gpio.h **** * You may use this file only in accordance with the license, terms, conditions,
  11:Generated_Source\PSoC6\pdl\drivers/peripheral/gpio/cy_gpio.h **** * disclaimers, and limitations in the end user license agreement accompanying
  12:Generated_Source\PSoC6\pdl\drivers/peripheral/gpio/cy_gpio.h **** * the software package with which this file was provided.
  13:Generated_Source\PSoC6\pdl\drivers/peripheral/gpio/cy_gpio.h **** *******************************************************************************/
  14:Generated_Source\PSoC6\pdl\drivers/peripheral/gpio/cy_gpio.h **** 
  15:Generated_Source\PSoC6\pdl\drivers/peripheral/gpio/cy_gpio.h **** /**
  16:Generated_Source\PSoC6\pdl\drivers/peripheral/gpio/cy_gpio.h **** * \addtogroup group_gpio
  17:Generated_Source\PSoC6\pdl\drivers/peripheral/gpio/cy_gpio.h **** * \{
  18:Generated_Source\PSoC6\pdl\drivers/peripheral/gpio/cy_gpio.h **** * The GPIO driver provides an API to configure and access device Input/Output pins.
ARM GAS  C:\Users\user\AppData\Local\Temp\ccSIFDDJ.s 			page 30


  19:Generated_Source\PSoC6\pdl\drivers/peripheral/gpio/cy_gpio.h **** *
  20:Generated_Source\PSoC6\pdl\drivers/peripheral/gpio/cy_gpio.h **** * The functions and other declarations used in this driver are in cy_gpio.h. 
  21:Generated_Source\PSoC6\pdl\drivers/peripheral/gpio/cy_gpio.h **** * You can include cy_pdl.h (ModusToolbox only) to get access to all functions 
  22:Generated_Source\PSoC6\pdl\drivers/peripheral/gpio/cy_gpio.h **** * and declarations in the PDL.
  23:Generated_Source\PSoC6\pdl\drivers/peripheral/gpio/cy_gpio.h **** *
  24:Generated_Source\PSoC6\pdl\drivers/peripheral/gpio/cy_gpio.h **** * IO pins include all general purpose types such as GPIO, SIO, HSIO, AUXIO, and
  25:Generated_Source\PSoC6\pdl\drivers/peripheral/gpio/cy_gpio.h **** * their variants.
  26:Generated_Source\PSoC6\pdl\drivers/peripheral/gpio/cy_gpio.h **** *
  27:Generated_Source\PSoC6\pdl\drivers/peripheral/gpio/cy_gpio.h **** * Initialization can be performed either at the port level or by configuring the
  28:Generated_Source\PSoC6\pdl\drivers/peripheral/gpio/cy_gpio.h **** * individual pins. For efficient use of code space, port
  29:Generated_Source\PSoC6\pdl\drivers/peripheral/gpio/cy_gpio.h **** * configuration should be used in the field. Refer to the product device header files 
  30:Generated_Source\PSoC6\pdl\drivers/peripheral/gpio/cy_gpio.h **** * for the list of supported ports and pins.
  31:Generated_Source\PSoC6\pdl\drivers/peripheral/gpio/cy_gpio.h **** * 
  32:Generated_Source\PSoC6\pdl\drivers/peripheral/gpio/cy_gpio.h **** * - Single pin configuration is performed by using \ref Cy_GPIO_Pin_FastInit 
  33:Generated_Source\PSoC6\pdl\drivers/peripheral/gpio/cy_gpio.h **** *   (provide specific values) or \ref Cy_GPIO_Pin_Init (provide a filled
  34:Generated_Source\PSoC6\pdl\drivers/peripheral/gpio/cy_gpio.h **** *   cy_stc_gpio_pin_config_t structure).
  35:Generated_Source\PSoC6\pdl\drivers/peripheral/gpio/cy_gpio.h **** * - An entire port can be configured using \ref Cy_GPIO_Port_Init. Provide a filled 
  36:Generated_Source\PSoC6\pdl\drivers/peripheral/gpio/cy_gpio.h **** *   cy_stc_gpio_prt_config_t structure. The values in the structure are 
  37:Generated_Source\PSoC6\pdl\drivers/peripheral/gpio/cy_gpio.h **** *   bitfields representing the desired value for each pin in the port.
  38:Generated_Source\PSoC6\pdl\drivers/peripheral/gpio/cy_gpio.h **** * - Pin configuration and management is based on the port address and pin number.
  39:Generated_Source\PSoC6\pdl\drivers/peripheral/gpio/cy_gpio.h **** *   \ref Cy_GPIO_PortToAddr function can optionally be used to calculate the port
  40:Generated_Source\PSoC6\pdl\drivers/peripheral/gpio/cy_gpio.h **** *   address from the port number at run-time.
  41:Generated_Source\PSoC6\pdl\drivers/peripheral/gpio/cy_gpio.h **** *
  42:Generated_Source\PSoC6\pdl\drivers/peripheral/gpio/cy_gpio.h **** * Once the pin/port initialization is complete, each pin can be accessed by 
  43:Generated_Source\PSoC6\pdl\drivers/peripheral/gpio/cy_gpio.h **** * specifying the port (GPIO_PRT_Type) and the pin (0-7) in the provided API 
  44:Generated_Source\PSoC6\pdl\drivers/peripheral/gpio/cy_gpio.h **** * functions.
  45:Generated_Source\PSoC6\pdl\drivers/peripheral/gpio/cy_gpio.h **** *
  46:Generated_Source\PSoC6\pdl\drivers/peripheral/gpio/cy_gpio.h **** * \section group_gpio_configuration Configuration Considerations
  47:Generated_Source\PSoC6\pdl\drivers/peripheral/gpio/cy_gpio.h **** *
  48:Generated_Source\PSoC6\pdl\drivers/peripheral/gpio/cy_gpio.h **** * 1. Pin multiplexing is controlled through the High-Speed IO Matrix (HSIOM) selection.
  49:Generated_Source\PSoC6\pdl\drivers/peripheral/gpio/cy_gpio.h **** *    This allows the pin to connect to signal sources/sinks throughout the device,
  50:Generated_Source\PSoC6\pdl\drivers/peripheral/gpio/cy_gpio.h **** *    as defined by the pin HSIOM selection options (en_hsiom_sel_t).
  51:Generated_Source\PSoC6\pdl\drivers/peripheral/gpio/cy_gpio.h **** * 2. All pins are initialized to High-Z drive mode with HSIOM connected to CPU (SW
  52:Generated_Source\PSoC6\pdl\drivers/peripheral/gpio/cy_gpio.h **** *    control digital pin only) at Power-On-Reset(POR).
  53:Generated_Source\PSoC6\pdl\drivers/peripheral/gpio/cy_gpio.h **** * 3. Some API functions perform read-modify-write operations on shared port
  54:Generated_Source\PSoC6\pdl\drivers/peripheral/gpio/cy_gpio.h **** *    registers. These functions are not thread safe and care must be taken when
  55:Generated_Source\PSoC6\pdl\drivers/peripheral/gpio/cy_gpio.h **** *    called by the application.
  56:Generated_Source\PSoC6\pdl\drivers/peripheral/gpio/cy_gpio.h **** * 4. Digital input buffer provides a high-impedance buffer for the external 
  57:Generated_Source\PSoC6\pdl\drivers/peripheral/gpio/cy_gpio.h **** *    digital input. The input buffer is connected to the HSIOM for routing to 
  58:Generated_Source\PSoC6\pdl\drivers/peripheral/gpio/cy_gpio.h **** *    the CPU port registers and selected peripheral. Enabling the input 
  59:Generated_Source\PSoC6\pdl\drivers/peripheral/gpio/cy_gpio.h **** *    buffer provides possibility to read the pin state via the CPU.
  60:Generated_Source\PSoC6\pdl\drivers/peripheral/gpio/cy_gpio.h **** *    If pin is connected to an analog signal, the input buffer should be 
  61:Generated_Source\PSoC6\pdl\drivers/peripheral/gpio/cy_gpio.h **** *    disabled to avoid crowbar currents. For more information refer to device 
  62:Generated_Source\PSoC6\pdl\drivers/peripheral/gpio/cy_gpio.h **** *    TRM and the device datasheet.
  63:Generated_Source\PSoC6\pdl\drivers/peripheral/gpio/cy_gpio.h **** *
  64:Generated_Source\PSoC6\pdl\drivers/peripheral/gpio/cy_gpio.h **** * Multiple pins on a port can be updated using direct port register writes with an
  65:Generated_Source\PSoC6\pdl\drivers/peripheral/gpio/cy_gpio.h **** * appropriate port mask. An example is shown below, highlighting the different ways of 
  66:Generated_Source\PSoC6\pdl\drivers/peripheral/gpio/cy_gpio.h **** * configuring Port 1 pins using:
  67:Generated_Source\PSoC6\pdl\drivers/peripheral/gpio/cy_gpio.h **** * 
  68:Generated_Source\PSoC6\pdl\drivers/peripheral/gpio/cy_gpio.h **** * - Port output data register
  69:Generated_Source\PSoC6\pdl\drivers/peripheral/gpio/cy_gpio.h **** * - Port output data set register
  70:Generated_Source\PSoC6\pdl\drivers/peripheral/gpio/cy_gpio.h **** * - Port output data clear register
  71:Generated_Source\PSoC6\pdl\drivers/peripheral/gpio/cy_gpio.h **** *
  72:Generated_Source\PSoC6\pdl\drivers/peripheral/gpio/cy_gpio.h **** * \snippet gpio/gpio_v1_10_sut_01.cydsn/main_cm4.c Cy_GPIO_Snippet
  73:Generated_Source\PSoC6\pdl\drivers/peripheral/gpio/cy_gpio.h **** *
  74:Generated_Source\PSoC6\pdl\drivers/peripheral/gpio/cy_gpio.h **** * \section group_gpio_more_information More Information
  75:Generated_Source\PSoC6\pdl\drivers/peripheral/gpio/cy_gpio.h **** *
ARM GAS  C:\Users\user\AppData\Local\Temp\ccSIFDDJ.s 			page 31


  76:Generated_Source\PSoC6\pdl\drivers/peripheral/gpio/cy_gpio.h **** * Refer to the technical reference manual (TRM) and the device datasheet.
  77:Generated_Source\PSoC6\pdl\drivers/peripheral/gpio/cy_gpio.h **** *
  78:Generated_Source\PSoC6\pdl\drivers/peripheral/gpio/cy_gpio.h **** * \section group_gpio_MISRA MISRA-C Compliance
  79:Generated_Source\PSoC6\pdl\drivers/peripheral/gpio/cy_gpio.h **** * The GPIO driver has the following specific deviations:
  80:Generated_Source\PSoC6\pdl\drivers/peripheral/gpio/cy_gpio.h **** *
  81:Generated_Source\PSoC6\pdl\drivers/peripheral/gpio/cy_gpio.h **** * <table class="doxtable">
  82:Generated_Source\PSoC6\pdl\drivers/peripheral/gpio/cy_gpio.h **** *   <tr>
  83:Generated_Source\PSoC6\pdl\drivers/peripheral/gpio/cy_gpio.h **** *     <th>MISRA Rule</th>
  84:Generated_Source\PSoC6\pdl\drivers/peripheral/gpio/cy_gpio.h **** *     <th>Rule Class (Required/Advisory)</th>
  85:Generated_Source\PSoC6\pdl\drivers/peripheral/gpio/cy_gpio.h **** *     <th>Rule Description</th>
  86:Generated_Source\PSoC6\pdl\drivers/peripheral/gpio/cy_gpio.h **** *     <th>Description of Deviation(s)</th>
  87:Generated_Source\PSoC6\pdl\drivers/peripheral/gpio/cy_gpio.h **** *   </tr>
  88:Generated_Source\PSoC6\pdl\drivers/peripheral/gpio/cy_gpio.h **** *   <tr>
  89:Generated_Source\PSoC6\pdl\drivers/peripheral/gpio/cy_gpio.h **** *     <td>11.4</td>
  90:Generated_Source\PSoC6\pdl\drivers/peripheral/gpio/cy_gpio.h **** *     <td>A</td>
  91:Generated_Source\PSoC6\pdl\drivers/peripheral/gpio/cy_gpio.h **** *     <td>A cast should not be performed between a pointer to object type and
  92:Generated_Source\PSoC6\pdl\drivers/peripheral/gpio/cy_gpio.h **** *         a different pointer to object type.</td>
  93:Generated_Source\PSoC6\pdl\drivers/peripheral/gpio/cy_gpio.h **** *     <td> This code is safe because the elements of both GPIO_PRT_V1_Type and GPIO_PRT_V2_Type 
  94:Generated_Source\PSoC6\pdl\drivers/peripheral/gpio/cy_gpio.h **** *          types have identical alignment.</td>
  95:Generated_Source\PSoC6\pdl\drivers/peripheral/gpio/cy_gpio.h **** *   </tr>
  96:Generated_Source\PSoC6\pdl\drivers/peripheral/gpio/cy_gpio.h **** *   <tr>
  97:Generated_Source\PSoC6\pdl\drivers/peripheral/gpio/cy_gpio.h **** *     <td>16.7</td>
  98:Generated_Source\PSoC6\pdl\drivers/peripheral/gpio/cy_gpio.h **** *     <td>A</td>
  99:Generated_Source\PSoC6\pdl\drivers/peripheral/gpio/cy_gpio.h **** *     <td>A pointer parameter in a function prototype should be declared as pointer 
 100:Generated_Source\PSoC6\pdl\drivers/peripheral/gpio/cy_gpio.h **** *         to const if the pointer is not used to modify the addressed object.</td>
 101:Generated_Source\PSoC6\pdl\drivers/peripheral/gpio/cy_gpio.h **** *     <td>The objects pointed to by the base addresses of the GPIO port are not always modified.
 102:Generated_Source\PSoC6\pdl\drivers/peripheral/gpio/cy_gpio.h **** *         While a const qualifier can be used in select scenarios, it brings little benefit
 103:Generated_Source\PSoC6\pdl\drivers/peripheral/gpio/cy_gpio.h **** *         in adding this to the affected functions. </td>
 104:Generated_Source\PSoC6\pdl\drivers/peripheral/gpio/cy_gpio.h **** *   </tr>
 105:Generated_Source\PSoC6\pdl\drivers/peripheral/gpio/cy_gpio.h **** * </table>
 106:Generated_Source\PSoC6\pdl\drivers/peripheral/gpio/cy_gpio.h **** *
 107:Generated_Source\PSoC6\pdl\drivers/peripheral/gpio/cy_gpio.h **** * \section group_gpio_changelog Changelog
 108:Generated_Source\PSoC6\pdl\drivers/peripheral/gpio/cy_gpio.h **** * <table class="doxtable">
 109:Generated_Source\PSoC6\pdl\drivers/peripheral/gpio/cy_gpio.h **** *   <tr><th>Version</th><th>Changes</th><th>Reason for Change</th></tr>
 110:Generated_Source\PSoC6\pdl\drivers/peripheral/gpio/cy_gpio.h **** *   <tr>
 111:Generated_Source\PSoC6\pdl\drivers/peripheral/gpio/cy_gpio.h **** *     <td rowspan="3">1.20</td>
 112:Generated_Source\PSoC6\pdl\drivers/peripheral/gpio/cy_gpio.h **** *     <td>Flattened the organization of the driver source code into the single source directory and
 113:Generated_Source\PSoC6\pdl\drivers/peripheral/gpio/cy_gpio.h **** *     <td>Driver library directory-structure simplification.</td>
 114:Generated_Source\PSoC6\pdl\drivers/peripheral/gpio/cy_gpio.h **** *   </tr>
 115:Generated_Source\PSoC6\pdl\drivers/peripheral/gpio/cy_gpio.h **** *   <tr>
 116:Generated_Source\PSoC6\pdl\drivers/peripheral/gpio/cy_gpio.h **** *     <td>Added the functions for configuring the AMux bus splitter switch cells:
 117:Generated_Source\PSoC6\pdl\drivers/peripheral/gpio/cy_gpio.h **** *     - \ref Cy_GPIO_SetAmuxSplit
 118:Generated_Source\PSoC6\pdl\drivers/peripheral/gpio/cy_gpio.h **** *     - \ref Cy_GPIO_GetAmuxSplit
 119:Generated_Source\PSoC6\pdl\drivers/peripheral/gpio/cy_gpio.h **** *     </td>
 120:Generated_Source\PSoC6\pdl\drivers/peripheral/gpio/cy_gpio.h **** *     <td>Added a new functionality related to AMux bus.</td>
 121:Generated_Source\PSoC6\pdl\drivers/peripheral/gpio/cy_gpio.h **** *   </tr>
 122:Generated_Source\PSoC6\pdl\drivers/peripheral/gpio/cy_gpio.h **** *   <tr>
 123:Generated_Source\PSoC6\pdl\drivers/peripheral/gpio/cy_gpio.h **** *     <td>Added register access layer. Use register access macros instead
 124:Generated_Source\PSoC6\pdl\drivers/peripheral/gpio/cy_gpio.h **** *         of direct register access using dereferenced pointers.</td>
 125:Generated_Source\PSoC6\pdl\drivers/peripheral/gpio/cy_gpio.h **** *     <td>Makes register access device-independent, so that the PDL does 
 126:Generated_Source\PSoC6\pdl\drivers/peripheral/gpio/cy_gpio.h **** *         not need to be recompiled for each supported part number.</td>
 127:Generated_Source\PSoC6\pdl\drivers/peripheral/gpio/cy_gpio.h **** *   </tr>
 128:Generated_Source\PSoC6\pdl\drivers/peripheral/gpio/cy_gpio.h **** *   <tr>
 129:Generated_Source\PSoC6\pdl\drivers/peripheral/gpio/cy_gpio.h **** *     <td>1.10.1</td>
 130:Generated_Source\PSoC6\pdl\drivers/peripheral/gpio/cy_gpio.h **** *     <td>Updated description for the functions: \ref Cy_GPIO_GetInterruptStatus, 
 131:Generated_Source\PSoC6\pdl\drivers/peripheral/gpio/cy_gpio.h **** *         \ref Cy_GPIO_GetInterruptMask, \ref Cy_GPIO_GetInterruptStatusMasked.
 132:Generated_Source\PSoC6\pdl\drivers/peripheral/gpio/cy_gpio.h **** *
ARM GAS  C:\Users\user\AppData\Local\Temp\ccSIFDDJ.s 			page 32


 133:Generated_Source\PSoC6\pdl\drivers/peripheral/gpio/cy_gpio.h **** *         Minor documentation edits.
 134:Generated_Source\PSoC6\pdl\drivers/peripheral/gpio/cy_gpio.h **** *     </td>
 135:Generated_Source\PSoC6\pdl\drivers/peripheral/gpio/cy_gpio.h **** *     <td>Documentation update and clarification</td>
 136:Generated_Source\PSoC6\pdl\drivers/peripheral/gpio/cy_gpio.h **** *   </tr>
 137:Generated_Source\PSoC6\pdl\drivers/peripheral/gpio/cy_gpio.h **** *   <tr>
 138:Generated_Source\PSoC6\pdl\drivers/peripheral/gpio/cy_gpio.h **** *     <td>1.10</td>
 139:Generated_Source\PSoC6\pdl\drivers/peripheral/gpio/cy_gpio.h **** *     <td>Added input parameter validation to the API functions</td>
 140:Generated_Source\PSoC6\pdl\drivers/peripheral/gpio/cy_gpio.h **** *     <td></td>
 141:Generated_Source\PSoC6\pdl\drivers/peripheral/gpio/cy_gpio.h **** *   </tr>
 142:Generated_Source\PSoC6\pdl\drivers/peripheral/gpio/cy_gpio.h **** *   <tr>
 143:Generated_Source\PSoC6\pdl\drivers/peripheral/gpio/cy_gpio.h **** *     <td>1.0</td>
 144:Generated_Source\PSoC6\pdl\drivers/peripheral/gpio/cy_gpio.h **** *     <td>Initial version</td>
 145:Generated_Source\PSoC6\pdl\drivers/peripheral/gpio/cy_gpio.h **** *     <td></td>
 146:Generated_Source\PSoC6\pdl\drivers/peripheral/gpio/cy_gpio.h **** *   </tr>
 147:Generated_Source\PSoC6\pdl\drivers/peripheral/gpio/cy_gpio.h **** * </table>
 148:Generated_Source\PSoC6\pdl\drivers/peripheral/gpio/cy_gpio.h **** *
 149:Generated_Source\PSoC6\pdl\drivers/peripheral/gpio/cy_gpio.h **** * \defgroup group_gpio_macros Macros
 150:Generated_Source\PSoC6\pdl\drivers/peripheral/gpio/cy_gpio.h **** * \defgroup group_gpio_functions Functions
 151:Generated_Source\PSoC6\pdl\drivers/peripheral/gpio/cy_gpio.h **** * \{
 152:Generated_Source\PSoC6\pdl\drivers/peripheral/gpio/cy_gpio.h **** *   \defgroup group_gpio_functions_init       Initialization Functions
 153:Generated_Source\PSoC6\pdl\drivers/peripheral/gpio/cy_gpio.h **** *   \defgroup group_gpio_functions_gpio       GPIO Functions
 154:Generated_Source\PSoC6\pdl\drivers/peripheral/gpio/cy_gpio.h **** *   \defgroup group_gpio_functions_sio        SIO Functions
 155:Generated_Source\PSoC6\pdl\drivers/peripheral/gpio/cy_gpio.h **** *   \defgroup group_gpio_functions_interrupt  Port Interrupt Functions
 156:Generated_Source\PSoC6\pdl\drivers/peripheral/gpio/cy_gpio.h **** * \}
 157:Generated_Source\PSoC6\pdl\drivers/peripheral/gpio/cy_gpio.h **** * \defgroup group_gpio_data_structures Data Structures
 158:Generated_Source\PSoC6\pdl\drivers/peripheral/gpio/cy_gpio.h **** * \defgroup group_gpio_enums Enumerated Types
 159:Generated_Source\PSoC6\pdl\drivers/peripheral/gpio/cy_gpio.h **** */
 160:Generated_Source\PSoC6\pdl\drivers/peripheral/gpio/cy_gpio.h **** 
 161:Generated_Source\PSoC6\pdl\drivers/peripheral/gpio/cy_gpio.h **** #if !defined(CY_GPIO_H)
 162:Generated_Source\PSoC6\pdl\drivers/peripheral/gpio/cy_gpio.h **** #define CY_GPIO_H
 163:Generated_Source\PSoC6\pdl\drivers/peripheral/gpio/cy_gpio.h **** 
 164:Generated_Source\PSoC6\pdl\drivers/peripheral/gpio/cy_gpio.h **** #include <stddef.h>
 165:Generated_Source\PSoC6\pdl\drivers/peripheral/gpio/cy_gpio.h **** #include "cy_device.h"
 166:Generated_Source\PSoC6\pdl\drivers/peripheral/gpio/cy_gpio.h **** #include "cy_device_headers.h"
 167:Generated_Source\PSoC6\pdl\drivers/peripheral/gpio/cy_gpio.h **** #include "cy_syslib.h"
 168:Generated_Source\PSoC6\pdl\drivers/peripheral/gpio/cy_gpio.h **** 
 169:Generated_Source\PSoC6\pdl\drivers/peripheral/gpio/cy_gpio.h **** #if defined(__cplusplus)
 170:Generated_Source\PSoC6\pdl\drivers/peripheral/gpio/cy_gpio.h **** extern "C" {
 171:Generated_Source\PSoC6\pdl\drivers/peripheral/gpio/cy_gpio.h **** #endif
 172:Generated_Source\PSoC6\pdl\drivers/peripheral/gpio/cy_gpio.h **** 
 173:Generated_Source\PSoC6\pdl\drivers/peripheral/gpio/cy_gpio.h **** /** \addtogroup group_gpio_macros
 174:Generated_Source\PSoC6\pdl\drivers/peripheral/gpio/cy_gpio.h **** * \{
 175:Generated_Source\PSoC6\pdl\drivers/peripheral/gpio/cy_gpio.h **** */
 176:Generated_Source\PSoC6\pdl\drivers/peripheral/gpio/cy_gpio.h **** 
 177:Generated_Source\PSoC6\pdl\drivers/peripheral/gpio/cy_gpio.h **** /** Driver major version */
 178:Generated_Source\PSoC6\pdl\drivers/peripheral/gpio/cy_gpio.h **** #define CY_GPIO_DRV_VERSION_MAJOR       1
 179:Generated_Source\PSoC6\pdl\drivers/peripheral/gpio/cy_gpio.h **** 
 180:Generated_Source\PSoC6\pdl\drivers/peripheral/gpio/cy_gpio.h **** /** Driver minor version */
 181:Generated_Source\PSoC6\pdl\drivers/peripheral/gpio/cy_gpio.h **** #define CY_GPIO_DRV_VERSION_MINOR       20
 182:Generated_Source\PSoC6\pdl\drivers/peripheral/gpio/cy_gpio.h **** 
 183:Generated_Source\PSoC6\pdl\drivers/peripheral/gpio/cy_gpio.h **** /** GPIO driver ID */
 184:Generated_Source\PSoC6\pdl\drivers/peripheral/gpio/cy_gpio.h **** #define CY_GPIO_ID CY_PDL_DRV_ID(0x16U)
 185:Generated_Source\PSoC6\pdl\drivers/peripheral/gpio/cy_gpio.h **** 
 186:Generated_Source\PSoC6\pdl\drivers/peripheral/gpio/cy_gpio.h **** /** \} group_gpio_macros */
 187:Generated_Source\PSoC6\pdl\drivers/peripheral/gpio/cy_gpio.h **** 
 188:Generated_Source\PSoC6\pdl\drivers/peripheral/gpio/cy_gpio.h **** 
 189:Generated_Source\PSoC6\pdl\drivers/peripheral/gpio/cy_gpio.h **** /***************************************
ARM GAS  C:\Users\user\AppData\Local\Temp\ccSIFDDJ.s 			page 33


 190:Generated_Source\PSoC6\pdl\drivers/peripheral/gpio/cy_gpio.h **** *       Enumerations
 191:Generated_Source\PSoC6\pdl\drivers/peripheral/gpio/cy_gpio.h **** ***************************************/
 192:Generated_Source\PSoC6\pdl\drivers/peripheral/gpio/cy_gpio.h **** /**
 193:Generated_Source\PSoC6\pdl\drivers/peripheral/gpio/cy_gpio.h **** * \addtogroup group_gpio_enums
 194:Generated_Source\PSoC6\pdl\drivers/peripheral/gpio/cy_gpio.h **** * \{
 195:Generated_Source\PSoC6\pdl\drivers/peripheral/gpio/cy_gpio.h **** */
 196:Generated_Source\PSoC6\pdl\drivers/peripheral/gpio/cy_gpio.h **** 
 197:Generated_Source\PSoC6\pdl\drivers/peripheral/gpio/cy_gpio.h **** /** GPIO Driver error codes */
 198:Generated_Source\PSoC6\pdl\drivers/peripheral/gpio/cy_gpio.h **** typedef enum 
 199:Generated_Source\PSoC6\pdl\drivers/peripheral/gpio/cy_gpio.h **** {
 200:Generated_Source\PSoC6\pdl\drivers/peripheral/gpio/cy_gpio.h ****     CY_GPIO_SUCCESS   = 0x00U,                                    /**< Returned successful */
 201:Generated_Source\PSoC6\pdl\drivers/peripheral/gpio/cy_gpio.h ****     CY_GPIO_BAD_PARAM = CY_GPIO_ID | CY_PDL_STATUS_ERROR | 0x01U, /**< Bad parameter was passed */
 202:Generated_Source\PSoC6\pdl\drivers/peripheral/gpio/cy_gpio.h **** } cy_en_gpio_status_t;
 203:Generated_Source\PSoC6\pdl\drivers/peripheral/gpio/cy_gpio.h **** 
 204:Generated_Source\PSoC6\pdl\drivers/peripheral/gpio/cy_gpio.h **** /** AMux switch open/close config */
 205:Generated_Source\PSoC6\pdl\drivers/peripheral/gpio/cy_gpio.h **** typedef enum
 206:Generated_Source\PSoC6\pdl\drivers/peripheral/gpio/cy_gpio.h **** {
 207:Generated_Source\PSoC6\pdl\drivers/peripheral/gpio/cy_gpio.h ****     CY_GPIO_AMUX_OPENALL,   /**< Open ground switch. Open right switch. Open left switch */
 208:Generated_Source\PSoC6\pdl\drivers/peripheral/gpio/cy_gpio.h ****     CY_GPIO_AMUX_L,         /**< Open ground switch. Open right switch. Close left switch */
 209:Generated_Source\PSoC6\pdl\drivers/peripheral/gpio/cy_gpio.h ****     CY_GPIO_AMUX_R,         /**< Open ground switch. Close right switch. Open left switch */
 210:Generated_Source\PSoC6\pdl\drivers/peripheral/gpio/cy_gpio.h ****     CY_GPIO_AMUX_LR,        /**< Open ground switch. Close right switch. Close left switch */
 211:Generated_Source\PSoC6\pdl\drivers/peripheral/gpio/cy_gpio.h ****     CY_GPIO_AMUX_G,         /**< Close ground switch. Open right switch. Open left switch */
 212:Generated_Source\PSoC6\pdl\drivers/peripheral/gpio/cy_gpio.h ****     CY_GPIO_AMUX_GL,        /**< Close ground switch. Open right switch. Close left switch */
 213:Generated_Source\PSoC6\pdl\drivers/peripheral/gpio/cy_gpio.h ****     CY_GPIO_AMUX_GR,        /**< Close ground switch. Close right switch. Open left switch */
 214:Generated_Source\PSoC6\pdl\drivers/peripheral/gpio/cy_gpio.h ****     CY_GPIO_AMUX_GLR,       /**< Close ground switch. Close right switch. Close left switch */
 215:Generated_Source\PSoC6\pdl\drivers/peripheral/gpio/cy_gpio.h **** }cy_en_gpio_amuxconnect_t;
 216:Generated_Source\PSoC6\pdl\drivers/peripheral/gpio/cy_gpio.h **** 
 217:Generated_Source\PSoC6\pdl\drivers/peripheral/gpio/cy_gpio.h **** /**
 218:Generated_Source\PSoC6\pdl\drivers/peripheral/gpio/cy_gpio.h **** * AMux Bus selection
 219:Generated_Source\PSoC6\pdl\drivers/peripheral/gpio/cy_gpio.h **** */
 220:Generated_Source\PSoC6\pdl\drivers/peripheral/gpio/cy_gpio.h **** typedef enum
 221:Generated_Source\PSoC6\pdl\drivers/peripheral/gpio/cy_gpio.h **** {
 222:Generated_Source\PSoC6\pdl\drivers/peripheral/gpio/cy_gpio.h ****     CY_GPIO_AMUXBUSA,       /**< AMuxBus A */
 223:Generated_Source\PSoC6\pdl\drivers/peripheral/gpio/cy_gpio.h ****     CY_GPIO_AMUXBUSB        /**< AMuxBus B */
 224:Generated_Source\PSoC6\pdl\drivers/peripheral/gpio/cy_gpio.h **** }cy_en_gpio_amuxselect_t;
 225:Generated_Source\PSoC6\pdl\drivers/peripheral/gpio/cy_gpio.h **** 
 226:Generated_Source\PSoC6\pdl\drivers/peripheral/gpio/cy_gpio.h **** /** \} group_gpio_enums */
 227:Generated_Source\PSoC6\pdl\drivers/peripheral/gpio/cy_gpio.h **** 
 228:Generated_Source\PSoC6\pdl\drivers/peripheral/gpio/cy_gpio.h **** 
 229:Generated_Source\PSoC6\pdl\drivers/peripheral/gpio/cy_gpio.h **** /***************************************
 230:Generated_Source\PSoC6\pdl\drivers/peripheral/gpio/cy_gpio.h **** *       Configuration Structures
 231:Generated_Source\PSoC6\pdl\drivers/peripheral/gpio/cy_gpio.h **** ***************************************/
 232:Generated_Source\PSoC6\pdl\drivers/peripheral/gpio/cy_gpio.h **** 
 233:Generated_Source\PSoC6\pdl\drivers/peripheral/gpio/cy_gpio.h **** /**
 234:Generated_Source\PSoC6\pdl\drivers/peripheral/gpio/cy_gpio.h **** * \addtogroup group_gpio_data_structures
 235:Generated_Source\PSoC6\pdl\drivers/peripheral/gpio/cy_gpio.h **** * \{
 236:Generated_Source\PSoC6\pdl\drivers/peripheral/gpio/cy_gpio.h **** */
 237:Generated_Source\PSoC6\pdl\drivers/peripheral/gpio/cy_gpio.h **** 
 238:Generated_Source\PSoC6\pdl\drivers/peripheral/gpio/cy_gpio.h **** /** This structure is used to initialize a port of GPIO pins */
 239:Generated_Source\PSoC6\pdl\drivers/peripheral/gpio/cy_gpio.h **** typedef struct 
 240:Generated_Source\PSoC6\pdl\drivers/peripheral/gpio/cy_gpio.h **** {
 241:Generated_Source\PSoC6\pdl\drivers/peripheral/gpio/cy_gpio.h ****     uint32_t out;           /**< Initial output data for the IO pins in the port */
 242:Generated_Source\PSoC6\pdl\drivers/peripheral/gpio/cy_gpio.h ****     uint32_t intrMask;      /**< Interrupt enable mask for the port interrupt */
 243:Generated_Source\PSoC6\pdl\drivers/peripheral/gpio/cy_gpio.h ****     uint32_t intrCfg;       /**< Port pin interrupt edge detection configuration */
 244:Generated_Source\PSoC6\pdl\drivers/peripheral/gpio/cy_gpio.h ****     uint32_t cfg;           /**< Port pin drive modes and input buffer enable configuration */
 245:Generated_Source\PSoC6\pdl\drivers/peripheral/gpio/cy_gpio.h ****     uint32_t cfgIn;         /**< Port pin input buffer configuration */
 246:Generated_Source\PSoC6\pdl\drivers/peripheral/gpio/cy_gpio.h ****     uint32_t cfgOut;        /**< Port pin output buffer configuration */
ARM GAS  C:\Users\user\AppData\Local\Temp\ccSIFDDJ.s 			page 34


 247:Generated_Source\PSoC6\pdl\drivers/peripheral/gpio/cy_gpio.h ****     uint32_t cfgSIO;        /**< Port SIO pins configuration */
 248:Generated_Source\PSoC6\pdl\drivers/peripheral/gpio/cy_gpio.h ****     uint32_t sel0Active;    /**< HSIOM selection for port pins 0,1,2,3 */
 249:Generated_Source\PSoC6\pdl\drivers/peripheral/gpio/cy_gpio.h ****     uint32_t sel1Active;    /**< HSIOM selection for port pins 4,5,6,7 */
 250:Generated_Source\PSoC6\pdl\drivers/peripheral/gpio/cy_gpio.h **** } cy_stc_gpio_prt_config_t;
 251:Generated_Source\PSoC6\pdl\drivers/peripheral/gpio/cy_gpio.h **** 
 252:Generated_Source\PSoC6\pdl\drivers/peripheral/gpio/cy_gpio.h **** /** This structure is used to initialize a single GPIO pin */
 253:Generated_Source\PSoC6\pdl\drivers/peripheral/gpio/cy_gpio.h **** typedef struct
 254:Generated_Source\PSoC6\pdl\drivers/peripheral/gpio/cy_gpio.h **** {
 255:Generated_Source\PSoC6\pdl\drivers/peripheral/gpio/cy_gpio.h ****     uint32_t outVal;         /**< Pin output state */
 256:Generated_Source\PSoC6\pdl\drivers/peripheral/gpio/cy_gpio.h ****     uint32_t driveMode;      /**< Drive mode */
 257:Generated_Source\PSoC6\pdl\drivers/peripheral/gpio/cy_gpio.h ****     en_hsiom_sel_t hsiom;    /**< HSIOM selection */
 258:Generated_Source\PSoC6\pdl\drivers/peripheral/gpio/cy_gpio.h ****     uint32_t intEdge;        /**< Interrupt Edge type */
 259:Generated_Source\PSoC6\pdl\drivers/peripheral/gpio/cy_gpio.h ****     uint32_t intMask;        /**< Interrupt enable mask */
 260:Generated_Source\PSoC6\pdl\drivers/peripheral/gpio/cy_gpio.h ****     uint32_t vtrip;          /**< Input buffer voltage trip type */
 261:Generated_Source\PSoC6\pdl\drivers/peripheral/gpio/cy_gpio.h ****     uint32_t slewRate;       /**< Output buffer slew rate */
 262:Generated_Source\PSoC6\pdl\drivers/peripheral/gpio/cy_gpio.h ****     uint32_t driveSel;       /**< Drive strength */
 263:Generated_Source\PSoC6\pdl\drivers/peripheral/gpio/cy_gpio.h ****     uint32_t vregEn;         /**< SIO pair output buffer mode */
 264:Generated_Source\PSoC6\pdl\drivers/peripheral/gpio/cy_gpio.h ****     uint32_t ibufMode;       /**< SIO pair input buffer mode */
 265:Generated_Source\PSoC6\pdl\drivers/peripheral/gpio/cy_gpio.h ****     uint32_t vtripSel;       /**< SIO pair input buffer trip point */
 266:Generated_Source\PSoC6\pdl\drivers/peripheral/gpio/cy_gpio.h ****     uint32_t vrefSel;        /**< SIO pair reference voltage for input buffer trip point */
 267:Generated_Source\PSoC6\pdl\drivers/peripheral/gpio/cy_gpio.h ****     uint32_t vohSel;         /**< SIO pair regulated voltage output level */
 268:Generated_Source\PSoC6\pdl\drivers/peripheral/gpio/cy_gpio.h **** } cy_stc_gpio_pin_config_t;
 269:Generated_Source\PSoC6\pdl\drivers/peripheral/gpio/cy_gpio.h **** 
 270:Generated_Source\PSoC6\pdl\drivers/peripheral/gpio/cy_gpio.h **** /** \} group_gpio_data_structures */
 271:Generated_Source\PSoC6\pdl\drivers/peripheral/gpio/cy_gpio.h **** 
 272:Generated_Source\PSoC6\pdl\drivers/peripheral/gpio/cy_gpio.h **** /***************************************
 273:Generated_Source\PSoC6\pdl\drivers/peripheral/gpio/cy_gpio.h **** *        Constants
 274:Generated_Source\PSoC6\pdl\drivers/peripheral/gpio/cy_gpio.h **** ***************************************/
 275:Generated_Source\PSoC6\pdl\drivers/peripheral/gpio/cy_gpio.h **** 
 276:Generated_Source\PSoC6\pdl\drivers/peripheral/gpio/cy_gpio.h **** /** \cond INTERNAL */
 277:Generated_Source\PSoC6\pdl\drivers/peripheral/gpio/cy_gpio.h **** 
 278:Generated_Source\PSoC6\pdl\drivers/peripheral/gpio/cy_gpio.h **** /* General Constants */
 279:Generated_Source\PSoC6\pdl\drivers/peripheral/gpio/cy_gpio.h **** #define CY_GPIO_PRT_HALF                       (4UL)      /**< Half-way point of a GPIO port */
 280:Generated_Source\PSoC6\pdl\drivers/peripheral/gpio/cy_gpio.h **** #define CY_GPIO_PRT_DEINIT                     (0UL)      /**< De-init value for port registers */
 281:Generated_Source\PSoC6\pdl\drivers/peripheral/gpio/cy_gpio.h **** 
 282:Generated_Source\PSoC6\pdl\drivers/peripheral/gpio/cy_gpio.h **** /* GPIO Masks */
 283:Generated_Source\PSoC6\pdl\drivers/peripheral/gpio/cy_gpio.h **** #define CY_GPIO_HSIOM_MASK                     (0x1FUL)   /**< HSIOM selection mask */
 284:Generated_Source\PSoC6\pdl\drivers/peripheral/gpio/cy_gpio.h **** #define CY_GPIO_OUT_MASK                       (0x01UL)   /**< Single pin mask for OUT register */
 285:Generated_Source\PSoC6\pdl\drivers/peripheral/gpio/cy_gpio.h **** #define CY_GPIO_IN_MASK                        (0x01UL)   /**< Single pin mask for IN register */
 286:Generated_Source\PSoC6\pdl\drivers/peripheral/gpio/cy_gpio.h **** #define CY_GPIO_CFG_DM_MASK                    (0x0FUL)   /**< Single pin mask for drive mode in CF
 287:Generated_Source\PSoC6\pdl\drivers/peripheral/gpio/cy_gpio.h **** #define CY_GPIO_CFG_IN_VTRIP_SEL_MASK          (0x01UL)   /**< Single pin mask for VTRIP selection 
 288:Generated_Source\PSoC6\pdl\drivers/peripheral/gpio/cy_gpio.h **** #define CY_GPIO_CFG_OUT_SLOW_MASK              (0x01UL)   /**< Single pin mask for slew rate in CFG
 289:Generated_Source\PSoC6\pdl\drivers/peripheral/gpio/cy_gpio.h **** #define CY_GPIO_CFG_OUT_DRIVE_SEL_MASK         (0x03UL)   /**< Single pin mask for drive strength i
 290:Generated_Source\PSoC6\pdl\drivers/peripheral/gpio/cy_gpio.h **** #define CY_GPIO_INTR_STATUS_MASK               (0x01UL)   /**< Single pin mask for interrupt status
 291:Generated_Source\PSoC6\pdl\drivers/peripheral/gpio/cy_gpio.h **** #define CY_GPIO_INTR_EN_MASK                   (0x01UL)   /**< Single pin mask for interrupt status
 292:Generated_Source\PSoC6\pdl\drivers/peripheral/gpio/cy_gpio.h **** #define CY_GPIO_INTR_MASKED_MASK               (0x01UL)   /**< Single pin mask for masked interrupt
 293:Generated_Source\PSoC6\pdl\drivers/peripheral/gpio/cy_gpio.h **** #define CY_GPIO_INTR_SET_MASK                  (0x01UL)   /**< Single pin mask for setting the inte
 294:Generated_Source\PSoC6\pdl\drivers/peripheral/gpio/cy_gpio.h **** #define CY_GPIO_INTR_EDGE_MASK                 (0x03UL)   /**< Single pin mask for interrupt edge t
 295:Generated_Source\PSoC6\pdl\drivers/peripheral/gpio/cy_gpio.h **** #define CY_GPIO_INTR_FLT_EDGE_MASK             (0x07UL)   /**< Single pin mask for setting filtered
 296:Generated_Source\PSoC6\pdl\drivers/peripheral/gpio/cy_gpio.h **** 
 297:Generated_Source\PSoC6\pdl\drivers/peripheral/gpio/cy_gpio.h **** /* SIO Masks */
 298:Generated_Source\PSoC6\pdl\drivers/peripheral/gpio/cy_gpio.h **** #define CY_GPIO_VREG_EN_MASK                   (0x01UL)   /**< Single SIO pin mask for voltage regu
 299:Generated_Source\PSoC6\pdl\drivers/peripheral/gpio/cy_gpio.h **** #define CY_GPIO_IBUF_MASK                      (0x01UL)   /**< Single SIO pin mask for input buffer
 300:Generated_Source\PSoC6\pdl\drivers/peripheral/gpio/cy_gpio.h **** #define CY_GPIO_IBUF_SHIFT                     (0x01UL)   /**< Single SIO pin shift for input buffe
 301:Generated_Source\PSoC6\pdl\drivers/peripheral/gpio/cy_gpio.h **** #define CY_GPIO_VTRIP_SEL_MASK                 (0x01UL)   /**< Single SIO pin mask for the input bu
 302:Generated_Source\PSoC6\pdl\drivers/peripheral/gpio/cy_gpio.h **** #define CY_GPIO_VTRIP_SEL_SHIFT                (0x02UL)   /**< Single SIO pin shift for the input b
 303:Generated_Source\PSoC6\pdl\drivers/peripheral/gpio/cy_gpio.h **** #define CY_GPIO_VREF_SEL_MASK                  (0x03UL)   /**< Single SIO pin mask for voltage refe
ARM GAS  C:\Users\user\AppData\Local\Temp\ccSIFDDJ.s 			page 35


 304:Generated_Source\PSoC6\pdl\drivers/peripheral/gpio/cy_gpio.h **** #define CY_GPIO_VREF_SEL_SHIFT                 (0x03UL)   /**< Single SIO pin shift for voltage ref
 305:Generated_Source\PSoC6\pdl\drivers/peripheral/gpio/cy_gpio.h **** #define CY_GPIO_VOH_SEL_MASK                   (0x07UL)   /**< Single SIO pin mask for VOH */
 306:Generated_Source\PSoC6\pdl\drivers/peripheral/gpio/cy_gpio.h **** #define CY_GPIO_VOH_SEL_SHIFT                  (0x05UL)   /**< Single SIO pin shift for VOH */
 307:Generated_Source\PSoC6\pdl\drivers/peripheral/gpio/cy_gpio.h **** 
 308:Generated_Source\PSoC6\pdl\drivers/peripheral/gpio/cy_gpio.h **** /* Special mask for SIO pin pair setting */
 309:Generated_Source\PSoC6\pdl\drivers/peripheral/gpio/cy_gpio.h **** #define CY_GPIO_SIO_ODD_PIN_MASK               (0x00FEUL) /**< SIO pin pair selection mask */
 310:Generated_Source\PSoC6\pdl\drivers/peripheral/gpio/cy_gpio.h **** #define CY_GPIO_SIO_PIN_MASK                   (0x00FFUL) /**< SIO pin pair mask */
 311:Generated_Source\PSoC6\pdl\drivers/peripheral/gpio/cy_gpio.h **** 
 312:Generated_Source\PSoC6\pdl\drivers/peripheral/gpio/cy_gpio.h **** /* Offsets */
 313:Generated_Source\PSoC6\pdl\drivers/peripheral/gpio/cy_gpio.h **** #define CY_GPIO_HSIOM_OFFSET                   (3UL)      /**< Offset for HSIOM */
 314:Generated_Source\PSoC6\pdl\drivers/peripheral/gpio/cy_gpio.h **** #define CY_GPIO_DRIVE_MODE_OFFSET              (2UL)      /**< Offset for Drive mode */
 315:Generated_Source\PSoC6\pdl\drivers/peripheral/gpio/cy_gpio.h **** #define CY_GPIO_INBUF_OFFSET                   (3UL)      /**< Offset for input buffer */
 316:Generated_Source\PSoC6\pdl\drivers/peripheral/gpio/cy_gpio.h **** #define CY_GPIO_CFG_OUT_DRIVE_OFFSET           (16UL)     /**< Offset for drive strength */
 317:Generated_Source\PSoC6\pdl\drivers/peripheral/gpio/cy_gpio.h **** #define CY_GPIO_INTR_CFG_OFFSET                (1UL)      /**< Offset for interrupt config */
 318:Generated_Source\PSoC6\pdl\drivers/peripheral/gpio/cy_gpio.h **** #define CY_GPIO_INTR_FILT_OFFSET               (18UL)     /**< Offset for filtered interrupt config
 319:Generated_Source\PSoC6\pdl\drivers/peripheral/gpio/cy_gpio.h **** #define CY_GPIO_CFG_SIO_OFFSET                 (2UL)      /**< Offset for SIO config */
 320:Generated_Source\PSoC6\pdl\drivers/peripheral/gpio/cy_gpio.h **** 
 321:Generated_Source\PSoC6\pdl\drivers/peripheral/gpio/cy_gpio.h **** /* Parameter validation constants */
 322:Generated_Source\PSoC6\pdl\drivers/peripheral/gpio/cy_gpio.h **** #define CY_GPIO_PINS_MAX                       (8UL)      /**< Number of pins in the port */
 323:Generated_Source\PSoC6\pdl\drivers/peripheral/gpio/cy_gpio.h **** #define CY_GPIO_PRT_PINS_MASK                  (0x0000000FFUL)
 324:Generated_Source\PSoC6\pdl\drivers/peripheral/gpio/cy_gpio.h **** #define CY_GPIO_PRT_INTR_CFG_EDGE_SEL_MASK     (GPIO_PRT_INTR_CFG_EDGE0_SEL_Msk | \
 325:Generated_Source\PSoC6\pdl\drivers/peripheral/gpio/cy_gpio.h ****                                                 GPIO_PRT_INTR_CFG_EDGE1_SEL_Msk | \
 326:Generated_Source\PSoC6\pdl\drivers/peripheral/gpio/cy_gpio.h ****                                                 GPIO_PRT_INTR_CFG_EDGE2_SEL_Msk | \
 327:Generated_Source\PSoC6\pdl\drivers/peripheral/gpio/cy_gpio.h ****                                                 GPIO_PRT_INTR_CFG_EDGE3_SEL_Msk | \
 328:Generated_Source\PSoC6\pdl\drivers/peripheral/gpio/cy_gpio.h ****                                                 GPIO_PRT_INTR_CFG_EDGE4_SEL_Msk | \
 329:Generated_Source\PSoC6\pdl\drivers/peripheral/gpio/cy_gpio.h ****                                                 GPIO_PRT_INTR_CFG_EDGE5_SEL_Msk | \
 330:Generated_Source\PSoC6\pdl\drivers/peripheral/gpio/cy_gpio.h ****                                                 GPIO_PRT_INTR_CFG_EDGE6_SEL_Msk | \
 331:Generated_Source\PSoC6\pdl\drivers/peripheral/gpio/cy_gpio.h ****                                                 GPIO_PRT_INTR_CFG_EDGE7_SEL_Msk)
 332:Generated_Source\PSoC6\pdl\drivers/peripheral/gpio/cy_gpio.h **** #define CY_GPIO_PRT_INTR_CFG_RANGE_MASK        (CY_GPIO_PRT_INTR_CFG_EDGE_SEL_MASK | \
 333:Generated_Source\PSoC6\pdl\drivers/peripheral/gpio/cy_gpio.h ****                                                 GPIO_PRT_INTR_CFG_FLT_EDGE_SEL_Msk | \
 334:Generated_Source\PSoC6\pdl\drivers/peripheral/gpio/cy_gpio.h ****                                                 GPIO_PRT_INTR_CFG_FLT_SEL_Msk)
 335:Generated_Source\PSoC6\pdl\drivers/peripheral/gpio/cy_gpio.h **** #define CY_GPIO_PRT_INT_MASK_MASK              (0x0000001FFUL)
 336:Generated_Source\PSoC6\pdl\drivers/peripheral/gpio/cy_gpio.h **** #define CY_GPIO_PRT_SEL_ACTIVE_MASK            (0x1FFFFFFFUL)
 337:Generated_Source\PSoC6\pdl\drivers/peripheral/gpio/cy_gpio.h **** 
 338:Generated_Source\PSoC6\pdl\drivers/peripheral/gpio/cy_gpio.h **** #define GPIO_MAX_SPLIT_CELL_SEGMENTS           (9U)
 339:Generated_Source\PSoC6\pdl\drivers/peripheral/gpio/cy_gpio.h **** 
 340:Generated_Source\PSoC6\pdl\drivers/peripheral/gpio/cy_gpio.h **** /* Parameter validation macros */
 341:Generated_Source\PSoC6\pdl\drivers/peripheral/gpio/cy_gpio.h **** #define CY_GPIO_IS_PIN_VALID(pinNum)           (CY_GPIO_PINS_MAX > (pinNum))
 342:Generated_Source\PSoC6\pdl\drivers/peripheral/gpio/cy_gpio.h **** #define CY_GPIO_IS_FILTER_PIN_VALID(pinNum)    (CY_GPIO_PINS_MAX >= (pinNum))
 343:Generated_Source\PSoC6\pdl\drivers/peripheral/gpio/cy_gpio.h **** #define CY_GPIO_IS_VALUE_VALID(outVal)         (1UL >= (outVal))
 344:Generated_Source\PSoC6\pdl\drivers/peripheral/gpio/cy_gpio.h **** #define CY_GPIO_IS_DM_VALID(driveMode)         (0U == ((driveMode) & (uint32_t)~CY_GPIO_CFG_DM_MASK
 345:Generated_Source\PSoC6\pdl\drivers/peripheral/gpio/cy_gpio.h **** 
 346:Generated_Source\PSoC6\pdl\drivers/peripheral/gpio/cy_gpio.h **** #define CY_GPIO_IS_HSIOM_VALID(hsiom)          (0U == ((hsiom) & (uint32_t)~CY_GPIO_HSIOM_MASK))
 347:Generated_Source\PSoC6\pdl\drivers/peripheral/gpio/cy_gpio.h **** 
 348:Generated_Source\PSoC6\pdl\drivers/peripheral/gpio/cy_gpio.h **** #define CY_GPIO_IS_INT_EDGE_VALID(intEdge)     ((CY_GPIO_INTR_DISABLE  == (intEdge)) || \
 349:Generated_Source\PSoC6\pdl\drivers/peripheral/gpio/cy_gpio.h ****                                                 (CY_GPIO_INTR_RISING   == (intEdge)) || \
 350:Generated_Source\PSoC6\pdl\drivers/peripheral/gpio/cy_gpio.h ****                                                 (CY_GPIO_INTR_FALLING  == (intEdge)) || \
 351:Generated_Source\PSoC6\pdl\drivers/peripheral/gpio/cy_gpio.h ****                                                 (CY_GPIO_INTR_BOTH     == (intEdge)))
 352:Generated_Source\PSoC6\pdl\drivers/peripheral/gpio/cy_gpio.h **** 
 353:Generated_Source\PSoC6\pdl\drivers/peripheral/gpio/cy_gpio.h **** #define CY_GPIO_IS_DRIVE_SEL_VALID(driveSel)   ((CY_GPIO_DRIVE_FULL    == (driveSel)) || \
 354:Generated_Source\PSoC6\pdl\drivers/peripheral/gpio/cy_gpio.h ****                                                 (CY_GPIO_DRIVE_1_2     == (driveSel)) || \
 355:Generated_Source\PSoC6\pdl\drivers/peripheral/gpio/cy_gpio.h ****                                                 (CY_GPIO_DRIVE_1_4     == (driveSel)) || \
 356:Generated_Source\PSoC6\pdl\drivers/peripheral/gpio/cy_gpio.h ****                                                 (CY_GPIO_DRIVE_1_8     == (driveSel)))
 357:Generated_Source\PSoC6\pdl\drivers/peripheral/gpio/cy_gpio.h **** 
 358:Generated_Source\PSoC6\pdl\drivers/peripheral/gpio/cy_gpio.h **** #define CY_GPIO_IS_VREF_SEL_VALID(vrefSel)     ((CY_SIO_VREF_PINREF    == (vrefSel)) || \
 359:Generated_Source\PSoC6\pdl\drivers/peripheral/gpio/cy_gpio.h ****                                                 (CY_SIO_VREF_1_2V      == (vrefSel)) || \
 360:Generated_Source\PSoC6\pdl\drivers/peripheral/gpio/cy_gpio.h ****                                                 (CY_SIO_VREF_AMUX_A    == (vrefSel)) || \
ARM GAS  C:\Users\user\AppData\Local\Temp\ccSIFDDJ.s 			page 36


 361:Generated_Source\PSoC6\pdl\drivers/peripheral/gpio/cy_gpio.h ****                                                 (CY_SIO_VREF_AMUX_B    == (vrefSel)))
 362:Generated_Source\PSoC6\pdl\drivers/peripheral/gpio/cy_gpio.h **** 
 363:Generated_Source\PSoC6\pdl\drivers/peripheral/gpio/cy_gpio.h **** #define CY_GPIO_IS_VOH_SEL_VALID(vrefSel)      ((CY_SIO_VOH_1_00       == (vrefSel)) || \
 364:Generated_Source\PSoC6\pdl\drivers/peripheral/gpio/cy_gpio.h ****                                                 (CY_SIO_VOH_1_25       == (vrefSel)) || \
 365:Generated_Source\PSoC6\pdl\drivers/peripheral/gpio/cy_gpio.h ****                                                 (CY_SIO_VOH_1_49       == (vrefSel)) || \
 366:Generated_Source\PSoC6\pdl\drivers/peripheral/gpio/cy_gpio.h ****                                                 (CY_SIO_VOH_1_67       == (vrefSel)) || \
 367:Generated_Source\PSoC6\pdl\drivers/peripheral/gpio/cy_gpio.h ****                                                 (CY_SIO_VOH_2_08       == (vrefSel)) || \
 368:Generated_Source\PSoC6\pdl\drivers/peripheral/gpio/cy_gpio.h ****                                                 (CY_SIO_VOH_2_50       == (vrefSel)) || \
 369:Generated_Source\PSoC6\pdl\drivers/peripheral/gpio/cy_gpio.h ****                                                 (CY_SIO_VOH_2_78       == (vrefSel)) || \
 370:Generated_Source\PSoC6\pdl\drivers/peripheral/gpio/cy_gpio.h ****                                                 (CY_SIO_VOH_4_16       == (vrefSel)))
 371:Generated_Source\PSoC6\pdl\drivers/peripheral/gpio/cy_gpio.h ****                    
 372:Generated_Source\PSoC6\pdl\drivers/peripheral/gpio/cy_gpio.h **** #define CY_GPIO_IS_PIN_BIT_VALID(pinBit)       (0U == ((pinBit) & (uint32_t)~CY_GPIO_PRT_PINS_MASK)
 373:Generated_Source\PSoC6\pdl\drivers/peripheral/gpio/cy_gpio.h **** #define CY_GPIO_IS_INTR_CFG_VALID(intrCfg)     (0U == ((intrCfg) & (uint32_t)~CY_GPIO_PRT_INTR_CFG_
 374:Generated_Source\PSoC6\pdl\drivers/peripheral/gpio/cy_gpio.h **** #define CY_GPIO_IS_INTR_MASK_VALID(intrMask)   (0U == ((intrMask) & (uint32_t)~CY_GPIO_PRT_INT_MASK
 375:Generated_Source\PSoC6\pdl\drivers/peripheral/gpio/cy_gpio.h **** #define CY_GPIO_IS_SEL_ACT_VALID(selActive)    (0U == ((selActive) & (uint32_t)~CY_GPIO_PRT_SEL_ACT
 376:Generated_Source\PSoC6\pdl\drivers/peripheral/gpio/cy_gpio.h **** 
 377:Generated_Source\PSoC6\pdl\drivers/peripheral/gpio/cy_gpio.h **** #define CY_GPIO_IS_AMUX_SPLIT_VALID(switchCtrl)       (((uint32_t) (switchCtrl)) < GPIO_MAX_SPLIT_C
 378:Generated_Source\PSoC6\pdl\drivers/peripheral/gpio/cy_gpio.h **** 
 379:Generated_Source\PSoC6\pdl\drivers/peripheral/gpio/cy_gpio.h **** #define CY_GPIO_IS_AMUX_CONNECT_VALID(amuxConnect)    ((CY_GPIO_AMUX_OPENALL == (amuxConnect)) || \
 380:Generated_Source\PSoC6\pdl\drivers/peripheral/gpio/cy_gpio.h ****                                                        (CY_GPIO_AMUX_L       == (amuxConnect)) || \
 381:Generated_Source\PSoC6\pdl\drivers/peripheral/gpio/cy_gpio.h ****                                                        (CY_GPIO_AMUX_R       == (amuxConnect)) || \
 382:Generated_Source\PSoC6\pdl\drivers/peripheral/gpio/cy_gpio.h ****                                                        (CY_GPIO_AMUX_LR      == (amuxConnect)) || \
 383:Generated_Source\PSoC6\pdl\drivers/peripheral/gpio/cy_gpio.h ****                                                        (CY_GPIO_AMUX_G       == (amuxConnect)) || \
 384:Generated_Source\PSoC6\pdl\drivers/peripheral/gpio/cy_gpio.h ****                                                        (CY_GPIO_AMUX_GL      == (amuxConnect)) || \
 385:Generated_Source\PSoC6\pdl\drivers/peripheral/gpio/cy_gpio.h ****                                                        (CY_GPIO_AMUX_GR      == (amuxConnect)) || \
 386:Generated_Source\PSoC6\pdl\drivers/peripheral/gpio/cy_gpio.h ****                                                        (CY_GPIO_AMUX_GLR     == (amuxConnect)))
 387:Generated_Source\PSoC6\pdl\drivers/peripheral/gpio/cy_gpio.h **** 
 388:Generated_Source\PSoC6\pdl\drivers/peripheral/gpio/cy_gpio.h **** #define CY_GPIO_IS_AMUX_SELECT_VALID(amuxBus)       ((CY_GPIO_AMUXBUSA       == (amuxBus)) || \
 389:Generated_Source\PSoC6\pdl\drivers/peripheral/gpio/cy_gpio.h ****                                                      (CY_GPIO_AMUXBUSB       == (amuxBus)))
 390:Generated_Source\PSoC6\pdl\drivers/peripheral/gpio/cy_gpio.h **** /** \endcond */
 391:Generated_Source\PSoC6\pdl\drivers/peripheral/gpio/cy_gpio.h **** 
 392:Generated_Source\PSoC6\pdl\drivers/peripheral/gpio/cy_gpio.h **** 
 393:Generated_Source\PSoC6\pdl\drivers/peripheral/gpio/cy_gpio.h **** /***************************************
 394:Generated_Source\PSoC6\pdl\drivers/peripheral/gpio/cy_gpio.h **** *        Function Constants
 395:Generated_Source\PSoC6\pdl\drivers/peripheral/gpio/cy_gpio.h **** ***************************************/
 396:Generated_Source\PSoC6\pdl\drivers/peripheral/gpio/cy_gpio.h **** 
 397:Generated_Source\PSoC6\pdl\drivers/peripheral/gpio/cy_gpio.h **** /**
 398:Generated_Source\PSoC6\pdl\drivers/peripheral/gpio/cy_gpio.h **** * \addtogroup group_gpio_macros
 399:Generated_Source\PSoC6\pdl\drivers/peripheral/gpio/cy_gpio.h **** * \{
 400:Generated_Source\PSoC6\pdl\drivers/peripheral/gpio/cy_gpio.h **** */
 401:Generated_Source\PSoC6\pdl\drivers/peripheral/gpio/cy_gpio.h **** 
 402:Generated_Source\PSoC6\pdl\drivers/peripheral/gpio/cy_gpio.h **** /**
 403:Generated_Source\PSoC6\pdl\drivers/peripheral/gpio/cy_gpio.h **** * \defgroup group_gpio_driveModes Pin drive mode
 404:Generated_Source\PSoC6\pdl\drivers/peripheral/gpio/cy_gpio.h **** * \{
 405:Generated_Source\PSoC6\pdl\drivers/peripheral/gpio/cy_gpio.h **** * Constants to be used for setting the drive mode of the pin.
 406:Generated_Source\PSoC6\pdl\drivers/peripheral/gpio/cy_gpio.h **** */
 407:Generated_Source\PSoC6\pdl\drivers/peripheral/gpio/cy_gpio.h **** #define CY_GPIO_DM_ANALOG                      (0x00UL) /**< Analog High-Z. Input buffer off */
 408:Generated_Source\PSoC6\pdl\drivers/peripheral/gpio/cy_gpio.h **** #define CY_GPIO_DM_PULLUP_IN_OFF               (0x02UL) /**< Resistive Pull-Up. Input buffer off */
 409:Generated_Source\PSoC6\pdl\drivers/peripheral/gpio/cy_gpio.h **** #define CY_GPIO_DM_PULLDOWN_IN_OFF             (0x03UL) /**< Resistive Pull-Down. Input buffer off 
 410:Generated_Source\PSoC6\pdl\drivers/peripheral/gpio/cy_gpio.h **** #define CY_GPIO_DM_OD_DRIVESLOW_IN_OFF         (0x04UL) /**< Open Drain, Drives Low. Input buffer o
 411:Generated_Source\PSoC6\pdl\drivers/peripheral/gpio/cy_gpio.h **** #define CY_GPIO_DM_OD_DRIVESHIGH_IN_OFF        (0x05UL) /**< Open Drain, Drives High. Input buffer 
 412:Generated_Source\PSoC6\pdl\drivers/peripheral/gpio/cy_gpio.h **** #define CY_GPIO_DM_STRONG_IN_OFF               (0x06UL) /**< Strong Drive. Input buffer off */
 413:Generated_Source\PSoC6\pdl\drivers/peripheral/gpio/cy_gpio.h **** #define CY_GPIO_DM_PULLUP_DOWN_IN_OFF          (0x07UL) /**< Resistive Pull-Up/Down. Input buffer o
 414:Generated_Source\PSoC6\pdl\drivers/peripheral/gpio/cy_gpio.h **** #define CY_GPIO_DM_HIGHZ                       (0x08UL) /**< Digital High-Z. Input buffer on */
 415:Generated_Source\PSoC6\pdl\drivers/peripheral/gpio/cy_gpio.h **** #define CY_GPIO_DM_PULLUP                      (0x0AUL) /**< Resistive Pull-Up. Input buffer on */
 416:Generated_Source\PSoC6\pdl\drivers/peripheral/gpio/cy_gpio.h **** #define CY_GPIO_DM_PULLDOWN                    (0x0BUL) /**< Resistive Pull-Down. Input buffer on *
 417:Generated_Source\PSoC6\pdl\drivers/peripheral/gpio/cy_gpio.h **** #define CY_GPIO_DM_OD_DRIVESLOW                (0x0CUL) /**< Open Drain, Drives Low. Input buffer o
ARM GAS  C:\Users\user\AppData\Local\Temp\ccSIFDDJ.s 			page 37


 418:Generated_Source\PSoC6\pdl\drivers/peripheral/gpio/cy_gpio.h **** #define CY_GPIO_DM_OD_DRIVESHIGH               (0x0DUL) /**< Open Drain, Drives High. Input buffer 
 419:Generated_Source\PSoC6\pdl\drivers/peripheral/gpio/cy_gpio.h **** #define CY_GPIO_DM_STRONG                      (0x0EUL) /**< Strong Drive. Input buffer on */
 420:Generated_Source\PSoC6\pdl\drivers/peripheral/gpio/cy_gpio.h **** #define CY_GPIO_DM_PULLUP_DOWN                 (0x0FUL) /**< Resistive Pull-Up/Down. Input buffer o
 421:Generated_Source\PSoC6\pdl\drivers/peripheral/gpio/cy_gpio.h **** /** \} */
 422:Generated_Source\PSoC6\pdl\drivers/peripheral/gpio/cy_gpio.h **** 
 423:Generated_Source\PSoC6\pdl\drivers/peripheral/gpio/cy_gpio.h **** /**
 424:Generated_Source\PSoC6\pdl\drivers/peripheral/gpio/cy_gpio.h **** * \defgroup group_gpio_vtrip Voltage trip mode
 425:Generated_Source\PSoC6\pdl\drivers/peripheral/gpio/cy_gpio.h **** * \{
 426:Generated_Source\PSoC6\pdl\drivers/peripheral/gpio/cy_gpio.h **** * Constants to be used for setting the voltage trip type on the pin.
 427:Generated_Source\PSoC6\pdl\drivers/peripheral/gpio/cy_gpio.h **** */
 428:Generated_Source\PSoC6\pdl\drivers/peripheral/gpio/cy_gpio.h **** #define CY_GPIO_VTRIP_CMOS                     (0x00UL) /**< Input buffer compatible with CMOS and 
 429:Generated_Source\PSoC6\pdl\drivers/peripheral/gpio/cy_gpio.h **** #define CY_GPIO_VTRIP_TTL                      (0x01UL) /**< Input buffer compatible with TTL and M
 430:Generated_Source\PSoC6\pdl\drivers/peripheral/gpio/cy_gpio.h **** /** \} */
 431:Generated_Source\PSoC6\pdl\drivers/peripheral/gpio/cy_gpio.h **** 
 432:Generated_Source\PSoC6\pdl\drivers/peripheral/gpio/cy_gpio.h **** /**
 433:Generated_Source\PSoC6\pdl\drivers/peripheral/gpio/cy_gpio.h **** * \defgroup group_gpio_slewRate Slew Rate Mode
 434:Generated_Source\PSoC6\pdl\drivers/peripheral/gpio/cy_gpio.h **** * \{
 435:Generated_Source\PSoC6\pdl\drivers/peripheral/gpio/cy_gpio.h **** * Constants to be used for setting the slew rate of the pin.
 436:Generated_Source\PSoC6\pdl\drivers/peripheral/gpio/cy_gpio.h **** */
 437:Generated_Source\PSoC6\pdl\drivers/peripheral/gpio/cy_gpio.h **** #define CY_GPIO_SLEW_FAST                      (0x00UL) /**< Fast slew rate */
 438:Generated_Source\PSoC6\pdl\drivers/peripheral/gpio/cy_gpio.h **** #define CY_GPIO_SLEW_SLOW                      (0x01UL) /**< Slow slew rate */
 439:Generated_Source\PSoC6\pdl\drivers/peripheral/gpio/cy_gpio.h **** /** \} */
 440:Generated_Source\PSoC6\pdl\drivers/peripheral/gpio/cy_gpio.h **** 
 441:Generated_Source\PSoC6\pdl\drivers/peripheral/gpio/cy_gpio.h **** /**
 442:Generated_Source\PSoC6\pdl\drivers/peripheral/gpio/cy_gpio.h **** * \defgroup group_gpio_driveStrength Pin drive strength
 443:Generated_Source\PSoC6\pdl\drivers/peripheral/gpio/cy_gpio.h **** * \{
 444:Generated_Source\PSoC6\pdl\drivers/peripheral/gpio/cy_gpio.h **** * Constants to be used for setting the drive strength of the pin.
 445:Generated_Source\PSoC6\pdl\drivers/peripheral/gpio/cy_gpio.h **** */
 446:Generated_Source\PSoC6\pdl\drivers/peripheral/gpio/cy_gpio.h **** #define CY_GPIO_DRIVE_FULL                     (0x00UL) /**< Full drive strength: Max drive current
 447:Generated_Source\PSoC6\pdl\drivers/peripheral/gpio/cy_gpio.h **** #define CY_GPIO_DRIVE_1_2                      (0x01UL) /**< 1/2 drive strength: 1/2 drive current 
 448:Generated_Source\PSoC6\pdl\drivers/peripheral/gpio/cy_gpio.h **** #define CY_GPIO_DRIVE_1_4                      (0x02UL) /**< 1/4 drive strength: 1/4 drive current 
 449:Generated_Source\PSoC6\pdl\drivers/peripheral/gpio/cy_gpio.h **** #define CY_GPIO_DRIVE_1_8                      (0x03UL) /**< 1/8 drive strength: 1/8 drive current 
 450:Generated_Source\PSoC6\pdl\drivers/peripheral/gpio/cy_gpio.h **** /** \} */
 451:Generated_Source\PSoC6\pdl\drivers/peripheral/gpio/cy_gpio.h **** 
 452:Generated_Source\PSoC6\pdl\drivers/peripheral/gpio/cy_gpio.h **** /**
 453:Generated_Source\PSoC6\pdl\drivers/peripheral/gpio/cy_gpio.h **** * \defgroup group_gpio_interruptTrigger Interrupt trigger type
 454:Generated_Source\PSoC6\pdl\drivers/peripheral/gpio/cy_gpio.h **** * \{
 455:Generated_Source\PSoC6\pdl\drivers/peripheral/gpio/cy_gpio.h **** * Constants to be used for setting the interrupt trigger type on the pin.
 456:Generated_Source\PSoC6\pdl\drivers/peripheral/gpio/cy_gpio.h **** */
 457:Generated_Source\PSoC6\pdl\drivers/peripheral/gpio/cy_gpio.h **** #define CY_GPIO_INTR_DISABLE                   (0x00UL) /**< Disable the pin interrupt generation *
 458:Generated_Source\PSoC6\pdl\drivers/peripheral/gpio/cy_gpio.h **** #define CY_GPIO_INTR_RISING                    (0x01UL) /**< Rising-Edge interrupt */
 459:Generated_Source\PSoC6\pdl\drivers/peripheral/gpio/cy_gpio.h **** #define CY_GPIO_INTR_FALLING                   (0x02UL) /**< Falling-Edge interrupt */
 460:Generated_Source\PSoC6\pdl\drivers/peripheral/gpio/cy_gpio.h **** #define CY_GPIO_INTR_BOTH                      (0x03UL) /**< Both-Edge interrupt */
 461:Generated_Source\PSoC6\pdl\drivers/peripheral/gpio/cy_gpio.h **** /** \} */
 462:Generated_Source\PSoC6\pdl\drivers/peripheral/gpio/cy_gpio.h **** 
 463:Generated_Source\PSoC6\pdl\drivers/peripheral/gpio/cy_gpio.h **** /**
 464:Generated_Source\PSoC6\pdl\drivers/peripheral/gpio/cy_gpio.h **** * \defgroup group_gpio_sioVreg SIO output buffer mode
 465:Generated_Source\PSoC6\pdl\drivers/peripheral/gpio/cy_gpio.h **** * \{
 466:Generated_Source\PSoC6\pdl\drivers/peripheral/gpio/cy_gpio.h **** * Constants to be used for setting the SIO output buffer mode on the pin.
 467:Generated_Source\PSoC6\pdl\drivers/peripheral/gpio/cy_gpio.h **** */
 468:Generated_Source\PSoC6\pdl\drivers/peripheral/gpio/cy_gpio.h **** #define CY_SIO_VREG_UNREGULATED                (0x00UL) /**< Unregulated output buffer */
 469:Generated_Source\PSoC6\pdl\drivers/peripheral/gpio/cy_gpio.h **** #define CY_SIO_VREG_REGULATED                  (0x01UL) /**< Regulated output buffer */
 470:Generated_Source\PSoC6\pdl\drivers/peripheral/gpio/cy_gpio.h **** /** \} */
 471:Generated_Source\PSoC6\pdl\drivers/peripheral/gpio/cy_gpio.h **** 
 472:Generated_Source\PSoC6\pdl\drivers/peripheral/gpio/cy_gpio.h **** /**
 473:Generated_Source\PSoC6\pdl\drivers/peripheral/gpio/cy_gpio.h **** * \defgroup group_gpio_sioIbuf SIO input buffer mode
 474:Generated_Source\PSoC6\pdl\drivers/peripheral/gpio/cy_gpio.h **** * \{
ARM GAS  C:\Users\user\AppData\Local\Temp\ccSIFDDJ.s 			page 38


 475:Generated_Source\PSoC6\pdl\drivers/peripheral/gpio/cy_gpio.h **** * Constants to be used for setting the SIO input buffer mode on the pin.
 476:Generated_Source\PSoC6\pdl\drivers/peripheral/gpio/cy_gpio.h **** */
 477:Generated_Source\PSoC6\pdl\drivers/peripheral/gpio/cy_gpio.h **** #define CY_SIO_IBUF_SINGLEENDED                (0x00UL) /**< Single ended input buffer */
 478:Generated_Source\PSoC6\pdl\drivers/peripheral/gpio/cy_gpio.h **** #define CY_SIO_IBUF_DIFFERENTIAL               (0x01UL) /**< Differential input buffer */
 479:Generated_Source\PSoC6\pdl\drivers/peripheral/gpio/cy_gpio.h **** /** \} */
 480:Generated_Source\PSoC6\pdl\drivers/peripheral/gpio/cy_gpio.h **** 
 481:Generated_Source\PSoC6\pdl\drivers/peripheral/gpio/cy_gpio.h **** /**
 482:Generated_Source\PSoC6\pdl\drivers/peripheral/gpio/cy_gpio.h **** * \defgroup group_gpio_sioVtrip SIO input buffer trip-point
 483:Generated_Source\PSoC6\pdl\drivers/peripheral/gpio/cy_gpio.h **** * \{
 484:Generated_Source\PSoC6\pdl\drivers/peripheral/gpio/cy_gpio.h **** * Constants to be used for setting the SIO input buffer trip-point of the pin.
 485:Generated_Source\PSoC6\pdl\drivers/peripheral/gpio/cy_gpio.h **** */
 486:Generated_Source\PSoC6\pdl\drivers/peripheral/gpio/cy_gpio.h **** #define CY_SIO_VTRIP_CMOS                      (0x00UL) /**< CMOS input buffer (single-ended) */
 487:Generated_Source\PSoC6\pdl\drivers/peripheral/gpio/cy_gpio.h **** #define CY_SIO_VTRIP_TTL                       (0x01UL) /**< TTL input buffer (single-ended) */
 488:Generated_Source\PSoC6\pdl\drivers/peripheral/gpio/cy_gpio.h **** #define CY_SIO_VTRIP_0_5VDDIO_0_5VOH           (0x00UL) /**< 0.5xVddio or 0.5xVoh (differential) */
 489:Generated_Source\PSoC6\pdl\drivers/peripheral/gpio/cy_gpio.h **** #define CY_SIO_VTRIP_0_4VDDIO_1_0VREF          (0x01UL) /**< 0.4xVddio or 0.4xVoh (differential) */
 490:Generated_Source\PSoC6\pdl\drivers/peripheral/gpio/cy_gpio.h **** /** \} */
 491:Generated_Source\PSoC6\pdl\drivers/peripheral/gpio/cy_gpio.h **** 
 492:Generated_Source\PSoC6\pdl\drivers/peripheral/gpio/cy_gpio.h **** /**
 493:Generated_Source\PSoC6\pdl\drivers/peripheral/gpio/cy_gpio.h **** * \defgroup group_gpio_sioVref SIO reference voltage for input buffer trip-point
 494:Generated_Source\PSoC6\pdl\drivers/peripheral/gpio/cy_gpio.h **** * \{
 495:Generated_Source\PSoC6\pdl\drivers/peripheral/gpio/cy_gpio.h **** * Constants to be used for setting the reference voltage of SIO input buffer trip-point.
 496:Generated_Source\PSoC6\pdl\drivers/peripheral/gpio/cy_gpio.h **** */
 497:Generated_Source\PSoC6\pdl\drivers/peripheral/gpio/cy_gpio.h **** #define CY_SIO_VREF_PINREF                     (0x00UL) /**< Vref from analog pin */
 498:Generated_Source\PSoC6\pdl\drivers/peripheral/gpio/cy_gpio.h **** #define CY_SIO_VREF_1_2V                       (0x01UL) /**< Vref from internal 1.2V reference */
 499:Generated_Source\PSoC6\pdl\drivers/peripheral/gpio/cy_gpio.h **** #define CY_SIO_VREF_AMUX_A                     (0x02UL) /**< Vref from AMUXBUS_A */
 500:Generated_Source\PSoC6\pdl\drivers/peripheral/gpio/cy_gpio.h **** #define CY_SIO_VREF_AMUX_B                     (0x03UL) /**< Vref from AMUXBUS_B */
 501:Generated_Source\PSoC6\pdl\drivers/peripheral/gpio/cy_gpio.h **** /** \} */
 502:Generated_Source\PSoC6\pdl\drivers/peripheral/gpio/cy_gpio.h **** 
 503:Generated_Source\PSoC6\pdl\drivers/peripheral/gpio/cy_gpio.h **** /**
 504:Generated_Source\PSoC6\pdl\drivers/peripheral/gpio/cy_gpio.h **** * \defgroup group_gpio_sioVoh Regulated output voltage level (Voh) and input buffer trip-point of a
 505:Generated_Source\PSoC6\pdl\drivers/peripheral/gpio/cy_gpio.h **** * \{
 506:Generated_Source\PSoC6\pdl\drivers/peripheral/gpio/cy_gpio.h **** * Constants to be used for setting the Voh and input buffer trip-point of an SIO pair
 507:Generated_Source\PSoC6\pdl\drivers/peripheral/gpio/cy_gpio.h **** */
 508:Generated_Source\PSoC6\pdl\drivers/peripheral/gpio/cy_gpio.h **** #define CY_SIO_VOH_1_00                        (0x00UL) /**< Voh = 1 x Reference */
 509:Generated_Source\PSoC6\pdl\drivers/peripheral/gpio/cy_gpio.h **** #define CY_SIO_VOH_1_25                        (0x01UL) /**< Voh = 1.25 x Reference */
 510:Generated_Source\PSoC6\pdl\drivers/peripheral/gpio/cy_gpio.h **** #define CY_SIO_VOH_1_49                        (0x02UL) /**< Voh = 1.49 x Reference */
 511:Generated_Source\PSoC6\pdl\drivers/peripheral/gpio/cy_gpio.h **** #define CY_SIO_VOH_1_67                        (0x03UL) /**< Voh = 1.67 x Reference */
 512:Generated_Source\PSoC6\pdl\drivers/peripheral/gpio/cy_gpio.h **** #define CY_SIO_VOH_2_08                        (0x04UL) /**< Voh = 2.08 x Reference */
 513:Generated_Source\PSoC6\pdl\drivers/peripheral/gpio/cy_gpio.h **** #define CY_SIO_VOH_2_50                        (0x05UL) /**< Voh = 2.50 x Reference */
 514:Generated_Source\PSoC6\pdl\drivers/peripheral/gpio/cy_gpio.h **** #define CY_SIO_VOH_2_78                        (0x06UL) /**< Voh = 2.78 x Reference */
 515:Generated_Source\PSoC6\pdl\drivers/peripheral/gpio/cy_gpio.h **** #define CY_SIO_VOH_4_16                        (0x07UL) /**< Voh = 4.16 x Reference */
 516:Generated_Source\PSoC6\pdl\drivers/peripheral/gpio/cy_gpio.h **** /** \} */
 517:Generated_Source\PSoC6\pdl\drivers/peripheral/gpio/cy_gpio.h **** 
 518:Generated_Source\PSoC6\pdl\drivers/peripheral/gpio/cy_gpio.h **** /** \} group_gpio_macros */
 519:Generated_Source\PSoC6\pdl\drivers/peripheral/gpio/cy_gpio.h **** 
 520:Generated_Source\PSoC6\pdl\drivers/peripheral/gpio/cy_gpio.h **** /***************************************
 521:Generated_Source\PSoC6\pdl\drivers/peripheral/gpio/cy_gpio.h **** *        Function Prototypes
 522:Generated_Source\PSoC6\pdl\drivers/peripheral/gpio/cy_gpio.h **** ***************************************/
 523:Generated_Source\PSoC6\pdl\drivers/peripheral/gpio/cy_gpio.h **** 
 524:Generated_Source\PSoC6\pdl\drivers/peripheral/gpio/cy_gpio.h **** /**
 525:Generated_Source\PSoC6\pdl\drivers/peripheral/gpio/cy_gpio.h **** * \addtogroup group_gpio_functions
 526:Generated_Source\PSoC6\pdl\drivers/peripheral/gpio/cy_gpio.h **** * \{
 527:Generated_Source\PSoC6\pdl\drivers/peripheral/gpio/cy_gpio.h **** */
 528:Generated_Source\PSoC6\pdl\drivers/peripheral/gpio/cy_gpio.h **** 
 529:Generated_Source\PSoC6\pdl\drivers/peripheral/gpio/cy_gpio.h **** /**
 530:Generated_Source\PSoC6\pdl\drivers/peripheral/gpio/cy_gpio.h **** * \addtogroup group_gpio_functions_init
 531:Generated_Source\PSoC6\pdl\drivers/peripheral/gpio/cy_gpio.h **** * \{
ARM GAS  C:\Users\user\AppData\Local\Temp\ccSIFDDJ.s 			page 39


 532:Generated_Source\PSoC6\pdl\drivers/peripheral/gpio/cy_gpio.h **** */
 533:Generated_Source\PSoC6\pdl\drivers/peripheral/gpio/cy_gpio.h **** 
 534:Generated_Source\PSoC6\pdl\drivers/peripheral/gpio/cy_gpio.h **** cy_en_gpio_status_t Cy_GPIO_Pin_Init(GPIO_PRT_Type* base, uint32_t pinNum, const cy_stc_gpio_pin_co
 535:Generated_Source\PSoC6\pdl\drivers/peripheral/gpio/cy_gpio.h **** cy_en_gpio_status_t Cy_GPIO_Port_Init(GPIO_PRT_Type* base, const cy_stc_gpio_prt_config_t *config);
 536:Generated_Source\PSoC6\pdl\drivers/peripheral/gpio/cy_gpio.h **** void Cy_GPIO_Pin_FastInit(GPIO_PRT_Type* base, uint32_t pinNum, uint32_t driveMode, uint32_t outVal
 537:Generated_Source\PSoC6\pdl\drivers/peripheral/gpio/cy_gpio.h **** void Cy_GPIO_Port_Deinit(GPIO_PRT_Type* base);
 538:Generated_Source\PSoC6\pdl\drivers/peripheral/gpio/cy_gpio.h **** __STATIC_INLINE void Cy_GPIO_SetHSIOM(GPIO_PRT_Type* base, uint32_t pinNum, en_hsiom_sel_t value);
 539:Generated_Source\PSoC6\pdl\drivers/peripheral/gpio/cy_gpio.h **** __STATIC_INLINE en_hsiom_sel_t Cy_GPIO_GetHSIOM(GPIO_PRT_Type* base, uint32_t pinNum);
 540:Generated_Source\PSoC6\pdl\drivers/peripheral/gpio/cy_gpio.h **** __STATIC_INLINE GPIO_PRT_Type* Cy_GPIO_PortToAddr(uint32_t portNum);
 541:Generated_Source\PSoC6\pdl\drivers/peripheral/gpio/cy_gpio.h **** 
 542:Generated_Source\PSoC6\pdl\drivers/peripheral/gpio/cy_gpio.h **** /** \} group_gpio_functions_init */
 543:Generated_Source\PSoC6\pdl\drivers/peripheral/gpio/cy_gpio.h **** 
 544:Generated_Source\PSoC6\pdl\drivers/peripheral/gpio/cy_gpio.h **** /**
 545:Generated_Source\PSoC6\pdl\drivers/peripheral/gpio/cy_gpio.h **** * \addtogroup group_gpio_functions_gpio
 546:Generated_Source\PSoC6\pdl\drivers/peripheral/gpio/cy_gpio.h **** * \{
 547:Generated_Source\PSoC6\pdl\drivers/peripheral/gpio/cy_gpio.h **** */
 548:Generated_Source\PSoC6\pdl\drivers/peripheral/gpio/cy_gpio.h **** 
 549:Generated_Source\PSoC6\pdl\drivers/peripheral/gpio/cy_gpio.h **** void Cy_GPIO_SetAmuxSplit(cy_en_amux_split_t switchCtrl, cy_en_gpio_amuxconnect_t amuxConnect, cy_e
 550:Generated_Source\PSoC6\pdl\drivers/peripheral/gpio/cy_gpio.h **** cy_en_gpio_amuxconnect_t Cy_GPIO_GetAmuxSplit(cy_en_amux_split_t switchCtrl, cy_en_gpio_amuxselect_
 551:Generated_Source\PSoC6\pdl\drivers/peripheral/gpio/cy_gpio.h **** 
 552:Generated_Source\PSoC6\pdl\drivers/peripheral/gpio/cy_gpio.h **** __STATIC_INLINE uint32_t Cy_GPIO_Read(GPIO_PRT_Type* base, uint32_t pinNum);
 553:Generated_Source\PSoC6\pdl\drivers/peripheral/gpio/cy_gpio.h **** __STATIC_INLINE void Cy_GPIO_Write(GPIO_PRT_Type* base, uint32_t pinNum, uint32_t value);
 554:Generated_Source\PSoC6\pdl\drivers/peripheral/gpio/cy_gpio.h **** __STATIC_INLINE uint32_t Cy_GPIO_ReadOut(GPIO_PRT_Type* base, uint32_t pinNum);
 555:Generated_Source\PSoC6\pdl\drivers/peripheral/gpio/cy_gpio.h **** __STATIC_INLINE void Cy_GPIO_Set(GPIO_PRT_Type* base, uint32_t pinNum);
 556:Generated_Source\PSoC6\pdl\drivers/peripheral/gpio/cy_gpio.h **** __STATIC_INLINE void Cy_GPIO_Clr(GPIO_PRT_Type* base, uint32_t pinNum);
 557:Generated_Source\PSoC6\pdl\drivers/peripheral/gpio/cy_gpio.h **** __STATIC_INLINE void Cy_GPIO_Inv(GPIO_PRT_Type* base, uint32_t pinNum);
 558:Generated_Source\PSoC6\pdl\drivers/peripheral/gpio/cy_gpio.h **** __STATIC_INLINE void Cy_GPIO_SetDrivemode(GPIO_PRT_Type* base, uint32_t pinNum, uint32_t value);
 559:Generated_Source\PSoC6\pdl\drivers/peripheral/gpio/cy_gpio.h **** __STATIC_INLINE uint32_t Cy_GPIO_GetDrivemode(GPIO_PRT_Type* base, uint32_t pinNum);
 560:Generated_Source\PSoC6\pdl\drivers/peripheral/gpio/cy_gpio.h **** __STATIC_INLINE void Cy_GPIO_SetVtrip(GPIO_PRT_Type* base, uint32_t pinNum, uint32_t value);
 561:Generated_Source\PSoC6\pdl\drivers/peripheral/gpio/cy_gpio.h **** __STATIC_INLINE uint32_t Cy_GPIO_GetVtrip(GPIO_PRT_Type* base, uint32_t pinNum);
 562:Generated_Source\PSoC6\pdl\drivers/peripheral/gpio/cy_gpio.h **** __STATIC_INLINE void Cy_GPIO_SetSlewRate(GPIO_PRT_Type* base, uint32_t pinNum, uint32_t value);
 563:Generated_Source\PSoC6\pdl\drivers/peripheral/gpio/cy_gpio.h **** __STATIC_INLINE uint32_t Cy_GPIO_GetSlewRate(GPIO_PRT_Type* base, uint32_t pinNum);
 564:Generated_Source\PSoC6\pdl\drivers/peripheral/gpio/cy_gpio.h **** __STATIC_INLINE void Cy_GPIO_SetDriveSel(GPIO_PRT_Type* base, uint32_t pinNum, uint32_t value);
 565:Generated_Source\PSoC6\pdl\drivers/peripheral/gpio/cy_gpio.h **** __STATIC_INLINE uint32_t Cy_GPIO_GetDriveSel(GPIO_PRT_Type* base, uint32_t pinNum);
 566:Generated_Source\PSoC6\pdl\drivers/peripheral/gpio/cy_gpio.h **** 
 567:Generated_Source\PSoC6\pdl\drivers/peripheral/gpio/cy_gpio.h **** /** \} group_gpio_functions_gpio */
 568:Generated_Source\PSoC6\pdl\drivers/peripheral/gpio/cy_gpio.h **** 
 569:Generated_Source\PSoC6\pdl\drivers/peripheral/gpio/cy_gpio.h **** /**
 570:Generated_Source\PSoC6\pdl\drivers/peripheral/gpio/cy_gpio.h **** * \addtogroup group_gpio_functions_sio
 571:Generated_Source\PSoC6\pdl\drivers/peripheral/gpio/cy_gpio.h **** * \{
 572:Generated_Source\PSoC6\pdl\drivers/peripheral/gpio/cy_gpio.h **** */
 573:Generated_Source\PSoC6\pdl\drivers/peripheral/gpio/cy_gpio.h **** 
 574:Generated_Source\PSoC6\pdl\drivers/peripheral/gpio/cy_gpio.h **** __STATIC_INLINE void Cy_GPIO_SetVregEn(GPIO_PRT_Type* base, uint32_t pinNum, uint32_t value);
 575:Generated_Source\PSoC6\pdl\drivers/peripheral/gpio/cy_gpio.h **** __STATIC_INLINE uint32_t Cy_GPIO_GetVregEn(GPIO_PRT_Type* base, uint32_t pinNum);
 576:Generated_Source\PSoC6\pdl\drivers/peripheral/gpio/cy_gpio.h **** __STATIC_INLINE void Cy_GPIO_SetIbufMode(GPIO_PRT_Type* base, uint32_t pinNum, uint32_t value);
 577:Generated_Source\PSoC6\pdl\drivers/peripheral/gpio/cy_gpio.h **** __STATIC_INLINE uint32_t Cy_GPIO_GetIbufMode(GPIO_PRT_Type* base, uint32_t pinNum);
 578:Generated_Source\PSoC6\pdl\drivers/peripheral/gpio/cy_gpio.h **** __STATIC_INLINE void Cy_GPIO_SetVtripSel(GPIO_PRT_Type* base, uint32_t pinNum, uint32_t value);
 579:Generated_Source\PSoC6\pdl\drivers/peripheral/gpio/cy_gpio.h **** __STATIC_INLINE uint32_t Cy_GPIO_GetVtripSel(GPIO_PRT_Type* base, uint32_t pinNum);
 580:Generated_Source\PSoC6\pdl\drivers/peripheral/gpio/cy_gpio.h **** __STATIC_INLINE void Cy_GPIO_SetVrefSel(GPIO_PRT_Type* base, uint32_t pinNum, uint32_t value);
 581:Generated_Source\PSoC6\pdl\drivers/peripheral/gpio/cy_gpio.h **** __STATIC_INLINE uint32_t Cy_GPIO_GetVrefSel(GPIO_PRT_Type* base, uint32_t pinNum);
 582:Generated_Source\PSoC6\pdl\drivers/peripheral/gpio/cy_gpio.h **** __STATIC_INLINE void Cy_GPIO_SetVohSel(GPIO_PRT_Type* base, uint32_t pinNum, uint32_t value);
 583:Generated_Source\PSoC6\pdl\drivers/peripheral/gpio/cy_gpio.h **** __STATIC_INLINE uint32_t Cy_GPIO_GetVohSel(GPIO_PRT_Type* base, uint32_t pinNum);
 584:Generated_Source\PSoC6\pdl\drivers/peripheral/gpio/cy_gpio.h **** 
 585:Generated_Source\PSoC6\pdl\drivers/peripheral/gpio/cy_gpio.h **** /** \} group_gpio_functions_sio */
 586:Generated_Source\PSoC6\pdl\drivers/peripheral/gpio/cy_gpio.h **** 
 587:Generated_Source\PSoC6\pdl\drivers/peripheral/gpio/cy_gpio.h **** /**
 588:Generated_Source\PSoC6\pdl\drivers/peripheral/gpio/cy_gpio.h **** * \addtogroup group_gpio_functions_interrupt
ARM GAS  C:\Users\user\AppData\Local\Temp\ccSIFDDJ.s 			page 40


 589:Generated_Source\PSoC6\pdl\drivers/peripheral/gpio/cy_gpio.h **** * \{
 590:Generated_Source\PSoC6\pdl\drivers/peripheral/gpio/cy_gpio.h **** */
 591:Generated_Source\PSoC6\pdl\drivers/peripheral/gpio/cy_gpio.h **** 
 592:Generated_Source\PSoC6\pdl\drivers/peripheral/gpio/cy_gpio.h **** __STATIC_INLINE uint32_t Cy_GPIO_GetInterruptStatus(GPIO_PRT_Type* base, uint32_t pinNum);
 593:Generated_Source\PSoC6\pdl\drivers/peripheral/gpio/cy_gpio.h **** __STATIC_INLINE void Cy_GPIO_ClearInterrupt(GPIO_PRT_Type* base, uint32_t pinNum);
 594:Generated_Source\PSoC6\pdl\drivers/peripheral/gpio/cy_gpio.h **** __STATIC_INLINE void Cy_GPIO_SetInterruptMask(GPIO_PRT_Type* base, uint32_t pinNum, uint32_t value)
 595:Generated_Source\PSoC6\pdl\drivers/peripheral/gpio/cy_gpio.h **** __STATIC_INLINE uint32_t Cy_GPIO_GetInterruptMask(GPIO_PRT_Type* base, uint32_t pinNum);
 596:Generated_Source\PSoC6\pdl\drivers/peripheral/gpio/cy_gpio.h **** __STATIC_INLINE uint32_t Cy_GPIO_GetInterruptStatusMasked(GPIO_PRT_Type* base, uint32_t pinNum);
 597:Generated_Source\PSoC6\pdl\drivers/peripheral/gpio/cy_gpio.h **** __STATIC_INLINE void Cy_GPIO_SetSwInterrupt(GPIO_PRT_Type* base, uint32_t pinNum);
 598:Generated_Source\PSoC6\pdl\drivers/peripheral/gpio/cy_gpio.h **** __STATIC_INLINE void Cy_GPIO_SetInterruptEdge(GPIO_PRT_Type* base, uint32_t pinNum, uint32_t value)
 599:Generated_Source\PSoC6\pdl\drivers/peripheral/gpio/cy_gpio.h **** __STATIC_INLINE uint32_t Cy_GPIO_GetInterruptEdge(GPIO_PRT_Type* base, uint32_t pinNum);
 600:Generated_Source\PSoC6\pdl\drivers/peripheral/gpio/cy_gpio.h **** __STATIC_INLINE void Cy_GPIO_SetFilter(GPIO_PRT_Type* base, uint32_t value);
 601:Generated_Source\PSoC6\pdl\drivers/peripheral/gpio/cy_gpio.h **** __STATIC_INLINE uint32_t Cy_GPIO_GetFilter(GPIO_PRT_Type* base);
 602:Generated_Source\PSoC6\pdl\drivers/peripheral/gpio/cy_gpio.h **** 
 603:Generated_Source\PSoC6\pdl\drivers/peripheral/gpio/cy_gpio.h **** __STATIC_INLINE uint32_t Cy_GPIO_GetInterruptCause0(void);
 604:Generated_Source\PSoC6\pdl\drivers/peripheral/gpio/cy_gpio.h **** __STATIC_INLINE uint32_t Cy_GPIO_GetInterruptCause1(void);
 605:Generated_Source\PSoC6\pdl\drivers/peripheral/gpio/cy_gpio.h **** __STATIC_INLINE uint32_t Cy_GPIO_GetInterruptCause2(void);
 606:Generated_Source\PSoC6\pdl\drivers/peripheral/gpio/cy_gpio.h **** __STATIC_INLINE uint32_t Cy_GPIO_GetInterruptCause3(void);
 607:Generated_Source\PSoC6\pdl\drivers/peripheral/gpio/cy_gpio.h **** 
 608:Generated_Source\PSoC6\pdl\drivers/peripheral/gpio/cy_gpio.h **** /** \} group_gpio_functions_interrupt */
 609:Generated_Source\PSoC6\pdl\drivers/peripheral/gpio/cy_gpio.h **** 
 610:Generated_Source\PSoC6\pdl\drivers/peripheral/gpio/cy_gpio.h **** 
 611:Generated_Source\PSoC6\pdl\drivers/peripheral/gpio/cy_gpio.h **** /**
 612:Generated_Source\PSoC6\pdl\drivers/peripheral/gpio/cy_gpio.h **** * \addtogroup group_gpio_functions_init
 613:Generated_Source\PSoC6\pdl\drivers/peripheral/gpio/cy_gpio.h **** * \{
 614:Generated_Source\PSoC6\pdl\drivers/peripheral/gpio/cy_gpio.h **** */
 615:Generated_Source\PSoC6\pdl\drivers/peripheral/gpio/cy_gpio.h **** 
 616:Generated_Source\PSoC6\pdl\drivers/peripheral/gpio/cy_gpio.h **** /*******************************************************************************
 617:Generated_Source\PSoC6\pdl\drivers/peripheral/gpio/cy_gpio.h **** * Function Name: Cy_GPIO_SetHSIOM
 618:Generated_Source\PSoC6\pdl\drivers/peripheral/gpio/cy_gpio.h **** ****************************************************************************//**
 619:Generated_Source\PSoC6\pdl\drivers/peripheral/gpio/cy_gpio.h **** *
 620:Generated_Source\PSoC6\pdl\drivers/peripheral/gpio/cy_gpio.h **** * Configures the HSIOM connection to the pin.
 621:Generated_Source\PSoC6\pdl\drivers/peripheral/gpio/cy_gpio.h **** *
 622:Generated_Source\PSoC6\pdl\drivers/peripheral/gpio/cy_gpio.h **** * Connects the specified High-Speed Input Output Multiplexer (HSIOM) selection
 623:Generated_Source\PSoC6\pdl\drivers/peripheral/gpio/cy_gpio.h **** * to the pin.
 624:Generated_Source\PSoC6\pdl\drivers/peripheral/gpio/cy_gpio.h **** *
 625:Generated_Source\PSoC6\pdl\drivers/peripheral/gpio/cy_gpio.h **** * \param base
 626:Generated_Source\PSoC6\pdl\drivers/peripheral/gpio/cy_gpio.h **** * Pointer to the pin's port register base address
 627:Generated_Source\PSoC6\pdl\drivers/peripheral/gpio/cy_gpio.h **** *
 628:Generated_Source\PSoC6\pdl\drivers/peripheral/gpio/cy_gpio.h **** * \param pinNum
 629:Generated_Source\PSoC6\pdl\drivers/peripheral/gpio/cy_gpio.h **** * Position of the pin bit-field within the port register
 630:Generated_Source\PSoC6\pdl\drivers/peripheral/gpio/cy_gpio.h **** *
 631:Generated_Source\PSoC6\pdl\drivers/peripheral/gpio/cy_gpio.h **** * \param value
 632:Generated_Source\PSoC6\pdl\drivers/peripheral/gpio/cy_gpio.h **** * HSIOM input selection
 633:Generated_Source\PSoC6\pdl\drivers/peripheral/gpio/cy_gpio.h **** *
 634:Generated_Source\PSoC6\pdl\drivers/peripheral/gpio/cy_gpio.h **** * \note 
 635:Generated_Source\PSoC6\pdl\drivers/peripheral/gpio/cy_gpio.h **** * This function modifies a port register in a read-modify-write operation. It is
 636:Generated_Source\PSoC6\pdl\drivers/peripheral/gpio/cy_gpio.h **** * not thread safe as the resource is shared among multiple pins on a port.
 637:Generated_Source\PSoC6\pdl\drivers/peripheral/gpio/cy_gpio.h **** *
 638:Generated_Source\PSoC6\pdl\drivers/peripheral/gpio/cy_gpio.h **** * \funcusage
 639:Generated_Source\PSoC6\pdl\drivers/peripheral/gpio/cy_gpio.h **** * \snippet gpio/gpio_v1_10_sut_01.cydsn/main_cm4.c snippet_Cy_GPIO_SetHSIOM
 640:Generated_Source\PSoC6\pdl\drivers/peripheral/gpio/cy_gpio.h **** *
 641:Generated_Source\PSoC6\pdl\drivers/peripheral/gpio/cy_gpio.h **** *******************************************************************************/
 642:Generated_Source\PSoC6\pdl\drivers/peripheral/gpio/cy_gpio.h **** __STATIC_INLINE void Cy_GPIO_SetHSIOM(GPIO_PRT_Type* base, uint32_t pinNum, en_hsiom_sel_t value)
 643:Generated_Source\PSoC6\pdl\drivers/peripheral/gpio/cy_gpio.h **** {
 644:Generated_Source\PSoC6\pdl\drivers/peripheral/gpio/cy_gpio.h ****     uint32_t portNum;
 645:Generated_Source\PSoC6\pdl\drivers/peripheral/gpio/cy_gpio.h ****     uint32_t tempReg;
ARM GAS  C:\Users\user\AppData\Local\Temp\ccSIFDDJ.s 			page 41


 646:Generated_Source\PSoC6\pdl\drivers/peripheral/gpio/cy_gpio.h ****     HSIOM_PRT_V1_Type* portAddrHSIOM;
 647:Generated_Source\PSoC6\pdl\drivers/peripheral/gpio/cy_gpio.h **** 
 648:Generated_Source\PSoC6\pdl\drivers/peripheral/gpio/cy_gpio.h ****     CY_ASSERT_L2(CY_GPIO_IS_PIN_VALID(pinNum));
 649:Generated_Source\PSoC6\pdl\drivers/peripheral/gpio/cy_gpio.h ****     CY_ASSERT_L2(CY_GPIO_IS_HSIOM_VALID(value));
 650:Generated_Source\PSoC6\pdl\drivers/peripheral/gpio/cy_gpio.h **** 
 651:Generated_Source\PSoC6\pdl\drivers/peripheral/gpio/cy_gpio.h ****     portNum = ((uint32_t)(base) - CY_GPIO_BASE) / GPIO_PRT_SECTION_SIZE;
 652:Generated_Source\PSoC6\pdl\drivers/peripheral/gpio/cy_gpio.h ****     portAddrHSIOM = (HSIOM_PRT_V1_Type*)(CY_HSIOM_BASE + (HSIOM_PRT_SECTION_SIZE * portNum));
 653:Generated_Source\PSoC6\pdl\drivers/peripheral/gpio/cy_gpio.h **** 
 654:Generated_Source\PSoC6\pdl\drivers/peripheral/gpio/cy_gpio.h ****     if(pinNum < CY_GPIO_PRT_HALF)
 655:Generated_Source\PSoC6\pdl\drivers/peripheral/gpio/cy_gpio.h ****     {
 656:Generated_Source\PSoC6\pdl\drivers/peripheral/gpio/cy_gpio.h ****         tempReg = HSIOM_PRT_PORT_SEL0(portAddrHSIOM) & ~(CY_GPIO_HSIOM_MASK << (pinNum << CY_GPIO_H
 657:Generated_Source\PSoC6\pdl\drivers/peripheral/gpio/cy_gpio.h ****         HSIOM_PRT_PORT_SEL0(portAddrHSIOM) = tempReg | ((value & CY_GPIO_HSIOM_MASK) << (pinNum << 
 658:Generated_Source\PSoC6\pdl\drivers/peripheral/gpio/cy_gpio.h ****     }
 659:Generated_Source\PSoC6\pdl\drivers/peripheral/gpio/cy_gpio.h ****     else
 660:Generated_Source\PSoC6\pdl\drivers/peripheral/gpio/cy_gpio.h ****     {
 661:Generated_Source\PSoC6\pdl\drivers/peripheral/gpio/cy_gpio.h ****         pinNum -= CY_GPIO_PRT_HALF;
 662:Generated_Source\PSoC6\pdl\drivers/peripheral/gpio/cy_gpio.h ****         tempReg = HSIOM_PRT_PORT_SEL1(portAddrHSIOM) & ~(CY_GPIO_HSIOM_MASK << (pinNum << CY_GPIO_H
 663:Generated_Source\PSoC6\pdl\drivers/peripheral/gpio/cy_gpio.h ****         HSIOM_PRT_PORT_SEL1(portAddrHSIOM) = tempReg | ((value & CY_GPIO_HSIOM_MASK) << (pinNum << 
 664:Generated_Source\PSoC6\pdl\drivers/peripheral/gpio/cy_gpio.h ****     }
 665:Generated_Source\PSoC6\pdl\drivers/peripheral/gpio/cy_gpio.h **** }
 666:Generated_Source\PSoC6\pdl\drivers/peripheral/gpio/cy_gpio.h **** 
 667:Generated_Source\PSoC6\pdl\drivers/peripheral/gpio/cy_gpio.h **** 
 668:Generated_Source\PSoC6\pdl\drivers/peripheral/gpio/cy_gpio.h **** /*******************************************************************************
 669:Generated_Source\PSoC6\pdl\drivers/peripheral/gpio/cy_gpio.h **** * Function Name: Cy_GPIO_GetHSIOM
 670:Generated_Source\PSoC6\pdl\drivers/peripheral/gpio/cy_gpio.h **** ****************************************************************************//**
 671:Generated_Source\PSoC6\pdl\drivers/peripheral/gpio/cy_gpio.h **** *
 672:Generated_Source\PSoC6\pdl\drivers/peripheral/gpio/cy_gpio.h **** * Returns the current HSIOM multiplexer connection to the pin.
 673:Generated_Source\PSoC6\pdl\drivers/peripheral/gpio/cy_gpio.h **** *
 674:Generated_Source\PSoC6\pdl\drivers/peripheral/gpio/cy_gpio.h **** * \param base
 675:Generated_Source\PSoC6\pdl\drivers/peripheral/gpio/cy_gpio.h **** * Pointer to the pin's port register base address
 676:Generated_Source\PSoC6\pdl\drivers/peripheral/gpio/cy_gpio.h **** *
 677:Generated_Source\PSoC6\pdl\drivers/peripheral/gpio/cy_gpio.h **** * \param pinNum
 678:Generated_Source\PSoC6\pdl\drivers/peripheral/gpio/cy_gpio.h **** * Position of the pin bit-field within the port register
 679:Generated_Source\PSoC6\pdl\drivers/peripheral/gpio/cy_gpio.h **** *
 680:Generated_Source\PSoC6\pdl\drivers/peripheral/gpio/cy_gpio.h **** * \return
 681:Generated_Source\PSoC6\pdl\drivers/peripheral/gpio/cy_gpio.h **** * HSIOM input selection
 682:Generated_Source\PSoC6\pdl\drivers/peripheral/gpio/cy_gpio.h **** *
 683:Generated_Source\PSoC6\pdl\drivers/peripheral/gpio/cy_gpio.h **** * \funcusage
 684:Generated_Source\PSoC6\pdl\drivers/peripheral/gpio/cy_gpio.h **** * \snippet gpio/gpio_v1_10_sut_01.cydsn/main_cm4.c snippet_Cy_GPIO_SetHSIOM
 685:Generated_Source\PSoC6\pdl\drivers/peripheral/gpio/cy_gpio.h **** *
 686:Generated_Source\PSoC6\pdl\drivers/peripheral/gpio/cy_gpio.h **** *******************************************************************************/
 687:Generated_Source\PSoC6\pdl\drivers/peripheral/gpio/cy_gpio.h **** __STATIC_INLINE en_hsiom_sel_t Cy_GPIO_GetHSIOM(GPIO_PRT_Type* base, uint32_t pinNum)
 688:Generated_Source\PSoC6\pdl\drivers/peripheral/gpio/cy_gpio.h **** {
 689:Generated_Source\PSoC6\pdl\drivers/peripheral/gpio/cy_gpio.h ****     uint32_t returnValue;
 690:Generated_Source\PSoC6\pdl\drivers/peripheral/gpio/cy_gpio.h ****     uint32_t portNum;
 691:Generated_Source\PSoC6\pdl\drivers/peripheral/gpio/cy_gpio.h ****     HSIOM_PRT_V1_Type* portAddrHSIOM;
 692:Generated_Source\PSoC6\pdl\drivers/peripheral/gpio/cy_gpio.h ****     
 693:Generated_Source\PSoC6\pdl\drivers/peripheral/gpio/cy_gpio.h ****     CY_ASSERT_L2(CY_GPIO_IS_PIN_VALID(pinNum));
 694:Generated_Source\PSoC6\pdl\drivers/peripheral/gpio/cy_gpio.h **** 
 695:Generated_Source\PSoC6\pdl\drivers/peripheral/gpio/cy_gpio.h ****     portNum = ((uint32_t)(base) - CY_GPIO_BASE) / GPIO_PRT_SECTION_SIZE;
 696:Generated_Source\PSoC6\pdl\drivers/peripheral/gpio/cy_gpio.h ****     portAddrHSIOM = (HSIOM_PRT_V1_Type*)(CY_HSIOM_BASE + (HSIOM_PRT_SECTION_SIZE * portNum));
 697:Generated_Source\PSoC6\pdl\drivers/peripheral/gpio/cy_gpio.h **** 
 698:Generated_Source\PSoC6\pdl\drivers/peripheral/gpio/cy_gpio.h ****     if(pinNum < CY_GPIO_PRT_HALF)
 699:Generated_Source\PSoC6\pdl\drivers/peripheral/gpio/cy_gpio.h ****     {
 700:Generated_Source\PSoC6\pdl\drivers/peripheral/gpio/cy_gpio.h ****         returnValue = (HSIOM_PRT_PORT_SEL0(portAddrHSIOM) >> (pinNum << CY_GPIO_HSIOM_OFFSET)) & CY
 701:Generated_Source\PSoC6\pdl\drivers/peripheral/gpio/cy_gpio.h ****     }
 702:Generated_Source\PSoC6\pdl\drivers/peripheral/gpio/cy_gpio.h ****     else
ARM GAS  C:\Users\user\AppData\Local\Temp\ccSIFDDJ.s 			page 42


 703:Generated_Source\PSoC6\pdl\drivers/peripheral/gpio/cy_gpio.h ****     {
 704:Generated_Source\PSoC6\pdl\drivers/peripheral/gpio/cy_gpio.h ****         pinNum -= CY_GPIO_PRT_HALF;
 705:Generated_Source\PSoC6\pdl\drivers/peripheral/gpio/cy_gpio.h ****         returnValue = (HSIOM_PRT_PORT_SEL1(portAddrHSIOM) >> (pinNum << CY_GPIO_HSIOM_OFFSET)) & CY
 706:Generated_Source\PSoC6\pdl\drivers/peripheral/gpio/cy_gpio.h ****     }
 707:Generated_Source\PSoC6\pdl\drivers/peripheral/gpio/cy_gpio.h **** 
 708:Generated_Source\PSoC6\pdl\drivers/peripheral/gpio/cy_gpio.h ****     return (en_hsiom_sel_t)returnValue;
 709:Generated_Source\PSoC6\pdl\drivers/peripheral/gpio/cy_gpio.h **** }
 710:Generated_Source\PSoC6\pdl\drivers/peripheral/gpio/cy_gpio.h **** 
 711:Generated_Source\PSoC6\pdl\drivers/peripheral/gpio/cy_gpio.h **** 
 712:Generated_Source\PSoC6\pdl\drivers/peripheral/gpio/cy_gpio.h **** /*******************************************************************************
 713:Generated_Source\PSoC6\pdl\drivers/peripheral/gpio/cy_gpio.h **** * Function Name: Cy_GPIO_PortToAddr
 714:Generated_Source\PSoC6\pdl\drivers/peripheral/gpio/cy_gpio.h **** ****************************************************************************//**
 715:Generated_Source\PSoC6\pdl\drivers/peripheral/gpio/cy_gpio.h **** *
 716:Generated_Source\PSoC6\pdl\drivers/peripheral/gpio/cy_gpio.h **** * Retrieves the port address based on the given port number.
 717:Generated_Source\PSoC6\pdl\drivers/peripheral/gpio/cy_gpio.h **** *
 718:Generated_Source\PSoC6\pdl\drivers/peripheral/gpio/cy_gpio.h **** * This is a helper function to calculate the port base address when given a port
 719:Generated_Source\PSoC6\pdl\drivers/peripheral/gpio/cy_gpio.h **** * number. It is to be used when pin access needs to be calculated at runtime.
 720:Generated_Source\PSoC6\pdl\drivers/peripheral/gpio/cy_gpio.h **** *
 721:Generated_Source\PSoC6\pdl\drivers/peripheral/gpio/cy_gpio.h **** * \param portNum
 722:Generated_Source\PSoC6\pdl\drivers/peripheral/gpio/cy_gpio.h **** * Port number
 723:Generated_Source\PSoC6\pdl\drivers/peripheral/gpio/cy_gpio.h **** *
 724:Generated_Source\PSoC6\pdl\drivers/peripheral/gpio/cy_gpio.h **** * \return
 725:Generated_Source\PSoC6\pdl\drivers/peripheral/gpio/cy_gpio.h **** * Base address of the port register structure
 726:Generated_Source\PSoC6\pdl\drivers/peripheral/gpio/cy_gpio.h **** *
 727:Generated_Source\PSoC6\pdl\drivers/peripheral/gpio/cy_gpio.h **** * \funcusage
 728:Generated_Source\PSoC6\pdl\drivers/peripheral/gpio/cy_gpio.h **** * \snippet gpio/gpio_v1_10_sut_01.cydsn/main_cm4.c snippet_Cy_GPIO_PortToAddr
 729:Generated_Source\PSoC6\pdl\drivers/peripheral/gpio/cy_gpio.h **** *
 730:Generated_Source\PSoC6\pdl\drivers/peripheral/gpio/cy_gpio.h **** *******************************************************************************/
 731:Generated_Source\PSoC6\pdl\drivers/peripheral/gpio/cy_gpio.h **** __STATIC_INLINE GPIO_PRT_Type* Cy_GPIO_PortToAddr(uint32_t portNum)
 732:Generated_Source\PSoC6\pdl\drivers/peripheral/gpio/cy_gpio.h **** {
 733:Generated_Source\PSoC6\pdl\drivers/peripheral/gpio/cy_gpio.h ****     GPIO_PRT_Type* portBase;
 734:Generated_Source\PSoC6\pdl\drivers/peripheral/gpio/cy_gpio.h ****     
 735:Generated_Source\PSoC6\pdl\drivers/peripheral/gpio/cy_gpio.h ****     if(portNum < (uint32_t)IOSS_GPIO_GPIO_PORT_NR)
 736:Generated_Source\PSoC6\pdl\drivers/peripheral/gpio/cy_gpio.h ****     {
 737:Generated_Source\PSoC6\pdl\drivers/peripheral/gpio/cy_gpio.h ****         portBase = (GPIO_PRT_Type *)(CY_GPIO_BASE + (GPIO_PRT_SECTION_SIZE * portNum));
 738:Generated_Source\PSoC6\pdl\drivers/peripheral/gpio/cy_gpio.h ****     }
 739:Generated_Source\PSoC6\pdl\drivers/peripheral/gpio/cy_gpio.h ****     else
 740:Generated_Source\PSoC6\pdl\drivers/peripheral/gpio/cy_gpio.h ****     {
 741:Generated_Source\PSoC6\pdl\drivers/peripheral/gpio/cy_gpio.h ****         /* Error: Return default base address */
 742:Generated_Source\PSoC6\pdl\drivers/peripheral/gpio/cy_gpio.h ****         portBase = (GPIO_PRT_Type *)(CY_GPIO_BASE);
 743:Generated_Source\PSoC6\pdl\drivers/peripheral/gpio/cy_gpio.h ****     }
 744:Generated_Source\PSoC6\pdl\drivers/peripheral/gpio/cy_gpio.h **** 
 745:Generated_Source\PSoC6\pdl\drivers/peripheral/gpio/cy_gpio.h ****     return (portBase);
 746:Generated_Source\PSoC6\pdl\drivers/peripheral/gpio/cy_gpio.h **** }
 747:Generated_Source\PSoC6\pdl\drivers/peripheral/gpio/cy_gpio.h **** 
 748:Generated_Source\PSoC6\pdl\drivers/peripheral/gpio/cy_gpio.h **** /** \} group_gpio_functions_init */
 749:Generated_Source\PSoC6\pdl\drivers/peripheral/gpio/cy_gpio.h **** 
 750:Generated_Source\PSoC6\pdl\drivers/peripheral/gpio/cy_gpio.h **** /**
 751:Generated_Source\PSoC6\pdl\drivers/peripheral/gpio/cy_gpio.h **** * \addtogroup group_gpio_functions_gpio
 752:Generated_Source\PSoC6\pdl\drivers/peripheral/gpio/cy_gpio.h **** * \{
 753:Generated_Source\PSoC6\pdl\drivers/peripheral/gpio/cy_gpio.h **** */
 754:Generated_Source\PSoC6\pdl\drivers/peripheral/gpio/cy_gpio.h **** 
 755:Generated_Source\PSoC6\pdl\drivers/peripheral/gpio/cy_gpio.h **** /*******************************************************************************
 756:Generated_Source\PSoC6\pdl\drivers/peripheral/gpio/cy_gpio.h **** * Function Name: Cy_GPIO_Read
 757:Generated_Source\PSoC6\pdl\drivers/peripheral/gpio/cy_gpio.h **** ****************************************************************************//**
 758:Generated_Source\PSoC6\pdl\drivers/peripheral/gpio/cy_gpio.h **** *
 759:Generated_Source\PSoC6\pdl\drivers/peripheral/gpio/cy_gpio.h **** * Reads the current logic level on the input buffer of the pin.
ARM GAS  C:\Users\user\AppData\Local\Temp\ccSIFDDJ.s 			page 43


 760:Generated_Source\PSoC6\pdl\drivers/peripheral/gpio/cy_gpio.h **** *
 761:Generated_Source\PSoC6\pdl\drivers/peripheral/gpio/cy_gpio.h **** * \param base
 762:Generated_Source\PSoC6\pdl\drivers/peripheral/gpio/cy_gpio.h **** * Pointer to the pin's port register base address
 763:Generated_Source\PSoC6\pdl\drivers/peripheral/gpio/cy_gpio.h **** *
 764:Generated_Source\PSoC6\pdl\drivers/peripheral/gpio/cy_gpio.h **** * \param pinNum
 765:Generated_Source\PSoC6\pdl\drivers/peripheral/gpio/cy_gpio.h **** * Position of the pin bit-field within the port register.
 766:Generated_Source\PSoC6\pdl\drivers/peripheral/gpio/cy_gpio.h **** * Bit position 8 is the routed pin through the port glitch filter.
 767:Generated_Source\PSoC6\pdl\drivers/peripheral/gpio/cy_gpio.h **** *
 768:Generated_Source\PSoC6\pdl\drivers/peripheral/gpio/cy_gpio.h **** * \return
 769:Generated_Source\PSoC6\pdl\drivers/peripheral/gpio/cy_gpio.h **** * Logic level present on the pin
 770:Generated_Source\PSoC6\pdl\drivers/peripheral/gpio/cy_gpio.h **** *
 771:Generated_Source\PSoC6\pdl\drivers/peripheral/gpio/cy_gpio.h **** * \funcusage
 772:Generated_Source\PSoC6\pdl\drivers/peripheral/gpio/cy_gpio.h **** * \snippet gpio/gpio_v1_10_sut_01.cydsn/main_cm4.c snippet_Cy_GPIO_Read
 773:Generated_Source\PSoC6\pdl\drivers/peripheral/gpio/cy_gpio.h **** *
 774:Generated_Source\PSoC6\pdl\drivers/peripheral/gpio/cy_gpio.h **** *******************************************************************************/
 775:Generated_Source\PSoC6\pdl\drivers/peripheral/gpio/cy_gpio.h **** __STATIC_INLINE uint32_t Cy_GPIO_Read(GPIO_PRT_Type* base, uint32_t pinNum)
 776:Generated_Source\PSoC6\pdl\drivers/peripheral/gpio/cy_gpio.h **** {
 777:Generated_Source\PSoC6\pdl\drivers/peripheral/gpio/cy_gpio.h ****     CY_ASSERT_L2(CY_GPIO_IS_FILTER_PIN_VALID(pinNum));
 778:Generated_Source\PSoC6\pdl\drivers/peripheral/gpio/cy_gpio.h ****     
 779:Generated_Source\PSoC6\pdl\drivers/peripheral/gpio/cy_gpio.h ****     return (GPIO_PRT_IN(base) >> (pinNum)) & CY_GPIO_IN_MASK;
 780:Generated_Source\PSoC6\pdl\drivers/peripheral/gpio/cy_gpio.h **** }
 781:Generated_Source\PSoC6\pdl\drivers/peripheral/gpio/cy_gpio.h **** 
 782:Generated_Source\PSoC6\pdl\drivers/peripheral/gpio/cy_gpio.h **** 
 783:Generated_Source\PSoC6\pdl\drivers/peripheral/gpio/cy_gpio.h **** /*******************************************************************************
 784:Generated_Source\PSoC6\pdl\drivers/peripheral/gpio/cy_gpio.h **** * Function Name: Cy_GPIO_Write
 785:Generated_Source\PSoC6\pdl\drivers/peripheral/gpio/cy_gpio.h **** ****************************************************************************//**
 786:Generated_Source\PSoC6\pdl\drivers/peripheral/gpio/cy_gpio.h **** *
 787:Generated_Source\PSoC6\pdl\drivers/peripheral/gpio/cy_gpio.h **** * Write a logic 0 or logic 1 state to the output driver.
 788:Generated_Source\PSoC6\pdl\drivers/peripheral/gpio/cy_gpio.h **** *
 789:Generated_Source\PSoC6\pdl\drivers/peripheral/gpio/cy_gpio.h **** * This function should be used only for software driven pins. It does not have
 790:Generated_Source\PSoC6\pdl\drivers/peripheral/gpio/cy_gpio.h **** * any effect on peripheral driven pins.
 791:Generated_Source\PSoC6\pdl\drivers/peripheral/gpio/cy_gpio.h **** *
 792:Generated_Source\PSoC6\pdl\drivers/peripheral/gpio/cy_gpio.h **** * \param base
 793:Generated_Source\PSoC6\pdl\drivers/peripheral/gpio/cy_gpio.h **** * Pointer to the pin's port register base address
 794:Generated_Source\PSoC6\pdl\drivers/peripheral/gpio/cy_gpio.h **** *
 795:Generated_Source\PSoC6\pdl\drivers/peripheral/gpio/cy_gpio.h **** * \param pinNum
 796:Generated_Source\PSoC6\pdl\drivers/peripheral/gpio/cy_gpio.h **** * Position of the pin bit-field within the port register
 797:Generated_Source\PSoC6\pdl\drivers/peripheral/gpio/cy_gpio.h **** *
 798:Generated_Source\PSoC6\pdl\drivers/peripheral/gpio/cy_gpio.h **** * \param value
 799:Generated_Source\PSoC6\pdl\drivers/peripheral/gpio/cy_gpio.h **** * Logic level to drive out on the pin
 800:Generated_Source\PSoC6\pdl\drivers/peripheral/gpio/cy_gpio.h **** *
 801:Generated_Source\PSoC6\pdl\drivers/peripheral/gpio/cy_gpio.h **** * \funcusage
 802:Generated_Source\PSoC6\pdl\drivers/peripheral/gpio/cy_gpio.h **** * \snippet gpio/gpio_v1_10_sut_01.cydsn/main_cm4.c snippet_Cy_GPIO_Write
 803:Generated_Source\PSoC6\pdl\drivers/peripheral/gpio/cy_gpio.h **** *
 804:Generated_Source\PSoC6\pdl\drivers/peripheral/gpio/cy_gpio.h **** *******************************************************************************/
 805:Generated_Source\PSoC6\pdl\drivers/peripheral/gpio/cy_gpio.h **** __STATIC_INLINE void Cy_GPIO_Write(GPIO_PRT_Type* base, uint32_t pinNum, uint32_t value)
 806:Generated_Source\PSoC6\pdl\drivers/peripheral/gpio/cy_gpio.h **** {
 807:Generated_Source\PSoC6\pdl\drivers/peripheral/gpio/cy_gpio.h ****     CY_ASSERT_L2(CY_GPIO_IS_PIN_VALID(pinNum));
 808:Generated_Source\PSoC6\pdl\drivers/peripheral/gpio/cy_gpio.h ****     CY_ASSERT_L2(CY_GPIO_IS_VALUE_VALID(value));
 809:Generated_Source\PSoC6\pdl\drivers/peripheral/gpio/cy_gpio.h **** 
 810:Generated_Source\PSoC6\pdl\drivers/peripheral/gpio/cy_gpio.h ****     /* Thread-safe: Directly access the pin registers instead of base->OUT */
 811:Generated_Source\PSoC6\pdl\drivers/peripheral/gpio/cy_gpio.h ****     if(0UL == value)
 812:Generated_Source\PSoC6\pdl\drivers/peripheral/gpio/cy_gpio.h ****     {
 813:Generated_Source\PSoC6\pdl\drivers/peripheral/gpio/cy_gpio.h ****         GPIO_PRT_OUT_CLR(base) = CY_GPIO_OUT_MASK << pinNum;
 814:Generated_Source\PSoC6\pdl\drivers/peripheral/gpio/cy_gpio.h ****     }
 815:Generated_Source\PSoC6\pdl\drivers/peripheral/gpio/cy_gpio.h ****     else
 816:Generated_Source\PSoC6\pdl\drivers/peripheral/gpio/cy_gpio.h ****     {
ARM GAS  C:\Users\user\AppData\Local\Temp\ccSIFDDJ.s 			page 44


 817:Generated_Source\PSoC6\pdl\drivers/peripheral/gpio/cy_gpio.h ****         GPIO_PRT_OUT_SET(base) = CY_GPIO_OUT_MASK << pinNum;
 1313              		.loc 2 817 0
 1314 016e 0222     		movs	r2, #2
 1315 0170 894B     		ldr	r3, .L96+24
 1316 0172 9A60     		str	r2, [r3, #8]
 1317              	.LVL157:
 1318              	.LBE19:
 1319              	.LBE18:
 313:DISPLAY.c     ****                                             Cy_GPIO_Write (Pin_ACC_0_PORT,Pin_ACC_0_NUM,1);
 314:DISPLAY.c     ****                                             GUI_SetFont(GUI_FONT_16B_1);
 1320              		.loc 1 314 0
 1321 0174 8648     		ldr	r0, .L96+16
 1322 0176 FFF7FEFF 		bl	GUI_SetFont
 1323              	.LVL158:
 315:DISPLAY.c     ****                                             GUI_DispStringAt ("L'alarme est desactivee", 25, 130);
 1324              		.loc 1 315 0
 1325 017a 8222     		movs	r2, #130
 1326 017c 1921     		movs	r1, #25
 1327 017e 8748     		ldr	r0, .L96+28
 1328 0180 FFF7FEFF 		bl	GUI_DispStringAt
 1329              	.LVL159:
 316:DISPLAY.c     ****                                                UpdateDisplay(CY_EINK_FULL_4STAGE, true);
 1330              		.loc 1 316 0
 1331 0184 0121     		movs	r1, #1
 1332 0186 0846     		mov	r0, r1
 1333 0188 FFF7FEFF 		bl	UpdateDisplay
 1334              	.LVL160:
 317:DISPLAY.c     ****                                             currentScreen.FLAG2=0; }
 1335              		.loc 1 317 0
 1336 018c 7D4B     		ldr	r3, .L96+4
 1337 018e 9C70     		strb	r4, [r3, #2]
 1338              	.L70:
 318:DISPLAY.c     ****                   //Affichage de l'OPTION 1  √† l'appuie du bouton 1 sur le MENU pour une position 
 319:DISPLAY.c     ****                                         if (selection_MENU==1) {
 1339              		.loc 1 319 0
 1340 0190 7D4B     		ldr	r3, .L96+8
 1341 0192 1B78     		ldrb	r3, [r3]	@ zero_extendqisi2
 1342 0194 012B     		cmp	r3, #1
 1343 0196 05D1     		bne	.L68
 320:DISPLAY.c     ****                                             currentScreen.screen= OPTION_1; 
 1344              		.loc 1 320 0
 1345 0198 0222     		movs	r2, #2
 1346 019a 7A4B     		ldr	r3, .L96+4
 1347 019c 1A70     		strb	r2, [r3]
 321:DISPLAY.c     ****                                             selection_MENU=0;}
 1348              		.loc 1 321 0
 1349 019e 0022     		movs	r2, #0
 1350 01a0 794B     		ldr	r3, .L96+8
 1351 01a2 1A70     		strb	r2, [r3]
 1352              	.L68:
 322:DISPLAY.c     **** 
 323:DISPLAY.c     ****                 } 
 324:DISPLAY.c     ****                 if (currentScreen.FLAG1==4 || currentScreen.FLAG2==4 || selection_MENU==2){       
 1353              		.loc 1 324 0
 1354 01a4 774B     		ldr	r3, .L96+4
 1355 01a6 5B78     		ldrb	r3, [r3, #1]	@ zero_extendqisi2
 1356 01a8 DBB2     		uxtb	r3, r3
ARM GAS  C:\Users\user\AppData\Local\Temp\ccSIFDDJ.s 			page 45


 1357 01aa 042B     		cmp	r3, #4
 1358 01ac 08D0     		beq	.L71
 1359              		.loc 1 324 0 is_stmt 0 discriminator 1
 1360 01ae 754B     		ldr	r3, .L96+4
 1361 01b0 9B78     		ldrb	r3, [r3, #2]	@ zero_extendqisi2
 1362 01b2 DBB2     		uxtb	r3, r3
 1363 01b4 042B     		cmp	r3, #4
 1364 01b6 03D0     		beq	.L71
 1365              		.loc 1 324 0 discriminator 2
 1366 01b8 734B     		ldr	r3, .L96+8
 1367 01ba 1B78     		ldrb	r3, [r3]	@ zero_extendqisi2
 1368 01bc 022B     		cmp	r3, #2
 1369 01be 1BD1     		bne	.L72
 1370              	.L71:
 325:DISPLAY.c     ****                     DrawOption2();
 1371              		.loc 1 325 0 is_stmt 1
 1372 01c0 FFF7FEFF 		bl	DrawOption2
 1373              	.LVL161:
 326:DISPLAY.c     ****                    
 327:DISPLAY.c     ****                                         if  (currentScreen.FLAG1==4) { currentScreen.FLAG1=0; } // 
 1374              		.loc 1 327 0
 1375 01c4 6F4B     		ldr	r3, .L96+4
 1376 01c6 5B78     		ldrb	r3, [r3, #1]	@ zero_extendqisi2
 1377 01c8 DBB2     		uxtb	r3, r3
 1378 01ca 042B     		cmp	r3, #4
 1379 01cc 02D1     		bne	.L73
 1380              		.loc 1 327 0 is_stmt 0 discriminator 1
 1381 01ce 0022     		movs	r2, #0
 1382 01d0 6C4B     		ldr	r3, .L96+4
 1383 01d2 5A70     		strb	r2, [r3, #1]
 1384              	.L73:
 328:DISPLAY.c     ****                                         if  (currentScreen.FLAG2==4) { currentScreen.FLAG2=0; } // 
 1385              		.loc 1 328 0 is_stmt 1
 1386 01d4 6B4B     		ldr	r3, .L96+4
 1387 01d6 9B78     		ldrb	r3, [r3, #2]	@ zero_extendqisi2
 1388 01d8 DBB2     		uxtb	r3, r3
 1389 01da 042B     		cmp	r3, #4
 1390 01dc 02D1     		bne	.L74
 1391              		.loc 1 328 0 is_stmt 0 discriminator 1
 1392 01de 0022     		movs	r2, #0
 1393 01e0 684B     		ldr	r3, .L96+4
 1394 01e2 9A70     		strb	r2, [r3, #2]
 1395              	.L74:
 329:DISPLAY.c     ****                                         if (selection_MENU==2) {
 1396              		.loc 1 329 0 is_stmt 1
 1397 01e4 684B     		ldr	r3, .L96+8
 1398 01e6 1B78     		ldrb	r3, [r3]	@ zero_extendqisi2
 1399 01e8 022B     		cmp	r3, #2
 1400 01ea 05D1     		bne	.L72
 330:DISPLAY.c     ****                                             currentScreen.screen= OPTION_2; 
 1401              		.loc 1 330 0
 1402 01ec 0322     		movs	r2, #3
 1403 01ee 654B     		ldr	r3, .L96+4
 1404 01f0 1A70     		strb	r2, [r3]
 331:DISPLAY.c     ****                                             selection_MENU=0;} //Affichage de l'OPTION 2  √† l'appu
 1405              		.loc 1 331 0
 1406 01f2 0022     		movs	r2, #0
ARM GAS  C:\Users\user\AppData\Local\Temp\ccSIFDDJ.s 			page 46


 1407 01f4 644B     		ldr	r3, .L96+8
 1408 01f6 1A70     		strb	r2, [r3]
 1409              	.L72:
 332:DISPLAY.c     ****                 } 
 333:DISPLAY.c     ****                 if (currentScreen.FLAG1==5 || currentScreen.FLAG2==5 || selection_MENU==3) {       
 1410              		.loc 1 333 0
 1411 01f8 624B     		ldr	r3, .L96+4
 1412 01fa 5B78     		ldrb	r3, [r3, #1]	@ zero_extendqisi2
 1413 01fc DBB2     		uxtb	r3, r3
 1414 01fe 052B     		cmp	r3, #5
 1415 0200 08D0     		beq	.L75
 1416              		.loc 1 333 0 is_stmt 0 discriminator 1
 1417 0202 604B     		ldr	r3, .L96+4
 1418 0204 9B78     		ldrb	r3, [r3, #2]	@ zero_extendqisi2
 1419 0206 DBB2     		uxtb	r3, r3
 1420 0208 052B     		cmp	r3, #5
 1421 020a 03D0     		beq	.L75
 1422              		.loc 1 333 0 discriminator 2
 1423 020c 5E4B     		ldr	r3, .L96+8
 1424 020e 1B78     		ldrb	r3, [r3]	@ zero_extendqisi2
 1425 0210 032B     		cmp	r3, #3
 1426 0212 1BD1     		bne	.L76
 1427              	.L75:
 334:DISPLAY.c     ****                     DrawOption3_superieur();
 1428              		.loc 1 334 0 is_stmt 1
 1429 0214 FFF7FEFF 		bl	DrawOption3_superieur
 1430              	.LVL162:
 335:DISPLAY.c     ****                    
 336:DISPLAY.c     ****                                         if  (currentScreen.FLAG1==5) { currentScreen.FLAG1=0; } // 
 1431              		.loc 1 336 0
 1432 0218 5A4B     		ldr	r3, .L96+4
 1433 021a 5B78     		ldrb	r3, [r3, #1]	@ zero_extendqisi2
 1434 021c DBB2     		uxtb	r3, r3
 1435 021e 052B     		cmp	r3, #5
 1436 0220 02D1     		bne	.L77
 1437              		.loc 1 336 0 is_stmt 0 discriminator 1
 1438 0222 0022     		movs	r2, #0
 1439 0224 574B     		ldr	r3, .L96+4
 1440 0226 5A70     		strb	r2, [r3, #1]
 1441              	.L77:
 337:DISPLAY.c     ****                                         if  (currentScreen.FLAG2==5) { currentScreen.FLAG2=0; } // 
 1442              		.loc 1 337 0 is_stmt 1
 1443 0228 564B     		ldr	r3, .L96+4
 1444 022a 9B78     		ldrb	r3, [r3, #2]	@ zero_extendqisi2
 1445 022c DBB2     		uxtb	r3, r3
 1446 022e 052B     		cmp	r3, #5
 1447 0230 02D1     		bne	.L78
 1448              		.loc 1 337 0 is_stmt 0 discriminator 1
 1449 0232 0022     		movs	r2, #0
 1450 0234 534B     		ldr	r3, .L96+4
 1451 0236 9A70     		strb	r2, [r3, #2]
 1452              	.L78:
 338:DISPLAY.c     ****                                         if (selection_MENU==3) {
 1453              		.loc 1 338 0 is_stmt 1
 1454 0238 534B     		ldr	r3, .L96+8
 1455 023a 1B78     		ldrb	r3, [r3]	@ zero_extendqisi2
 1456 023c 032B     		cmp	r3, #3
ARM GAS  C:\Users\user\AppData\Local\Temp\ccSIFDDJ.s 			page 47


 1457 023e 05D1     		bne	.L76
 339:DISPLAY.c     **** 
 340:DISPLAY.c     ****                                             currentScreen.screen= OPTION_3_superieur;
 1458              		.loc 1 340 0
 1459 0240 0422     		movs	r2, #4
 1460 0242 504B     		ldr	r3, .L96+4
 1461 0244 1A70     		strb	r2, [r3]
 341:DISPLAY.c     ****                                             selection_MENU=0;} //Affichage de l'OPTION 3  √† l'appu
 1462              		.loc 1 341 0
 1463 0246 0022     		movs	r2, #0
 1464 0248 4F4B     		ldr	r3, .L96+8
 1465 024a 1A70     		strb	r2, [r3]
 1466              	.L76:
 342:DISPLAY.c     ****                 }
 343:DISPLAY.c     ****                 if (currentScreen.FLAG1==6 || currentScreen.FLAG2==6 || selection_MENU==4) {       
 1467              		.loc 1 343 0
 1468 024c 4D4B     		ldr	r3, .L96+4
 1469 024e 5B78     		ldrb	r3, [r3, #1]	@ zero_extendqisi2
 1470 0250 DBB2     		uxtb	r3, r3
 1471 0252 062B     		cmp	r3, #6
 1472 0254 08D0     		beq	.L79
 1473              		.loc 1 343 0 is_stmt 0 discriminator 1
 1474 0256 4B4B     		ldr	r3, .L96+4
 1475 0258 9B78     		ldrb	r3, [r3, #2]	@ zero_extendqisi2
 1476 025a DBB2     		uxtb	r3, r3
 1477 025c 062B     		cmp	r3, #6
 1478 025e 03D0     		beq	.L79
 1479              		.loc 1 343 0 discriminator 2
 1480 0260 494B     		ldr	r3, .L96+8
 1481 0262 1B78     		ldrb	r3, [r3]	@ zero_extendqisi2
 1482 0264 042B     		cmp	r3, #4
 1483 0266 1BD1     		bne	.L80
 1484              	.L79:
 344:DISPLAY.c     **** 
 345:DISPLAY.c     ****                     DrawOption3_inferieur();
 1485              		.loc 1 345 0 is_stmt 1
 1486 0268 FFF7FEFF 		bl	DrawOption3_inferieur
 1487              	.LVL163:
 346:DISPLAY.c     ****                     
 347:DISPLAY.c     ****                                         if  (currentScreen.FLAG1==6) { currentScreen.FLAG1=0; } // 
 1488              		.loc 1 347 0
 1489 026c 454B     		ldr	r3, .L96+4
 1490 026e 5B78     		ldrb	r3, [r3, #1]	@ zero_extendqisi2
 1491 0270 DBB2     		uxtb	r3, r3
 1492 0272 062B     		cmp	r3, #6
 1493 0274 02D1     		bne	.L81
 1494              		.loc 1 347 0 is_stmt 0 discriminator 1
 1495 0276 0022     		movs	r2, #0
 1496 0278 424B     		ldr	r3, .L96+4
 1497 027a 5A70     		strb	r2, [r3, #1]
 1498              	.L81:
 348:DISPLAY.c     ****                                         if  (currentScreen.FLAG2==6) { currentScreen.FLAG2=0; } // 
 1499              		.loc 1 348 0 is_stmt 1
 1500 027c 414B     		ldr	r3, .L96+4
 1501 027e 9B78     		ldrb	r3, [r3, #2]	@ zero_extendqisi2
 1502 0280 DBB2     		uxtb	r3, r3
 1503 0282 062B     		cmp	r3, #6
ARM GAS  C:\Users\user\AppData\Local\Temp\ccSIFDDJ.s 			page 48


 1504 0284 02D1     		bne	.L82
 1505              		.loc 1 348 0 is_stmt 0 discriminator 1
 1506 0286 0022     		movs	r2, #0
 1507 0288 3E4B     		ldr	r3, .L96+4
 1508 028a 9A70     		strb	r2, [r3, #2]
 1509              	.L82:
 349:DISPLAY.c     ****                                         if (selection_MENU==4) {
 1510              		.loc 1 349 0 is_stmt 1
 1511 028c 3E4B     		ldr	r3, .L96+8
 1512 028e 1B78     		ldrb	r3, [r3]	@ zero_extendqisi2
 1513 0290 042B     		cmp	r3, #4
 1514 0292 05D1     		bne	.L80
 350:DISPLAY.c     ****                                             currentScreen.screen= OPTION_3_inferieur; 
 1515              		.loc 1 350 0
 1516 0294 0522     		movs	r2, #5
 1517 0296 3B4B     		ldr	r3, .L96+4
 1518 0298 1A70     		strb	r2, [r3]
 351:DISPLAY.c     ****                                             selection_MENU=0;} //Affichage de l'OPTION 4  √† l'appu
 1519              		.loc 1 351 0
 1520 029a 0022     		movs	r2, #0
 1521 029c 3A4B     		ldr	r3, .L96+8
 1522 029e 1A70     		strb	r2, [r3]
 1523              	.L80:
 352:DISPLAY.c     ****                 }
 353:DISPLAY.c     ****                 if (currentScreen.FLAG1==7 || currentScreen.FLAG2==7 || selection_MENU==5) {       
 1524              		.loc 1 353 0
 1525 02a0 384B     		ldr	r3, .L96+4
 1526 02a2 5B78     		ldrb	r3, [r3, #1]	@ zero_extendqisi2
 1527 02a4 DBB2     		uxtb	r3, r3
 1528 02a6 072B     		cmp	r3, #7
 1529 02a8 08D0     		beq	.L83
 1530              		.loc 1 353 0 is_stmt 0 discriminator 1
 1531 02aa 364B     		ldr	r3, .L96+4
 1532 02ac 9B78     		ldrb	r3, [r3, #2]	@ zero_extendqisi2
 1533 02ae DBB2     		uxtb	r3, r3
 1534 02b0 072B     		cmp	r3, #7
 1535 02b2 03D0     		beq	.L83
 1536              		.loc 1 353 0 discriminator 2
 1537 02b4 344B     		ldr	r3, .L96+8
 1538 02b6 1B78     		ldrb	r3, [r3]	@ zero_extendqisi2
 1539 02b8 052B     		cmp	r3, #5
 1540 02ba 3BD1     		bne	.L84
 1541              	.L83:
 354:DISPLAY.c     **** 
 355:DISPLAY.c     ****                     DrawOption3_ETAT();
 1542              		.loc 1 355 0 is_stmt 1
 1543 02bc FFF7FEFF 		bl	DrawOption3_ETAT
 1544              	.LVL164:
 356:DISPLAY.c     ****                     //Activation  de l'alarme de la FC √† l'appuie du bouton 0 sur la page de l'OPT
 357:DISPLAY.c     ****                     //Permet la comparaison de l'intervalle de FC d√©sir√©e et la FC pr√©lev√©e 
 358:DISPLAY.c     ****                                         if  (currentScreen.FLAG1==7) {
 1545              		.loc 1 358 0
 1546 02c0 304B     		ldr	r3, .L96+4
 1547 02c2 5B78     		ldrb	r3, [r3, #1]	@ zero_extendqisi2
 1548 02c4 DBB2     		uxtb	r3, r3
 1549 02c6 072B     		cmp	r3, #7
 1550 02c8 11D1     		bne	.L85
ARM GAS  C:\Users\user\AppData\Local\Temp\ccSIFDDJ.s 			page 49


 359:DISPLAY.c     ****                                              alarme_FC= true; 
 1551              		.loc 1 359 0
 1552 02ca 0124     		movs	r4, #1
 1553 02cc 344B     		ldr	r3, .L96+32
 1554 02ce 1C70     		strb	r4, [r3]
 360:DISPLAY.c     ****                                              GUI_SetFont(GUI_FONT_16B_1);
 1555              		.loc 1 360 0
 1556 02d0 2F48     		ldr	r0, .L96+16
 1557 02d2 FFF7FEFF 		bl	GUI_SetFont
 1558              	.LVL165:
 361:DISPLAY.c     ****                                              GUI_DispStringAt ("L'alarme est activee ",25, 130); 
 1559              		.loc 1 361 0
 1560 02d6 8222     		movs	r2, #130
 1561 02d8 1921     		movs	r1, #25
 1562 02da 2E48     		ldr	r0, .L96+20
 1563 02dc FFF7FEFF 		bl	GUI_DispStringAt
 1564              	.LVL166:
 362:DISPLAY.c     ****                                                UpdateDisplay(CY_EINK_FULL_4STAGE, true);
 1565              		.loc 1 362 0
 1566 02e0 2146     		mov	r1, r4
 1567 02e2 2046     		mov	r0, r4
 1568 02e4 FFF7FEFF 		bl	UpdateDisplay
 1569              	.LVL167:
 363:DISPLAY.c     ****                                             currentScreen.FLAG1=0; }
 1570              		.loc 1 363 0
 1571 02e8 0022     		movs	r2, #0
 1572 02ea 264B     		ldr	r3, .L96+4
 1573 02ec 5A70     		strb	r2, [r3, #1]
 1574              	.L85:
 364:DISPLAY.c     ****                     //D√©sactivation  de l'alarme de la FC √† l'appuie du bouton 1 sur la page de l
 365:DISPLAY.c     ****                     //Bloque la comparaison de l'intervalle de FC d√©sir√©e et la FC pr√©lev√©e 
 366:DISPLAY.c     ****                                         if  (currentScreen.FLAG2==7) { 
 1575              		.loc 1 366 0
 1576 02ee 254B     		ldr	r3, .L96+4
 1577 02f0 9B78     		ldrb	r3, [r3, #2]	@ zero_extendqisi2
 1578 02f2 DBB2     		uxtb	r3, r3
 1579 02f4 072B     		cmp	r3, #7
 1580 02f6 13D1     		bne	.L86
 367:DISPLAY.c     ****                                              alarme_FC= false;
 1581              		.loc 1 367 0
 1582 02f8 0024     		movs	r4, #0
 1583 02fa 294B     		ldr	r3, .L96+32
 1584 02fc 1C70     		strb	r4, [r3]
 1585              	.LVL168:
 1586              	.LBB20:
 1587              	.LBB21:
 1588              		.loc 2 817 0
 1589 02fe 2022     		movs	r2, #32
 1590 0300 254B     		ldr	r3, .L96+24
 1591 0302 9A60     		str	r2, [r3, #8]
 1592              	.LVL169:
 1593              	.LBE21:
 1594              	.LBE20:
 368:DISPLAY.c     ****                                             Cy_GPIO_Write (Pin_FC_0_PORT,Pin_FC_0_NUM,1);
 369:DISPLAY.c     ****                                             GUI_SetFont(GUI_FONT_16B_1);
 1595              		.loc 1 369 0
 1596 0304 2248     		ldr	r0, .L96+16
ARM GAS  C:\Users\user\AppData\Local\Temp\ccSIFDDJ.s 			page 50


 1597 0306 FFF7FEFF 		bl	GUI_SetFont
 1598              	.LVL170:
 370:DISPLAY.c     ****                                             GUI_DispStringAt ("L'alarme est desactivee", 25, 130);
 1599              		.loc 1 370 0
 1600 030a 8222     		movs	r2, #130
 1601 030c 1921     		movs	r1, #25
 1602 030e 2348     		ldr	r0, .L96+28
 1603 0310 FFF7FEFF 		bl	GUI_DispStringAt
 1604              	.LVL171:
 371:DISPLAY.c     ****                                                UpdateDisplay(CY_EINK_FULL_4STAGE, true);
 1605              		.loc 1 371 0
 1606 0314 0121     		movs	r1, #1
 1607 0316 0846     		mov	r0, r1
 1608 0318 FFF7FEFF 		bl	UpdateDisplay
 1609              	.LVL172:
 372:DISPLAY.c     ****                                             currentScreen.FLAG2=0; }
 1610              		.loc 1 372 0
 1611 031c 194B     		ldr	r3, .L96+4
 1612 031e 9C70     		strb	r4, [r3, #2]
 1613              	.L86:
 373:DISPLAY.c     ****                       //Affichage de l'OPTION 5  √† l'appuie du bouton 1 sur le MENU pour une posit
 374:DISPLAY.c     ****                                         if (selection_MENU==5) {
 1614              		.loc 1 374 0
 1615 0320 194B     		ldr	r3, .L96+8
 1616 0322 1B78     		ldrb	r3, [r3]	@ zero_extendqisi2
 1617 0324 052B     		cmp	r3, #5
 1618 0326 05D1     		bne	.L84
 375:DISPLAY.c     ****                                             currentScreen.screen= OPTION_3_ETAT; 
 1619              		.loc 1 375 0
 1620 0328 0622     		movs	r2, #6
 1621 032a 164B     		ldr	r3, .L96+4
 1622 032c 1A70     		strb	r2, [r3]
 376:DISPLAY.c     ****                                             selection_MENU=0;}
 1623              		.loc 1 376 0
 1624 032e 0022     		movs	r2, #0
 1625 0330 154B     		ldr	r3, .L96+8
 1626 0332 1A70     		strb	r2, [r3]
 1627              	.L84:
 377:DISPLAY.c     ****                 }
 378:DISPLAY.c     ****                 
 379:DISPLAY.c     ****                 // Si l'alarme de l'acc√©l√©rom√®tre est activ√©e, on lit les donn√©es transmise pa
 380:DISPLAY.c     ****                 // si celle-ci s'enclenche ou pas 
 381:DISPLAY.c     ****                 if (alarme_acc) 
 1628              		.loc 1 381 0
 1629 0334 154B     		ldr	r3, .L96+12
 1630 0336 1B78     		ldrb	r3, [r3]	@ zero_extendqisi2
 1631 0338 5BB1     		cbz	r3, .L87
 382:DISPLAY.c     ****                 {
 383:DISPLAY.c     ****                     // signal venant de la communication qui permet d'indiquer s'il y a un mouvemen
 384:DISPLAY.c     ****                         if (AlarmeBMI160) {
 1632              		.loc 1 384 0
 1633 033a 1A4B     		ldr	r3, .L96+36
 1634 033c 1B78     		ldrb	r3, [r3]	@ zero_extendqisi2
 1635 033e 13F0FF0F 		tst	r3, #255
 1636 0342 03D0     		beq	.L88
 1637              	.LVL173:
 1638              	.LBB22:
ARM GAS  C:\Users\user\AppData\Local\Temp\ccSIFDDJ.s 			page 51


 1639              	.LBB23:
 813:Generated_Source\PSoC6\pdl\drivers/peripheral/gpio/cy_gpio.h ****     }
 1640              		.loc 2 813 0
 1641 0344 0222     		movs	r2, #2
 1642 0346 144B     		ldr	r3, .L96+24
 1643 0348 5A60     		str	r2, [r3, #4]
 1644 034a 02E0     		b	.L87
 1645              	.LVL174:
 1646              	.L88:
 1647              	.LBE23:
 1648              	.LBE22:
 1649              	.LBB24:
 1650              	.LBB25:
 1651              		.loc 2 817 0
 1652 034c 0222     		movs	r2, #2
 1653 034e 124B     		ldr	r3, .L96+24
 1654 0350 9A60     		str	r2, [r3, #8]
 1655              	.LVL175:
 1656              	.L87:
 1657              	.LBE25:
 1658              	.LBE24:
 385:DISPLAY.c     ****                          Cy_GPIO_Write(Pin_ACC_0_PORT,Pin_ACC_0_NUM, 0);
 386:DISPLAY.c     ****                         }
 387:DISPLAY.c     ****                         else {Cy_GPIO_Write (Pin_ACC_0_PORT,Pin_ACC_0_NUM,1); }  
 388:DISPLAY.c     ****                 }
 389:DISPLAY.c     ****                 // Si l'alarme de la FC est activ√©e, on compare l'intervalle de FC √©tablie √† la 
 390:DISPLAY.c     ****                 // si l'alarme s'enclenche ou pas 
 391:DISPLAY.c     ****                if (alarme_FC) 
 1659              		.loc 1 391 0
 1660 0352 134B     		ldr	r3, .L96+32
 1661 0354 1B78     		ldrb	r3, [r3]	@ zero_extendqisi2
 1662 0356 002B     		cmp	r3, #0
 1663 0358 2FD0     		beq	.L89
 392:DISPLAY.c     ****                 {
 393:DISPLAY.c     ****                      
 394:DISPLAY.c     ****                         if (BPM<borne_inferieur || BPM>borne_superieur) {                         
 1664              		.loc 1 394 0
 1665 035a 134B     		ldr	r3, .L96+40
 1666 035c 1B78     		ldrb	r3, [r3]	@ zero_extendqisi2
 1667 035e DBB2     		uxtb	r3, r3
 1668 0360 124A     		ldr	r2, .L96+44
 1669 0362 1278     		ldrb	r2, [r2]	@ zero_extendqisi2
 1670 0364 9342     		cmp	r3, r2
 1671 0366 06D3     		bcc	.L90
 1672              		.loc 1 394 0 is_stmt 0 discriminator 1
 1673 0368 0F4B     		ldr	r3, .L96+40
 1674 036a 1B78     		ldrb	r3, [r3]	@ zero_extendqisi2
 1675 036c DBB2     		uxtb	r3, r3
 1676 036e 104A     		ldr	r2, .L96+48
 1677 0370 1278     		ldrb	r2, [r2]	@ zero_extendqisi2
 1678 0372 9342     		cmp	r3, r2
 1679 0374 1ED9     		bls	.L91
 1680              	.L90:
 1681              	.LVL176:
 1682              	.LBB26:
 1683              	.LBB27:
 813:Generated_Source\PSoC6\pdl\drivers/peripheral/gpio/cy_gpio.h ****     }
ARM GAS  C:\Users\user\AppData\Local\Temp\ccSIFDDJ.s 			page 52


 1684              		.loc 2 813 0 is_stmt 1
 1685 0376 2022     		movs	r2, #32
 1686 0378 074B     		ldr	r3, .L96+24
 1687 037a 5A60     		str	r2, [r3, #4]
 1688 037c 1DE0     		b	.L89
 1689              	.L97:
 1690 037e 00BF     		.align	2
 1691              	.L96:
 1692 0380 00000000 		.word	postion_MENU
 1693 0384 00000000 		.word	currentScreen
 1694 0388 00000000 		.word	selection_MENU
 1695 038c 00000000 		.word	alarme_acc
 1696 0390 00000000 		.word	GUI_Font16B_1
 1697 0394 B8020000 		.word	.LC28
 1698 0398 80003240 		.word	1077018752
 1699 039c D0020000 		.word	.LC29
 1700 03a0 00000000 		.word	alarme_FC
 1701 03a4 00000000 		.word	AlarmeBMI160
 1702 03a8 00000000 		.word	BPM
 1703 03ac 00000000 		.word	borne_inferieur
 1704 03b0 00000000 		.word	borne_superieur
 1705              	.LVL177:
 1706              	.L91:
 1707              	.LBE27:
 1708              	.LBE26:
 1709              	.LBB28:
 1710              	.LBB29:
 1711              		.loc 2 817 0
 1712 03b4 2022     		movs	r2, #32
 1713 03b6 034B     		ldr	r3, .L98
 1714 03b8 9A60     		str	r2, [r3, #8]
 1715              	.LVL178:
 1716              	.L89:
 1717              	.LBE29:
 1718              	.LBE28:
 395:DISPLAY.c     ****                          Cy_GPIO_Write(Pin_FC_0_PORT,Pin_FC_0_NUM, 0); 
 396:DISPLAY.c     ****                         }
 397:DISPLAY.c     ****                         else {Cy_GPIO_Write (Pin_FC_0_PORT,Pin_FC_0_NUM,1); }     
 398:DISPLAY.c     ****                 }
 399:DISPLAY.c     ****                
 400:DISPLAY.c     ****                  vTaskDelay(pdMS_TO_TICKS(350));
 1719              		.loc 1 400 0
 1720 03ba 4FF4AF70 		mov	r0, #350
 1721 03be FFF7FEFF 		bl	vTaskDelay
 1722              	.LVL179:
 401:DISPLAY.c     ****         }
 1723              		.loc 1 401 0
 1724 03c2 35E6     		b	.L92
 1725              	.L99:
 1726              		.align	2
 1727              	.L98:
 1728 03c4 80003240 		.word	1077018752
 1729              		.cfi_endproc
 1730              	.LFE704:
 1731              		.size	display_task, .-display_task
 1732              		.comm	ROUGE_minimum_abs,400,4
 1733              		.comm	INFRAROUGE_minimum_abs,400,4
ARM GAS  C:\Users\user\AppData\Local\Temp\ccSIFDDJ.s 			page 53


 1734              		.comm	ROUGE,4400,4
 1735              		.comm	INFRAROUGE,4400,4
 1736              		.comm	vecteurespacee,500,4
 1737              		.comm	data,672,4
 1738              		.comm	selection_MENU,1,1
 1739              		.comm	postion_MENU,1,1
 1740              		.comm	currentScreen,6,4
 1741              		.comm	imageBufferCache,5808,4
 1742              		.comm	buffer,100,4
 1743              		.comm	borne_superieur,1,1
 1744              		.comm	borne_inferieur,1,1
 1745              		.comm	alarme_FC,1,1
 1746              		.comm	alarme_acc,1,1
 1747              		.comm	courant,1,1
 1748              		.comm	taille_rouge,4,4
 1749              		.comm	taille_infrarouge,4,4
 1750              		.comm	minimum_rouge,4,4
 1751              		.comm	minimum_infrarouge,4,4
 1752              		.comm	blockSize,4,4
 1753              		.comm	firCoeffs32_HighPass,44,4
 1754              		.comm	firCoeffs32_LowPass,44,4
 1755              		.comm	entree,1,1
 1756              		.comm	AlarmeBMI160,1,1
 1757              		.comm	BPM,1,1
 1758              		.comm	pourcentageSpO2,4,4
 1759              		.comm	dataSpo2,26400,4
 1760              		.comm	indexBuffer,4,4
 1761              		.section	.rodata.str1.4,"aMS",%progbits,1
 1762              		.align	2
 1763              	.LC0:
 1764 0000 434F5552 		.ascii	"COURBE AFFICHEE:\000"
 1764      42452041 
 1764      46464943 
 1764      4845453A 
 1764      00
 1765 0011 000000   		.space	3
 1766              	.LC1:
 1767 0014 53504543 		.ascii	"SPECTRE\000"
 1767      54524500 
 1768              	.LC2:
 1769 001c 494E4652 		.ascii	"INFRAROUGE\000"
 1769      41524F55 
 1769      474500
 1770 0027 00       		.space	1
 1771              	.LC3:
 1772 0028 524F5547 		.ascii	"ROUGE\000"
 1772      4500
 1773 002e 0000     		.space	2
 1774              	.LC4:
 1775 0030 46726571 		.ascii	"Frequence cardiaque: %d \000"
 1775      75656E63 
 1775      65206361 
 1775      72646961 
 1775      7175653A 
 1776 0049 000000   		.space	3
 1777              	.LC5:
 1778 004c 54617578 		.ascii	"Taux d'oxygene: %d \000"
ARM GAS  C:\Users\user\AppData\Local\Temp\ccSIFDDJ.s 			page 54


 1778      2064276F 
 1778      78796765 
 1778      6E653A20 
 1778      25642000 
 1779              	.LC6:
 1780 0060 42504D20 		.ascii	"BPM \000"
 1780      00
 1781 0065 000000   		.space	3
 1782              	.LC7:
 1783 0068 202500   		.ascii	" %\000"
 1784 006b 00       		.space	1
 1785              	.LC8:
 1786 006c 4D454E55 		.ascii	"MENU\000"
 1786      00
 1787 0071 000000   		.space	3
 1788              	.LC9:
 1789 0074 45544154 		.ascii	"ETAT DE L'ALARME D'ACCELERATION\000"
 1789      20444520 
 1789      4C27414C 
 1789      41524D45 
 1789      20442741 
 1790              	.LC10:
 1791 0094 4D4F4449 		.ascii	"MODIFICATION DU COURANT DES LEDS\000"
 1791      46494341 
 1791      54494F4E 
 1791      20445520 
 1791      434F5552 
 1792 00b5 000000   		.space	3
 1793              	.LC11:
 1794 00b8 424F524E 		.ascii	"BORNE SUPERIEUR- RYTHME CARDIAQUE\000"
 1794      45205355 
 1794      50455249 
 1794      4555522D 
 1794      20525954 
 1795 00da 0000     		.space	2
 1796              	.LC12:
 1797 00dc 424F524E 		.ascii	"BORNE INFERIEUR- RYTHME CARDIAQUE\000"
 1797      4520494E 
 1797      46455249 
 1797      4555522D 
 1797      20525954 
 1798 00fe 0000     		.space	2
 1799              	.LC13:
 1800 0100 45544154 		.ascii	"ETAT DE L'ALARME DE LA FC\000"
 1800      20444520 
 1800      4C27414C 
 1800      41524D45 
 1800      20444520 
 1801 011a 0000     		.space	2
 1802              	.LC14:
 1803 011c 414C4152 		.ascii	"ALARME D'ACCELERATION\000"
 1803      4D452044 
 1803      27414343 
 1803      454C4552 
 1803      4154494F 
 1804 0132 0000     		.space	2
 1805              	.LC15:
ARM GAS  C:\Users\user\AppData\Local\Temp\ccSIFDDJ.s 			page 55


 1806 0134 41505055 		.ascii	"APPUYE SUR LE BOUTON 00 POUR ACTIVER L'ALARME\000"
 1806      59452053 
 1806      5552204C 
 1806      4520424F 
 1806      55544F4E 
 1807 0162 0000     		.space	2
 1808              	.LC16:
 1809 0164 41505055 		.ascii	"APPUYE SUR LE BOUTON 01 POUR DESACTIVER L'ALARME\000"
 1809      59452053 
 1809      5552204C 
 1809      4520424F 
 1809      55544F4E 
 1810 0195 000000   		.space	3
 1811              	.LC17:
 1812 0198 434F5552 		.ascii	"COURANT DELs\000"
 1812      414E5420 
 1812      44454C73 
 1812      00
 1813 01a5 000000   		.space	3
 1814              	.LC18:
 1815 01a8 4C452043 		.ascii	"LE COURANT CONFIGURE DES LEDS\000"
 1815      4F555241 
 1815      4E542043 
 1815      4F4E4649 
 1815      47555245 
 1816 01c6 0000     		.space	2
 1817              	.LC19:
 1818 01c8 44552043 		.ascii	"DU CAPTEUR SPO2 MAX30102 EST:\000"
 1818      41505445 
 1818      55522053 
 1818      504F3220 
 1818      4D415833 
 1819 01e6 0000     		.space	2
 1820              	.LC20:
 1821 01e8 25640A0D 		.ascii	"%d\012\015\000"
 1821      00
 1822 01ed 000000   		.space	3
 1823              	.LC21:
 1824 01f0 6D4100   		.ascii	"mA\000"
 1825 01f3 00       		.space	1
 1826              	.LC22:
 1827 01f4 44454649 		.ascii	"DEFINITION DE L'INTERVALLE DE L'ALARME\000"
 1827      4E495449 
 1827      4F4E2044 
 1827      45204C27 
 1827      494E5445 
 1828 021b 00       		.space	1
 1829              	.LC23:
 1830 021c 44454649 		.ascii	"DEFINIISSEZ LA BORNE SUPERIEUR DE LA FC\000"
 1830      4E494953 
 1830      53455A20 
 1830      4C412042 
 1830      4F524E45 
 1831              	.LC24:
 1832 0244 424F524E 		.ascii	"BORNE SUPERIEUR: \000"
 1832      45205355 
 1832      50455249 
ARM GAS  C:\Users\user\AppData\Local\Temp\ccSIFDDJ.s 			page 56


 1832      4555523A 
 1832      2000
 1833 0256 0000     		.space	2
 1834              	.LC25:
 1835 0258 44454649 		.ascii	"DEFINIISSEZ LA BORNE INFERIEUR DE LA FC\000"
 1835      4E494953 
 1835      53455A20 
 1835      4C412042 
 1835      4F524E45 
 1836              	.LC26:
 1837 0280 424F524E 		.ascii	"BORNE INFERIEUR: \000"
 1837      4520494E 
 1837      46455249 
 1837      4555523A 
 1837      2000
 1838 0292 0000     		.space	2
 1839              	.LC27:
 1840 0294 414C4152 		.ascii	"ALARME DE LA FREQUENCE CARDIAQUE\000"
 1840      4D452044 
 1840      45204C41 
 1840      20465245 
 1840      5155454E 
 1841 02b5 000000   		.space	3
 1842              	.LC28:
 1843 02b8 4C27616C 		.ascii	"L'alarme est activee \000"
 1843      61726D65 
 1843      20657374 
 1843      20616374 
 1843      69766565 
 1844 02ce 0000     		.space	2
 1845              	.LC29:
 1846 02d0 4C27616C 		.ascii	"L'alarme est desactivee\000"
 1846      61726D65 
 1846      20657374 
 1846      20646573 
 1846      61637469 
 1847              		.text
 1848              	.Letext0:
 1849              		.file 3 "c:\\program files (x86)\\cypress\\psoc creator\\4.4\\psoc creator\\import\\gnu\\arm\\5.4.
 1850              		.file 4 "c:\\program files (x86)\\cypress\\psoc creator\\4.4\\psoc creator\\import\\gnu\\arm\\5.4.
 1851              		.file 5 "Generated_Source\\PSoC6\\pdl\\devices/psoc6/include/ip/cyip_gpio.h"
 1852              		.file 6 "Generated_Source\\PSoC6\\pdl\\devices/psoc6/include/psoc6_01_config.h"
 1853              		.file 7 "Generated_Source\\PSoC6\\pdl\\drivers/peripheral/device/cy_device.h"
 1854              		.file 8 "Generated_Source\\PSoC6\\pdl\\drivers/peripheral/syslib/cy_syslib.h"
 1855              		.file 9 "Generated_Source\\PSoC6\\pdl\\drivers/peripheral/scb/cy_scb_i2c.h"
 1856              		.file 10 "Generated_Source\\PSoC6\\pdl\\drivers/peripheral/scb/cy_scb_spi.h"
 1857              		.file 11 "Generated_Source\\PSoC6\\pdl\\drivers/peripheral/scb/cy_scb_uart.h"
 1858              		.file 12 "Generated_Source\\PSoC6\\pdl\\drivers/peripheral/tcpwm/cy_tcpwm_counter.h"
 1859              		.file 13 "Generated_Source\\PSoC6\\pdl\\middleware/emWin/code/include/GUI_Type.h"
 1860              		.file 14 ".\\eInk Library/pervasive_eink_hardware_driver.h"
 1861              		.file 15 ".\\eInk Library/cy_eink_library.h"
 1862              		.file 16 "Generated_Source\\PSoC6\\pdl\\rtos/FreeRTOS/10.0.1/Source/portable/GCC/CM4F/portmacro.h"
 1863              		.file 17 "DISPLAY.h"
 1864              		.file 18 ".\\CMSIS\\Core\\Include/core_cm4.h"
 1865              		.file 19 "Generated_Source\\PSoC6/CY_EINK_SPIM.h"
 1866              		.file 20 "Generated_Source\\PSoC6/CY_EINK_Timer.h"
 1867              		.file 21 "Generated_Source\\PSoC6/UART_1.h"
ARM GAS  C:\Users\user\AppData\Local\Temp\ccSIFDDJ.s 			page 57


 1868              		.file 22 "Generated_Source\\PSoC6/I2C_1.h"
 1869              		.file 23 "Generated_Source\\PSoC6/I2C_2.h"
 1870              		.file 24 "Generated_Source\\PSoC6\\pdl\\middleware/emWin/code/include/GUI.h"
 1871              		.file 25 "Declaration.h"
 1872              		.file 26 "TraitementSignal.h"
 1873              		.file 27 "CAPSENS.h"
 1874              		.file 28 "LCDConf.h"
 1875              		.file 29 "c:\\program files (x86)\\cypress\\psoc creator\\4.4\\psoc creator\\import\\gnu\\arm\\5.4
 1876              		.file 30 "Generated_Source\\PSoC6\\pdl\\rtos/FreeRTOS/10.0.1/Source/include/task.h"
 1877              		.section	.debug_info,"",%progbits
 1878              	.Ldebug_info0:
 1879 0000 DD250000 		.4byte	0x25dd
 1880 0004 0400     		.2byte	0x4
 1881 0006 00000000 		.4byte	.Ldebug_abbrev0
 1882 000a 04       		.byte	0x4
 1883 000b 01       		.uleb128 0x1
 1884 000c 59030000 		.4byte	.LASF373
 1885 0010 0C       		.byte	0xc
 1886 0011 68060000 		.4byte	.LASF374
 1887 0015 6D070000 		.4byte	.LASF375
 1888 0019 18000000 		.4byte	.Ldebug_ranges0+0x18
 1889 001d 00000000 		.4byte	0
 1890 0021 00000000 		.4byte	.Ldebug_line0
 1891 0025 02       		.uleb128 0x2
 1892 0026 02       		.byte	0x2
 1893 0027 05       		.byte	0x5
 1894 0028 B40E0000 		.4byte	.LASF0
 1895 002c 02       		.uleb128 0x2
 1896 002d 01       		.byte	0x1
 1897 002e 06       		.byte	0x6
 1898 002f B2120000 		.4byte	.LASF1
 1899 0033 03       		.uleb128 0x3
 1900 0034 53100000 		.4byte	.LASF3
 1901 0038 03       		.byte	0x3
 1902 0039 1D       		.byte	0x1d
 1903 003a 3E000000 		.4byte	0x3e
 1904 003e 02       		.uleb128 0x2
 1905 003f 01       		.byte	0x1
 1906 0040 08       		.byte	0x8
 1907 0041 8B110000 		.4byte	.LASF2
 1908 0045 03       		.uleb128 0x3
 1909 0046 B00B0000 		.4byte	.LASF4
 1910 004a 03       		.byte	0x3
 1911 004b 29       		.byte	0x29
 1912 004c 25000000 		.4byte	0x25
 1913 0050 03       		.uleb128 0x3
 1914 0051 82080000 		.4byte	.LASF5
 1915 0055 03       		.byte	0x3
 1916 0056 2B       		.byte	0x2b
 1917 0057 5B000000 		.4byte	0x5b
 1918 005b 02       		.uleb128 0x2
 1919 005c 02       		.byte	0x2
 1920 005d 07       		.byte	0x7
 1921 005e 880D0000 		.4byte	.LASF6
 1922 0062 03       		.uleb128 0x3
 1923 0063 F3010000 		.4byte	.LASF7
 1924 0067 03       		.byte	0x3
ARM GAS  C:\Users\user\AppData\Local\Temp\ccSIFDDJ.s 			page 58


 1925 0068 3F       		.byte	0x3f
 1926 0069 6D000000 		.4byte	0x6d
 1927 006d 02       		.uleb128 0x2
 1928 006e 04       		.byte	0x4
 1929 006f 05       		.byte	0x5
 1930 0070 EF0E0000 		.4byte	.LASF8
 1931 0074 03       		.uleb128 0x3
 1932 0075 99110000 		.4byte	.LASF9
 1933 0079 03       		.byte	0x3
 1934 007a 41       		.byte	0x41
 1935 007b 7F000000 		.4byte	0x7f
 1936 007f 02       		.uleb128 0x2
 1937 0080 04       		.byte	0x4
 1938 0081 07       		.byte	0x7
 1939 0082 FE100000 		.4byte	.LASF10
 1940 0086 02       		.uleb128 0x2
 1941 0087 08       		.byte	0x8
 1942 0088 05       		.byte	0x5
 1943 0089 BC0A0000 		.4byte	.LASF11
 1944 008d 02       		.uleb128 0x2
 1945 008e 08       		.byte	0x8
 1946 008f 07       		.byte	0x7
 1947 0090 D7050000 		.4byte	.LASF12
 1948 0094 04       		.uleb128 0x4
 1949 0095 04       		.byte	0x4
 1950 0096 05       		.byte	0x5
 1951 0097 696E7400 		.ascii	"int\000"
 1952 009b 02       		.uleb128 0x2
 1953 009c 04       		.byte	0x4
 1954 009d 07       		.byte	0x7
 1955 009e 6F010000 		.4byte	.LASF13
 1956 00a2 03       		.uleb128 0x3
 1957 00a3 A4090000 		.4byte	.LASF14
 1958 00a7 04       		.byte	0x4
 1959 00a8 18       		.byte	0x18
 1960 00a9 33000000 		.4byte	0x33
 1961 00ad 03       		.uleb128 0x3
 1962 00ae AA050000 		.4byte	.LASF15
 1963 00b2 04       		.byte	0x4
 1964 00b3 20       		.byte	0x20
 1965 00b4 45000000 		.4byte	0x45
 1966 00b8 03       		.uleb128 0x3
 1967 00b9 B90D0000 		.4byte	.LASF16
 1968 00bd 04       		.byte	0x4
 1969 00be 24       		.byte	0x24
 1970 00bf 50000000 		.4byte	0x50
 1971 00c3 03       		.uleb128 0x3
 1972 00c4 35110000 		.4byte	.LASF17
 1973 00c8 04       		.byte	0x4
 1974 00c9 2C       		.byte	0x2c
 1975 00ca 62000000 		.4byte	0x62
 1976 00ce 03       		.uleb128 0x3
 1977 00cf BC040000 		.4byte	.LASF18
 1978 00d3 04       		.byte	0x4
 1979 00d4 30       		.byte	0x30
 1980 00d5 74000000 		.4byte	0x74
 1981 00d9 02       		.uleb128 0x2
ARM GAS  C:\Users\user\AppData\Local\Temp\ccSIFDDJ.s 			page 59


 1982 00da 04       		.byte	0x4
 1983 00db 07       		.byte	0x7
 1984 00dc 5A0E0000 		.4byte	.LASF19
 1985 00e0 05       		.uleb128 0x5
 1986 00e1 CE000000 		.4byte	0xce
 1987 00e5 05       		.uleb128 0x5
 1988 00e6 A2000000 		.4byte	0xa2
 1989 00ea 06       		.uleb128 0x6
 1990 00eb E0000000 		.4byte	0xe0
 1991 00ef 07       		.uleb128 0x7
 1992 00f0 EA000000 		.4byte	0xea
 1993 00f4 FF000000 		.4byte	0xff
 1994 00f8 08       		.uleb128 0x8
 1995 00f9 D9000000 		.4byte	0xd9
 1996 00fd 0F       		.byte	0xf
 1997 00fe 00       		.byte	0
 1998 00ff 09       		.uleb128 0x9
 1999 0100 80       		.byte	0x80
 2000 0101 05       		.byte	0x5
 2001 0102 22       		.byte	0x22
 2002 0103 D3010000 		.4byte	0x1d3
 2003 0107 0A       		.uleb128 0xa
 2004 0108 4F555400 		.ascii	"OUT\000"
 2005 010c 05       		.byte	0x5
 2006 010d 23       		.byte	0x23
 2007 010e E0000000 		.4byte	0xe0
 2008 0112 00       		.byte	0
 2009 0113 0B       		.uleb128 0xb
 2010 0114 8C050000 		.4byte	.LASF20
 2011 0118 05       		.byte	0x5
 2012 0119 24       		.byte	0x24
 2013 011a E0000000 		.4byte	0xe0
 2014 011e 04       		.byte	0x4
 2015 011f 0B       		.uleb128 0xb
 2016 0120 36050000 		.4byte	.LASF21
 2017 0124 05       		.byte	0x5
 2018 0125 25       		.byte	0x25
 2019 0126 E0000000 		.4byte	0xe0
 2020 012a 08       		.byte	0x8
 2021 012b 0B       		.uleb128 0xb
 2022 012c 36100000 		.4byte	.LASF22
 2023 0130 05       		.byte	0x5
 2024 0131 26       		.byte	0x26
 2025 0132 E0000000 		.4byte	0xe0
 2026 0136 0C       		.byte	0xc
 2027 0137 0A       		.uleb128 0xa
 2028 0138 494E00   		.ascii	"IN\000"
 2029 013b 05       		.byte	0x5
 2030 013c 27       		.byte	0x27
 2031 013d EA000000 		.4byte	0xea
 2032 0141 10       		.byte	0x10
 2033 0142 0B       		.uleb128 0xb
 2034 0143 9B0F0000 		.4byte	.LASF23
 2035 0147 05       		.byte	0x5
 2036 0148 28       		.byte	0x28
 2037 0149 E0000000 		.4byte	0xe0
 2038 014d 14       		.byte	0x14
ARM GAS  C:\Users\user\AppData\Local\Temp\ccSIFDDJ.s 			page 60


 2039 014e 0B       		.uleb128 0xb
 2040 014f 13010000 		.4byte	.LASF24
 2041 0153 05       		.byte	0x5
 2042 0154 29       		.byte	0x29
 2043 0155 E0000000 		.4byte	0xe0
 2044 0159 18       		.byte	0x18
 2045 015a 0B       		.uleb128 0xb
 2046 015b B7100000 		.4byte	.LASF25
 2047 015f 05       		.byte	0x5
 2048 0160 2A       		.byte	0x2a
 2049 0161 EA000000 		.4byte	0xea
 2050 0165 1C       		.byte	0x1c
 2051 0166 0B       		.uleb128 0xb
 2052 0167 C8020000 		.4byte	.LASF26
 2053 016b 05       		.byte	0x5
 2054 016c 2B       		.byte	0x2b
 2055 016d E0000000 		.4byte	0xe0
 2056 0171 20       		.byte	0x20
 2057 0172 0B       		.uleb128 0xb
 2058 0173 CD110000 		.4byte	.LASF27
 2059 0177 05       		.byte	0x5
 2060 0178 2C       		.byte	0x2c
 2061 0179 E0000000 		.4byte	0xe0
 2062 017d 24       		.byte	0x24
 2063 017e 0A       		.uleb128 0xa
 2064 017f 43464700 		.ascii	"CFG\000"
 2065 0183 05       		.byte	0x5
 2066 0184 2D       		.byte	0x2d
 2067 0185 E0000000 		.4byte	0xe0
 2068 0189 28       		.byte	0x28
 2069 018a 0B       		.uleb128 0xb
 2070 018b 7C040000 		.4byte	.LASF28
 2071 018f 05       		.byte	0x5
 2072 0190 2E       		.byte	0x2e
 2073 0191 E0000000 		.4byte	0xe0
 2074 0195 2C       		.byte	0x2c
 2075 0196 0B       		.uleb128 0xb
 2076 0197 E3060000 		.4byte	.LASF29
 2077 019b 05       		.byte	0x5
 2078 019c 2F       		.byte	0x2f
 2079 019d E0000000 		.4byte	0xe0
 2080 01a1 30       		.byte	0x30
 2081 01a2 0B       		.uleb128 0xb
 2082 01a3 F8130000 		.4byte	.LASF30
 2083 01a7 05       		.byte	0x5
 2084 01a8 30       		.byte	0x30
 2085 01a9 E0000000 		.4byte	0xe0
 2086 01ad 34       		.byte	0x34
 2087 01ae 0B       		.uleb128 0xb
 2088 01af 14000000 		.4byte	.LASF31
 2089 01b3 05       		.byte	0x5
 2090 01b4 31       		.byte	0x31
 2091 01b5 EA000000 		.4byte	0xea
 2092 01b9 38       		.byte	0x38
 2093 01ba 0B       		.uleb128 0xb
 2094 01bb DD0F0000 		.4byte	.LASF32
 2095 01bf 05       		.byte	0x5
ARM GAS  C:\Users\user\AppData\Local\Temp\ccSIFDDJ.s 			page 61


 2096 01c0 32       		.byte	0x32
 2097 01c1 E0000000 		.4byte	0xe0
 2098 01c5 3C       		.byte	0x3c
 2099 01c6 0B       		.uleb128 0xb
 2100 01c7 94050000 		.4byte	.LASF33
 2101 01cb 05       		.byte	0x5
 2102 01cc 33       		.byte	0x33
 2103 01cd D8010000 		.4byte	0x1d8
 2104 01d1 40       		.byte	0x40
 2105 01d2 00       		.byte	0
 2106 01d3 05       		.uleb128 0x5
 2107 01d4 EF000000 		.4byte	0xef
 2108 01d8 06       		.uleb128 0x6
 2109 01d9 D3010000 		.4byte	0x1d3
 2110 01dd 03       		.uleb128 0x3
 2111 01de 7C0F0000 		.4byte	.LASF34
 2112 01e2 05       		.byte	0x5
 2113 01e3 34       		.byte	0x34
 2114 01e4 FF000000 		.4byte	0xff
 2115 01e8 0C       		.uleb128 0xc
 2116 01e9 2440     		.2byte	0x4024
 2117 01eb 05       		.byte	0x5
 2118 01ec 39       		.byte	0x39
 2119 01ed 73020000 		.4byte	0x273
 2120 01f1 0A       		.uleb128 0xa
 2121 01f2 50525400 		.ascii	"PRT\000"
 2122 01f6 05       		.byte	0x5
 2123 01f7 3A       		.byte	0x3a
 2124 01f8 73020000 		.4byte	0x273
 2125 01fc 00       		.byte	0
 2126 01fd 0D       		.uleb128 0xd
 2127 01fe E4090000 		.4byte	.LASF35
 2128 0202 05       		.byte	0x5
 2129 0203 3B       		.byte	0x3b
 2130 0204 EA000000 		.4byte	0xea
 2131 0208 0040     		.2byte	0x4000
 2132 020a 0D       		.uleb128 0xd
 2133 020b F0090000 		.4byte	.LASF36
 2134 020f 05       		.byte	0x5
 2135 0210 3C       		.byte	0x3c
 2136 0211 EA000000 		.4byte	0xea
 2137 0215 0440     		.2byte	0x4004
 2138 0217 0D       		.uleb128 0xd
 2139 0218 100A0000 		.4byte	.LASF37
 2140 021c 05       		.byte	0x5
 2141 021d 3D       		.byte	0x3d
 2142 021e EA000000 		.4byte	0xea
 2143 0222 0840     		.2byte	0x4008
 2144 0224 0D       		.uleb128 0xd
 2145 0225 1C0A0000 		.4byte	.LASF38
 2146 0229 05       		.byte	0x5
 2147 022a 3E       		.byte	0x3e
 2148 022b EA000000 		.4byte	0xea
 2149 022f 0C40     		.2byte	0x400c
 2150 0231 0D       		.uleb128 0xd
 2151 0232 53130000 		.4byte	.LASF39
 2152 0236 05       		.byte	0x5
ARM GAS  C:\Users\user\AppData\Local\Temp\ccSIFDDJ.s 			page 62


 2153 0237 3F       		.byte	0x3f
 2154 0238 EA000000 		.4byte	0xea
 2155 023c 1040     		.2byte	0x4010
 2156 023e 0D       		.uleb128 0xd
 2157 023f F2070000 		.4byte	.LASF40
 2158 0243 05       		.byte	0x5
 2159 0244 40       		.byte	0x40
 2160 0245 E0000000 		.4byte	0xe0
 2161 0249 1440     		.2byte	0x4014
 2162 024b 0D       		.uleb128 0xd
 2163 024c 9B120000 		.4byte	.LASF41
 2164 0250 05       		.byte	0x5
 2165 0251 41       		.byte	0x41
 2166 0252 E0000000 		.4byte	0xe0
 2167 0256 1840     		.2byte	0x4018
 2168 0258 0D       		.uleb128 0xd
 2169 0259 5F010000 		.4byte	.LASF42
 2170 025d 05       		.byte	0x5
 2171 025e 42       		.byte	0x42
 2172 025f EA000000 		.4byte	0xea
 2173 0263 1C40     		.2byte	0x401c
 2174 0265 0D       		.uleb128 0xd
 2175 0266 CB0D0000 		.4byte	.LASF43
 2176 026a 05       		.byte	0x5
 2177 026b 43       		.byte	0x43
 2178 026c E0000000 		.4byte	0xe0
 2179 0270 2040     		.2byte	0x4020
 2180 0272 00       		.byte	0
 2181 0273 07       		.uleb128 0x7
 2182 0274 DD010000 		.4byte	0x1dd
 2183 0278 83020000 		.4byte	0x283
 2184 027c 08       		.uleb128 0x8
 2185 027d D9000000 		.4byte	0xd9
 2186 0281 7F       		.byte	0x7f
 2187 0282 00       		.byte	0
 2188 0283 03       		.uleb128 0x3
 2189 0284 F8040000 		.4byte	.LASF44
 2190 0288 05       		.byte	0x5
 2191 0289 44       		.byte	0x44
 2192 028a E8010000 		.4byte	0x1e8
 2193 028e 0E       		.uleb128 0xe
 2194 028f 63080000 		.4byte	.LASF45
 2195 0293 06       		.byte	0x6
 2196 0294 3106     		.2byte	0x631
 2197 0296 DD010000 		.4byte	0x1dd
 2198 029a 0E       		.uleb128 0xe
 2199 029b A4110000 		.4byte	.LASF46
 2200 029f 06       		.byte	0x6
 2201 02a0 3206     		.2byte	0x632
 2202 02a2 83020000 		.4byte	0x283
 2203 02a6 02       		.uleb128 0x2
 2204 02a7 08       		.byte	0x8
 2205 02a8 04       		.byte	0x4
 2206 02a9 A50D0000 		.4byte	.LASF47
 2207 02ad 09       		.uleb128 0x9
 2208 02ae B8       		.byte	0xb8
 2209 02af 07       		.byte	0x7
ARM GAS  C:\Users\user\AppData\Local\Temp\ccSIFDDJ.s 			page 63


 2210 02b0 34       		.byte	0x34
 2211 02b1 BE060000 		.4byte	0x6be
 2212 02b5 0B       		.uleb128 0xb
 2213 02b6 4F0B0000 		.4byte	.LASF48
 2214 02ba 07       		.byte	0x7
 2215 02bb 37       		.byte	0x37
 2216 02bc CE000000 		.4byte	0xce
 2217 02c0 00       		.byte	0
 2218 02c1 0B       		.uleb128 0xb
 2219 02c2 FF080000 		.4byte	.LASF49
 2220 02c6 07       		.byte	0x7
 2221 02c7 38       		.byte	0x38
 2222 02c8 CE000000 		.4byte	0xce
 2223 02cc 04       		.byte	0x4
 2224 02cd 0B       		.uleb128 0xb
 2225 02ce F3000000 		.4byte	.LASF50
 2226 02d2 07       		.byte	0x7
 2227 02d3 39       		.byte	0x39
 2228 02d4 CE000000 		.4byte	0xce
 2229 02d8 08       		.byte	0x8
 2230 02d9 0B       		.uleb128 0xb
 2231 02da CE000000 		.4byte	.LASF51
 2232 02de 07       		.byte	0x7
 2233 02df 3A       		.byte	0x3a
 2234 02e0 CE000000 		.4byte	0xce
 2235 02e4 0C       		.byte	0xc
 2236 02e5 0B       		.uleb128 0xb
 2237 02e6 C20D0000 		.4byte	.LASF52
 2238 02ea 07       		.byte	0x7
 2239 02eb 3B       		.byte	0x3b
 2240 02ec CE000000 		.4byte	0xce
 2241 02f0 10       		.byte	0x10
 2242 02f1 0B       		.uleb128 0xb
 2243 02f2 DB0B0000 		.4byte	.LASF53
 2244 02f6 07       		.byte	0x7
 2245 02f7 3C       		.byte	0x3c
 2246 02f8 CE000000 		.4byte	0xce
 2247 02fc 14       		.byte	0x14
 2248 02fd 0B       		.uleb128 0xb
 2249 02fe 23070000 		.4byte	.LASF54
 2250 0302 07       		.byte	0x7
 2251 0303 3D       		.byte	0x3d
 2252 0304 CE000000 		.4byte	0xce
 2253 0308 18       		.byte	0x18
 2254 0309 0B       		.uleb128 0xb
 2255 030a A6130000 		.4byte	.LASF55
 2256 030e 07       		.byte	0x7
 2257 030f 3E       		.byte	0x3e
 2258 0310 CE000000 		.4byte	0xce
 2259 0314 1C       		.byte	0x1c
 2260 0315 0B       		.uleb128 0xb
 2261 0316 FC060000 		.4byte	.LASF56
 2262 031a 07       		.byte	0x7
 2263 031b 3F       		.byte	0x3f
 2264 031c CE000000 		.4byte	0xce
 2265 0320 20       		.byte	0x20
 2266 0321 0B       		.uleb128 0xb
ARM GAS  C:\Users\user\AppData\Local\Temp\ccSIFDDJ.s 			page 64


 2267 0322 FB0A0000 		.4byte	.LASF57
 2268 0326 07       		.byte	0x7
 2269 0327 40       		.byte	0x40
 2270 0328 CE000000 		.4byte	0xce
 2271 032c 24       		.byte	0x24
 2272 032d 0B       		.uleb128 0xb
 2273 032e 040F0000 		.4byte	.LASF58
 2274 0332 07       		.byte	0x7
 2275 0333 43       		.byte	0x43
 2276 0334 A2000000 		.4byte	0xa2
 2277 0338 28       		.byte	0x28
 2278 0339 0B       		.uleb128 0xb
 2279 033a 47050000 		.4byte	.LASF59
 2280 033e 07       		.byte	0x7
 2281 033f 44       		.byte	0x44
 2282 0340 A2000000 		.4byte	0xa2
 2283 0344 29       		.byte	0x29
 2284 0345 0B       		.uleb128 0xb
 2285 0346 2B080000 		.4byte	.LASF60
 2286 034a 07       		.byte	0x7
 2287 034b 45       		.byte	0x45
 2288 034c A2000000 		.4byte	0xa2
 2289 0350 2A       		.byte	0x2a
 2290 0351 0B       		.uleb128 0xb
 2291 0352 560F0000 		.4byte	.LASF61
 2292 0356 07       		.byte	0x7
 2293 0357 46       		.byte	0x46
 2294 0358 A2000000 		.4byte	0xa2
 2295 035c 2B       		.byte	0x2b
 2296 035d 0B       		.uleb128 0xb
 2297 035e 2D0F0000 		.4byte	.LASF62
 2298 0362 07       		.byte	0x7
 2299 0363 47       		.byte	0x47
 2300 0364 A2000000 		.4byte	0xa2
 2301 0368 2C       		.byte	0x2c
 2302 0369 0B       		.uleb128 0xb
 2303 036a F1100000 		.4byte	.LASF63
 2304 036e 07       		.byte	0x7
 2305 036f 48       		.byte	0x48
 2306 0370 A2000000 		.4byte	0xa2
 2307 0374 2D       		.byte	0x2d
 2308 0375 0B       		.uleb128 0xb
 2309 0376 59140000 		.4byte	.LASF64
 2310 037a 07       		.byte	0x7
 2311 037b 49       		.byte	0x49
 2312 037c A2000000 		.4byte	0xa2
 2313 0380 2E       		.byte	0x2e
 2314 0381 0B       		.uleb128 0xb
 2315 0382 8D130000 		.4byte	.LASF65
 2316 0386 07       		.byte	0x7
 2317 0387 4A       		.byte	0x4a
 2318 0388 A2000000 		.4byte	0xa2
 2319 038c 2F       		.byte	0x2f
 2320 038d 0B       		.uleb128 0xb
 2321 038e 0C040000 		.4byte	.LASF66
 2322 0392 07       		.byte	0x7
 2323 0393 4B       		.byte	0x4b
ARM GAS  C:\Users\user\AppData\Local\Temp\ccSIFDDJ.s 			page 65


 2324 0394 A2000000 		.4byte	0xa2
 2325 0398 30       		.byte	0x30
 2326 0399 0B       		.uleb128 0xb
 2327 039a 8A0C0000 		.4byte	.LASF67
 2328 039e 07       		.byte	0x7
 2329 039f 4E       		.byte	0x4e
 2330 03a0 A2000000 		.4byte	0xa2
 2331 03a4 31       		.byte	0x31
 2332 03a5 0B       		.uleb128 0xb
 2333 03a6 DC120000 		.4byte	.LASF68
 2334 03aa 07       		.byte	0x7
 2335 03ab 4F       		.byte	0x4f
 2336 03ac A2000000 		.4byte	0xa2
 2337 03b0 32       		.byte	0x32
 2338 03b1 0B       		.uleb128 0xb
 2339 03b2 320C0000 		.4byte	.LASF69
 2340 03b6 07       		.byte	0x7
 2341 03b7 50       		.byte	0x50
 2342 03b8 A2000000 		.4byte	0xa2
 2343 03bc 33       		.byte	0x33
 2344 03bd 0B       		.uleb128 0xb
 2345 03be E4080000 		.4byte	.LASF70
 2346 03c2 07       		.byte	0x7
 2347 03c3 51       		.byte	0x51
 2348 03c4 A2000000 		.4byte	0xa2
 2349 03c8 34       		.byte	0x34
 2350 03c9 0B       		.uleb128 0xb
 2351 03ca 2F060000 		.4byte	.LASF71
 2352 03ce 07       		.byte	0x7
 2353 03cf 52       		.byte	0x52
 2354 03d0 AD000000 		.4byte	0xad
 2355 03d4 36       		.byte	0x36
 2356 03d5 0B       		.uleb128 0xb
 2357 03d6 2F020000 		.4byte	.LASF72
 2358 03da 07       		.byte	0x7
 2359 03db 53       		.byte	0x53
 2360 03dc AD000000 		.4byte	0xad
 2361 03e0 38       		.byte	0x38
 2362 03e1 0B       		.uleb128 0xb
 2363 03e2 0A0C0000 		.4byte	.LASF73
 2364 03e6 07       		.byte	0x7
 2365 03e7 54       		.byte	0x54
 2366 03e8 AD000000 		.4byte	0xad
 2367 03ec 3A       		.byte	0x3a
 2368 03ed 0B       		.uleb128 0xb
 2369 03ee C9130000 		.4byte	.LASF74
 2370 03f2 07       		.byte	0x7
 2371 03f3 55       		.byte	0x55
 2372 03f4 A2000000 		.4byte	0xa2
 2373 03f8 3C       		.byte	0x3c
 2374 03f9 0B       		.uleb128 0xb
 2375 03fa 18070000 		.4byte	.LASF75
 2376 03fe 07       		.byte	0x7
 2377 03ff 56       		.byte	0x56
 2378 0400 A2000000 		.4byte	0xa2
 2379 0404 3D       		.byte	0x3d
 2380 0405 0B       		.uleb128 0xb
ARM GAS  C:\Users\user\AppData\Local\Temp\ccSIFDDJ.s 			page 66


 2381 0406 0C0E0000 		.4byte	.LASF76
 2382 040a 07       		.byte	0x7
 2383 040b 57       		.byte	0x57
 2384 040c A2000000 		.4byte	0xa2
 2385 0410 3E       		.byte	0x3e
 2386 0411 0B       		.uleb128 0xb
 2387 0412 8E000000 		.4byte	.LASF77
 2388 0416 07       		.byte	0x7
 2389 0417 58       		.byte	0x58
 2390 0418 A2000000 		.4byte	0xa2
 2391 041c 3F       		.byte	0x3f
 2392 041d 0B       		.uleb128 0xb
 2393 041e C6010000 		.4byte	.LASF78
 2394 0422 07       		.byte	0x7
 2395 0423 59       		.byte	0x59
 2396 0424 A2000000 		.4byte	0xa2
 2397 0428 40       		.byte	0x40
 2398 0429 0B       		.uleb128 0xb
 2399 042a AD0C0000 		.4byte	.LASF79
 2400 042e 07       		.byte	0x7
 2401 042f 5A       		.byte	0x5a
 2402 0430 A2000000 		.4byte	0xa2
 2403 0434 41       		.byte	0x41
 2404 0435 0B       		.uleb128 0xb
 2405 0436 63050000 		.4byte	.LASF80
 2406 043a 07       		.byte	0x7
 2407 043b 5B       		.byte	0x5b
 2408 043c A2000000 		.4byte	0xa2
 2409 0440 42       		.byte	0x42
 2410 0441 0B       		.uleb128 0xb
 2411 0442 4B080000 		.4byte	.LASF81
 2412 0446 07       		.byte	0x7
 2413 0447 5C       		.byte	0x5c
 2414 0448 A2000000 		.4byte	0xa2
 2415 044c 43       		.byte	0x43
 2416 044d 0B       		.uleb128 0xb
 2417 044e 2E090000 		.4byte	.LASF82
 2418 0452 07       		.byte	0x7
 2419 0453 5D       		.byte	0x5d
 2420 0454 A2000000 		.4byte	0xa2
 2421 0458 44       		.byte	0x44
 2422 0459 0B       		.uleb128 0xb
 2423 045a 25120000 		.4byte	.LASF83
 2424 045e 07       		.byte	0x7
 2425 045f 5E       		.byte	0x5e
 2426 0460 CE000000 		.4byte	0xce
 2427 0464 48       		.byte	0x48
 2428 0465 0B       		.uleb128 0xb
 2429 0466 D1020000 		.4byte	.LASF84
 2430 046a 07       		.byte	0x7
 2431 046b 5F       		.byte	0x5f
 2432 046c CE000000 		.4byte	0xce
 2433 0470 4C       		.byte	0x4c
 2434 0471 0B       		.uleb128 0xb
 2435 0472 66120000 		.4byte	.LASF85
 2436 0476 07       		.byte	0x7
 2437 0477 60       		.byte	0x60
ARM GAS  C:\Users\user\AppData\Local\Temp\ccSIFDDJ.s 			page 67


 2438 0478 A2000000 		.4byte	0xa2
 2439 047c 50       		.byte	0x50
 2440 047d 0B       		.uleb128 0xb
 2441 047e 3C070000 		.4byte	.LASF86
 2442 0482 07       		.byte	0x7
 2443 0483 61       		.byte	0x61
 2444 0484 A2000000 		.4byte	0xa2
 2445 0488 51       		.byte	0x51
 2446 0489 0B       		.uleb128 0xb
 2447 048a 670B0000 		.4byte	.LASF87
 2448 048e 07       		.byte	0x7
 2449 048f 62       		.byte	0x62
 2450 0490 A2000000 		.4byte	0xa2
 2451 0494 52       		.byte	0x52
 2452 0495 0B       		.uleb128 0xb
 2453 0496 380D0000 		.4byte	.LASF88
 2454 049a 07       		.byte	0x7
 2455 049b 63       		.byte	0x63
 2456 049c A2000000 		.4byte	0xa2
 2457 04a0 53       		.byte	0x53
 2458 04a1 0B       		.uleb128 0xb
 2459 04a2 FB110000 		.4byte	.LASF89
 2460 04a6 07       		.byte	0x7
 2461 04a7 64       		.byte	0x64
 2462 04a8 A2000000 		.4byte	0xa2
 2463 04ac 54       		.byte	0x54
 2464 04ad 0B       		.uleb128 0xb
 2465 04ae 0B120000 		.4byte	.LASF90
 2466 04b2 07       		.byte	0x7
 2467 04b3 65       		.byte	0x65
 2468 04b4 A2000000 		.4byte	0xa2
 2469 04b8 55       		.byte	0x55
 2470 04b9 0B       		.uleb128 0xb
 2471 04ba 00000000 		.4byte	.LASF91
 2472 04be 07       		.byte	0x7
 2473 04bf 66       		.byte	0x66
 2474 04c0 A2000000 		.4byte	0xa2
 2475 04c4 56       		.byte	0x56
 2476 04c5 0B       		.uleb128 0xb
 2477 04c6 400E0000 		.4byte	.LASF92
 2478 04ca 07       		.byte	0x7
 2479 04cb 67       		.byte	0x67
 2480 04cc A2000000 		.4byte	0xa2
 2481 04d0 57       		.byte	0x57
 2482 04d1 0B       		.uleb128 0xb
 2483 04d2 04070000 		.4byte	.LASF93
 2484 04d6 07       		.byte	0x7
 2485 04d7 68       		.byte	0x68
 2486 04d8 A2000000 		.4byte	0xa2
 2487 04dc 58       		.byte	0x58
 2488 04dd 0B       		.uleb128 0xb
 2489 04de 00140000 		.4byte	.LASF94
 2490 04e2 07       		.byte	0x7
 2491 04e3 69       		.byte	0x69
 2492 04e4 A2000000 		.4byte	0xa2
 2493 04e8 59       		.byte	0x59
 2494 04e9 0B       		.uleb128 0xb
ARM GAS  C:\Users\user\AppData\Local\Temp\ccSIFDDJ.s 			page 68


 2495 04ea D1120000 		.4byte	.LASF95
 2496 04ee 07       		.byte	0x7
 2497 04ef 6E       		.byte	0x6e
 2498 04f0 B8000000 		.4byte	0xb8
 2499 04f4 5A       		.byte	0x5a
 2500 04f5 0B       		.uleb128 0xb
 2501 04f6 24010000 		.4byte	.LASF96
 2502 04fa 07       		.byte	0x7
 2503 04fb 6F       		.byte	0x6f
 2504 04fc B8000000 		.4byte	0xb8
 2505 0500 5C       		.byte	0x5c
 2506 0501 0B       		.uleb128 0xb
 2507 0502 DE0A0000 		.4byte	.LASF97
 2508 0506 07       		.byte	0x7
 2509 0507 70       		.byte	0x70
 2510 0508 A2000000 		.4byte	0xa2
 2511 050c 5E       		.byte	0x5e
 2512 050d 0B       		.uleb128 0xb
 2513 050e 06130000 		.4byte	.LASF98
 2514 0512 07       		.byte	0x7
 2515 0513 71       		.byte	0x71
 2516 0514 A2000000 		.4byte	0xa2
 2517 0518 5F       		.byte	0x5f
 2518 0519 0B       		.uleb128 0xb
 2519 051a 71080000 		.4byte	.LASF99
 2520 051e 07       		.byte	0x7
 2521 051f 72       		.byte	0x72
 2522 0520 A2000000 		.4byte	0xa2
 2523 0524 60       		.byte	0x60
 2524 0525 0B       		.uleb128 0xb
 2525 0526 93090000 		.4byte	.LASF100
 2526 052a 07       		.byte	0x7
 2527 052b 73       		.byte	0x73
 2528 052c CE000000 		.4byte	0xce
 2529 0530 64       		.byte	0x64
 2530 0531 0B       		.uleb128 0xb
 2531 0532 6D140000 		.4byte	.LASF101
 2532 0536 07       		.byte	0x7
 2533 0537 76       		.byte	0x76
 2534 0538 B8000000 		.4byte	0xb8
 2535 053c 68       		.byte	0x68
 2536 053d 0B       		.uleb128 0xb
 2537 053e E00D0000 		.4byte	.LASF102
 2538 0542 07       		.byte	0x7
 2539 0543 77       		.byte	0x77
 2540 0544 B8000000 		.4byte	0xb8
 2541 0548 6A       		.byte	0x6a
 2542 0549 0B       		.uleb128 0xb
 2543 054a FB0B0000 		.4byte	.LASF103
 2544 054e 07       		.byte	0x7
 2545 054f 78       		.byte	0x78
 2546 0550 B8000000 		.4byte	0xb8
 2547 0554 6C       		.byte	0x6c
 2548 0555 0B       		.uleb128 0xb
 2549 0556 9E020000 		.4byte	.LASF104
 2550 055a 07       		.byte	0x7
 2551 055b 79       		.byte	0x79
ARM GAS  C:\Users\user\AppData\Local\Temp\ccSIFDDJ.s 			page 69


 2552 055c B8000000 		.4byte	0xb8
 2553 0560 6E       		.byte	0x6e
 2554 0561 0B       		.uleb128 0xb
 2555 0562 FC090000 		.4byte	.LASF105
 2556 0566 07       		.byte	0x7
 2557 0567 7B       		.byte	0x7b
 2558 0568 A2000000 		.4byte	0xa2
 2559 056c 70       		.byte	0x70
 2560 056d 0B       		.uleb128 0xb
 2561 056e 3B040000 		.4byte	.LASF106
 2562 0572 07       		.byte	0x7
 2563 0573 7C       		.byte	0x7c
 2564 0574 A2000000 		.4byte	0xa2
 2565 0578 71       		.byte	0x71
 2566 0579 0B       		.uleb128 0xb
 2567 057a B2020000 		.4byte	.LASF107
 2568 057e 07       		.byte	0x7
 2569 057f 7D       		.byte	0x7d
 2570 0580 A2000000 		.4byte	0xa2
 2571 0584 72       		.byte	0x72
 2572 0585 0B       		.uleb128 0xb
 2573 0586 D3010000 		.4byte	.LASF108
 2574 058a 07       		.byte	0x7
 2575 058b 7E       		.byte	0x7e
 2576 058c A2000000 		.4byte	0xa2
 2577 0590 73       		.byte	0x73
 2578 0591 0B       		.uleb128 0xb
 2579 0592 970E0000 		.4byte	.LASF109
 2580 0596 07       		.byte	0x7
 2581 0597 80       		.byte	0x80
 2582 0598 B8000000 		.4byte	0xb8
 2583 059c 74       		.byte	0x74
 2584 059d 0B       		.uleb128 0xb
 2585 059e 4A0D0000 		.4byte	.LASF110
 2586 05a2 07       		.byte	0x7
 2587 05a3 81       		.byte	0x81
 2588 05a4 B8000000 		.4byte	0xb8
 2589 05a8 76       		.byte	0x76
 2590 05a9 0B       		.uleb128 0xb
 2591 05aa 430A0000 		.4byte	.LASF111
 2592 05ae 07       		.byte	0x7
 2593 05af 82       		.byte	0x82
 2594 05b0 B8000000 		.4byte	0xb8
 2595 05b4 78       		.byte	0x78
 2596 05b5 0B       		.uleb128 0xb
 2597 05b6 EE050000 		.4byte	.LASF112
 2598 05ba 07       		.byte	0x7
 2599 05bb 83       		.byte	0x83
 2600 05bc B8000000 		.4byte	0xb8
 2601 05c0 7A       		.byte	0x7a
 2602 05c1 0B       		.uleb128 0xb
 2603 05c2 2E0A0000 		.4byte	.LASF113
 2604 05c6 07       		.byte	0x7
 2605 05c7 86       		.byte	0x86
 2606 05c8 A2000000 		.4byte	0xa2
 2607 05cc 7C       		.byte	0x7c
 2608 05cd 0B       		.uleb128 0xb
ARM GAS  C:\Users\user\AppData\Local\Temp\ccSIFDDJ.s 			page 70


 2609 05ce 83120000 		.4byte	.LASF114
 2610 05d2 07       		.byte	0x7
 2611 05d3 87       		.byte	0x87
 2612 05d4 A2000000 		.4byte	0xa2
 2613 05d8 7D       		.byte	0x7d
 2614 05d9 0B       		.uleb128 0xb
 2615 05da B2050000 		.4byte	.LASF115
 2616 05de 07       		.byte	0x7
 2617 05df 88       		.byte	0x88
 2618 05e0 A2000000 		.4byte	0xa2
 2619 05e4 7E       		.byte	0x7e
 2620 05e5 0B       		.uleb128 0xb
 2621 05e6 05050000 		.4byte	.LASF116
 2622 05ea 07       		.byte	0x7
 2623 05eb 89       		.byte	0x89
 2624 05ec A2000000 		.4byte	0xa2
 2625 05f0 7F       		.byte	0x7f
 2626 05f1 0B       		.uleb128 0xb
 2627 05f2 03060000 		.4byte	.LASF117
 2628 05f6 07       		.byte	0x7
 2629 05f7 8A       		.byte	0x8a
 2630 05f8 A2000000 		.4byte	0xa2
 2631 05fc 80       		.byte	0x80
 2632 05fd 0B       		.uleb128 0xb
 2633 05fe 77000000 		.4byte	.LASF118
 2634 0602 07       		.byte	0x7
 2635 0603 8D       		.byte	0x8d
 2636 0604 CE000000 		.4byte	0xce
 2637 0608 84       		.byte	0x84
 2638 0609 0B       		.uleb128 0xb
 2639 060a A0100000 		.4byte	.LASF119
 2640 060e 07       		.byte	0x7
 2641 060f 8E       		.byte	0x8e
 2642 0610 CE000000 		.4byte	0xce
 2643 0614 88       		.byte	0x88
 2644 0615 0B       		.uleb128 0xb
 2645 0616 2E130000 		.4byte	.LASF120
 2646 061a 07       		.byte	0x7
 2647 061b 8F       		.byte	0x8f
 2648 061c CE000000 		.4byte	0xce
 2649 0620 8C       		.byte	0x8c
 2650 0621 0B       		.uleb128 0xb
 2651 0622 53110000 		.4byte	.LASF121
 2652 0626 07       		.byte	0x7
 2653 0627 90       		.byte	0x90
 2654 0628 CE000000 		.4byte	0xce
 2655 062c 90       		.byte	0x90
 2656 062d 0B       		.uleb128 0xb
 2657 062e 3E100000 		.4byte	.LASF122
 2658 0632 07       		.byte	0x7
 2659 0633 91       		.byte	0x91
 2660 0634 CE000000 		.4byte	0xce
 2661 0638 94       		.byte	0x94
 2662 0639 0B       		.uleb128 0xb
 2663 063a 50040000 		.4byte	.LASF123
 2664 063e 07       		.byte	0x7
 2665 063f 92       		.byte	0x92
ARM GAS  C:\Users\user\AppData\Local\Temp\ccSIFDDJ.s 			page 71


 2666 0640 CE000000 		.4byte	0xce
 2667 0644 98       		.byte	0x98
 2668 0645 0B       		.uleb128 0xb
 2669 0646 D3100000 		.4byte	.LASF124
 2670 064a 07       		.byte	0x7
 2671 064b 93       		.byte	0x93
 2672 064c CE000000 		.4byte	0xce
 2673 0650 9C       		.byte	0x9c
 2674 0651 0B       		.uleb128 0xb
 2675 0652 35080000 		.4byte	.LASF125
 2676 0656 07       		.byte	0x7
 2677 0657 94       		.byte	0x94
 2678 0658 CE000000 		.4byte	0xce
 2679 065c A0       		.byte	0xa0
 2680 065d 0B       		.uleb128 0xb
 2681 065e 8B100000 		.4byte	.LASF126
 2682 0662 07       		.byte	0x7
 2683 0663 95       		.byte	0x95
 2684 0664 B8000000 		.4byte	0xb8
 2685 0668 A4       		.byte	0xa4
 2686 0669 0B       		.uleb128 0xb
 2687 066a 710E0000 		.4byte	.LASF127
 2688 066e 07       		.byte	0x7
 2689 066f 96       		.byte	0x96
 2690 0670 B8000000 		.4byte	0xb8
 2691 0674 A6       		.byte	0xa6
 2692 0675 0B       		.uleb128 0xb
 2693 0676 10110000 		.4byte	.LASF128
 2694 067a 07       		.byte	0x7
 2695 067b 97       		.byte	0x97
 2696 067c B8000000 		.4byte	0xb8
 2697 0680 A8       		.byte	0xa8
 2698 0681 0B       		.uleb128 0xb
 2699 0682 060B0000 		.4byte	.LASF129
 2700 0686 07       		.byte	0x7
 2701 0687 98       		.byte	0x98
 2702 0688 B8000000 		.4byte	0xb8
 2703 068c AA       		.byte	0xaa
 2704 068d 0B       		.uleb128 0xb
 2705 068e DF020000 		.4byte	.LASF130
 2706 0692 07       		.byte	0x7
 2707 0693 99       		.byte	0x99
 2708 0694 B8000000 		.4byte	0xb8
 2709 0698 AC       		.byte	0xac
 2710 0699 0B       		.uleb128 0xb
 2711 069a DE0C0000 		.4byte	.LASF131
 2712 069e 07       		.byte	0x7
 2713 069f 9A       		.byte	0x9a
 2714 06a0 B8000000 		.4byte	0xb8
 2715 06a4 AE       		.byte	0xae
 2716 06a5 0B       		.uleb128 0xb
 2717 06a6 FE020000 		.4byte	.LASF132
 2718 06aa 07       		.byte	0x7
 2719 06ab 9D       		.byte	0x9d
 2720 06ac B8000000 		.4byte	0xb8
 2721 06b0 B0       		.byte	0xb0
 2722 06b1 0B       		.uleb128 0xb
ARM GAS  C:\Users\user\AppData\Local\Temp\ccSIFDDJ.s 			page 72


 2723 06b2 AE110000 		.4byte	.LASF133
 2724 06b6 07       		.byte	0x7
 2725 06b7 9E       		.byte	0x9e
 2726 06b8 CE000000 		.4byte	0xce
 2727 06bc B4       		.byte	0xb4
 2728 06bd 00       		.byte	0
 2729 06be 03       		.uleb128 0x3
 2730 06bf 43130000 		.4byte	.LASF134
 2731 06c3 07       		.byte	0x7
 2732 06c4 9F       		.byte	0x9f
 2733 06c5 AD020000 		.4byte	0x2ad
 2734 06c9 0E       		.uleb128 0xe
 2735 06ca A00F0000 		.4byte	.LASF135
 2736 06ce 08       		.byte	0x8
 2737 06cf F601     		.2byte	0x1f6
 2738 06d1 D5060000 		.4byte	0x6d5
 2739 06d5 02       		.uleb128 0x2
 2740 06d6 01       		.byte	0x1
 2741 06d7 08       		.byte	0x8
 2742 06d8 0A090000 		.4byte	.LASF136
 2743 06dc 0E       		.uleb128 0xe
 2744 06dd 9C060000 		.4byte	.LASF137
 2745 06e1 08       		.byte	0x8
 2746 06e2 F701     		.2byte	0x1f7
 2747 06e4 E8060000 		.4byte	0x6e8
 2748 06e8 02       		.uleb128 0x2
 2749 06e9 04       		.byte	0x4
 2750 06ea 04       		.byte	0x4
 2751 06eb 1C110000 		.4byte	.LASF138
 2752 06ef 02       		.uleb128 0x2
 2753 06f0 08       		.byte	0x8
 2754 06f1 04       		.byte	0x4
 2755 06f2 9F130000 		.4byte	.LASF139
 2756 06f6 0E       		.uleb128 0xe
 2757 06f7 99130000 		.4byte	.LASF140
 2758 06fb 08       		.byte	0x8
 2759 06fc EA03     		.2byte	0x3ea
 2760 06fe A2000000 		.4byte	0xa2
 2761 0702 0F       		.uleb128 0xf
 2762 0703 04       		.byte	0x4
 2763 0704 CE000000 		.4byte	0xce
 2764 0708 10       		.uleb128 0x10
 2765 0709 04       		.byte	0x4
 2766 070a 02       		.uleb128 0x2
 2767 070b 01       		.byte	0x1
 2768 070c 02       		.byte	0x2
 2769 070d A9070000 		.4byte	.LASF141
 2770 0711 11       		.uleb128 0x11
 2771 0712 01       		.byte	0x1
 2772 0713 3E000000 		.4byte	0x3e
 2773 0717 09       		.byte	0x9
 2774 0718 2402     		.2byte	0x224
 2775 071a 2B070000 		.4byte	0x72b
 2776 071e 12       		.uleb128 0x12
 2777 071f 5F020000 		.4byte	.LASF142
 2778 0723 00       		.byte	0
 2779 0724 12       		.uleb128 0x12
ARM GAS  C:\Users\user\AppData\Local\Temp\ccSIFDDJ.s 			page 73


 2780 0725 0C030000 		.4byte	.LASF143
 2781 0729 01       		.byte	0x1
 2782 072a 00       		.byte	0
 2783 072b 0E       		.uleb128 0xe
 2784 072c 86020000 		.4byte	.LASF144
 2785 0730 09       		.byte	0x9
 2786 0731 2702     		.2byte	0x227
 2787 0733 11070000 		.4byte	0x711
 2788 0737 0E       		.uleb128 0xe
 2789 0738 7C010000 		.4byte	.LASF145
 2790 073c 09       		.byte	0x9
 2791 073d 3902     		.2byte	0x239
 2792 073f 43070000 		.4byte	0x743
 2793 0743 0F       		.uleb128 0xf
 2794 0744 04       		.byte	0x4
 2795 0745 49070000 		.4byte	0x749
 2796 0749 13       		.uleb128 0x13
 2797 074a 54070000 		.4byte	0x754
 2798 074e 14       		.uleb128 0x14
 2799 074f CE000000 		.4byte	0xce
 2800 0753 00       		.byte	0
 2801 0754 0E       		.uleb128 0xe
 2802 0755 2B030000 		.4byte	.LASF146
 2803 0759 09       		.byte	0x9
 2804 075a 4402     		.2byte	0x244
 2805 075c 60070000 		.4byte	0x760
 2806 0760 0F       		.uleb128 0xf
 2807 0761 04       		.byte	0x4
 2808 0762 66070000 		.4byte	0x766
 2809 0766 15       		.uleb128 0x15
 2810 0767 2B070000 		.4byte	0x72b
 2811 076b 75070000 		.4byte	0x775
 2812 076f 14       		.uleb128 0x14
 2813 0770 CE000000 		.4byte	0xce
 2814 0774 00       		.byte	0
 2815 0775 16       		.uleb128 0x16
 2816 0776 18040000 		.4byte	.LASF170
 2817 077a 4C       		.byte	0x4c
 2818 077b 09       		.byte	0x9
 2819 077c C302     		.2byte	0x2c3
 2820 077e 94080000 		.4byte	0x894
 2821 0782 17       		.uleb128 0x17
 2822 0783 DD070000 		.4byte	.LASF147
 2823 0787 09       		.byte	0x9
 2824 0788 C602     		.2byte	0x2c6
 2825 078a 0A070000 		.4byte	0x70a
 2826 078e 00       		.byte	0
 2827 078f 17       		.uleb128 0x17
 2828 0790 8D0B0000 		.4byte	.LASF148
 2829 0794 09       		.byte	0x9
 2830 0795 C702     		.2byte	0x2c7
 2831 0797 0A070000 		.4byte	0x70a
 2832 079b 01       		.byte	0x1
 2833 079c 17       		.uleb128 0x17
 2834 079d 1F120000 		.4byte	.LASF149
 2835 07a1 09       		.byte	0x9
 2836 07a2 C902     		.2byte	0x2c9
ARM GAS  C:\Users\user\AppData\Local\Temp\ccSIFDDJ.s 			page 74


 2837 07a4 E0000000 		.4byte	0xe0
 2838 07a8 04       		.byte	0x4
 2839 07a9 17       		.uleb128 0x17
 2840 07aa 9A000000 		.4byte	.LASF150
 2841 07ae 09       		.byte	0x9
 2842 07af CB02     		.2byte	0x2cb
 2843 07b1 E0000000 		.4byte	0xe0
 2844 07b5 08       		.byte	0x8
 2845 07b6 17       		.uleb128 0x17
 2846 07b7 010D0000 		.4byte	.LASF151
 2847 07bb 09       		.byte	0x9
 2848 07bc CC02     		.2byte	0x2cc
 2849 07be 0A070000 		.4byte	0x70a
 2850 07c2 0C       		.byte	0xc
 2851 07c3 17       		.uleb128 0x17
 2852 07c4 E50B0000 		.4byte	.LASF152
 2853 07c8 09       		.byte	0x9
 2854 07c9 CD02     		.2byte	0x2cd
 2855 07cb 0A070000 		.4byte	0x70a
 2856 07cf 0D       		.byte	0xd
 2857 07d0 17       		.uleb128 0x17
 2858 07d1 F20D0000 		.4byte	.LASF153
 2859 07d5 09       		.byte	0x9
 2860 07d6 CF02     		.2byte	0x2cf
 2861 07d8 94080000 		.4byte	0x894
 2862 07dc 10       		.byte	0x10
 2863 07dd 17       		.uleb128 0x17
 2864 07de 3F090000 		.4byte	.LASF154
 2865 07e2 09       		.byte	0x9
 2866 07e3 D002     		.2byte	0x2d0
 2867 07e5 CE000000 		.4byte	0xce
 2868 07e9 14       		.byte	0x14
 2869 07ea 17       		.uleb128 0x17
 2870 07eb 9A010000 		.4byte	.LASF155
 2871 07ef 09       		.byte	0x9
 2872 07f0 D102     		.2byte	0x2d1
 2873 07f2 E0000000 		.4byte	0xe0
 2874 07f6 18       		.byte	0x18
 2875 07f7 17       		.uleb128 0x17
 2876 07f8 C8080000 		.4byte	.LASF156
 2877 07fc 09       		.byte	0x9
 2878 07fd D202     		.2byte	0x2d2
 2879 07ff E0000000 		.4byte	0xe0
 2880 0803 1C       		.byte	0x1c
 2881 0804 17       		.uleb128 0x17
 2882 0805 3C010000 		.4byte	.LASF157
 2883 0809 09       		.byte	0x9
 2884 080a D402     		.2byte	0x2d4
 2885 080c E0000000 		.4byte	0xe0
 2886 0810 20       		.byte	0x20
 2887 0811 17       		.uleb128 0x17
 2888 0812 A6060000 		.4byte	.LASF158
 2889 0816 09       		.byte	0x9
 2890 0817 D502     		.2byte	0x2d5
 2891 0819 9A080000 		.4byte	0x89a
 2892 081d 24       		.byte	0x24
 2893 081e 17       		.uleb128 0x17
ARM GAS  C:\Users\user\AppData\Local\Temp\ccSIFDDJ.s 			page 75


 2894 081f 83040000 		.4byte	.LASF159
 2895 0823 09       		.byte	0x9
 2896 0824 D702     		.2byte	0x2d7
 2897 0826 94080000 		.4byte	0x894
 2898 082a 28       		.byte	0x28
 2899 082b 17       		.uleb128 0x17
 2900 082c 72060000 		.4byte	.LASF160
 2901 0830 09       		.byte	0x9
 2902 0831 D802     		.2byte	0x2d8
 2903 0833 CE000000 		.4byte	0xce
 2904 0837 2C       		.byte	0x2c
 2905 0838 17       		.uleb128 0x17
 2906 0839 98040000 		.4byte	.LASF161
 2907 083d 09       		.byte	0x9
 2908 083e D902     		.2byte	0x2d9
 2909 0840 E0000000 		.4byte	0xe0
 2910 0844 30       		.byte	0x30
 2911 0845 17       		.uleb128 0x17
 2912 0846 D3090000 		.4byte	.LASF162
 2913 084a 09       		.byte	0x9
 2914 084b DA02     		.2byte	0x2da
 2915 084d E0000000 		.4byte	0xe0
 2916 0851 34       		.byte	0x34
 2917 0852 17       		.uleb128 0x17
 2918 0853 17020000 		.4byte	.LASF163
 2919 0857 09       		.byte	0x9
 2920 0858 DC02     		.2byte	0x2dc
 2921 085a 94080000 		.4byte	0x894
 2922 085e 38       		.byte	0x38
 2923 085f 17       		.uleb128 0x17
 2924 0860 5D0D0000 		.4byte	.LASF164
 2925 0864 09       		.byte	0x9
 2926 0865 DD02     		.2byte	0x2dd
 2927 0867 CE000000 		.4byte	0xce
 2928 086b 3C       		.byte	0x3c
 2929 086c 17       		.uleb128 0x17
 2930 086d BD0C0000 		.4byte	.LASF165
 2931 0871 09       		.byte	0x9
 2932 0872 DE02     		.2byte	0x2de
 2933 0874 E0000000 		.4byte	0xe0
 2934 0878 40       		.byte	0x40
 2935 0879 17       		.uleb128 0x17
 2936 087a 59070000 		.4byte	.LASF166
 2937 087e 09       		.byte	0x9
 2938 087f E402     		.2byte	0x2e4
 2939 0881 37070000 		.4byte	0x737
 2940 0885 44       		.byte	0x44
 2941 0886 17       		.uleb128 0x17
 2942 0887 58020000 		.4byte	.LASF167
 2943 088b 09       		.byte	0x9
 2944 088c EB02     		.2byte	0x2eb
 2945 088e 54070000 		.4byte	0x754
 2946 0892 48       		.byte	0x48
 2947 0893 00       		.byte	0
 2948 0894 0F       		.uleb128 0xf
 2949 0895 04       		.byte	0x4
 2950 0896 A2000000 		.4byte	0xa2
ARM GAS  C:\Users\user\AppData\Local\Temp\ccSIFDDJ.s 			page 76


 2951 089a 05       		.uleb128 0x5
 2952 089b 0A070000 		.4byte	0x70a
 2953 089f 0E       		.uleb128 0xe
 2954 08a0 DF130000 		.4byte	.LASF168
 2955 08a4 09       		.byte	0x9
 2956 08a5 EE02     		.2byte	0x2ee
 2957 08a7 75070000 		.4byte	0x775
 2958 08ab 0E       		.uleb128 0xe
 2959 08ac 2A000000 		.4byte	.LASF169
 2960 08b0 0A       		.byte	0xa
 2961 08b1 F201     		.2byte	0x1f2
 2962 08b3 43070000 		.4byte	0x743
 2963 08b7 16       		.uleb128 0x16
 2964 08b8 E4110000 		.4byte	.LASF171
 2965 08bc 24       		.byte	0x24
 2966 08bd 0A       		.byte	0xa
 2967 08be 7402     		.2byte	0x274
 2968 08c0 3A090000 		.4byte	0x93a
 2969 08c4 17       		.uleb128 0x17
 2970 08c5 AC090000 		.4byte	.LASF172
 2971 08c9 0A       		.byte	0xa
 2972 08ca 7702     		.2byte	0x277
 2973 08cc E0000000 		.4byte	0xe0
 2974 08d0 00       		.byte	0
 2975 08d1 17       		.uleb128 0x17
 2976 08d2 F6060000 		.4byte	.LASF173
 2977 08d6 0A       		.byte	0xa
 2978 08d7 7902     		.2byte	0x279
 2979 08d9 08070000 		.4byte	0x708
 2980 08dd 04       		.byte	0x4
 2981 08de 17       		.uleb128 0x17
 2982 08df 7D140000 		.4byte	.LASF174
 2983 08e3 0A       		.byte	0xa
 2984 08e4 7A02     		.2byte	0x27a
 2985 08e6 CE000000 		.4byte	0xce
 2986 08ea 08       		.byte	0x8
 2987 08eb 17       		.uleb128 0x17
 2988 08ec 6D090000 		.4byte	.LASF175
 2989 08f0 0A       		.byte	0xa
 2990 08f1 7B02     		.2byte	0x27b
 2991 08f3 E0000000 		.4byte	0xe0
 2992 08f7 0C       		.byte	0xc
 2993 08f8 17       		.uleb128 0x17
 2994 08f9 270D0000 		.4byte	.LASF176
 2995 08fd 0A       		.byte	0xa
 2996 08fe 7D02     		.2byte	0x27d
 2997 0900 08070000 		.4byte	0x708
 2998 0904 10       		.byte	0x10
 2999 0905 17       		.uleb128 0x17
 3000 0906 800C0000 		.4byte	.LASF177
 3001 090a 0A       		.byte	0xa
 3002 090b 7E02     		.2byte	0x27e
 3003 090d CE000000 		.4byte	0xce
 3004 0911 14       		.byte	0x14
 3005 0912 17       		.uleb128 0x17
 3006 0913 EA010000 		.4byte	.LASF178
 3007 0917 0A       		.byte	0xa
ARM GAS  C:\Users\user\AppData\Local\Temp\ccSIFDDJ.s 			page 77


 3008 0918 7F02     		.2byte	0x27f
 3009 091a E0000000 		.4byte	0xe0
 3010 091e 18       		.byte	0x18
 3011 091f 17       		.uleb128 0x17
 3012 0920 59070000 		.4byte	.LASF166
 3013 0924 0A       		.byte	0xa
 3014 0925 8502     		.2byte	0x285
 3015 0927 AB080000 		.4byte	0x8ab
 3016 092b 1C       		.byte	0x1c
 3017 092c 17       		.uleb128 0x17
 3018 092d 8B090000 		.4byte	.LASF179
 3019 0931 0A       		.byte	0xa
 3020 0932 8802     		.2byte	0x288
 3021 0934 CE000000 		.4byte	0xce
 3022 0938 20       		.byte	0x20
 3023 0939 00       		.byte	0
 3024 093a 0E       		.uleb128 0xe
 3025 093b 970B0000 		.4byte	.LASF180
 3026 093f 0A       		.byte	0xa
 3027 0940 8B02     		.2byte	0x28b
 3028 0942 B7080000 		.4byte	0x8b7
 3029 0946 0E       		.uleb128 0xe
 3030 0947 580A0000 		.4byte	.LASF181
 3031 094b 0B       		.byte	0xb
 3032 094c D901     		.2byte	0x1d9
 3033 094e 43070000 		.4byte	0x743
 3034 0952 16       		.uleb128 0x16
 3035 0953 74050000 		.4byte	.LASF182
 3036 0957 38       		.byte	0x38
 3037 0958 0B       		.byte	0xb
 3038 0959 7502     		.2byte	0x275
 3039 095b 160A0000 		.4byte	0xa16
 3040 095f 17       		.uleb128 0x17
 3041 0960 EA000000 		.4byte	.LASF183
 3042 0964 0B       		.byte	0xb
 3043 0965 7802     		.2byte	0x278
 3044 0967 E0000000 		.4byte	0xe0
 3045 096b 00       		.byte	0
 3046 096c 17       		.uleb128 0x17
 3047 096d 73040000 		.4byte	.LASF184
 3048 0971 0B       		.byte	0xb
 3049 0972 7902     		.2byte	0x279
 3050 0974 E0000000 		.4byte	0xe0
 3051 0978 04       		.byte	0x4
 3052 0979 17       		.uleb128 0x17
 3053 097a 9B0D0000 		.4byte	.LASF185
 3054 097e 0B       		.byte	0xb
 3055 097f 7B02     		.2byte	0x27b
 3056 0981 08070000 		.4byte	0x708
 3057 0985 08       		.byte	0x8
 3058 0986 17       		.uleb128 0x17
 3059 0987 78020000 		.4byte	.LASF186
 3060 098b 0B       		.byte	0xb
 3061 098c 7C02     		.2byte	0x27c
 3062 098e CE000000 		.4byte	0xce
 3063 0992 0C       		.byte	0xc
 3064 0993 17       		.uleb128 0x17
ARM GAS  C:\Users\user\AppData\Local\Temp\ccSIFDDJ.s 			page 78


 3065 0994 240C0000 		.4byte	.LASF187
 3066 0998 0B       		.byte	0xb
 3067 0999 7D02     		.2byte	0x27d
 3068 099b E0000000 		.4byte	0xe0
 3069 099f 10       		.byte	0x10
 3070 09a0 17       		.uleb128 0x17
 3071 09a1 0F090000 		.4byte	.LASF188
 3072 09a5 0B       		.byte	0xb
 3073 09a6 7E02     		.2byte	0x27e
 3074 09a8 E0000000 		.4byte	0xe0
 3075 09ac 14       		.byte	0x14
 3076 09ad 17       		.uleb128 0x17
 3077 09ae F6060000 		.4byte	.LASF173
 3078 09b2 0B       		.byte	0xb
 3079 09b3 8002     		.2byte	0x280
 3080 09b5 08070000 		.4byte	0x708
 3081 09b9 18       		.byte	0x18
 3082 09ba 17       		.uleb128 0x17
 3083 09bb 7D140000 		.4byte	.LASF174
 3084 09bf 0B       		.byte	0xb
 3085 09c0 8102     		.2byte	0x281
 3086 09c2 CE000000 		.4byte	0xce
 3087 09c6 1C       		.byte	0x1c
 3088 09c7 17       		.uleb128 0x17
 3089 09c8 6D090000 		.4byte	.LASF175
 3090 09cc 0B       		.byte	0xb
 3091 09cd 8202     		.2byte	0x282
 3092 09cf E0000000 		.4byte	0xe0
 3093 09d3 20       		.byte	0x20
 3094 09d4 17       		.uleb128 0x17
 3095 09d5 270D0000 		.4byte	.LASF176
 3096 09d9 0B       		.byte	0xb
 3097 09da 8402     		.2byte	0x284
 3098 09dc 08070000 		.4byte	0x708
 3099 09e0 24       		.byte	0x24
 3100 09e1 17       		.uleb128 0x17
 3101 09e2 800C0000 		.4byte	.LASF177
 3102 09e6 0B       		.byte	0xb
 3103 09e7 8502     		.2byte	0x285
 3104 09e9 CE000000 		.4byte	0xce
 3105 09ed 28       		.byte	0x28
 3106 09ee 17       		.uleb128 0x17
 3107 09ef 16100000 		.4byte	.LASF189
 3108 09f3 0B       		.byte	0xb
 3109 09f4 8602     		.2byte	0x286
 3110 09f6 E0000000 		.4byte	0xe0
 3111 09fa 2C       		.byte	0x2c
 3112 09fb 17       		.uleb128 0x17
 3113 09fc 59070000 		.4byte	.LASF166
 3114 0a00 0B       		.byte	0xb
 3115 0a01 8B02     		.2byte	0x28b
 3116 0a03 46090000 		.4byte	0x946
 3117 0a07 30       		.byte	0x30
 3118 0a08 17       		.uleb128 0x17
 3119 0a09 8B090000 		.4byte	.LASF179
 3120 0a0d 0B       		.byte	0xb
 3121 0a0e 8E02     		.2byte	0x28e
ARM GAS  C:\Users\user\AppData\Local\Temp\ccSIFDDJ.s 			page 79


 3122 0a10 CE000000 		.4byte	0xce
 3123 0a14 34       		.byte	0x34
 3124 0a15 00       		.byte	0
 3125 0a16 0E       		.uleb128 0xe
 3126 0a17 FD010000 		.4byte	.LASF190
 3127 0a1b 0B       		.byte	0xb
 3128 0a1c 9102     		.2byte	0x291
 3129 0a1e 52090000 		.4byte	0x952
 3130 0a22 18       		.uleb128 0x18
 3131 0a23 EA120000 		.4byte	.LASF191
 3132 0a27 4C       		.byte	0x4c
 3133 0a28 0C       		.byte	0xc
 3134 0a29 2F       		.byte	0x2f
 3135 0a2a 130B0000 		.4byte	0xb13
 3136 0a2e 0B       		.uleb128 0xb
 3137 0a2f BE120000 		.4byte	.LASF192
 3138 0a33 0C       		.byte	0xc
 3139 0a34 31       		.byte	0x31
 3140 0a35 CE000000 		.4byte	0xce
 3141 0a39 00       		.byte	0
 3142 0a3a 0B       		.uleb128 0xb
 3143 0a3b 50090000 		.4byte	.LASF193
 3144 0a3f 0C       		.byte	0xc
 3145 0a40 33       		.byte	0x33
 3146 0a41 CE000000 		.4byte	0xce
 3147 0a45 04       		.byte	0x4
 3148 0a46 0B       		.uleb128 0xb
 3149 0a47 D80D0000 		.4byte	.LASF194
 3150 0a4b 0C       		.byte	0xc
 3151 0a4c 34       		.byte	0x34
 3152 0a4d CE000000 		.4byte	0xce
 3153 0a51 08       		.byte	0x8
 3154 0a52 0B       		.uleb128 0xb
 3155 0a53 6D0F0000 		.4byte	.LASF195
 3156 0a57 0C       		.byte	0xc
 3157 0a58 35       		.byte	0x35
 3158 0a59 CE000000 		.4byte	0xce
 3159 0a5d 0C       		.byte	0xc
 3160 0a5e 0B       		.uleb128 0xb
 3161 0a5f 860E0000 		.4byte	.LASF196
 3162 0a63 0C       		.byte	0xc
 3163 0a64 37       		.byte	0x37
 3164 0a65 CE000000 		.4byte	0xce
 3165 0a69 10       		.byte	0x10
 3166 0a6a 0B       		.uleb128 0xb
 3167 0a6b 47030000 		.4byte	.LASF197
 3168 0a6f 0C       		.byte	0xc
 3169 0a70 38       		.byte	0x38
 3170 0a71 CE000000 		.4byte	0xce
 3171 0a75 14       		.byte	0x14
 3172 0a76 0B       		.uleb128 0xb
 3173 0a77 50030000 		.4byte	.LASF198
 3174 0a7b 0C       		.byte	0xc
 3175 0a7c 39       		.byte	0x39
 3176 0a7d CE000000 		.4byte	0xce
 3177 0a81 18       		.byte	0x18
 3178 0a82 0B       		.uleb128 0xb
ARM GAS  C:\Users\user\AppData\Local\Temp\ccSIFDDJ.s 			page 80


 3179 0a83 D70E0000 		.4byte	.LASF199
 3180 0a87 0C       		.byte	0xc
 3181 0a88 3A       		.byte	0x3a
 3182 0a89 0A070000 		.4byte	0x70a
 3183 0a8d 1C       		.byte	0x1c
 3184 0a8e 0B       		.uleb128 0xb
 3185 0a8f C60E0000 		.4byte	.LASF200
 3186 0a93 0C       		.byte	0xc
 3187 0a94 3C       		.byte	0x3c
 3188 0a95 CE000000 		.4byte	0xce
 3189 0a99 20       		.byte	0x20
 3190 0a9a 0B       		.uleb128 0xb
 3191 0a9b 550C0000 		.4byte	.LASF201
 3192 0a9f 0C       		.byte	0xc
 3193 0aa0 3D       		.byte	0x3d
 3194 0aa1 CE000000 		.4byte	0xce
 3195 0aa5 24       		.byte	0x24
 3196 0aa6 0B       		.uleb128 0xb
 3197 0aa7 3D110000 		.4byte	.LASF202
 3198 0aab 0C       		.byte	0xc
 3199 0aac 3F       		.byte	0x3f
 3200 0aad CE000000 		.4byte	0xce
 3201 0ab1 28       		.byte	0x28
 3202 0ab2 0B       		.uleb128 0xb
 3203 0ab3 3E0C0000 		.4byte	.LASF203
 3204 0ab7 0C       		.byte	0xc
 3205 0ab8 40       		.byte	0x40
 3206 0ab9 CE000000 		.4byte	0xce
 3207 0abd 2C       		.byte	0x2c
 3208 0abe 0B       		.uleb128 0xb
 3209 0abf 9E050000 		.4byte	.LASF204
 3210 0ac3 0C       		.byte	0xc
 3211 0ac4 42       		.byte	0x42
 3212 0ac5 CE000000 		.4byte	0xce
 3213 0ac9 30       		.byte	0x30
 3214 0aca 0B       		.uleb128 0xb
 3215 0acb BF060000 		.4byte	.LASF205
 3216 0acf 0C       		.byte	0xc
 3217 0ad0 43       		.byte	0x43
 3218 0ad1 CE000000 		.4byte	0xce
 3219 0ad5 34       		.byte	0x34
 3220 0ad6 0B       		.uleb128 0xb
 3221 0ad7 87140000 		.4byte	.LASF206
 3222 0adb 0C       		.byte	0xc
 3223 0adc 45       		.byte	0x45
 3224 0add CE000000 		.4byte	0xce
 3225 0ae1 38       		.byte	0x38
 3226 0ae2 0B       		.uleb128 0xb
 3227 0ae3 5F000000 		.4byte	.LASF207
 3228 0ae7 0C       		.byte	0xc
 3229 0ae8 46       		.byte	0x46
 3230 0ae9 CE000000 		.4byte	0xce
 3231 0aed 3C       		.byte	0x3c
 3232 0aee 0B       		.uleb128 0xb
 3233 0aef 6E020000 		.4byte	.LASF208
 3234 0af3 0C       		.byte	0xc
 3235 0af4 48       		.byte	0x48
ARM GAS  C:\Users\user\AppData\Local\Temp\ccSIFDDJ.s 			page 81


 3236 0af5 CE000000 		.4byte	0xce
 3237 0af9 40       		.byte	0x40
 3238 0afa 0B       		.uleb128 0xb
 3239 0afb 1E0F0000 		.4byte	.LASF209
 3240 0aff 0C       		.byte	0xc
 3241 0b00 49       		.byte	0x49
 3242 0b01 CE000000 		.4byte	0xce
 3243 0b05 44       		.byte	0x44
 3244 0b06 0B       		.uleb128 0xb
 3245 0b07 C2110000 		.4byte	.LASF210
 3246 0b0b 0C       		.byte	0xc
 3247 0b0c 4B       		.byte	0x4b
 3248 0b0d CE000000 		.4byte	0xce
 3249 0b11 48       		.byte	0x48
 3250 0b12 00       		.byte	0
 3251 0b13 03       		.uleb128 0x3
 3252 0b14 1A0E0000 		.4byte	.LASF211
 3253 0b18 0C       		.byte	0xc
 3254 0b19 4C       		.byte	0x4c
 3255 0b1a 220A0000 		.4byte	0xa22
 3256 0b1e 0F       		.uleb128 0xf
 3257 0b1f 04       		.byte	0x4
 3258 0b20 8E020000 		.4byte	0x28e
 3259 0b24 0F       		.uleb128 0xf
 3260 0b25 04       		.byte	0x4
 3261 0b26 2A0B0000 		.4byte	0xb2a
 3262 0b2a 19       		.uleb128 0x19
 3263 0b2b 0F       		.uleb128 0xf
 3264 0b2c 04       		.byte	0x4
 3265 0b2d 310B0000 		.4byte	0xb31
 3266 0b31 06       		.uleb128 0x6
 3267 0b32 3E000000 		.4byte	0x3e
 3268 0b36 0F       		.uleb128 0xf
 3269 0b37 04       		.byte	0x4
 3270 0b38 3C0B0000 		.4byte	0xb3c
 3271 0b3c 06       		.uleb128 0x6
 3272 0b3d D5060000 		.4byte	0x6d5
 3273 0b41 09       		.uleb128 0x9
 3274 0b42 04       		.byte	0x4
 3275 0b43 0D       		.byte	0xd
 3276 0b44 B6       		.byte	0xb6
 3277 0b45 600B0000 		.4byte	0xb60
 3278 0b49 0A       		.uleb128 0xa
 3279 0b4a 633000   		.ascii	"c0\000"
 3280 0b4d 0D       		.byte	0xd
 3281 0b4e B7       		.byte	0xb7
 3282 0b4f 25000000 		.4byte	0x25
 3283 0b53 00       		.byte	0
 3284 0b54 0A       		.uleb128 0xa
 3285 0b55 633100   		.ascii	"c1\000"
 3286 0b58 0D       		.byte	0xd
 3287 0b59 B8       		.byte	0xb8
 3288 0b5a 25000000 		.4byte	0x25
 3289 0b5e 02       		.byte	0x2
 3290 0b5f 00       		.byte	0
 3291 0b60 03       		.uleb128 0x3
 3292 0b61 22110000 		.4byte	.LASF212
ARM GAS  C:\Users\user\AppData\Local\Temp\ccSIFDDJ.s 			page 82


 3293 0b65 0D       		.byte	0xd
 3294 0b66 B9       		.byte	0xb9
 3295 0b67 410B0000 		.4byte	0xb41
 3296 0b6b 09       		.uleb128 0x9
 3297 0b6c 08       		.byte	0x8
 3298 0b6d 0D       		.byte	0xd
 3299 0b6e BB       		.byte	0xbb
 3300 0b6f 980B0000 		.4byte	0xb98
 3301 0b73 0B       		.uleb128 0xb
 3302 0b74 F5080000 		.4byte	.LASF213
 3303 0b78 0D       		.byte	0xd
 3304 0b79 BC       		.byte	0xbc
 3305 0b7a 5B000000 		.4byte	0x5b
 3306 0b7e 00       		.byte	0
 3307 0b7f 0B       		.uleb128 0xb
 3308 0b80 640F0000 		.4byte	.LASF214
 3309 0b84 0D       		.byte	0xd
 3310 0b85 BD       		.byte	0xbd
 3311 0b86 5B000000 		.4byte	0x5b
 3312 0b8a 02       		.byte	0x2
 3313 0b8b 0B       		.uleb128 0xb
 3314 0b8c 59010000 		.4byte	.LASF215
 3315 0b90 0D       		.byte	0xd
 3316 0b91 BE       		.byte	0xbe
 3317 0b92 980B0000 		.4byte	0xb98
 3318 0b96 04       		.byte	0x4
 3319 0b97 00       		.byte	0
 3320 0b98 0F       		.uleb128 0xf
 3321 0b99 04       		.byte	0x4
 3322 0b9a 9E0B0000 		.4byte	0xb9e
 3323 0b9e 06       		.uleb128 0x6
 3324 0b9f 600B0000 		.4byte	0xb60
 3325 0ba3 03       		.uleb128 0x3
 3326 0ba4 A9040000 		.4byte	.LASF216
 3327 0ba8 0D       		.byte	0xd
 3328 0ba9 BF       		.byte	0xbf
 3329 0baa 6B0B0000 		.4byte	0xb6b
 3330 0bae 09       		.uleb128 0x9
 3331 0baf 08       		.byte	0x8
 3332 0bb0 0D       		.byte	0xd
 3333 0bb1 C1       		.byte	0xc1
 3334 0bb2 E70B0000 		.4byte	0xbe7
 3335 0bb6 0B       		.uleb128 0xb
 3336 0bb7 21130000 		.4byte	.LASF217
 3337 0bbb 0D       		.byte	0xd
 3338 0bbc C2       		.byte	0xc2
 3339 0bbd 3E000000 		.4byte	0x3e
 3340 0bc1 00       		.byte	0
 3341 0bc2 0B       		.uleb128 0xb
 3342 0bc3 72110000 		.4byte	.LASF218
 3343 0bc7 0D       		.byte	0xd
 3344 0bc8 C3       		.byte	0xc3
 3345 0bc9 3E000000 		.4byte	0x3e
 3346 0bcd 01       		.byte	0x1
 3347 0bce 0B       		.uleb128 0xb
 3348 0bcf 390B0000 		.4byte	.LASF219
 3349 0bd3 0D       		.byte	0xd
ARM GAS  C:\Users\user\AppData\Local\Temp\ccSIFDDJ.s 			page 83


 3350 0bd4 C4       		.byte	0xc4
 3351 0bd5 3E000000 		.4byte	0x3e
 3352 0bd9 02       		.byte	0x2
 3353 0bda 0B       		.uleb128 0xb
 3354 0bdb 25030000 		.4byte	.LASF220
 3355 0bdf 0D       		.byte	0xd
 3356 0be0 C5       		.byte	0xc5
 3357 0be1 2B0B0000 		.4byte	0xb2b
 3358 0be5 04       		.byte	0x4
 3359 0be6 00       		.byte	0
 3360 0be7 03       		.uleb128 0x3
 3361 0be8 AF130000 		.4byte	.LASF221
 3362 0bec 0D       		.byte	0xd
 3363 0bed C6       		.byte	0xc6
 3364 0bee AE0B0000 		.4byte	0xbae
 3365 0bf2 09       		.uleb128 0x9
 3366 0bf3 0C       		.byte	0xc
 3367 0bf4 0D       		.byte	0xd
 3368 0bf5 C8       		.byte	0xc8
 3369 0bf6 430C0000 		.4byte	0xc43
 3370 0bfa 0B       		.uleb128 0xb
 3371 0bfb 21130000 		.4byte	.LASF217
 3372 0bff 0D       		.byte	0xd
 3373 0c00 C9       		.byte	0xc9
 3374 0c01 3E000000 		.4byte	0x3e
 3375 0c05 00       		.byte	0
 3376 0c06 0B       		.uleb128 0xb
 3377 0c07 950C0000 		.4byte	.LASF222
 3378 0c0b 0D       		.byte	0xd
 3379 0c0c CA       		.byte	0xca
 3380 0c0d 3E000000 		.4byte	0x3e
 3381 0c11 01       		.byte	0x1
 3382 0c12 0B       		.uleb128 0xb
 3383 0c13 CE090000 		.4byte	.LASF223
 3384 0c17 0D       		.byte	0xd
 3385 0c18 CB       		.byte	0xcb
 3386 0c19 2C000000 		.4byte	0x2c
 3387 0c1d 02       		.byte	0x2
 3388 0c1e 0B       		.uleb128 0xb
 3389 0c1f D6000000 		.4byte	.LASF224
 3390 0c23 0D       		.byte	0xd
 3391 0c24 CC       		.byte	0xcc
 3392 0c25 2C000000 		.4byte	0x2c
 3393 0c29 03       		.byte	0x3
 3394 0c2a 0B       		.uleb128 0xb
 3395 0c2b 72110000 		.4byte	.LASF218
 3396 0c2f 0D       		.byte	0xd
 3397 0c30 CD       		.byte	0xcd
 3398 0c31 3E000000 		.4byte	0x3e
 3399 0c35 04       		.byte	0x4
 3400 0c36 0B       		.uleb128 0xb
 3401 0c37 25030000 		.4byte	.LASF220
 3402 0c3b 0D       		.byte	0xd
 3403 0c3c CE       		.byte	0xce
 3404 0c3d 2B0B0000 		.4byte	0xb2b
 3405 0c41 08       		.byte	0x8
 3406 0c42 00       		.byte	0
ARM GAS  C:\Users\user\AppData\Local\Temp\ccSIFDDJ.s 			page 84


 3407 0c43 03       		.uleb128 0x3
 3408 0c44 3C060000 		.4byte	.LASF225
 3409 0c48 0D       		.byte	0xd
 3410 0c49 CF       		.byte	0xcf
 3411 0c4a F20B0000 		.4byte	0xbf2
 3412 0c4e 18       		.uleb128 0x18
 3413 0c4f 19050000 		.4byte	.LASF226
 3414 0c53 0C       		.byte	0xc
 3415 0c54 0D       		.byte	0xd
 3416 0c55 D1       		.byte	0xd1
 3417 0c56 8B0C0000 		.4byte	0xc8b
 3418 0c5a 0B       		.uleb128 0xb
 3419 0c5b 59000000 		.4byte	.LASF227
 3420 0c5f 0D       		.byte	0xd
 3421 0c60 D2       		.byte	0xd2
 3422 0c61 5B000000 		.4byte	0x5b
 3423 0c65 00       		.byte	0
 3424 0c66 0B       		.uleb128 0xb
 3425 0c67 1F0C0000 		.4byte	.LASF228
 3426 0c6b 0D       		.byte	0xd
 3427 0c6c D3       		.byte	0xd3
 3428 0c6d 5B000000 		.4byte	0x5b
 3429 0c71 02       		.byte	0x2
 3430 0c72 0B       		.uleb128 0xb
 3431 0c73 B3090000 		.4byte	.LASF229
 3432 0c77 0D       		.byte	0xd
 3433 0c78 D4       		.byte	0xd4
 3434 0c79 8B0C0000 		.4byte	0xc8b
 3435 0c7d 04       		.byte	0x4
 3436 0c7e 0B       		.uleb128 0xb
 3437 0c7f 2F140000 		.4byte	.LASF230
 3438 0c83 0D       		.byte	0xd
 3439 0c84 D5       		.byte	0xd5
 3440 0c85 960C0000 		.4byte	0xc96
 3441 0c89 08       		.byte	0x8
 3442 0c8a 00       		.byte	0
 3443 0c8b 0F       		.uleb128 0xf
 3444 0c8c 04       		.byte	0x4
 3445 0c8d 910C0000 		.4byte	0xc91
 3446 0c91 06       		.uleb128 0x6
 3447 0c92 E70B0000 		.4byte	0xbe7
 3448 0c96 0F       		.uleb128 0xf
 3449 0c97 04       		.byte	0x4
 3450 0c98 9C0C0000 		.4byte	0xc9c
 3451 0c9c 06       		.uleb128 0x6
 3452 0c9d 4E0C0000 		.4byte	0xc4e
 3453 0ca1 03       		.uleb128 0x3
 3454 0ca2 19050000 		.4byte	.LASF226
 3455 0ca6 0D       		.byte	0xd
 3456 0ca7 D6       		.byte	0xd6
 3457 0ca8 4E0C0000 		.4byte	0xc4e
 3458 0cac 18       		.uleb128 0x18
 3459 0cad BC000000 		.4byte	.LASF231
 3460 0cb1 0C       		.byte	0xc
 3461 0cb2 0D       		.byte	0xd
 3462 0cb3 D8       		.byte	0xd8
 3463 0cb4 E90C0000 		.4byte	0xce9
ARM GAS  C:\Users\user\AppData\Local\Temp\ccSIFDDJ.s 			page 85


 3464 0cb8 0B       		.uleb128 0xb
 3465 0cb9 59000000 		.4byte	.LASF227
 3466 0cbd 0D       		.byte	0xd
 3467 0cbe D9       		.byte	0xd9
 3468 0cbf 5B000000 		.4byte	0x5b
 3469 0cc3 00       		.byte	0
 3470 0cc4 0B       		.uleb128 0xb
 3471 0cc5 1F0C0000 		.4byte	.LASF228
 3472 0cc9 0D       		.byte	0xd
 3473 0cca DA       		.byte	0xda
 3474 0ccb 5B000000 		.4byte	0x5b
 3475 0ccf 02       		.byte	0x2
 3476 0cd0 0B       		.uleb128 0xb
 3477 0cd1 B3090000 		.4byte	.LASF229
 3478 0cd5 0D       		.byte	0xd
 3479 0cd6 DB       		.byte	0xdb
 3480 0cd7 E90C0000 		.4byte	0xce9
 3481 0cdb 04       		.byte	0x4
 3482 0cdc 0B       		.uleb128 0xb
 3483 0cdd 2F140000 		.4byte	.LASF230
 3484 0ce1 0D       		.byte	0xd
 3485 0ce2 DC       		.byte	0xdc
 3486 0ce3 F40C0000 		.4byte	0xcf4
 3487 0ce7 08       		.byte	0x8
 3488 0ce8 00       		.byte	0
 3489 0ce9 0F       		.uleb128 0xf
 3490 0cea 04       		.byte	0x4
 3491 0ceb EF0C0000 		.4byte	0xcef
 3492 0cef 06       		.uleb128 0x6
 3493 0cf0 430C0000 		.4byte	0xc43
 3494 0cf4 0F       		.uleb128 0xf
 3495 0cf5 04       		.byte	0x4
 3496 0cf6 FA0C0000 		.4byte	0xcfa
 3497 0cfa 06       		.uleb128 0x6
 3498 0cfb AC0C0000 		.4byte	0xcac
 3499 0cff 03       		.uleb128 0x3
 3500 0d00 BC000000 		.4byte	.LASF231
 3501 0d04 0D       		.byte	0xd
 3502 0d05 DD       		.byte	0xdd
 3503 0d06 AC0C0000 		.4byte	0xcac
 3504 0d0a 09       		.uleb128 0x9
 3505 0d0b 14       		.byte	0x14
 3506 0d0c 0D       		.byte	0xd
 3507 0d0d DF       		.byte	0xdf
 3508 0d0e 730D0000 		.4byte	0xd73
 3509 0d12 0B       		.uleb128 0xb
 3510 0d13 25030000 		.4byte	.LASF220
 3511 0d17 0D       		.byte	0xd
 3512 0d18 E0       		.byte	0xe0
 3513 0d19 2B0B0000 		.4byte	0xb2b
 3514 0d1d 00       		.byte	0
 3515 0d1e 0B       		.uleb128 0xb
 3516 0d1f 91060000 		.4byte	.LASF232
 3517 0d23 0D       		.byte	0xd
 3518 0d24 E1       		.byte	0xe1
 3519 0d25 2B0B0000 		.4byte	0xb2b
 3520 0d29 04       		.byte	0x4
ARM GAS  C:\Users\user\AppData\Local\Temp\ccSIFDDJ.s 			page 86


 3521 0d2a 0B       		.uleb128 0xb
 3522 0d2b 6F0D0000 		.4byte	.LASF233
 3523 0d2f 0D       		.byte	0xd
 3524 0d30 E2       		.byte	0xe2
 3525 0d31 730D0000 		.4byte	0xd73
 3526 0d35 08       		.byte	0x8
 3527 0d36 0B       		.uleb128 0xb
 3528 0d37 F5080000 		.4byte	.LASF213
 3529 0d3b 0D       		.byte	0xd
 3530 0d3c E3       		.byte	0xe3
 3531 0d3d 5B000000 		.4byte	0x5b
 3532 0d41 0C       		.byte	0xc
 3533 0d42 0B       		.uleb128 0xb
 3534 0d43 640F0000 		.4byte	.LASF214
 3535 0d47 0D       		.byte	0xd
 3536 0d48 E4       		.byte	0xe4
 3537 0d49 5B000000 		.4byte	0x5b
 3538 0d4d 0E       		.byte	0xe
 3539 0d4e 0B       		.uleb128 0xb
 3540 0d4f 21130000 		.4byte	.LASF217
 3541 0d53 0D       		.byte	0xd
 3542 0d54 E5       		.byte	0xe5
 3543 0d55 3E000000 		.4byte	0x3e
 3544 0d59 10       		.byte	0x10
 3545 0d5a 0B       		.uleb128 0xb
 3546 0d5b 72110000 		.4byte	.LASF218
 3547 0d5f 0D       		.byte	0xd
 3548 0d60 E6       		.byte	0xe6
 3549 0d61 3E000000 		.4byte	0x3e
 3550 0d65 11       		.byte	0x11
 3551 0d66 0B       		.uleb128 0xb
 3552 0d67 390B0000 		.4byte	.LASF219
 3553 0d6b 0D       		.byte	0xd
 3554 0d6c E7       		.byte	0xe7
 3555 0d6d 3E000000 		.4byte	0x3e
 3556 0d71 12       		.byte	0x12
 3557 0d72 00       		.byte	0
 3558 0d73 0F       		.uleb128 0xf
 3559 0d74 04       		.byte	0x4
 3560 0d75 790D0000 		.4byte	0xd79
 3561 0d79 06       		.uleb128 0x6
 3562 0d7a A30B0000 		.4byte	0xba3
 3563 0d7e 03       		.uleb128 0x3
 3564 0d7f 55050000 		.4byte	.LASF234
 3565 0d83 0D       		.byte	0xd
 3566 0d84 E8       		.byte	0xe8
 3567 0d85 0A0D0000 		.4byte	0xd0a
 3568 0d89 09       		.uleb128 0x9
 3569 0d8a 06       		.byte	0x6
 3570 0d8b 0D       		.byte	0xd
 3571 0d8c F1       		.byte	0xf1
 3572 0d8d C20D0000 		.4byte	0xdc2
 3573 0d91 0B       		.uleb128 0xb
 3574 0d92 27050000 		.4byte	.LASF235
 3575 0d96 0D       		.byte	0xd
 3576 0d97 F2       		.byte	0xf2
 3577 0d98 5B000000 		.4byte	0x5b
ARM GAS  C:\Users\user\AppData\Local\Temp\ccSIFDDJ.s 			page 87


 3578 0d9c 00       		.byte	0
 3579 0d9d 0B       		.uleb128 0xb
 3580 0d9e B6060000 		.4byte	.LASF236
 3581 0da2 0D       		.byte	0xd
 3582 0da3 F3       		.byte	0xf3
 3583 0da4 3E000000 		.4byte	0x3e
 3584 0da8 02       		.byte	0x2
 3585 0da9 0B       		.uleb128 0xb
 3586 0daa 380E0000 		.4byte	.LASF237
 3587 0dae 0D       		.byte	0xd
 3588 0daf F4       		.byte	0xf4
 3589 0db0 3E000000 		.4byte	0x3e
 3590 0db4 03       		.byte	0x3
 3591 0db5 0B       		.uleb128 0xb
 3592 0db6 9B0C0000 		.4byte	.LASF238
 3593 0dba 0D       		.byte	0xd
 3594 0dbb F5       		.byte	0xf5
 3595 0dbc 3E000000 		.4byte	0x3e
 3596 0dc0 04       		.byte	0x4
 3597 0dc1 00       		.byte	0
 3598 0dc2 03       		.uleb128 0x3
 3599 0dc3 C5040000 		.4byte	.LASF239
 3600 0dc7 0D       		.byte	0xd
 3601 0dc8 F6       		.byte	0xf6
 3602 0dc9 890D0000 		.4byte	0xd89
 3603 0dcd 0E       		.uleb128 0xe
 3604 0dce 760D0000 		.4byte	.LASF240
 3605 0dd2 0D       		.byte	0xd
 3606 0dd3 1301     		.2byte	0x113
 3607 0dd5 D90D0000 		.4byte	0xdd9
 3608 0dd9 15       		.uleb128 0x15
 3609 0dda 94000000 		.4byte	0x94
 3610 0dde ED0D0000 		.4byte	0xded
 3611 0de2 14       		.uleb128 0x14
 3612 0de3 360B0000 		.4byte	0xb36
 3613 0de7 14       		.uleb128 0x14
 3614 0de8 94000000 		.4byte	0x94
 3615 0dec 00       		.byte	0
 3616 0ded 0E       		.uleb128 0xe
 3617 0dee C3100000 		.4byte	.LASF241
 3618 0df2 0D       		.byte	0xd
 3619 0df3 1401     		.2byte	0x114
 3620 0df5 D90D0000 		.4byte	0xdd9
 3621 0df9 0E       		.uleb128 0xe
 3622 0dfa CE0B0000 		.4byte	.LASF242
 3623 0dfe 0D       		.byte	0xd
 3624 0dff 1501     		.2byte	0x115
 3625 0e01 050E0000 		.4byte	0xe05
 3626 0e05 13       		.uleb128 0x13
 3627 0e06 150E0000 		.4byte	0xe15
 3628 0e0a 14       		.uleb128 0x14
 3629 0e0b 360B0000 		.4byte	0xb36
 3630 0e0f 14       		.uleb128 0x14
 3631 0e10 94000000 		.4byte	0x94
 3632 0e14 00       		.byte	0
 3633 0e15 1A       		.uleb128 0x1a
 3634 0e16 0C       		.byte	0xc
ARM GAS  C:\Users\user\AppData\Local\Temp\ccSIFDDJ.s 			page 88


 3635 0e17 0D       		.byte	0xd
 3636 0e18 1701     		.2byte	0x117
 3637 0e1a 460E0000 		.4byte	0xe46
 3638 0e1e 17       		.uleb128 0x17
 3639 0e1f 07080000 		.4byte	.LASF243
 3640 0e23 0D       		.byte	0xd
 3641 0e24 1801     		.2byte	0x118
 3642 0e26 460E0000 		.4byte	0xe46
 3643 0e2a 00       		.byte	0
 3644 0e2b 17       		.uleb128 0x17
 3645 0e2c 730C0000 		.4byte	.LASF244
 3646 0e30 0D       		.byte	0xd
 3647 0e31 1901     		.2byte	0x119
 3648 0e33 4C0E0000 		.4byte	0xe4c
 3649 0e37 04       		.byte	0x4
 3650 0e38 17       		.uleb128 0x17
 3651 0e39 6A100000 		.4byte	.LASF245
 3652 0e3d 0D       		.byte	0xd
 3653 0e3e 1A01     		.2byte	0x11a
 3654 0e40 520E0000 		.4byte	0xe52
 3655 0e44 08       		.byte	0x8
 3656 0e45 00       		.byte	0
 3657 0e46 0F       		.uleb128 0xf
 3658 0e47 04       		.byte	0x4
 3659 0e48 CD0D0000 		.4byte	0xdcd
 3660 0e4c 0F       		.uleb128 0xf
 3661 0e4d 04       		.byte	0x4
 3662 0e4e ED0D0000 		.4byte	0xded
 3663 0e52 0F       		.uleb128 0xf
 3664 0e53 04       		.byte	0x4
 3665 0e54 F90D0000 		.4byte	0xdf9
 3666 0e58 0E       		.uleb128 0xe
 3667 0e59 48000000 		.4byte	.LASF246
 3668 0e5d 0D       		.byte	0xd
 3669 0e5e 1B01     		.2byte	0x11b
 3670 0e60 150E0000 		.4byte	0xe15
 3671 0e64 0E       		.uleb128 0xe
 3672 0e65 5F090000 		.4byte	.LASF247
 3673 0e69 0D       		.byte	0xd
 3674 0e6a 2401     		.2byte	0x124
 3675 0e6c 700E0000 		.4byte	0xe70
 3676 0e70 16       		.uleb128 0x16
 3677 0e71 5F090000 		.4byte	.LASF247
 3678 0e75 24       		.byte	0x24
 3679 0e76 0D       		.byte	0xd
 3680 0e77 B101     		.2byte	0x1b1
 3681 0e79 320F0000 		.4byte	0xf32
 3682 0e7d 17       		.uleb128 0x17
 3683 0e7e 4E070000 		.4byte	.LASF248
 3684 0e82 0D       		.byte	0xd
 3685 0e83 B201     		.2byte	0x1b2
 3686 0e85 3D100000 		.4byte	0x103d
 3687 0e89 00       		.byte	0
 3688 0e8a 17       		.uleb128 0x17
 3689 0e8b FC000000 		.4byte	.LASF249
 3690 0e8f 0D       		.byte	0xd
 3691 0e90 B301     		.2byte	0x1b3
ARM GAS  C:\Users\user\AppData\Local\Temp\ccSIFDDJ.s 			page 89


 3692 0e92 43100000 		.4byte	0x1043
 3693 0e96 04       		.byte	0x4
 3694 0e97 17       		.uleb128 0x17
 3695 0e98 ED0A0000 		.4byte	.LASF250
 3696 0e9c 0D       		.byte	0xd
 3697 0e9d B401     		.2byte	0x1b4
 3698 0e9f 49100000 		.4byte	0x1049
 3699 0ea3 08       		.byte	0x8
 3700 0ea4 17       		.uleb128 0x17
 3701 0ea5 E7070000 		.4byte	.LASF251
 3702 0ea9 0D       		.byte	0xd
 3703 0eaa B501     		.2byte	0x1b5
 3704 0eac 4F100000 		.4byte	0x104f
 3705 0eb0 0C       		.byte	0xc
 3706 0eb1 17       		.uleb128 0x17
 3707 0eb2 BE070000 		.4byte	.LASF252
 3708 0eb6 0D       		.byte	0xd
 3709 0eb7 B601     		.2byte	0x1b6
 3710 0eb9 55100000 		.4byte	0x1055
 3711 0ebd 10       		.byte	0x10
 3712 0ebe 17       		.uleb128 0x17
 3713 0ebf 830B0000 		.4byte	.LASF253
 3714 0ec3 0D       		.byte	0xd
 3715 0ec4 B701     		.2byte	0x1b7
 3716 0ec6 5B100000 		.4byte	0x105b
 3717 0eca 14       		.byte	0x14
 3718 0ecb 17       		.uleb128 0x17
 3719 0ecc 950C0000 		.4byte	.LASF222
 3720 0ed0 0D       		.byte	0xd
 3721 0ed1 B801     		.2byte	0x1b8
 3722 0ed3 3E000000 		.4byte	0x3e
 3723 0ed7 18       		.byte	0x18
 3724 0ed8 17       		.uleb128 0x17
 3725 0ed9 280A0000 		.4byte	.LASF254
 3726 0edd 0D       		.byte	0xd
 3727 0ede B901     		.2byte	0x1b9
 3728 0ee0 3E000000 		.4byte	0x3e
 3729 0ee4 19       		.byte	0x19
 3730 0ee5 17       		.uleb128 0x17
 3731 0ee6 AF070000 		.4byte	.LASF255
 3732 0eea 0D       		.byte	0xd
 3733 0eeb BA01     		.2byte	0x1ba
 3734 0eed 3E000000 		.4byte	0x3e
 3735 0ef1 1A       		.byte	0x1a
 3736 0ef2 17       		.uleb128 0x17
 3737 0ef3 1C130000 		.4byte	.LASF256
 3738 0ef7 0D       		.byte	0xd
 3739 0ef8 BB01     		.2byte	0x1bb
 3740 0efa 3E000000 		.4byte	0x3e
 3741 0efe 1B       		.byte	0x1b
 3742 0eff 1B       		.uleb128 0x1b
 3743 0f00 7000     		.ascii	"p\000"
 3744 0f02 0D       		.byte	0xd
 3745 0f03 C101     		.2byte	0x1c1
 3746 0f05 E20F0000 		.4byte	0xfe2
 3747 0f09 1C       		.byte	0x1c
 3748 0f0a 17       		.uleb128 0x17
ARM GAS  C:\Users\user\AppData\Local\Temp\ccSIFDDJ.s 			page 90


 3749 0f0b B6060000 		.4byte	.LASF236
 3750 0f0f 0D       		.byte	0xd
 3751 0f10 C201     		.2byte	0x1c2
 3752 0f12 3E000000 		.4byte	0x3e
 3753 0f16 20       		.byte	0x20
 3754 0f17 17       		.uleb128 0x17
 3755 0f18 380E0000 		.4byte	.LASF237
 3756 0f1c 0D       		.byte	0xd
 3757 0f1d C301     		.2byte	0x1c3
 3758 0f1f 3E000000 		.4byte	0x3e
 3759 0f23 21       		.byte	0x21
 3760 0f24 17       		.uleb128 0x17
 3761 0f25 9B0C0000 		.4byte	.LASF238
 3762 0f29 0D       		.byte	0xd
 3763 0f2a C401     		.2byte	0x1c4
 3764 0f2c 3E000000 		.4byte	0x3e
 3765 0f30 22       		.byte	0x22
 3766 0f31 00       		.byte	0
 3767 0f32 0E       		.uleb128 0xe
 3768 0f33 56080000 		.4byte	.LASF257
 3769 0f37 0D       		.byte	0xd
 3770 0f38 2601     		.2byte	0x126
 3771 0f3a 3E0F0000 		.4byte	0xf3e
 3772 0f3e 13       		.uleb128 0x13
 3773 0f3f 490F0000 		.4byte	0xf49
 3774 0f43 14       		.uleb128 0x14
 3775 0f44 5B000000 		.4byte	0x5b
 3776 0f48 00       		.byte	0
 3777 0f49 0E       		.uleb128 0xe
 3778 0f4a B5010000 		.4byte	.LASF258
 3779 0f4e 0D       		.byte	0xd
 3780 0f4f 2701     		.2byte	0x127
 3781 0f51 550F0000 		.4byte	0xf55
 3782 0f55 15       		.uleb128 0x15
 3783 0f56 94000000 		.4byte	0x94
 3784 0f5a 690F0000 		.4byte	0xf69
 3785 0f5e 14       		.uleb128 0x14
 3786 0f5f 5B000000 		.4byte	0x5b
 3787 0f63 14       		.uleb128 0x14
 3788 0f64 690F0000 		.4byte	0xf69
 3789 0f68 00       		.byte	0
 3790 0f69 0F       		.uleb128 0xf
 3791 0f6a 04       		.byte	0x4
 3792 0f6b 94000000 		.4byte	0x94
 3793 0f6f 0E       		.uleb128 0xe
 3794 0f70 2C070000 		.4byte	.LASF259
 3795 0f74 0D       		.byte	0xd
 3796 0f75 2801     		.2byte	0x128
 3797 0f77 7B0F0000 		.4byte	0xf7b
 3798 0f7b 13       		.uleb128 0x13
 3799 0f7c 8B0F0000 		.4byte	0xf8b
 3800 0f80 14       		.uleb128 0x14
 3801 0f81 8B0F0000 		.4byte	0xf8b
 3802 0f85 14       		.uleb128 0x14
 3803 0f86 960F0000 		.4byte	0xf96
 3804 0f8a 00       		.byte	0
 3805 0f8b 0F       		.uleb128 0xf
ARM GAS  C:\Users\user\AppData\Local\Temp\ccSIFDDJ.s 			page 91


 3806 0f8c 04       		.byte	0x4
 3807 0f8d 910F0000 		.4byte	0xf91
 3808 0f91 06       		.uleb128 0x6
 3809 0f92 640E0000 		.4byte	0xe64
 3810 0f96 0F       		.uleb128 0xf
 3811 0f97 04       		.byte	0x4
 3812 0f98 C20D0000 		.4byte	0xdc2
 3813 0f9c 0E       		.uleb128 0xe
 3814 0f9d BC130000 		.4byte	.LASF260
 3815 0fa1 0D       		.byte	0xd
 3816 0fa2 2901     		.2byte	0x129
 3817 0fa4 A80F0000 		.4byte	0xfa8
 3818 0fa8 15       		.uleb128 0x15
 3819 0fa9 D5060000 		.4byte	0x6d5
 3820 0fad BC0F0000 		.4byte	0xfbc
 3821 0fb1 14       		.uleb128 0x14
 3822 0fb2 8B0F0000 		.4byte	0xf8b
 3823 0fb6 14       		.uleb128 0x14
 3824 0fb7 5B000000 		.4byte	0x5b
 3825 0fbb 00       		.byte	0
 3826 0fbc 0E       		.uleb128 0xe
 3827 0fbd CE0C0000 		.4byte	.LASF261
 3828 0fc1 0D       		.byte	0xd
 3829 0fc2 2A01     		.2byte	0x12a
 3830 0fc4 C80F0000 		.4byte	0xfc8
 3831 0fc8 15       		.uleb128 0x15
 3832 0fc9 94000000 		.4byte	0x94
 3833 0fcd DC0F0000 		.4byte	0xfdc
 3834 0fd1 14       		.uleb128 0x14
 3835 0fd2 5B000000 		.4byte	0x5b
 3836 0fd6 14       		.uleb128 0x14
 3837 0fd7 DC0F0000 		.4byte	0xfdc
 3838 0fdb 00       		.byte	0
 3839 0fdc 0F       		.uleb128 0xf
 3840 0fdd 04       		.byte	0x4
 3841 0fde 430C0000 		.4byte	0xc43
 3842 0fe2 1C       		.uleb128 0x1c
 3843 0fe3 04       		.byte	0x4
 3844 0fe4 0D       		.byte	0xd
 3845 0fe5 BC01     		.2byte	0x1bc
 3846 0fe7 1C100000 		.4byte	0x101c
 3847 0feb 1D       		.uleb128 0x1d
 3848 0fec 25020000 		.4byte	.LASF262
 3849 0ff0 0D       		.byte	0xd
 3850 0ff1 BD01     		.2byte	0x1bd
 3851 0ff3 240B0000 		.4byte	0xb24
 3852 0ff7 1D       		.uleb128 0x1d
 3853 0ff8 420F0000 		.4byte	.LASF263
 3854 0ffc 0D       		.byte	0xd
 3855 0ffd BE01     		.2byte	0x1be
 3856 0fff 1C100000 		.4byte	0x101c
 3857 1003 1D       		.uleb128 0x1d
 3858 1004 E90E0000 		.4byte	.LASF264
 3859 1008 0D       		.byte	0xd
 3860 1009 BF01     		.2byte	0x1bf
 3861 100b 27100000 		.4byte	0x1027
 3862 100f 1D       		.uleb128 0x1d
ARM GAS  C:\Users\user\AppData\Local\Temp\ccSIFDDJ.s 			page 92


 3863 1010 64140000 		.4byte	.LASF265
 3864 1014 0D       		.byte	0xd
 3865 1015 C001     		.2byte	0x1c0
 3866 1017 32100000 		.4byte	0x1032
 3867 101b 00       		.byte	0
 3868 101c 0F       		.uleb128 0xf
 3869 101d 04       		.byte	0x4
 3870 101e 22100000 		.4byte	0x1022
 3871 1022 06       		.uleb128 0x6
 3872 1023 7E0D0000 		.4byte	0xd7e
 3873 1027 0F       		.uleb128 0xf
 3874 1028 04       		.byte	0x4
 3875 1029 2D100000 		.4byte	0x102d
 3876 102d 06       		.uleb128 0x6
 3877 102e A10C0000 		.4byte	0xca1
 3878 1032 0F       		.uleb128 0xf
 3879 1033 04       		.byte	0x4
 3880 1034 38100000 		.4byte	0x1038
 3881 1038 06       		.uleb128 0x6
 3882 1039 FF0C0000 		.4byte	0xcff
 3883 103d 0F       		.uleb128 0xf
 3884 103e 04       		.byte	0x4
 3885 103f 320F0000 		.4byte	0xf32
 3886 1043 0F       		.uleb128 0xf
 3887 1044 04       		.byte	0x4
 3888 1045 490F0000 		.4byte	0xf49
 3889 1049 0F       		.uleb128 0xf
 3890 104a 04       		.byte	0x4
 3891 104b 6F0F0000 		.4byte	0xf6f
 3892 104f 0F       		.uleb128 0xf
 3893 1050 04       		.byte	0x4
 3894 1051 9C0F0000 		.4byte	0xf9c
 3895 1055 0F       		.uleb128 0xf
 3896 1056 04       		.byte	0x4
 3897 1057 BC0F0000 		.4byte	0xfbc
 3898 105b 0F       		.uleb128 0xf
 3899 105c 04       		.byte	0x4
 3900 105d 61100000 		.4byte	0x1061
 3901 1061 06       		.uleb128 0x6
 3902 1062 580E0000 		.4byte	0xe58
 3903 1066 03       		.uleb128 0x3
 3904 1067 EC0C0000 		.4byte	.LASF266
 3905 106b 0E       		.byte	0xe
 3906 106c 35       		.byte	0x35
 3907 106d 3E000000 		.4byte	0x3e
 3908 1071 03       		.uleb128 0x3
 3909 1072 6E130000 		.4byte	.LASF267
 3910 1076 0F       		.byte	0xf
 3911 1077 69       		.byte	0x69
 3912 1078 66100000 		.4byte	0x1066
 3913 107c 1E       		.uleb128 0x1e
 3914 107d 01       		.byte	0x1
 3915 107e 3E000000 		.4byte	0x3e
 3916 1082 0F       		.byte	0xf
 3917 1083 6E       		.byte	0x6e
 3918 1084 9B100000 		.4byte	0x109b
 3919 1088 12       		.uleb128 0x12
ARM GAS  C:\Users\user\AppData\Local\Temp\ccSIFDDJ.s 			page 93


 3920 1089 0D0D0000 		.4byte	.LASF268
 3921 108d 00       		.byte	0
 3922 108e 12       		.uleb128 0x12
 3923 108f 3A020000 		.4byte	.LASF269
 3924 1093 01       		.byte	0x1
 3925 1094 12       		.uleb128 0x12
 3926 1095 A80A0000 		.4byte	.LASF270
 3927 1099 02       		.byte	0x2
 3928 109a 00       		.byte	0
 3929 109b 03       		.uleb128 0x3
 3930 109c ED020000 		.4byte	.LASF271
 3931 10a0 0F       		.byte	0xf
 3932 10a1 72       		.byte	0x72
 3933 10a2 7C100000 		.4byte	0x107c
 3934 10a6 03       		.uleb128 0x3
 3935 10a7 2D0D0000 		.4byte	.LASF272
 3936 10ab 10       		.byte	0x10
 3937 10ac 3F       		.byte	0x3f
 3938 10ad CE000000 		.4byte	0xce
 3939 10b1 1E       		.uleb128 0x1e
 3940 10b2 01       		.byte	0x1
 3941 10b3 3E000000 		.4byte	0x3e
 3942 10b7 11       		.byte	0x11
 3943 10b8 1A       		.byte	0x1a
 3944 10b9 E8100000 		.4byte	0x10e8
 3945 10bd 12       		.uleb128 0x12
 3946 10be CE060000 		.4byte	.LASF273
 3947 10c2 00       		.byte	0
 3948 10c3 12       		.uleb128 0x12
 3949 10c4 1D0D0000 		.4byte	.LASF274
 3950 10c8 01       		.byte	0x1
 3951 10c9 12       		.uleb128 0x12
 3952 10ca 2D050000 		.4byte	.LASF275
 3953 10ce 02       		.byte	0x2
 3954 10cf 12       		.uleb128 0x12
 3955 10d0 3E050000 		.4byte	.LASF276
 3956 10d4 03       		.byte	0x3
 3957 10d5 12       		.uleb128 0x12
 3958 10d6 48120000 		.4byte	.LASF277
 3959 10da 04       		.byte	0x4
 3960 10db 12       		.uleb128 0x12
 3961 10dc 35140000 		.4byte	.LASF278
 3962 10e0 05       		.byte	0x5
 3963 10e1 12       		.uleb128 0x12
 3964 10e2 590B0000 		.4byte	.LASF279
 3965 10e6 06       		.byte	0x6
 3966 10e7 00       		.byte	0
 3967 10e8 03       		.uleb128 0x3
 3968 10e9 390F0000 		.4byte	.LASF280
 3969 10ed 11       		.byte	0x11
 3970 10ee 22       		.byte	0x22
 3971 10ef B1100000 		.4byte	0x10b1
 3972 10f3 09       		.uleb128 0x9
 3973 10f4 06       		.byte	0x6
 3974 10f5 11       		.byte	0x11
 3975 10f6 24       		.byte	0x24
 3976 10f7 44110000 		.4byte	0x1144
ARM GAS  C:\Users\user\AppData\Local\Temp\ccSIFDDJ.s 			page 94


 3977 10fb 0B       		.uleb128 0xb
 3978 10fc 91040000 		.4byte	.LASF281
 3979 1100 11       		.byte	0x11
 3980 1101 26       		.byte	0x26
 3981 1102 E8100000 		.4byte	0x10e8
 3982 1106 00       		.byte	0
 3983 1107 0B       		.uleb128 0xb
 3984 1108 540E0000 		.4byte	.LASF282
 3985 110c 11       		.byte	0x11
 3986 110d 27       		.byte	0x27
 3987 110e A2000000 		.4byte	0xa2
 3988 1112 01       		.byte	0x1
 3989 1113 0B       		.uleb128 0xb
 3990 1114 77120000 		.4byte	.LASF283
 3991 1118 11       		.byte	0x11
 3992 1119 28       		.byte	0x28
 3993 111a A2000000 		.4byte	0xa2
 3994 111e 02       		.byte	0x2
 3995 111f 0B       		.uleb128 0xb
 3996 1120 7D120000 		.4byte	.LASF284
 3997 1124 11       		.byte	0x11
 3998 1125 29       		.byte	0x29
 3999 1126 A2000000 		.4byte	0xa2
 4000 112a 03       		.byte	0x3
 4001 112b 0B       		.uleb128 0xb
 4002 112c A70F0000 		.4byte	.LASF285
 4003 1130 11       		.byte	0x11
 4004 1131 2A       		.byte	0x2a
 4005 1132 A2000000 		.4byte	0xa2
 4006 1136 04       		.byte	0x4
 4007 1137 0B       		.uleb128 0xb
 4008 1138 770A0000 		.4byte	.LASF286
 4009 113c 11       		.byte	0x11
 4010 113d 2B       		.byte	0x2b
 4011 113e A2000000 		.4byte	0xa2
 4012 1142 05       		.byte	0x5
 4013 1143 00       		.byte	0
 4014 1144 03       		.uleb128 0x3
 4015 1145 91040000 		.4byte	.LASF281
 4016 1149 11       		.byte	0x11
 4017 114a 2C       		.byte	0x2c
 4018 114b F3100000 		.4byte	0x10f3
 4019 114f 1F       		.uleb128 0x1f
 4020 1150 17060000 		.4byte	.LASF376
 4021 1154 02       		.byte	0x2
 4022 1155 2503     		.2byte	0x325
 4023 1157 03       		.byte	0x3
 4024 1158 81110000 		.4byte	0x1181
 4025 115c 20       		.uleb128 0x20
 4026 115d 6F050000 		.4byte	.LASF287
 4027 1161 02       		.byte	0x2
 4028 1162 2503     		.2byte	0x325
 4029 1164 1E0B0000 		.4byte	0xb1e
 4030 1168 20       		.uleb128 0x20
 4031 1169 94120000 		.4byte	.LASF288
 4032 116d 02       		.byte	0x2
 4033 116e 2503     		.2byte	0x325
ARM GAS  C:\Users\user\AppData\Local\Temp\ccSIFDDJ.s 			page 95


 4034 1170 CE000000 		.4byte	0xce
 4035 1174 20       		.uleb128 0x20
 4036 1175 DD060000 		.4byte	.LASF289
 4037 1179 02       		.byte	0x2
 4038 117a 2503     		.2byte	0x325
 4039 117c CE000000 		.4byte	0xce
 4040 1180 00       		.byte	0
 4041 1181 21       		.uleb128 0x21
 4042 1182 8D0F0000 		.4byte	.LASF295
 4043 1186 01       		.byte	0x1
 4044 1187 19       		.byte	0x19
 4045 1188 00000000 		.4byte	.LFB693
 4046 118c 2C000000 		.4byte	.LFE693-.LFB693
 4047 1190 01       		.uleb128 0x1
 4048 1191 9C       		.byte	0x9c
 4049 1192 10120000 		.4byte	0x1210
 4050 1196 22       		.uleb128 0x22
 4051 1197 5D100000 		.4byte	.LASF290
 4052 119b 01       		.byte	0x1
 4053 119c 19       		.byte	0x19
 4054 119d 9B100000 		.4byte	0x109b
 4055 11a1 00000000 		.4byte	.LLST0
 4056 11a5 22       		.uleb128 0x22
 4057 11a6 AA010000 		.4byte	.LASF291
 4058 11aa 01       		.byte	0x1
 4059 11ab 19       		.byte	0x19
 4060 11ac 0A070000 		.4byte	0x70a
 4061 11b0 21000000 		.4byte	.LLST1
 4062 11b4 23       		.uleb128 0x23
 4063 11b5 5B060000 		.4byte	.LASF292
 4064 11b9 01       		.byte	0x1
 4065 11ba 1B       		.byte	0x1b
 4066 11bb 10120000 		.4byte	0x1210
 4067 11bf 42000000 		.4byte	.LLST2
 4068 11c3 24       		.uleb128 0x24
 4069 11c4 0A000000 		.4byte	.LVL1
 4070 11c8 04250000 		.4byte	0x2504
 4071 11cc 25       		.uleb128 0x25
 4072 11cd 1A000000 		.4byte	.LVL4
 4073 11d1 0F250000 		.4byte	0x250f
 4074 11d5 F2110000 		.4byte	0x11f2
 4075 11d9 26       		.uleb128 0x26
 4076 11da 01       		.uleb128 0x1
 4077 11db 50       		.byte	0x50
 4078 11dc 02       		.uleb128 0x2
 4079 11dd 74       		.byte	0x74
 4080 11de 00       		.sleb128 0
 4081 11df 26       		.uleb128 0x26
 4082 11e0 01       		.uleb128 0x1
 4083 11e1 51       		.byte	0x51
 4084 11e2 02       		.uleb128 0x2
 4085 11e3 75       		.byte	0x75
 4086 11e4 00       		.sleb128 0
 4087 11e5 26       		.uleb128 0x26
 4088 11e6 01       		.uleb128 0x1
 4089 11e7 52       		.byte	0x52
 4090 11e8 02       		.uleb128 0x2
ARM GAS  C:\Users\user\AppData\Local\Temp\ccSIFDDJ.s 			page 96


 4091 11e9 76       		.byte	0x76
 4092 11ea 00       		.sleb128 0
 4093 11eb 26       		.uleb128 0x26
 4094 11ec 01       		.uleb128 0x1
 4095 11ed 53       		.byte	0x53
 4096 11ee 02       		.uleb128 0x2
 4097 11ef 77       		.byte	0x77
 4098 11f0 00       		.sleb128 0
 4099 11f1 00       		.byte	0
 4100 11f2 27       		.uleb128 0x27
 4101 11f3 26000000 		.4byte	.LVL5
 4102 11f7 1A250000 		.4byte	0x251a
 4103 11fb 26       		.uleb128 0x26
 4104 11fc 01       		.uleb128 0x1
 4105 11fd 50       		.byte	0x50
 4106 11fe 02       		.uleb128 0x2
 4107 11ff 74       		.byte	0x74
 4108 1200 00       		.sleb128 0
 4109 1201 26       		.uleb128 0x26
 4110 1202 01       		.uleb128 0x1
 4111 1203 51       		.byte	0x51
 4112 1204 02       		.uleb128 0x2
 4113 1205 75       		.byte	0x75
 4114 1206 00       		.sleb128 0
 4115 1207 26       		.uleb128 0x26
 4116 1208 01       		.uleb128 0x1
 4117 1209 52       		.byte	0x52
 4118 120a 03       		.uleb128 0x3
 4119 120b 0A       		.byte	0xa
 4120 120c B016     		.2byte	0x16b0
 4121 120e 00       		.byte	0
 4122 120f 00       		.byte	0
 4123 1210 0F       		.uleb128 0xf
 4124 1211 04       		.byte	0x4
 4125 1212 71100000 		.4byte	0x1071
 4126 1216 28       		.uleb128 0x28
 4127 1217 1B030000 		.4byte	.LASF293
 4128 121b 01       		.byte	0x1
 4129 121c 25       		.byte	0x25
 4130 121d CE000000 		.4byte	0xce
 4131 1221 00000000 		.4byte	.LFB694
 4132 1225 20000000 		.4byte	.LFE694-.LFB694
 4133 1229 01       		.uleb128 0x1
 4134 122a 9C       		.byte	0x9c
 4135 122b 64120000 		.4byte	0x1264
 4136 122f 29       		.uleb128 0x29
 4137 1230 61727200 		.ascii	"arr\000"
 4138 1234 01       		.byte	0x1
 4139 1235 25       		.byte	0x25
 4140 1236 02070000 		.4byte	0x702
 4141 123a 6B000000 		.4byte	.LLST3
 4142 123e 2A       		.uleb128 0x2a
 4143 123f 6E00     		.ascii	"n\000"
 4144 1241 01       		.byte	0x1
 4145 1242 25       		.byte	0x25
 4146 1243 94000000 		.4byte	0x94
 4147 1247 01       		.uleb128 0x1
ARM GAS  C:\Users\user\AppData\Local\Temp\ccSIFDDJ.s 			page 97


 4148 1248 51       		.byte	0x51
 4149 1249 2B       		.uleb128 0x2b
 4150 124a 6900     		.ascii	"i\000"
 4151 124c 01       		.byte	0x1
 4152 124d 26       		.byte	0x26
 4153 124e 94000000 		.4byte	0x94
 4154 1252 97000000 		.4byte	.LLST4
 4155 1256 2C       		.uleb128 0x2c
 4156 1257 6D617800 		.ascii	"max\000"
 4157 125b 01       		.byte	0x1
 4158 125c 28       		.byte	0x28
 4159 125d CE000000 		.4byte	0xce
 4160 1261 01       		.uleb128 0x1
 4161 1262 50       		.byte	0x50
 4162 1263 00       		.byte	0
 4163 1264 28       		.uleb128 0x28
 4164 1265 B4070000 		.4byte	.LASF294
 4165 1269 01       		.byte	0x1
 4166 126a 31       		.byte	0x31
 4167 126b CE000000 		.4byte	0xce
 4168 126f 00000000 		.4byte	.LFB695
 4169 1273 20000000 		.4byte	.LFE695-.LFB695
 4170 1277 01       		.uleb128 0x1
 4171 1278 9C       		.byte	0x9c
 4172 1279 B2120000 		.4byte	0x12b2
 4173 127d 29       		.uleb128 0x29
 4174 127e 61727200 		.ascii	"arr\000"
 4175 1282 01       		.byte	0x1
 4176 1283 31       		.byte	0x31
 4177 1284 02070000 		.4byte	0x702
 4178 1288 B6000000 		.4byte	.LLST5
 4179 128c 2A       		.uleb128 0x2a
 4180 128d 6E00     		.ascii	"n\000"
 4181 128f 01       		.byte	0x1
 4182 1290 31       		.byte	0x31
 4183 1291 94000000 		.4byte	0x94
 4184 1295 01       		.uleb128 0x1
 4185 1296 51       		.byte	0x51
 4186 1297 2B       		.uleb128 0x2b
 4187 1298 6900     		.ascii	"i\000"
 4188 129a 01       		.byte	0x1
 4189 129b 33       		.byte	0x33
 4190 129c 94000000 		.4byte	0x94
 4191 12a0 E2000000 		.4byte	.LLST6
 4192 12a4 2C       		.uleb128 0x2c
 4193 12a5 6D696E00 		.ascii	"min\000"
 4194 12a9 01       		.byte	0x1
 4195 12aa 35       		.byte	0x35
 4196 12ab CE000000 		.4byte	0xce
 4197 12af 01       		.uleb128 0x1
 4198 12b0 50       		.byte	0x50
 4199 12b1 00       		.byte	0
 4200 12b2 21       		.uleb128 0x21
 4201 12b3 25060000 		.4byte	.LASF296
 4202 12b7 01       		.byte	0x1
 4203 12b8 42       		.byte	0x42
 4204 12b9 00000000 		.4byte	.LFB696
ARM GAS  C:\Users\user\AppData\Local\Temp\ccSIFDDJ.s 			page 98


 4205 12bd 2C010000 		.4byte	.LFE696-.LFB696
 4206 12c1 01       		.uleb128 0x1
 4207 12c2 9C       		.byte	0x9c
 4208 12c3 EC140000 		.4byte	0x14ec
 4209 12c7 22       		.uleb128 0x22
 4210 12c8 23080000 		.4byte	.LASF297
 4211 12cc 01       		.byte	0x1
 4212 12cd 42       		.byte	0x42
 4213 12ce 02070000 		.4byte	0x702
 4214 12d2 01010000 		.4byte	.LLST7
 4215 12d6 22       		.uleb128 0x22
 4216 12d7 14140000 		.4byte	.LASF298
 4217 12db 01       		.byte	0x1
 4218 12dc 42       		.byte	0x42
 4219 12dd A2000000 		.4byte	0xa2
 4220 12e1 2D010000 		.4byte	.LLST8
 4221 12e5 22       		.uleb128 0x22
 4222 12e6 F3040000 		.4byte	.LASF299
 4223 12ea 01       		.byte	0x1
 4224 12eb 42       		.byte	0x42
 4225 12ec 94000000 		.4byte	0x94
 4226 12f0 4E010000 		.4byte	.LLST9
 4227 12f4 2B       		.uleb128 0x2b
 4228 12f5 7A00     		.ascii	"z\000"
 4229 12f7 01       		.byte	0x1
 4230 12f8 4D       		.byte	0x4d
 4231 12f9 94000000 		.4byte	0x94
 4232 12fd 7A010000 		.4byte	.LLST10
 4233 1301 23       		.uleb128 0x23
 4234 1302 4E0C0000 		.4byte	.LASF300
 4235 1306 01       		.byte	0x1
 4236 1307 4E       		.byte	0x4e
 4237 1308 94000000 		.4byte	0x94
 4238 130c 99010000 		.4byte	.LLST11
 4239 1310 23       		.uleb128 0x23
 4240 1311 E9100000 		.4byte	.LASF301
 4241 1315 01       		.byte	0x1
 4242 1316 5A       		.byte	0x5a
 4243 1317 CE000000 		.4byte	0xce
 4244 131b BE010000 		.4byte	.LLST12
 4245 131f 23       		.uleb128 0x23
 4246 1320 0B010000 		.4byte	.LASF302
 4247 1324 01       		.byte	0x1
 4248 1325 5B       		.byte	0x5b
 4249 1326 CE000000 		.4byte	0xce
 4250 132a DD010000 		.4byte	.LLST13
 4251 132e 2B       		.uleb128 0x2b
 4252 132f 6100     		.ascii	"a\000"
 4253 1331 01       		.byte	0x1
 4254 1332 67       		.byte	0x67
 4255 1333 94000000 		.4byte	0x94
 4256 1337 FC010000 		.4byte	.LLST14
 4257 133b 2D       		.uleb128 0x2d
 4258 133c 00000000 		.4byte	.Ldebug_ranges0+0
 4259 1340 52130000 		.4byte	0x1352
 4260 1344 2B       		.uleb128 0x2b
 4261 1345 7800     		.ascii	"x\000"
ARM GAS  C:\Users\user\AppData\Local\Temp\ccSIFDDJ.s 			page 99


 4262 1347 01       		.byte	0x1
 4263 1348 4F       		.byte	0x4f
 4264 1349 94000000 		.4byte	0x94
 4265 134d 0F020000 		.4byte	.LLST15
 4266 1351 00       		.byte	0
 4267 1352 2E       		.uleb128 0x2e
 4268 1353 4C000000 		.4byte	.LBB16
 4269 1357 30000000 		.4byte	.LBE16-.LBB16
 4270 135b 6D130000 		.4byte	0x136d
 4271 135f 2B       		.uleb128 0x2b
 4272 1360 7900     		.ascii	"y\000"
 4273 1362 01       		.byte	0x1
 4274 1363 62       		.byte	0x62
 4275 1364 94000000 		.4byte	0x94
 4276 1368 30020000 		.4byte	.LLST16
 4277 136c 00       		.byte	0
 4278 136d 2E       		.uleb128 0x2e
 4279 136e 7C000000 		.4byte	.LBB17
 4280 1372 14000000 		.4byte	.LBE17-.LBB17
 4281 1376 88130000 		.4byte	0x1388
 4282 137a 2B       		.uleb128 0x2b
 4283 137b 6200     		.ascii	"b\000"
 4284 137d 01       		.byte	0x1
 4285 137e 68       		.byte	0x68
 4286 137f 94000000 		.4byte	0x94
 4287 1383 4F020000 		.4byte	.LLST17
 4288 1387 00       		.byte	0
 4289 1388 25       		.uleb128 0x25
 4290 1389 10000000 		.4byte	.LVL21
 4291 138d 23250000 		.4byte	0x2523
 4292 1391 9B130000 		.4byte	0x139b
 4293 1395 26       		.uleb128 0x26
 4294 1396 01       		.uleb128 0x1
 4295 1397 50       		.byte	0x50
 4296 1398 01       		.uleb128 0x1
 4297 1399 31       		.byte	0x31
 4298 139a 00       		.byte	0
 4299 139b 25       		.uleb128 0x25
 4300 139c 34000000 		.4byte	.LVL27
 4301 13a0 16120000 		.4byte	0x1216
 4302 13a4 B5130000 		.4byte	0x13b5
 4303 13a8 26       		.uleb128 0x26
 4304 13a9 01       		.uleb128 0x1
 4305 13aa 50       		.byte	0x50
 4306 13ab 02       		.uleb128 0x2
 4307 13ac 76       		.byte	0x76
 4308 13ad 00       		.sleb128 0
 4309 13ae 26       		.uleb128 0x26
 4310 13af 01       		.uleb128 0x1
 4311 13b0 51       		.byte	0x51
 4312 13b1 02       		.uleb128 0x2
 4313 13b2 75       		.byte	0x75
 4314 13b3 00       		.sleb128 0
 4315 13b4 00       		.byte	0
 4316 13b5 25       		.uleb128 0x25
 4317 13b6 46000000 		.4byte	.LVL29
 4318 13ba 64120000 		.4byte	0x1264
ARM GAS  C:\Users\user\AppData\Local\Temp\ccSIFDDJ.s 			page 100


 4319 13be CF130000 		.4byte	0x13cf
 4320 13c2 26       		.uleb128 0x26
 4321 13c3 01       		.uleb128 0x1
 4322 13c4 50       		.byte	0x50
 4323 13c5 02       		.uleb128 0x2
 4324 13c6 76       		.byte	0x76
 4325 13c7 00       		.sleb128 0
 4326 13c8 26       		.uleb128 0x26
 4327 13c9 01       		.uleb128 0x1
 4328 13ca 51       		.byte	0x51
 4329 13cb 02       		.uleb128 0x2
 4330 13cc 78       		.byte	0x78
 4331 13cd 00       		.sleb128 0
 4332 13ce 00       		.byte	0
 4333 13cf 25       		.uleb128 0x25
 4334 13d0 9C000000 		.4byte	.LVL38
 4335 13d4 2F250000 		.4byte	0x252f
 4336 13d8 F6130000 		.4byte	0x13f6
 4337 13dc 26       		.uleb128 0x26
 4338 13dd 01       		.uleb128 0x1
 4339 13de 50       		.byte	0x50
 4340 13df 05       		.uleb128 0x5
 4341 13e0 03       		.byte	0x3
 4342 13e1 00000000 		.4byte	vecteurespacee
 4343 13e5 26       		.uleb128 0x26
 4344 13e6 01       		.uleb128 0x1
 4345 13e7 51       		.byte	0x51
 4346 13e8 02       		.uleb128 0x2
 4347 13e9 08       		.byte	0x8
 4348 13ea FA       		.byte	0xfa
 4349 13eb 26       		.uleb128 0x26
 4350 13ec 01       		.uleb128 0x1
 4351 13ed 52       		.byte	0x52
 4352 13ee 01       		.uleb128 0x1
 4353 13ef 35       		.byte	0x35
 4354 13f0 26       		.uleb128 0x26
 4355 13f1 01       		.uleb128 0x1
 4356 13f2 53       		.byte	0x53
 4357 13f3 01       		.uleb128 0x1
 4358 13f4 44       		.byte	0x44
 4359 13f5 00       		.byte	0
 4360 13f6 25       		.uleb128 0x25
 4361 13f7 AA000000 		.4byte	.LVL39
 4362 13fb 3B250000 		.4byte	0x253b
 4363 13ff 1B140000 		.4byte	0x141b
 4364 1403 26       		.uleb128 0x26
 4365 1404 01       		.uleb128 0x1
 4366 1405 50       		.byte	0x50
 4367 1406 01       		.uleb128 0x1
 4368 1407 31       		.byte	0x31
 4369 1408 26       		.uleb128 0x26
 4370 1409 01       		.uleb128 0x1
 4371 140a 51       		.byte	0x51
 4372 140b 01       		.uleb128 0x1
 4373 140c 31       		.byte	0x31
 4374 140d 26       		.uleb128 0x26
 4375 140e 01       		.uleb128 0x1
ARM GAS  C:\Users\user\AppData\Local\Temp\ccSIFDDJ.s 			page 101


 4376 140f 52       		.byte	0x52
 4377 1410 03       		.uleb128 0x3
 4378 1411 0A       		.byte	0xa
 4379 1412 0701     		.2byte	0x107
 4380 1414 26       		.uleb128 0x26
 4381 1415 01       		.uleb128 0x1
 4382 1416 53       		.byte	0x53
 4383 1417 02       		.uleb128 0x2
 4384 1418 08       		.byte	0x8
 4385 1419 7D       		.byte	0x7d
 4386 141a 00       		.byte	0
 4387 141b 25       		.uleb128 0x25
 4388 141c B8000000 		.4byte	.LVL40
 4389 1420 3B250000 		.4byte	0x253b
 4390 1424 42140000 		.4byte	0x1442
 4391 1428 26       		.uleb128 0x26
 4392 1429 01       		.uleb128 0x1
 4393 142a 50       		.byte	0x50
 4394 142b 02       		.uleb128 0x2
 4395 142c 08       		.byte	0x8
 4396 142d 99       		.byte	0x99
 4397 142e 26       		.uleb128 0x26
 4398 142f 01       		.uleb128 0x1
 4399 1430 51       		.byte	0x51
 4400 1431 02       		.uleb128 0x2
 4401 1432 08       		.byte	0x8
 4402 1433 81       		.byte	0x81
 4403 1434 26       		.uleb128 0x26
 4404 1435 01       		.uleb128 0x1
 4405 1436 52       		.byte	0x52
 4406 1437 03       		.uleb128 0x3
 4407 1438 0A       		.byte	0xa
 4408 1439 0701     		.2byte	0x107
 4409 143b 26       		.uleb128 0x26
 4410 143c 01       		.uleb128 0x1
 4411 143d 53       		.byte	0x53
 4412 143e 02       		.uleb128 0x2
 4413 143f 08       		.byte	0x8
 4414 1440 AF       		.byte	0xaf
 4415 1441 00       		.byte	0
 4416 1442 25       		.uleb128 0x25
 4417 1443 C2000000 		.4byte	.LVL41
 4418 1447 47250000 		.4byte	0x2547
 4419 144b 65140000 		.4byte	0x1465
 4420 144f 26       		.uleb128 0x26
 4421 1450 01       		.uleb128 0x1
 4422 1451 50       		.byte	0x50
 4423 1452 05       		.uleb128 0x5
 4424 1453 03       		.byte	0x3
 4425 1454 00000000 		.4byte	.LC0
 4426 1458 26       		.uleb128 0x26
 4427 1459 01       		.uleb128 0x1
 4428 145a 51       		.byte	0x51
 4429 145b 02       		.uleb128 0x2
 4430 145c 08       		.byte	0x8
 4431 145d A0       		.byte	0xa0
 4432 145e 26       		.uleb128 0x26
ARM GAS  C:\Users\user\AppData\Local\Temp\ccSIFDDJ.s 			page 102


 4433 145f 01       		.uleb128 0x1
 4434 1460 52       		.byte	0x52
 4435 1461 02       		.uleb128 0x2
 4436 1462 08       		.byte	0x8
 4437 1463 85       		.byte	0x85
 4438 1464 00       		.byte	0
 4439 1465 24       		.uleb128 0x24
 4440 1466 C8000000 		.4byte	.LVL42
 4441 146a 53250000 		.4byte	0x2553
 4442 146e 25       		.uleb128 0x25
 4443 146f D2000000 		.4byte	.LVL43
 4444 1473 47250000 		.4byte	0x2547
 4445 1477 91140000 		.4byte	0x1491
 4446 147b 26       		.uleb128 0x26
 4447 147c 01       		.uleb128 0x1
 4448 147d 50       		.byte	0x50
 4449 147e 05       		.uleb128 0x5
 4450 147f 03       		.byte	0x3
 4451 1480 14000000 		.4byte	.LC1
 4452 1484 26       		.uleb128 0x26
 4453 1485 01       		.uleb128 0x1
 4454 1486 51       		.byte	0x51
 4455 1487 02       		.uleb128 0x2
 4456 1488 08       		.byte	0x8
 4457 1489 9B       		.byte	0x9b
 4458 148a 26       		.uleb128 0x26
 4459 148b 01       		.uleb128 0x1
 4460 148c 52       		.byte	0x52
 4461 148d 02       		.uleb128 0x2
 4462 148e 08       		.byte	0x8
 4463 148f 8F       		.byte	0x8f
 4464 1490 00       		.byte	0
 4465 1491 25       		.uleb128 0x25
 4466 1492 E6000000 		.4byte	.LVL44
 4467 1496 47250000 		.4byte	0x2547
 4468 149a B4140000 		.4byte	0x14b4
 4469 149e 26       		.uleb128 0x26
 4470 149f 01       		.uleb128 0x1
 4471 14a0 50       		.byte	0x50
 4472 14a1 05       		.uleb128 0x5
 4473 14a2 03       		.byte	0x3
 4474 14a3 1C000000 		.4byte	.LC2
 4475 14a7 26       		.uleb128 0x26
 4476 14a8 01       		.uleb128 0x1
 4477 14a9 51       		.byte	0x51
 4478 14aa 02       		.uleb128 0x2
 4479 14ab 08       		.byte	0x8
 4480 14ac 9B       		.byte	0x9b
 4481 14ad 26       		.uleb128 0x26
 4482 14ae 01       		.uleb128 0x1
 4483 14af 52       		.byte	0x52
 4484 14b0 02       		.uleb128 0x2
 4485 14b1 08       		.byte	0x8
 4486 14b2 9D       		.byte	0x9d
 4487 14b3 00       		.byte	0
 4488 14b4 25       		.uleb128 0x25
 4489 14b5 FA000000 		.4byte	.LVL45
ARM GAS  C:\Users\user\AppData\Local\Temp\ccSIFDDJ.s 			page 103


 4490 14b9 47250000 		.4byte	0x2547
 4491 14bd D7140000 		.4byte	0x14d7
 4492 14c1 26       		.uleb128 0x26
 4493 14c2 01       		.uleb128 0x1
 4494 14c3 50       		.byte	0x50
 4495 14c4 05       		.uleb128 0x5
 4496 14c5 03       		.byte	0x3
 4497 14c6 28000000 		.4byte	.LC3
 4498 14ca 26       		.uleb128 0x26
 4499 14cb 01       		.uleb128 0x1
 4500 14cc 51       		.byte	0x51
 4501 14cd 02       		.uleb128 0x2
 4502 14ce 08       		.byte	0x8
 4503 14cf 9B       		.byte	0x9b
 4504 14d0 26       		.uleb128 0x26
 4505 14d1 01       		.uleb128 0x1
 4506 14d2 52       		.byte	0x52
 4507 14d3 02       		.uleb128 0x2
 4508 14d4 08       		.byte	0x8
 4509 14d5 9D       		.byte	0x9d
 4510 14d6 00       		.byte	0
 4511 14d7 27       		.uleb128 0x27
 4512 14d8 02010000 		.4byte	.LVL46
 4513 14dc 81110000 		.4byte	0x1181
 4514 14e0 26       		.uleb128 0x26
 4515 14e1 01       		.uleb128 0x1
 4516 14e2 50       		.byte	0x50
 4517 14e3 01       		.uleb128 0x1
 4518 14e4 31       		.byte	0x31
 4519 14e5 26       		.uleb128 0x26
 4520 14e6 01       		.uleb128 0x1
 4521 14e7 51       		.byte	0x51
 4522 14e8 01       		.uleb128 0x1
 4523 14e9 31       		.byte	0x31
 4524 14ea 00       		.byte	0
 4525 14eb 00       		.byte	0
 4526 14ec 21       		.uleb128 0x21
 4527 14ed 1D090000 		.4byte	.LASF303
 4528 14f1 01       		.byte	0x1
 4529 14f2 80       		.byte	0x80
 4530 14f3 00000000 		.4byte	.LFB697
 4531 14f7 70000000 		.4byte	.LFE697-.LFB697
 4532 14fb 01       		.uleb128 0x1
 4533 14fc 9C       		.byte	0x9c
 4534 14fd 30160000 		.4byte	0x1630
 4535 1501 22       		.uleb128 0x22
 4536 1502 D8130000 		.4byte	.LASF304
 4537 1506 01       		.byte	0x1
 4538 1507 80       		.byte	0x80
 4539 1508 94000000 		.4byte	0x94
 4540 150c 62020000 		.4byte	.LLST18
 4541 1510 22       		.uleb128 0x22
 4542 1511 BA0B0000 		.4byte	.LASF305
 4543 1515 01       		.byte	0x1
 4544 1516 80       		.byte	0x80
 4545 1517 94000000 		.4byte	0x94
 4546 151b 8E020000 		.4byte	.LLST19
ARM GAS  C:\Users\user\AppData\Local\Temp\ccSIFDDJ.s 			page 104


 4547 151f 2F       		.uleb128 0x2f
 4548 1520 4E020000 		.4byte	.LASF306
 4549 1524 01       		.byte	0x1
 4550 1525 83       		.byte	0x83
 4551 1526 30160000 		.4byte	0x1630
 4552 152a 03       		.uleb128 0x3
 4553 152b 91       		.byte	0x91
 4554 152c BC7F     		.sleb128 -68
 4555 152e 2F       		.uleb128 0x2f
 4556 152f EB060000 		.4byte	.LASF307
 4557 1533 01       		.byte	0x1
 4558 1534 84       		.byte	0x84
 4559 1535 30160000 		.4byte	0x1630
 4560 1539 03       		.uleb128 0x3
 4561 153a 91       		.byte	0x91
 4562 153b 887F     		.sleb128 -120
 4563 153d 24       		.uleb128 0x24
 4564 153e 0C000000 		.4byte	.LVL49
 4565 1542 5F250000 		.4byte	0x255f
 4566 1546 25       		.uleb128 0x25
 4567 1547 16000000 		.4byte	.LVL50
 4568 154b 6B250000 		.4byte	0x256b
 4569 154f 6A150000 		.4byte	0x156a
 4570 1553 26       		.uleb128 0x26
 4571 1554 01       		.uleb128 0x1
 4572 1555 50       		.byte	0x50
 4573 1556 03       		.uleb128 0x3
 4574 1557 91       		.byte	0x91
 4575 1558 BC7F     		.sleb128 -68
 4576 155a 26       		.uleb128 0x26
 4577 155b 01       		.uleb128 0x1
 4578 155c 51       		.byte	0x51
 4579 155d 05       		.uleb128 0x5
 4580 155e 03       		.byte	0x3
 4581 155f 30000000 		.4byte	.LC4
 4582 1563 26       		.uleb128 0x26
 4583 1564 01       		.uleb128 0x1
 4584 1565 52       		.byte	0x52
 4585 1566 02       		.uleb128 0x2
 4586 1567 75       		.byte	0x75
 4587 1568 00       		.sleb128 0
 4588 1569 00       		.byte	0
 4589 156a 25       		.uleb128 0x25
 4590 156b 20000000 		.4byte	.LVL51
 4591 156f 6B250000 		.4byte	0x256b
 4592 1573 8D150000 		.4byte	0x158d
 4593 1577 26       		.uleb128 0x26
 4594 1578 01       		.uleb128 0x1
 4595 1579 50       		.byte	0x50
 4596 157a 02       		.uleb128 0x2
 4597 157b 7D       		.byte	0x7d
 4598 157c 00       		.sleb128 0
 4599 157d 26       		.uleb128 0x26
 4600 157e 01       		.uleb128 0x1
 4601 157f 51       		.byte	0x51
 4602 1580 05       		.uleb128 0x5
 4603 1581 03       		.byte	0x3
ARM GAS  C:\Users\user\AppData\Local\Temp\ccSIFDDJ.s 			page 105


 4604 1582 4C000000 		.4byte	.LC5
 4605 1586 26       		.uleb128 0x26
 4606 1587 01       		.uleb128 0x1
 4607 1588 52       		.byte	0x52
 4608 1589 02       		.uleb128 0x2
 4609 158a 74       		.byte	0x74
 4610 158b 00       		.sleb128 0
 4611 158c 00       		.byte	0
 4612 158d 24       		.uleb128 0x24
 4613 158e 26000000 		.4byte	.LVL52
 4614 1592 53250000 		.4byte	0x2553
 4615 1596 25       		.uleb128 0x25
 4616 1597 30000000 		.4byte	.LVL53
 4617 159b 47250000 		.4byte	0x2547
 4618 159f B6150000 		.4byte	0x15b6
 4619 15a3 26       		.uleb128 0x26
 4620 15a4 01       		.uleb128 0x1
 4621 15a5 50       		.byte	0x50
 4622 15a6 03       		.uleb128 0x3
 4623 15a7 91       		.byte	0x91
 4624 15a8 BC7F     		.sleb128 -68
 4625 15aa 26       		.uleb128 0x26
 4626 15ab 01       		.uleb128 0x1
 4627 15ac 51       		.byte	0x51
 4628 15ad 01       		.uleb128 0x1
 4629 15ae 33       		.byte	0x33
 4630 15af 26       		.uleb128 0x26
 4631 15b0 01       		.uleb128 0x1
 4632 15b1 52       		.byte	0x52
 4633 15b2 02       		.uleb128 0x2
 4634 15b3 08       		.byte	0x8
 4635 15b4 8C       		.byte	0x8c
 4636 15b5 00       		.byte	0
 4637 15b6 25       		.uleb128 0x25
 4638 15b7 3A000000 		.4byte	.LVL54
 4639 15bb 47250000 		.4byte	0x2547
 4640 15bf D9150000 		.4byte	0x15d9
 4641 15c3 26       		.uleb128 0x26
 4642 15c4 01       		.uleb128 0x1
 4643 15c5 50       		.byte	0x50
 4644 15c6 05       		.uleb128 0x5
 4645 15c7 03       		.byte	0x3
 4646 15c8 60000000 		.4byte	.LC6
 4647 15cc 26       		.uleb128 0x26
 4648 15cd 01       		.uleb128 0x1
 4649 15ce 51       		.byte	0x51
 4650 15cf 02       		.uleb128 0x2
 4651 15d0 08       		.byte	0x8
 4652 15d1 7D       		.byte	0x7d
 4653 15d2 26       		.uleb128 0x26
 4654 15d3 01       		.uleb128 0x1
 4655 15d4 52       		.byte	0x52
 4656 15d5 02       		.uleb128 0x2
 4657 15d6 08       		.byte	0x8
 4658 15d7 8C       		.byte	0x8c
 4659 15d8 00       		.byte	0
 4660 15d9 25       		.uleb128 0x25
ARM GAS  C:\Users\user\AppData\Local\Temp\ccSIFDDJ.s 			page 106


 4661 15da 44000000 		.4byte	.LVL55
 4662 15de 47250000 		.4byte	0x2547
 4663 15e2 F8150000 		.4byte	0x15f8
 4664 15e6 26       		.uleb128 0x26
 4665 15e7 01       		.uleb128 0x1
 4666 15e8 50       		.byte	0x50
 4667 15e9 02       		.uleb128 0x2
 4668 15ea 7D       		.byte	0x7d
 4669 15eb 00       		.sleb128 0
 4670 15ec 26       		.uleb128 0x26
 4671 15ed 01       		.uleb128 0x1
 4672 15ee 51       		.byte	0x51
 4673 15ef 01       		.uleb128 0x1
 4674 15f0 33       		.byte	0x33
 4675 15f1 26       		.uleb128 0x26
 4676 15f2 01       		.uleb128 0x1
 4677 15f3 52       		.byte	0x52
 4678 15f4 02       		.uleb128 0x2
 4679 15f5 08       		.byte	0x8
 4680 15f6 A0       		.byte	0xa0
 4681 15f7 00       		.byte	0
 4682 15f8 25       		.uleb128 0x25
 4683 15f9 4E000000 		.4byte	.LVL56
 4684 15fd 47250000 		.4byte	0x2547
 4685 1601 1B160000 		.4byte	0x161b
 4686 1605 26       		.uleb128 0x26
 4687 1606 01       		.uleb128 0x1
 4688 1607 50       		.byte	0x50
 4689 1608 05       		.uleb128 0x5
 4690 1609 03       		.byte	0x3
 4691 160a 68000000 		.4byte	.LC7
 4692 160e 26       		.uleb128 0x26
 4693 160f 01       		.uleb128 0x1
 4694 1610 51       		.byte	0x51
 4695 1611 02       		.uleb128 0x2
 4696 1612 08       		.byte	0x8
 4697 1613 62       		.byte	0x62
 4698 1614 26       		.uleb128 0x26
 4699 1615 01       		.uleb128 0x1
 4700 1616 52       		.byte	0x52
 4701 1617 02       		.uleb128 0x2
 4702 1618 08       		.byte	0x8
 4703 1619 A0       		.byte	0xa0
 4704 161a 00       		.byte	0
 4705 161b 27       		.uleb128 0x27
 4706 161c 56000000 		.4byte	.LVL57
 4707 1620 81110000 		.4byte	0x1181
 4708 1624 26       		.uleb128 0x26
 4709 1625 01       		.uleb128 0x1
 4710 1626 50       		.byte	0x50
 4711 1627 01       		.uleb128 0x1
 4712 1628 31       		.byte	0x31
 4713 1629 26       		.uleb128 0x26
 4714 162a 01       		.uleb128 0x1
 4715 162b 51       		.byte	0x51
 4716 162c 01       		.uleb128 0x1
 4717 162d 31       		.byte	0x31
ARM GAS  C:\Users\user\AppData\Local\Temp\ccSIFDDJ.s 			page 107


 4718 162e 00       		.byte	0
 4719 162f 00       		.byte	0
 4720 1630 07       		.uleb128 0x7
 4721 1631 D5060000 		.4byte	0x6d5
 4722 1635 40160000 		.4byte	0x1640
 4723 1639 08       		.uleb128 0x8
 4724 163a D9000000 		.4byte	0xd9
 4725 163e 31       		.byte	0x31
 4726 163f 00       		.byte	0
 4727 1640 21       		.uleb128 0x21
 4728 1641 4A110000 		.4byte	.LASF308
 4729 1645 01       		.byte	0x1
 4730 1646 92       		.byte	0x92
 4731 1647 00000000 		.4byte	.LFB698
 4732 164b 8C000000 		.4byte	.LFE698-.LFB698
 4733 164f 01       		.uleb128 0x1
 4734 1650 9C       		.byte	0x9c
 4735 1651 91170000 		.4byte	0x1791
 4736 1655 22       		.uleb128 0x22
 4737 1656 F80E0000 		.4byte	.LASF309
 4738 165a 01       		.byte	0x1
 4739 165b 92       		.byte	0x92
 4740 165c A2000000 		.4byte	0xa2
 4741 1660 BA020000 		.4byte	.LLST20
 4742 1664 24       		.uleb128 0x24
 4743 1665 08000000 		.4byte	.LVL60
 4744 1669 5F250000 		.4byte	0x255f
 4745 166d 24       		.uleb128 0x24
 4746 166e 0E000000 		.4byte	.LVL61
 4747 1672 53250000 		.4byte	0x2553
 4748 1676 25       		.uleb128 0x25
 4749 1677 14000000 		.4byte	.LVL62
 4750 167b 76250000 		.4byte	0x2576
 4751 167f 89160000 		.4byte	0x1689
 4752 1683 26       		.uleb128 0x26
 4753 1684 01       		.uleb128 0x1
 4754 1685 50       		.byte	0x50
 4755 1686 01       		.uleb128 0x1
 4756 1687 32       		.byte	0x32
 4757 1688 00       		.byte	0
 4758 1689 25       		.uleb128 0x25
 4759 168a 1E000000 		.4byte	.LVL63
 4760 168e 47250000 		.4byte	0x2547
 4761 1692 AB160000 		.4byte	0x16ab
 4762 1696 26       		.uleb128 0x26
 4763 1697 01       		.uleb128 0x1
 4764 1698 50       		.byte	0x50
 4765 1699 05       		.uleb128 0x5
 4766 169a 03       		.byte	0x3
 4767 169b 6C000000 		.4byte	.LC8
 4768 169f 26       		.uleb128 0x26
 4769 16a0 01       		.uleb128 0x1
 4770 16a1 51       		.byte	0x51
 4771 16a2 02       		.uleb128 0x2
 4772 16a3 08       		.byte	0x8
 4773 16a4 84       		.byte	0x84
 4774 16a5 26       		.uleb128 0x26
ARM GAS  C:\Users\user\AppData\Local\Temp\ccSIFDDJ.s 			page 108


 4775 16a6 01       		.uleb128 0x1
 4776 16a7 52       		.byte	0x52
 4777 16a8 01       		.uleb128 0x1
 4778 16a9 32       		.byte	0x32
 4779 16aa 00       		.byte	0
 4780 16ab 24       		.uleb128 0x24
 4781 16ac 24000000 		.4byte	.LVL64
 4782 16b0 53250000 		.4byte	0x2553
 4783 16b4 25       		.uleb128 0x25
 4784 16b5 2E000000 		.4byte	.LVL65
 4785 16b9 47250000 		.4byte	0x2547
 4786 16bd D6160000 		.4byte	0x16d6
 4787 16c1 26       		.uleb128 0x26
 4788 16c2 01       		.uleb128 0x1
 4789 16c3 50       		.byte	0x50
 4790 16c4 05       		.uleb128 0x5
 4791 16c5 03       		.byte	0x3
 4792 16c6 74000000 		.4byte	.LC9
 4793 16ca 26       		.uleb128 0x26
 4794 16cb 01       		.uleb128 0x1
 4795 16cc 51       		.byte	0x51
 4796 16cd 01       		.uleb128 0x1
 4797 16ce 3F       		.byte	0x3f
 4798 16cf 26       		.uleb128 0x26
 4799 16d0 01       		.uleb128 0x1
 4800 16d1 52       		.byte	0x52
 4801 16d2 02       		.uleb128 0x2
 4802 16d3 08       		.byte	0x8
 4803 16d4 28       		.byte	0x28
 4804 16d5 00       		.byte	0
 4805 16d6 25       		.uleb128 0x25
 4806 16d7 38000000 		.4byte	.LVL66
 4807 16db 47250000 		.4byte	0x2547
 4808 16df F8160000 		.4byte	0x16f8
 4809 16e3 26       		.uleb128 0x26
 4810 16e4 01       		.uleb128 0x1
 4811 16e5 50       		.byte	0x50
 4812 16e6 05       		.uleb128 0x5
 4813 16e7 03       		.byte	0x3
 4814 16e8 94000000 		.4byte	.LC10
 4815 16ec 26       		.uleb128 0x26
 4816 16ed 01       		.uleb128 0x1
 4817 16ee 51       		.byte	0x51
 4818 16ef 01       		.uleb128 0x1
 4819 16f0 3F       		.byte	0x3f
 4820 16f1 26       		.uleb128 0x26
 4821 16f2 01       		.uleb128 0x1
 4822 16f3 52       		.byte	0x52
 4823 16f4 02       		.uleb128 0x2
 4824 16f5 08       		.byte	0x8
 4825 16f6 46       		.byte	0x46
 4826 16f7 00       		.byte	0
 4827 16f8 25       		.uleb128 0x25
 4828 16f9 42000000 		.4byte	.LVL67
 4829 16fd 47250000 		.4byte	0x2547
 4830 1701 1A170000 		.4byte	0x171a
 4831 1705 26       		.uleb128 0x26
ARM GAS  C:\Users\user\AppData\Local\Temp\ccSIFDDJ.s 			page 109


 4832 1706 01       		.uleb128 0x1
 4833 1707 50       		.byte	0x50
 4834 1708 05       		.uleb128 0x5
 4835 1709 03       		.byte	0x3
 4836 170a B8000000 		.4byte	.LC11
 4837 170e 26       		.uleb128 0x26
 4838 170f 01       		.uleb128 0x1
 4839 1710 51       		.byte	0x51
 4840 1711 01       		.uleb128 0x1
 4841 1712 3F       		.byte	0x3f
 4842 1713 26       		.uleb128 0x26
 4843 1714 01       		.uleb128 0x1
 4844 1715 52       		.byte	0x52
 4845 1716 02       		.uleb128 0x2
 4846 1717 08       		.byte	0x8
 4847 1718 64       		.byte	0x64
 4848 1719 00       		.byte	0
 4849 171a 25       		.uleb128 0x25
 4850 171b 4C000000 		.4byte	.LVL68
 4851 171f 47250000 		.4byte	0x2547
 4852 1723 3C170000 		.4byte	0x173c
 4853 1727 26       		.uleb128 0x26
 4854 1728 01       		.uleb128 0x1
 4855 1729 50       		.byte	0x50
 4856 172a 05       		.uleb128 0x5
 4857 172b 03       		.byte	0x3
 4858 172c DC000000 		.4byte	.LC12
 4859 1730 26       		.uleb128 0x26
 4860 1731 01       		.uleb128 0x1
 4861 1732 51       		.byte	0x51
 4862 1733 01       		.uleb128 0x1
 4863 1734 3F       		.byte	0x3f
 4864 1735 26       		.uleb128 0x26
 4865 1736 01       		.uleb128 0x1
 4866 1737 52       		.byte	0x52
 4867 1738 02       		.uleb128 0x2
 4868 1739 08       		.byte	0x8
 4869 173a 82       		.byte	0x82
 4870 173b 00       		.byte	0
 4871 173c 25       		.uleb128 0x25
 4872 173d 56000000 		.4byte	.LVL69
 4873 1741 47250000 		.4byte	0x2547
 4874 1745 5E170000 		.4byte	0x175e
 4875 1749 26       		.uleb128 0x26
 4876 174a 01       		.uleb128 0x1
 4877 174b 50       		.byte	0x50
 4878 174c 05       		.uleb128 0x5
 4879 174d 03       		.byte	0x3
 4880 174e 00010000 		.4byte	.LC13
 4881 1752 26       		.uleb128 0x26
 4882 1753 01       		.uleb128 0x1
 4883 1754 51       		.byte	0x51
 4884 1755 01       		.uleb128 0x1
 4885 1756 3F       		.byte	0x3f
 4886 1757 26       		.uleb128 0x26
 4887 1758 01       		.uleb128 0x1
 4888 1759 52       		.byte	0x52
ARM GAS  C:\Users\user\AppData\Local\Temp\ccSIFDDJ.s 			page 110


 4889 175a 02       		.uleb128 0x2
 4890 175b 08       		.byte	0x8
 4891 175c A0       		.byte	0xa0
 4892 175d 00       		.byte	0
 4893 175e 25       		.uleb128 0x25
 4894 175f 60000000 		.4byte	.LVL70
 4895 1763 82250000 		.4byte	0x2582
 4896 1767 7C170000 		.4byte	0x177c
 4897 176b 26       		.uleb128 0x26
 4898 176c 01       		.uleb128 0x1
 4899 176d 50       		.byte	0x50
 4900 176e 01       		.uleb128 0x1
 4901 176f 34       		.byte	0x34
 4902 1770 26       		.uleb128 0x26
 4903 1771 01       		.uleb128 0x1
 4904 1772 51       		.byte	0x51
 4905 1773 02       		.uleb128 0x2
 4906 1774 74       		.byte	0x74
 4907 1775 02       		.sleb128 2
 4908 1776 26       		.uleb128 0x26
 4909 1777 01       		.uleb128 0x1
 4910 1778 52       		.byte	0x52
 4911 1779 01       		.uleb128 0x1
 4912 177a 33       		.byte	0x33
 4913 177b 00       		.byte	0
 4914 177c 27       		.uleb128 0x27
 4915 177d 68000000 		.4byte	.LVL71
 4916 1781 81110000 		.4byte	0x1181
 4917 1785 26       		.uleb128 0x26
 4918 1786 01       		.uleb128 0x1
 4919 1787 50       		.byte	0x50
 4920 1788 01       		.uleb128 0x1
 4921 1789 31       		.byte	0x31
 4922 178a 26       		.uleb128 0x26
 4923 178b 01       		.uleb128 0x1
 4924 178c 51       		.byte	0x51
 4925 178d 01       		.uleb128 0x1
 4926 178e 31       		.byte	0x31
 4927 178f 00       		.byte	0
 4928 1790 00       		.byte	0
 4929 1791 30       		.uleb128 0x30
 4930 1792 9C080000 		.4byte	.LASF310
 4931 1796 01       		.byte	0x1
 4932 1797 A2       		.byte	0xa2
 4933 1798 00000000 		.4byte	.LFB699
 4934 179c 74000000 		.4byte	.LFE699-.LFB699
 4935 17a0 01       		.uleb128 0x1
 4936 17a1 9C       		.byte	0x9c
 4937 17a2 B9180000 		.4byte	0x18b9
 4938 17a6 24       		.uleb128 0x24
 4939 17a7 06000000 		.4byte	.LVL72
 4940 17ab 5F250000 		.4byte	0x255f
 4941 17af 25       		.uleb128 0x25
 4942 17b0 0E000000 		.4byte	.LVL73
 4943 17b4 53250000 		.4byte	0x2553
 4944 17b8 C3170000 		.4byte	0x17c3
 4945 17bc 26       		.uleb128 0x26
ARM GAS  C:\Users\user\AppData\Local\Temp\ccSIFDDJ.s 			page 111


 4946 17bd 01       		.uleb128 0x1
 4947 17be 50       		.byte	0x50
 4948 17bf 02       		.uleb128 0x2
 4949 17c0 74       		.byte	0x74
 4950 17c1 00       		.sleb128 0
 4951 17c2 00       		.byte	0
 4952 17c3 25       		.uleb128 0x25
 4953 17c4 14000000 		.4byte	.LVL74
 4954 17c8 76250000 		.4byte	0x2576
 4955 17cc D6170000 		.4byte	0x17d6
 4956 17d0 26       		.uleb128 0x26
 4957 17d1 01       		.uleb128 0x1
 4958 17d2 50       		.byte	0x50
 4959 17d3 01       		.uleb128 0x1
 4960 17d4 32       		.byte	0x32
 4961 17d5 00       		.byte	0
 4962 17d6 25       		.uleb128 0x25
 4963 17d7 1E000000 		.4byte	.LVL75
 4964 17db 47250000 		.4byte	0x2547
 4965 17df F8170000 		.4byte	0x17f8
 4966 17e3 26       		.uleb128 0x26
 4967 17e4 01       		.uleb128 0x1
 4968 17e5 50       		.byte	0x50
 4969 17e6 05       		.uleb128 0x5
 4970 17e7 03       		.byte	0x3
 4971 17e8 1C010000 		.4byte	.LC14
 4972 17ec 26       		.uleb128 0x26
 4973 17ed 01       		.uleb128 0x1
 4974 17ee 51       		.byte	0x51
 4975 17ef 02       		.uleb128 0x2
 4976 17f0 08       		.byte	0x8
 4977 17f1 84       		.byte	0x84
 4978 17f2 26       		.uleb128 0x26
 4979 17f3 01       		.uleb128 0x1
 4980 17f4 52       		.byte	0x52
 4981 17f5 01       		.uleb128 0x1
 4982 17f6 44       		.byte	0x44
 4983 17f7 00       		.byte	0
 4984 17f8 25       		.uleb128 0x25
 4985 17f9 2A000000 		.4byte	.LVL76
 4986 17fd 8E250000 		.4byte	0x258e
 4987 1801 1E180000 		.4byte	0x181e
 4988 1805 26       		.uleb128 0x26
 4989 1806 01       		.uleb128 0x1
 4990 1807 50       		.byte	0x50
 4991 1808 02       		.uleb128 0x2
 4992 1809 08       		.byte	0x8
 4993 180a 30       		.byte	0x30
 4994 180b 26       		.uleb128 0x26
 4995 180c 01       		.uleb128 0x1
 4996 180d 51       		.byte	0x51
 4997 180e 02       		.uleb128 0x2
 4998 180f 08       		.byte	0x8
 4999 1810 22       		.byte	0x22
 5000 1811 26       		.uleb128 0x26
 5001 1812 01       		.uleb128 0x1
 5002 1813 52       		.byte	0x52
ARM GAS  C:\Users\user\AppData\Local\Temp\ccSIFDDJ.s 			page 112


 5003 1814 02       		.uleb128 0x2
 5004 1815 08       		.byte	0x8
 5005 1816 D7       		.byte	0xd7
 5006 1817 26       		.uleb128 0x26
 5007 1818 01       		.uleb128 0x1
 5008 1819 53       		.byte	0x53
 5009 181a 02       		.uleb128 0x2
 5010 181b 08       		.byte	0x8
 5011 181c 22       		.byte	0x22
 5012 181d 00       		.byte	0
 5013 181e 24       		.uleb128 0x24
 5014 181f 30000000 		.4byte	.LVL77
 5015 1823 53250000 		.4byte	0x2553
 5016 1827 25       		.uleb128 0x25
 5017 1828 3A000000 		.4byte	.LVL78
 5018 182c 47250000 		.4byte	0x2547
 5019 1830 49180000 		.4byte	0x1849
 5020 1834 26       		.uleb128 0x26
 5021 1835 01       		.uleb128 0x1
 5022 1836 50       		.byte	0x50
 5023 1837 05       		.uleb128 0x5
 5024 1838 03       		.byte	0x3
 5025 1839 34010000 		.4byte	.LC15
 5026 183d 26       		.uleb128 0x26
 5027 183e 01       		.uleb128 0x1
 5028 183f 51       		.byte	0x51
 5029 1840 01       		.uleb128 0x1
 5030 1841 3A       		.byte	0x3a
 5031 1842 26       		.uleb128 0x26
 5032 1843 01       		.uleb128 0x1
 5033 1844 52       		.byte	0x52
 5034 1845 02       		.uleb128 0x2
 5035 1846 08       		.byte	0x8
 5036 1847 46       		.byte	0x46
 5037 1848 00       		.byte	0
 5038 1849 25       		.uleb128 0x25
 5039 184a 44000000 		.4byte	.LVL79
 5040 184e 47250000 		.4byte	0x2547
 5041 1852 6B180000 		.4byte	0x186b
 5042 1856 26       		.uleb128 0x26
 5043 1857 01       		.uleb128 0x1
 5044 1858 50       		.byte	0x50
 5045 1859 05       		.uleb128 0x5
 5046 185a 03       		.byte	0x3
 5047 185b 64010000 		.4byte	.LC16
 5048 185f 26       		.uleb128 0x26
 5049 1860 01       		.uleb128 0x1
 5050 1861 51       		.byte	0x51
 5051 1862 01       		.uleb128 0x1
 5052 1863 33       		.byte	0x33
 5053 1864 26       		.uleb128 0x26
 5054 1865 01       		.uleb128 0x1
 5055 1866 52       		.byte	0x52
 5056 1867 02       		.uleb128 0x2
 5057 1868 08       		.byte	0x8
 5058 1869 64       		.byte	0x64
 5059 186a 00       		.byte	0
ARM GAS  C:\Users\user\AppData\Local\Temp\ccSIFDDJ.s 			page 113


 5060 186b 25       		.uleb128 0x25
 5061 186c 50000000 		.4byte	.LVL80
 5062 1870 3B250000 		.4byte	0x253b
 5063 1874 90180000 		.4byte	0x1890
 5064 1878 26       		.uleb128 0x26
 5065 1879 01       		.uleb128 0x1
 5066 187a 50       		.byte	0x50
 5067 187b 01       		.uleb128 0x1
 5068 187c 37       		.byte	0x37
 5069 187d 26       		.uleb128 0x26
 5070 187e 01       		.uleb128 0x1
 5071 187f 51       		.byte	0x51
 5072 1880 02       		.uleb128 0x2
 5073 1881 08       		.byte	0x8
 5074 1882 78       		.byte	0x78
 5075 1883 26       		.uleb128 0x26
 5076 1884 01       		.uleb128 0x1
 5077 1885 52       		.byte	0x52
 5078 1886 02       		.uleb128 0x2
 5079 1887 08       		.byte	0x8
 5080 1888 E6       		.byte	0xe6
 5081 1889 26       		.uleb128 0x26
 5082 188a 01       		.uleb128 0x1
 5083 188b 53       		.byte	0x53
 5084 188c 02       		.uleb128 0x2
 5085 188d 08       		.byte	0x8
 5086 188e A0       		.byte	0xa0
 5087 188f 00       		.byte	0
 5088 1890 25       		.uleb128 0x25
 5089 1891 56000000 		.4byte	.LVL81
 5090 1895 53250000 		.4byte	0x2553
 5091 1899 A4180000 		.4byte	0x18a4
 5092 189d 26       		.uleb128 0x26
 5093 189e 01       		.uleb128 0x1
 5094 189f 50       		.byte	0x50
 5095 18a0 02       		.uleb128 0x2
 5096 18a1 74       		.byte	0x74
 5097 18a2 00       		.sleb128 0
 5098 18a3 00       		.byte	0
 5099 18a4 27       		.uleb128 0x27
 5100 18a5 5E000000 		.4byte	.LVL82
 5101 18a9 81110000 		.4byte	0x1181
 5102 18ad 26       		.uleb128 0x26
 5103 18ae 01       		.uleb128 0x1
 5104 18af 50       		.byte	0x50
 5105 18b0 01       		.uleb128 0x1
 5106 18b1 31       		.byte	0x31
 5107 18b2 26       		.uleb128 0x26
 5108 18b3 01       		.uleb128 0x1
 5109 18b4 51       		.byte	0x51
 5110 18b5 01       		.uleb128 0x1
 5111 18b6 31       		.byte	0x31
 5112 18b7 00       		.byte	0
 5113 18b8 00       		.byte	0
 5114 18b9 30       		.uleb128 0x30
 5115 18ba A8080000 		.4byte	.LASF311
 5116 18be 01       		.byte	0x1
ARM GAS  C:\Users\user\AppData\Local\Temp\ccSIFDDJ.s 			page 114


 5117 18bf B2       		.byte	0xb2
 5118 18c0 00000000 		.4byte	.LFB700
 5119 18c4 BC000000 		.4byte	.LFE700-.LFB700
 5120 18c8 01       		.uleb128 0x1
 5121 18c9 9C       		.byte	0x9c
 5122 18ca 661A0000 		.4byte	0x1a66
 5123 18ce 24       		.uleb128 0x24
 5124 18cf 06000000 		.4byte	.LVL83
 5125 18d3 5F250000 		.4byte	0x255f
 5126 18d7 24       		.uleb128 0x24
 5127 18d8 0C000000 		.4byte	.LVL84
 5128 18dc 53250000 		.4byte	0x2553
 5129 18e0 25       		.uleb128 0x25
 5130 18e1 12000000 		.4byte	.LVL85
 5131 18e5 76250000 		.4byte	0x2576
 5132 18e9 F3180000 		.4byte	0x18f3
 5133 18ed 26       		.uleb128 0x26
 5134 18ee 01       		.uleb128 0x1
 5135 18ef 50       		.byte	0x50
 5136 18f0 01       		.uleb128 0x1
 5137 18f1 32       		.byte	0x32
 5138 18f2 00       		.byte	0
 5139 18f3 25       		.uleb128 0x25
 5140 18f4 1C000000 		.4byte	.LVL86
 5141 18f8 47250000 		.4byte	0x2547
 5142 18fc 15190000 		.4byte	0x1915
 5143 1900 26       		.uleb128 0x26
 5144 1901 01       		.uleb128 0x1
 5145 1902 50       		.byte	0x50
 5146 1903 05       		.uleb128 0x5
 5147 1904 03       		.byte	0x3
 5148 1905 98010000 		.4byte	.LC17
 5149 1909 26       		.uleb128 0x26
 5150 190a 01       		.uleb128 0x1
 5151 190b 51       		.byte	0x51
 5152 190c 02       		.uleb128 0x2
 5153 190d 08       		.byte	0x8
 5154 190e 84       		.byte	0x84
 5155 190f 26       		.uleb128 0x26
 5156 1910 01       		.uleb128 0x1
 5157 1911 52       		.byte	0x52
 5158 1912 01       		.uleb128 0x1
 5159 1913 44       		.byte	0x44
 5160 1914 00       		.byte	0
 5161 1915 25       		.uleb128 0x25
 5162 1916 28000000 		.4byte	.LVL87
 5163 191a 8E250000 		.4byte	0x258e
 5164 191e 3A190000 		.4byte	0x193a
 5165 1922 26       		.uleb128 0x26
 5166 1923 01       		.uleb128 0x1
 5167 1924 50       		.byte	0x50
 5168 1925 01       		.uleb128 0x1
 5169 1926 44       		.byte	0x44
 5170 1927 26       		.uleb128 0x26
 5171 1928 01       		.uleb128 0x1
 5172 1929 51       		.byte	0x51
 5173 192a 02       		.uleb128 0x2
ARM GAS  C:\Users\user\AppData\Local\Temp\ccSIFDDJ.s 			page 115


 5174 192b 08       		.byte	0x8
 5175 192c 32       		.byte	0x32
 5176 192d 26       		.uleb128 0x26
 5177 192e 01       		.uleb128 0x1
 5178 192f 52       		.byte	0x52
 5179 1930 02       		.uleb128 0x2
 5180 1931 08       		.byte	0x8
 5181 1932 F0       		.byte	0xf0
 5182 1933 26       		.uleb128 0x26
 5183 1934 01       		.uleb128 0x1
 5184 1935 53       		.byte	0x53
 5185 1936 02       		.uleb128 0x2
 5186 1937 08       		.byte	0x8
 5187 1938 32       		.byte	0x32
 5188 1939 00       		.byte	0
 5189 193a 24       		.uleb128 0x24
 5190 193b 2E000000 		.4byte	.LVL88
 5191 193f 53250000 		.4byte	0x2553
 5192 1943 25       		.uleb128 0x25
 5193 1944 34000000 		.4byte	.LVL89
 5194 1948 76250000 		.4byte	0x2576
 5195 194c 56190000 		.4byte	0x1956
 5196 1950 26       		.uleb128 0x26
 5197 1951 01       		.uleb128 0x1
 5198 1952 50       		.byte	0x50
 5199 1953 01       		.uleb128 0x1
 5200 1954 32       		.byte	0x32
 5201 1955 00       		.byte	0
 5202 1956 25       		.uleb128 0x25
 5203 1957 3E000000 		.4byte	.LVL90
 5204 195b 47250000 		.4byte	0x2547
 5205 195f 79190000 		.4byte	0x1979
 5206 1963 26       		.uleb128 0x26
 5207 1964 01       		.uleb128 0x1
 5208 1965 50       		.byte	0x50
 5209 1966 05       		.uleb128 0x5
 5210 1967 03       		.byte	0x3
 5211 1968 A8010000 		.4byte	.LC18
 5212 196c 26       		.uleb128 0x26
 5213 196d 01       		.uleb128 0x1
 5214 196e 51       		.byte	0x51
 5215 196f 02       		.uleb128 0x2
 5216 1970 08       		.byte	0x8
 5217 1971 84       		.byte	0x84
 5218 1972 26       		.uleb128 0x26
 5219 1973 01       		.uleb128 0x1
 5220 1974 52       		.byte	0x52
 5221 1975 02       		.uleb128 0x2
 5222 1976 08       		.byte	0x8
 5223 1977 46       		.byte	0x46
 5224 1978 00       		.byte	0
 5225 1979 25       		.uleb128 0x25
 5226 197a 44000000 		.4byte	.LVL91
 5227 197e 76250000 		.4byte	0x2576
 5228 1982 8C190000 		.4byte	0x198c
 5229 1986 26       		.uleb128 0x26
 5230 1987 01       		.uleb128 0x1
ARM GAS  C:\Users\user\AppData\Local\Temp\ccSIFDDJ.s 			page 116


 5231 1988 50       		.byte	0x50
 5232 1989 01       		.uleb128 0x1
 5233 198a 32       		.byte	0x32
 5234 198b 00       		.byte	0
 5235 198c 25       		.uleb128 0x25
 5236 198d 4E000000 		.4byte	.LVL92
 5237 1991 47250000 		.4byte	0x2547
 5238 1995 AF190000 		.4byte	0x19af
 5239 1999 26       		.uleb128 0x26
 5240 199a 01       		.uleb128 0x1
 5241 199b 50       		.byte	0x50
 5242 199c 05       		.uleb128 0x5
 5243 199d 03       		.byte	0x3
 5244 199e C8010000 		.4byte	.LC19
 5245 19a2 26       		.uleb128 0x26
 5246 19a3 01       		.uleb128 0x1
 5247 19a4 51       		.byte	0x51
 5248 19a5 02       		.uleb128 0x2
 5249 19a6 08       		.byte	0x8
 5250 19a7 84       		.byte	0x84
 5251 19a8 26       		.uleb128 0x26
 5252 19a9 01       		.uleb128 0x1
 5253 19aa 52       		.byte	0x52
 5254 19ab 02       		.uleb128 0x2
 5255 19ac 08       		.byte	0x8
 5256 19ad 50       		.byte	0x50
 5257 19ae 00       		.byte	0
 5258 19af 24       		.uleb128 0x24
 5259 19b0 54000000 		.4byte	.LVL93
 5260 19b4 53250000 		.4byte	0x2553
 5261 19b8 25       		.uleb128 0x25
 5262 19b9 60000000 		.4byte	.LVL94
 5263 19bd 8E250000 		.4byte	0x258e
 5264 19c1 DE190000 		.4byte	0x19de
 5265 19c5 26       		.uleb128 0x26
 5266 19c6 01       		.uleb128 0x1
 5267 19c7 50       		.byte	0x50
 5268 19c8 02       		.uleb128 0x2
 5269 19c9 08       		.byte	0x8
 5270 19ca 72       		.byte	0x72
 5271 19cb 26       		.uleb128 0x26
 5272 19cc 01       		.uleb128 0x1
 5273 19cd 51       		.byte	0x51
 5274 19ce 02       		.uleb128 0x2
 5275 19cf 08       		.byte	0x8
 5276 19d0 8C       		.byte	0x8c
 5277 19d1 26       		.uleb128 0x26
 5278 19d2 01       		.uleb128 0x1
 5279 19d3 52       		.byte	0x52
 5280 19d4 02       		.uleb128 0x2
 5281 19d5 08       		.byte	0x8
 5282 19d6 99       		.byte	0x99
 5283 19d7 26       		.uleb128 0x26
 5284 19d8 01       		.uleb128 0x1
 5285 19d9 53       		.byte	0x53
 5286 19da 02       		.uleb128 0x2
 5287 19db 08       		.byte	0x8
ARM GAS  C:\Users\user\AppData\Local\Temp\ccSIFDDJ.s 			page 117


 5288 19dc 8C       		.byte	0x8c
 5289 19dd 00       		.byte	0
 5290 19de 25       		.uleb128 0x25
 5291 19df 66000000 		.4byte	.LVL95
 5292 19e3 76250000 		.4byte	0x2576
 5293 19e7 F1190000 		.4byte	0x19f1
 5294 19eb 26       		.uleb128 0x26
 5295 19ec 01       		.uleb128 0x1
 5296 19ed 50       		.byte	0x50
 5297 19ee 01       		.uleb128 0x1
 5298 19ef 32       		.byte	0x32
 5299 19f0 00       		.byte	0
 5300 19f1 25       		.uleb128 0x25
 5301 19f2 74000000 		.4byte	.LVL96
 5302 19f6 6B250000 		.4byte	0x256b
 5303 19fa 0E1A0000 		.4byte	0x1a0e
 5304 19fe 26       		.uleb128 0x26
 5305 19ff 01       		.uleb128 0x1
 5306 1a00 50       		.byte	0x50
 5307 1a01 02       		.uleb128 0x2
 5308 1a02 74       		.byte	0x74
 5309 1a03 00       		.sleb128 0
 5310 1a04 26       		.uleb128 0x26
 5311 1a05 01       		.uleb128 0x1
 5312 1a06 51       		.byte	0x51
 5313 1a07 05       		.uleb128 0x5
 5314 1a08 03       		.byte	0x3
 5315 1a09 E8010000 		.4byte	.LC20
 5316 1a0d 00       		.byte	0
 5317 1a0e 25       		.uleb128 0x25
 5318 1a0f 7E000000 		.4byte	.LVL97
 5319 1a13 47250000 		.4byte	0x2547
 5320 1a17 2E1A0000 		.4byte	0x1a2e
 5321 1a1b 26       		.uleb128 0x26
 5322 1a1c 01       		.uleb128 0x1
 5323 1a1d 50       		.byte	0x50
 5324 1a1e 02       		.uleb128 0x2
 5325 1a1f 74       		.byte	0x74
 5326 1a20 00       		.sleb128 0
 5327 1a21 26       		.uleb128 0x26
 5328 1a22 01       		.uleb128 0x1
 5329 1a23 51       		.byte	0x51
 5330 1a24 02       		.uleb128 0x2
 5331 1a25 08       		.byte	0x8
 5332 1a26 7D       		.byte	0x7d
 5333 1a27 26       		.uleb128 0x26
 5334 1a28 01       		.uleb128 0x1
 5335 1a29 52       		.byte	0x52
 5336 1a2a 02       		.uleb128 0x2
 5337 1a2b 08       		.byte	0x8
 5338 1a2c 78       		.byte	0x78
 5339 1a2d 00       		.byte	0
 5340 1a2e 25       		.uleb128 0x25
 5341 1a2f 88000000 		.4byte	.LVL98
 5342 1a33 47250000 		.4byte	0x2547
 5343 1a37 511A0000 		.4byte	0x1a51
 5344 1a3b 26       		.uleb128 0x26
ARM GAS  C:\Users\user\AppData\Local\Temp\ccSIFDDJ.s 			page 118


 5345 1a3c 01       		.uleb128 0x1
 5346 1a3d 50       		.byte	0x50
 5347 1a3e 05       		.uleb128 0x5
 5348 1a3f 03       		.byte	0x3
 5349 1a40 F0010000 		.4byte	.LC21
 5350 1a44 26       		.uleb128 0x26
 5351 1a45 01       		.uleb128 0x1
 5352 1a46 51       		.byte	0x51
 5353 1a47 02       		.uleb128 0x2
 5354 1a48 08       		.byte	0x8
 5355 1a49 84       		.byte	0x84
 5356 1a4a 26       		.uleb128 0x26
 5357 1a4b 01       		.uleb128 0x1
 5358 1a4c 52       		.byte	0x52
 5359 1a4d 02       		.uleb128 0x2
 5360 1a4e 08       		.byte	0x8
 5361 1a4f 78       		.byte	0x78
 5362 1a50 00       		.byte	0
 5363 1a51 27       		.uleb128 0x27
 5364 1a52 90000000 		.4byte	.LVL99
 5365 1a56 81110000 		.4byte	0x1181
 5366 1a5a 26       		.uleb128 0x26
 5367 1a5b 01       		.uleb128 0x1
 5368 1a5c 50       		.byte	0x50
 5369 1a5d 01       		.uleb128 0x1
 5370 1a5e 31       		.byte	0x31
 5371 1a5f 26       		.uleb128 0x26
 5372 1a60 01       		.uleb128 0x1
 5373 1a61 51       		.byte	0x51
 5374 1a62 01       		.uleb128 0x1
 5375 1a63 31       		.byte	0x31
 5376 1a64 00       		.byte	0
 5377 1a65 00       		.byte	0
 5378 1a66 30       		.uleb128 0x30
 5379 1a67 75100000 		.4byte	.LASF312
 5380 1a6b 01       		.byte	0x1
 5381 1a6c C7       		.byte	0xc7
 5382 1a6d 00000000 		.4byte	.LFB701
 5383 1a71 A4000000 		.4byte	.LFE701-.LFB701
 5384 1a75 01       		.uleb128 0x1
 5385 1a76 9C       		.byte	0x9c
 5386 1a77 CF1B0000 		.4byte	0x1bcf
 5387 1a7b 24       		.uleb128 0x24
 5388 1a7c 06000000 		.4byte	.LVL100
 5389 1a80 5F250000 		.4byte	0x255f
 5390 1a84 25       		.uleb128 0x25
 5391 1a85 0E000000 		.4byte	.LVL101
 5392 1a89 53250000 		.4byte	0x2553
 5393 1a8d 981A0000 		.4byte	0x1a98
 5394 1a91 26       		.uleb128 0x26
 5395 1a92 01       		.uleb128 0x1
 5396 1a93 50       		.byte	0x50
 5397 1a94 02       		.uleb128 0x2
 5398 1a95 74       		.byte	0x74
 5399 1a96 00       		.sleb128 0
 5400 1a97 00       		.byte	0
 5401 1a98 25       		.uleb128 0x25
ARM GAS  C:\Users\user\AppData\Local\Temp\ccSIFDDJ.s 			page 119


 5402 1a99 14000000 		.4byte	.LVL102
 5403 1a9d 76250000 		.4byte	0x2576
 5404 1aa1 AB1A0000 		.4byte	0x1aab
 5405 1aa5 26       		.uleb128 0x26
 5406 1aa6 01       		.uleb128 0x1
 5407 1aa7 50       		.byte	0x50
 5408 1aa8 01       		.uleb128 0x1
 5409 1aa9 32       		.byte	0x32
 5410 1aaa 00       		.byte	0
 5411 1aab 25       		.uleb128 0x25
 5412 1aac 1E000000 		.4byte	.LVL103
 5413 1ab0 47250000 		.4byte	0x2547
 5414 1ab4 CD1A0000 		.4byte	0x1acd
 5415 1ab8 26       		.uleb128 0x26
 5416 1ab9 01       		.uleb128 0x1
 5417 1aba 50       		.byte	0x50
 5418 1abb 05       		.uleb128 0x5
 5419 1abc 03       		.byte	0x3
 5420 1abd F4010000 		.4byte	.LC22
 5421 1ac1 26       		.uleb128 0x26
 5422 1ac2 01       		.uleb128 0x1
 5423 1ac3 51       		.byte	0x51
 5424 1ac4 02       		.uleb128 0x2
 5425 1ac5 08       		.byte	0x8
 5426 1ac6 84       		.byte	0x84
 5427 1ac7 26       		.uleb128 0x26
 5428 1ac8 01       		.uleb128 0x1
 5429 1ac9 52       		.byte	0x52
 5430 1aca 01       		.uleb128 0x1
 5431 1acb 44       		.byte	0x44
 5432 1acc 00       		.byte	0
 5433 1acd 25       		.uleb128 0x25
 5434 1ace 2A000000 		.4byte	.LVL104
 5435 1ad2 8E250000 		.4byte	0x258e
 5436 1ad6 F01A0000 		.4byte	0x1af0
 5437 1ada 26       		.uleb128 0x26
 5438 1adb 01       		.uleb128 0x1
 5439 1adc 50       		.byte	0x50
 5440 1add 01       		.uleb128 0x1
 5441 1ade 49       		.byte	0x49
 5442 1adf 26       		.uleb128 0x26
 5443 1ae0 01       		.uleb128 0x1
 5444 1ae1 51       		.byte	0x51
 5445 1ae2 01       		.uleb128 0x1
 5446 1ae3 4E       		.byte	0x4e
 5447 1ae4 26       		.uleb128 0x26
 5448 1ae5 01       		.uleb128 0x1
 5449 1ae6 52       		.byte	0x52
 5450 1ae7 02       		.uleb128 0x2
 5451 1ae8 08       		.byte	0x8
 5452 1ae9 F0       		.byte	0xf0
 5453 1aea 26       		.uleb128 0x26
 5454 1aeb 01       		.uleb128 0x1
 5455 1aec 53       		.byte	0x53
 5456 1aed 01       		.uleb128 0x1
 5457 1aee 4E       		.byte	0x4e
 5458 1aef 00       		.byte	0
ARM GAS  C:\Users\user\AppData\Local\Temp\ccSIFDDJ.s 			page 120


 5459 1af0 25       		.uleb128 0x25
 5460 1af1 30000000 		.4byte	.LVL105
 5461 1af5 53250000 		.4byte	0x2553
 5462 1af9 041B0000 		.4byte	0x1b04
 5463 1afd 26       		.uleb128 0x26
 5464 1afe 01       		.uleb128 0x1
 5465 1aff 50       		.byte	0x50
 5466 1b00 02       		.uleb128 0x2
 5467 1b01 74       		.byte	0x74
 5468 1b02 00       		.sleb128 0
 5469 1b03 00       		.byte	0
 5470 1b04 25       		.uleb128 0x25
 5471 1b05 3A000000 		.4byte	.LVL106
 5472 1b09 47250000 		.4byte	0x2547
 5473 1b0d 261B0000 		.4byte	0x1b26
 5474 1b11 26       		.uleb128 0x26
 5475 1b12 01       		.uleb128 0x1
 5476 1b13 50       		.byte	0x50
 5477 1b14 05       		.uleb128 0x5
 5478 1b15 03       		.byte	0x3
 5479 1b16 1C020000 		.4byte	.LC23
 5480 1b1a 26       		.uleb128 0x26
 5481 1b1b 01       		.uleb128 0x1
 5482 1b1c 51       		.byte	0x51
 5483 1b1d 01       		.uleb128 0x1
 5484 1b1e 3A       		.byte	0x3a
 5485 1b1f 26       		.uleb128 0x26
 5486 1b20 01       		.uleb128 0x1
 5487 1b21 52       		.byte	0x52
 5488 1b22 02       		.uleb128 0x2
 5489 1b23 08       		.byte	0x8
 5490 1b24 46       		.byte	0x46
 5491 1b25 00       		.byte	0
 5492 1b26 24       		.uleb128 0x24
 5493 1b27 40000000 		.4byte	.LVL107
 5494 1b2b 53250000 		.4byte	0x2553
 5495 1b2f 25       		.uleb128 0x25
 5496 1b30 4A000000 		.4byte	.LVL108
 5497 1b34 47250000 		.4byte	0x2547
 5498 1b38 511B0000 		.4byte	0x1b51
 5499 1b3c 26       		.uleb128 0x26
 5500 1b3d 01       		.uleb128 0x1
 5501 1b3e 50       		.byte	0x50
 5502 1b3f 05       		.uleb128 0x5
 5503 1b40 03       		.byte	0x3
 5504 1b41 44020000 		.4byte	.LC24
 5505 1b45 26       		.uleb128 0x26
 5506 1b46 01       		.uleb128 0x1
 5507 1b47 51       		.byte	0x51
 5508 1b48 01       		.uleb128 0x1
 5509 1b49 3A       		.byte	0x3a
 5510 1b4a 26       		.uleb128 0x26
 5511 1b4b 01       		.uleb128 0x1
 5512 1b4c 52       		.byte	0x52
 5513 1b4d 02       		.uleb128 0x2
 5514 1b4e 08       		.byte	0x8
 5515 1b4f 6E       		.byte	0x6e
ARM GAS  C:\Users\user\AppData\Local\Temp\ccSIFDDJ.s 			page 121


 5516 1b50 00       		.byte	0
 5517 1b51 24       		.uleb128 0x24
 5518 1b52 50000000 		.4byte	.LVL109
 5519 1b56 53250000 		.4byte	0x2553
 5520 1b5a 25       		.uleb128 0x25
 5521 1b5b 5E000000 		.4byte	.LVL110
 5522 1b5f 6B250000 		.4byte	0x256b
 5523 1b63 771B0000 		.4byte	0x1b77
 5524 1b67 26       		.uleb128 0x26
 5525 1b68 01       		.uleb128 0x1
 5526 1b69 50       		.byte	0x50
 5527 1b6a 02       		.uleb128 0x2
 5528 1b6b 74       		.byte	0x74
 5529 1b6c 00       		.sleb128 0
 5530 1b6d 26       		.uleb128 0x26
 5531 1b6e 01       		.uleb128 0x1
 5532 1b6f 51       		.byte	0x51
 5533 1b70 05       		.uleb128 0x5
 5534 1b71 03       		.byte	0x3
 5535 1b72 E8010000 		.4byte	.LC20
 5536 1b76 00       		.byte	0
 5537 1b77 25       		.uleb128 0x25
 5538 1b78 68000000 		.4byte	.LVL111
 5539 1b7c 47250000 		.4byte	0x2547
 5540 1b80 971B0000 		.4byte	0x1b97
 5541 1b84 26       		.uleb128 0x26
 5542 1b85 01       		.uleb128 0x1
 5543 1b86 50       		.byte	0x50
 5544 1b87 02       		.uleb128 0x2
 5545 1b88 74       		.byte	0x74
 5546 1b89 00       		.sleb128 0
 5547 1b8a 26       		.uleb128 0x26
 5548 1b8b 01       		.uleb128 0x1
 5549 1b8c 51       		.byte	0x51
 5550 1b8d 02       		.uleb128 0x2
 5551 1b8e 08       		.byte	0x8
 5552 1b8f 8B       		.byte	0x8b
 5553 1b90 26       		.uleb128 0x26
 5554 1b91 01       		.uleb128 0x1
 5555 1b92 52       		.byte	0x52
 5556 1b93 02       		.uleb128 0x2
 5557 1b94 08       		.byte	0x8
 5558 1b95 63       		.byte	0x63
 5559 1b96 00       		.byte	0
 5560 1b97 25       		.uleb128 0x25
 5561 1b98 72000000 		.4byte	.LVL112
 5562 1b9c 47250000 		.4byte	0x2547
 5563 1ba0 BA1B0000 		.4byte	0x1bba
 5564 1ba4 26       		.uleb128 0x26
 5565 1ba5 01       		.uleb128 0x1
 5566 1ba6 50       		.byte	0x50
 5567 1ba7 05       		.uleb128 0x5
 5568 1ba8 03       		.byte	0x3
 5569 1ba9 60000000 		.4byte	.LC6
 5570 1bad 26       		.uleb128 0x26
 5571 1bae 01       		.uleb128 0x1
 5572 1baf 51       		.byte	0x51
ARM GAS  C:\Users\user\AppData\Local\Temp\ccSIFDDJ.s 			page 122


 5573 1bb0 02       		.uleb128 0x2
 5574 1bb1 08       		.byte	0x8
 5575 1bb2 BB       		.byte	0xbb
 5576 1bb3 26       		.uleb128 0x26
 5577 1bb4 01       		.uleb128 0x1
 5578 1bb5 52       		.byte	0x52
 5579 1bb6 02       		.uleb128 0x2
 5580 1bb7 08       		.byte	0x8
 5581 1bb8 62       		.byte	0x62
 5582 1bb9 00       		.byte	0
 5583 1bba 27       		.uleb128 0x27
 5584 1bbb 7A000000 		.4byte	.LVL113
 5585 1bbf 81110000 		.4byte	0x1181
 5586 1bc3 26       		.uleb128 0x26
 5587 1bc4 01       		.uleb128 0x1
 5588 1bc5 50       		.byte	0x50
 5589 1bc6 01       		.uleb128 0x1
 5590 1bc7 31       		.byte	0x31
 5591 1bc8 26       		.uleb128 0x26
 5592 1bc9 01       		.uleb128 0x1
 5593 1bca 51       		.byte	0x51
 5594 1bcb 01       		.uleb128 0x1
 5595 1bcc 31       		.byte	0x31
 5596 1bcd 00       		.byte	0
 5597 1bce 00       		.byte	0
 5598 1bcf 30       		.uleb128 0x30
 5599 1bd0 00100000 		.4byte	.LASF313
 5600 1bd4 01       		.byte	0x1
 5601 1bd5 DA       		.byte	0xda
 5602 1bd6 00000000 		.4byte	.LFB702
 5603 1bda A4000000 		.4byte	.LFE702-.LFB702
 5604 1bde 01       		.uleb128 0x1
 5605 1bdf 9C       		.byte	0x9c
 5606 1be0 381D0000 		.4byte	0x1d38
 5607 1be4 24       		.uleb128 0x24
 5608 1be5 06000000 		.4byte	.LVL114
 5609 1be9 5F250000 		.4byte	0x255f
 5610 1bed 25       		.uleb128 0x25
 5611 1bee 0E000000 		.4byte	.LVL115
 5612 1bf2 53250000 		.4byte	0x2553
 5613 1bf6 011C0000 		.4byte	0x1c01
 5614 1bfa 26       		.uleb128 0x26
 5615 1bfb 01       		.uleb128 0x1
 5616 1bfc 50       		.byte	0x50
 5617 1bfd 02       		.uleb128 0x2
 5618 1bfe 74       		.byte	0x74
 5619 1bff 00       		.sleb128 0
 5620 1c00 00       		.byte	0
 5621 1c01 25       		.uleb128 0x25
 5622 1c02 14000000 		.4byte	.LVL116
 5623 1c06 76250000 		.4byte	0x2576
 5624 1c0a 141C0000 		.4byte	0x1c14
 5625 1c0e 26       		.uleb128 0x26
 5626 1c0f 01       		.uleb128 0x1
 5627 1c10 50       		.byte	0x50
 5628 1c11 01       		.uleb128 0x1
 5629 1c12 32       		.byte	0x32
ARM GAS  C:\Users\user\AppData\Local\Temp\ccSIFDDJ.s 			page 123


 5630 1c13 00       		.byte	0
 5631 1c14 25       		.uleb128 0x25
 5632 1c15 1E000000 		.4byte	.LVL117
 5633 1c19 47250000 		.4byte	0x2547
 5634 1c1d 361C0000 		.4byte	0x1c36
 5635 1c21 26       		.uleb128 0x26
 5636 1c22 01       		.uleb128 0x1
 5637 1c23 50       		.byte	0x50
 5638 1c24 05       		.uleb128 0x5
 5639 1c25 03       		.byte	0x3
 5640 1c26 F4010000 		.4byte	.LC22
 5641 1c2a 26       		.uleb128 0x26
 5642 1c2b 01       		.uleb128 0x1
 5643 1c2c 51       		.byte	0x51
 5644 1c2d 02       		.uleb128 0x2
 5645 1c2e 08       		.byte	0x8
 5646 1c2f 84       		.byte	0x84
 5647 1c30 26       		.uleb128 0x26
 5648 1c31 01       		.uleb128 0x1
 5649 1c32 52       		.byte	0x52
 5650 1c33 01       		.uleb128 0x1
 5651 1c34 44       		.byte	0x44
 5652 1c35 00       		.byte	0
 5653 1c36 25       		.uleb128 0x25
 5654 1c37 2A000000 		.4byte	.LVL118
 5655 1c3b 8E250000 		.4byte	0x258e
 5656 1c3f 591C0000 		.4byte	0x1c59
 5657 1c43 26       		.uleb128 0x26
 5658 1c44 01       		.uleb128 0x1
 5659 1c45 50       		.byte	0x50
 5660 1c46 01       		.uleb128 0x1
 5661 1c47 49       		.byte	0x49
 5662 1c48 26       		.uleb128 0x26
 5663 1c49 01       		.uleb128 0x1
 5664 1c4a 51       		.byte	0x51
 5665 1c4b 01       		.uleb128 0x1
 5666 1c4c 4E       		.byte	0x4e
 5667 1c4d 26       		.uleb128 0x26
 5668 1c4e 01       		.uleb128 0x1
 5669 1c4f 52       		.byte	0x52
 5670 1c50 02       		.uleb128 0x2
 5671 1c51 08       		.byte	0x8
 5672 1c52 F0       		.byte	0xf0
 5673 1c53 26       		.uleb128 0x26
 5674 1c54 01       		.uleb128 0x1
 5675 1c55 53       		.byte	0x53
 5676 1c56 01       		.uleb128 0x1
 5677 1c57 4E       		.byte	0x4e
 5678 1c58 00       		.byte	0
 5679 1c59 25       		.uleb128 0x25
 5680 1c5a 30000000 		.4byte	.LVL119
 5681 1c5e 53250000 		.4byte	0x2553
 5682 1c62 6D1C0000 		.4byte	0x1c6d
 5683 1c66 26       		.uleb128 0x26
 5684 1c67 01       		.uleb128 0x1
 5685 1c68 50       		.byte	0x50
 5686 1c69 02       		.uleb128 0x2
ARM GAS  C:\Users\user\AppData\Local\Temp\ccSIFDDJ.s 			page 124


 5687 1c6a 74       		.byte	0x74
 5688 1c6b 00       		.sleb128 0
 5689 1c6c 00       		.byte	0
 5690 1c6d 25       		.uleb128 0x25
 5691 1c6e 3A000000 		.4byte	.LVL120
 5692 1c72 47250000 		.4byte	0x2547
 5693 1c76 8F1C0000 		.4byte	0x1c8f
 5694 1c7a 26       		.uleb128 0x26
 5695 1c7b 01       		.uleb128 0x1
 5696 1c7c 50       		.byte	0x50
 5697 1c7d 05       		.uleb128 0x5
 5698 1c7e 03       		.byte	0x3
 5699 1c7f 58020000 		.4byte	.LC25
 5700 1c83 26       		.uleb128 0x26
 5701 1c84 01       		.uleb128 0x1
 5702 1c85 51       		.byte	0x51
 5703 1c86 01       		.uleb128 0x1
 5704 1c87 3A       		.byte	0x3a
 5705 1c88 26       		.uleb128 0x26
 5706 1c89 01       		.uleb128 0x1
 5707 1c8a 52       		.byte	0x52
 5708 1c8b 02       		.uleb128 0x2
 5709 1c8c 08       		.byte	0x8
 5710 1c8d 46       		.byte	0x46
 5711 1c8e 00       		.byte	0
 5712 1c8f 24       		.uleb128 0x24
 5713 1c90 40000000 		.4byte	.LVL121
 5714 1c94 53250000 		.4byte	0x2553
 5715 1c98 25       		.uleb128 0x25
 5716 1c99 4A000000 		.4byte	.LVL122
 5717 1c9d 47250000 		.4byte	0x2547
 5718 1ca1 BA1C0000 		.4byte	0x1cba
 5719 1ca5 26       		.uleb128 0x26
 5720 1ca6 01       		.uleb128 0x1
 5721 1ca7 50       		.byte	0x50
 5722 1ca8 05       		.uleb128 0x5
 5723 1ca9 03       		.byte	0x3
 5724 1caa 80020000 		.4byte	.LC26
 5725 1cae 26       		.uleb128 0x26
 5726 1caf 01       		.uleb128 0x1
 5727 1cb0 51       		.byte	0x51
 5728 1cb1 01       		.uleb128 0x1
 5729 1cb2 3A       		.byte	0x3a
 5730 1cb3 26       		.uleb128 0x26
 5731 1cb4 01       		.uleb128 0x1
 5732 1cb5 52       		.byte	0x52
 5733 1cb6 02       		.uleb128 0x2
 5734 1cb7 08       		.byte	0x8
 5735 1cb8 6E       		.byte	0x6e
 5736 1cb9 00       		.byte	0
 5737 1cba 24       		.uleb128 0x24
 5738 1cbb 50000000 		.4byte	.LVL123
 5739 1cbf 53250000 		.4byte	0x2553
 5740 1cc3 25       		.uleb128 0x25
 5741 1cc4 5E000000 		.4byte	.LVL124
 5742 1cc8 6B250000 		.4byte	0x256b
 5743 1ccc E01C0000 		.4byte	0x1ce0
ARM GAS  C:\Users\user\AppData\Local\Temp\ccSIFDDJ.s 			page 125


 5744 1cd0 26       		.uleb128 0x26
 5745 1cd1 01       		.uleb128 0x1
 5746 1cd2 50       		.byte	0x50
 5747 1cd3 02       		.uleb128 0x2
 5748 1cd4 74       		.byte	0x74
 5749 1cd5 00       		.sleb128 0
 5750 1cd6 26       		.uleb128 0x26
 5751 1cd7 01       		.uleb128 0x1
 5752 1cd8 51       		.byte	0x51
 5753 1cd9 05       		.uleb128 0x5
 5754 1cda 03       		.byte	0x3
 5755 1cdb E8010000 		.4byte	.LC20
 5756 1cdf 00       		.byte	0
 5757 1ce0 25       		.uleb128 0x25
 5758 1ce1 68000000 		.4byte	.LVL125
 5759 1ce5 47250000 		.4byte	0x2547
 5760 1ce9 001D0000 		.4byte	0x1d00
 5761 1ced 26       		.uleb128 0x26
 5762 1cee 01       		.uleb128 0x1
 5763 1cef 50       		.byte	0x50
 5764 1cf0 02       		.uleb128 0x2
 5765 1cf1 74       		.byte	0x74
 5766 1cf2 00       		.sleb128 0
 5767 1cf3 26       		.uleb128 0x26
 5768 1cf4 01       		.uleb128 0x1
 5769 1cf5 51       		.byte	0x51
 5770 1cf6 02       		.uleb128 0x2
 5771 1cf7 08       		.byte	0x8
 5772 1cf8 8B       		.byte	0x8b
 5773 1cf9 26       		.uleb128 0x26
 5774 1cfa 01       		.uleb128 0x1
 5775 1cfb 52       		.byte	0x52
 5776 1cfc 02       		.uleb128 0x2
 5777 1cfd 08       		.byte	0x8
 5778 1cfe 63       		.byte	0x63
 5779 1cff 00       		.byte	0
 5780 1d00 25       		.uleb128 0x25
 5781 1d01 72000000 		.4byte	.LVL126
 5782 1d05 47250000 		.4byte	0x2547
 5783 1d09 231D0000 		.4byte	0x1d23
 5784 1d0d 26       		.uleb128 0x26
 5785 1d0e 01       		.uleb128 0x1
 5786 1d0f 50       		.byte	0x50
 5787 1d10 05       		.uleb128 0x5
 5788 1d11 03       		.byte	0x3
 5789 1d12 60000000 		.4byte	.LC6
 5790 1d16 26       		.uleb128 0x26
 5791 1d17 01       		.uleb128 0x1
 5792 1d18 51       		.byte	0x51
 5793 1d19 02       		.uleb128 0x2
 5794 1d1a 08       		.byte	0x8
 5795 1d1b BB       		.byte	0xbb
 5796 1d1c 26       		.uleb128 0x26
 5797 1d1d 01       		.uleb128 0x1
 5798 1d1e 52       		.byte	0x52
 5799 1d1f 02       		.uleb128 0x2
 5800 1d20 08       		.byte	0x8
ARM GAS  C:\Users\user\AppData\Local\Temp\ccSIFDDJ.s 			page 126


 5801 1d21 62       		.byte	0x62
 5802 1d22 00       		.byte	0
 5803 1d23 27       		.uleb128 0x27
 5804 1d24 7A000000 		.4byte	.LVL127
 5805 1d28 81110000 		.4byte	0x1181
 5806 1d2c 26       		.uleb128 0x26
 5807 1d2d 01       		.uleb128 0x1
 5808 1d2e 50       		.byte	0x50
 5809 1d2f 01       		.uleb128 0x1
 5810 1d30 31       		.byte	0x31
 5811 1d31 26       		.uleb128 0x26
 5812 1d32 01       		.uleb128 0x1
 5813 1d33 51       		.byte	0x51
 5814 1d34 01       		.uleb128 0x1
 5815 1d35 31       		.byte	0x31
 5816 1d36 00       		.byte	0
 5817 1d37 00       		.byte	0
 5818 1d38 30       		.uleb128 0x30
 5819 1d39 48140000 		.4byte	.LASF314
 5820 1d3d 01       		.byte	0x1
 5821 1d3e EB       		.byte	0xeb
 5822 1d3f 00000000 		.4byte	.LFB703
 5823 1d43 78000000 		.4byte	.LFE703-.LFB703
 5824 1d47 01       		.uleb128 0x1
 5825 1d48 9C       		.byte	0x9c
 5826 1d49 601E0000 		.4byte	0x1e60
 5827 1d4d 24       		.uleb128 0x24
 5828 1d4e 06000000 		.4byte	.LVL128
 5829 1d52 5F250000 		.4byte	0x255f
 5830 1d56 25       		.uleb128 0x25
 5831 1d57 0E000000 		.4byte	.LVL129
 5832 1d5b 53250000 		.4byte	0x2553
 5833 1d5f 6A1D0000 		.4byte	0x1d6a
 5834 1d63 26       		.uleb128 0x26
 5835 1d64 01       		.uleb128 0x1
 5836 1d65 50       		.byte	0x50
 5837 1d66 02       		.uleb128 0x2
 5838 1d67 74       		.byte	0x74
 5839 1d68 00       		.sleb128 0
 5840 1d69 00       		.byte	0
 5841 1d6a 25       		.uleb128 0x25
 5842 1d6b 14000000 		.4byte	.LVL130
 5843 1d6f 76250000 		.4byte	0x2576
 5844 1d73 7D1D0000 		.4byte	0x1d7d
 5845 1d77 26       		.uleb128 0x26
 5846 1d78 01       		.uleb128 0x1
 5847 1d79 50       		.byte	0x50
 5848 1d7a 01       		.uleb128 0x1
 5849 1d7b 32       		.byte	0x32
 5850 1d7c 00       		.byte	0
 5851 1d7d 25       		.uleb128 0x25
 5852 1d7e 1E000000 		.4byte	.LVL131
 5853 1d82 47250000 		.4byte	0x2547
 5854 1d86 9F1D0000 		.4byte	0x1d9f
 5855 1d8a 26       		.uleb128 0x26
 5856 1d8b 01       		.uleb128 0x1
 5857 1d8c 50       		.byte	0x50
ARM GAS  C:\Users\user\AppData\Local\Temp\ccSIFDDJ.s 			page 127


 5858 1d8d 05       		.uleb128 0x5
 5859 1d8e 03       		.byte	0x3
 5860 1d8f 94020000 		.4byte	.LC27
 5861 1d93 26       		.uleb128 0x26
 5862 1d94 01       		.uleb128 0x1
 5863 1d95 51       		.byte	0x51
 5864 1d96 02       		.uleb128 0x2
 5865 1d97 08       		.byte	0x8
 5866 1d98 84       		.byte	0x84
 5867 1d99 26       		.uleb128 0x26
 5868 1d9a 01       		.uleb128 0x1
 5869 1d9b 52       		.byte	0x52
 5870 1d9c 01       		.uleb128 0x1
 5871 1d9d 44       		.byte	0x44
 5872 1d9e 00       		.byte	0
 5873 1d9f 25       		.uleb128 0x25
 5874 1da0 2C000000 		.4byte	.LVL132
 5875 1da4 8E250000 		.4byte	0x258e
 5876 1da8 C51D0000 		.4byte	0x1dc5
 5877 1dac 26       		.uleb128 0x26
 5878 1dad 01       		.uleb128 0x1
 5879 1dae 50       		.byte	0x50
 5880 1daf 01       		.uleb128 0x1
 5881 1db0 33       		.byte	0x33
 5882 1db1 26       		.uleb128 0x26
 5883 1db2 01       		.uleb128 0x1
 5884 1db3 51       		.byte	0x51
 5885 1db4 02       		.uleb128 0x2
 5886 1db5 08       		.byte	0x8
 5887 1db6 22       		.byte	0x22
 5888 1db7 26       		.uleb128 0x26
 5889 1db8 01       		.uleb128 0x1
 5890 1db9 52       		.byte	0x52
 5891 1dba 03       		.uleb128 0x3
 5892 1dbb 0A       		.byte	0xa
 5893 1dbc 0401     		.2byte	0x104
 5894 1dbe 26       		.uleb128 0x26
 5895 1dbf 01       		.uleb128 0x1
 5896 1dc0 53       		.byte	0x53
 5897 1dc1 02       		.uleb128 0x2
 5898 1dc2 08       		.byte	0x8
 5899 1dc3 22       		.byte	0x22
 5900 1dc4 00       		.byte	0
 5901 1dc5 24       		.uleb128 0x24
 5902 1dc6 32000000 		.4byte	.LVL133
 5903 1dca 53250000 		.4byte	0x2553
 5904 1dce 25       		.uleb128 0x25
 5905 1dcf 3C000000 		.4byte	.LVL134
 5906 1dd3 47250000 		.4byte	0x2547
 5907 1dd7 F01D0000 		.4byte	0x1df0
 5908 1ddb 26       		.uleb128 0x26
 5909 1ddc 01       		.uleb128 0x1
 5910 1ddd 50       		.byte	0x50
 5911 1dde 05       		.uleb128 0x5
 5912 1ddf 03       		.byte	0x3
 5913 1de0 34010000 		.4byte	.LC15
 5914 1de4 26       		.uleb128 0x26
ARM GAS  C:\Users\user\AppData\Local\Temp\ccSIFDDJ.s 			page 128


 5915 1de5 01       		.uleb128 0x1
 5916 1de6 51       		.byte	0x51
 5917 1de7 01       		.uleb128 0x1
 5918 1de8 3A       		.byte	0x3a
 5919 1de9 26       		.uleb128 0x26
 5920 1dea 01       		.uleb128 0x1
 5921 1deb 52       		.byte	0x52
 5922 1dec 02       		.uleb128 0x2
 5923 1ded 08       		.byte	0x8
 5924 1dee 46       		.byte	0x46
 5925 1def 00       		.byte	0
 5926 1df0 25       		.uleb128 0x25
 5927 1df1 46000000 		.4byte	.LVL135
 5928 1df5 47250000 		.4byte	0x2547
 5929 1df9 121E0000 		.4byte	0x1e12
 5930 1dfd 26       		.uleb128 0x26
 5931 1dfe 01       		.uleb128 0x1
 5932 1dff 50       		.byte	0x50
 5933 1e00 05       		.uleb128 0x5
 5934 1e01 03       		.byte	0x3
 5935 1e02 64010000 		.4byte	.LC16
 5936 1e06 26       		.uleb128 0x26
 5937 1e07 01       		.uleb128 0x1
 5938 1e08 51       		.byte	0x51
 5939 1e09 01       		.uleb128 0x1
 5940 1e0a 33       		.byte	0x33
 5941 1e0b 26       		.uleb128 0x26
 5942 1e0c 01       		.uleb128 0x1
 5943 1e0d 52       		.byte	0x52
 5944 1e0e 02       		.uleb128 0x2
 5945 1e0f 08       		.byte	0x8
 5946 1e10 64       		.byte	0x64
 5947 1e11 00       		.byte	0
 5948 1e12 25       		.uleb128 0x25
 5949 1e13 52000000 		.4byte	.LVL136
 5950 1e17 3B250000 		.4byte	0x253b
 5951 1e1b 371E0000 		.4byte	0x1e37
 5952 1e1f 26       		.uleb128 0x26
 5953 1e20 01       		.uleb128 0x1
 5954 1e21 50       		.byte	0x50
 5955 1e22 01       		.uleb128 0x1
 5956 1e23 37       		.byte	0x37
 5957 1e24 26       		.uleb128 0x26
 5958 1e25 01       		.uleb128 0x1
 5959 1e26 51       		.byte	0x51
 5960 1e27 02       		.uleb128 0x2
 5961 1e28 08       		.byte	0x8
 5962 1e29 78       		.byte	0x78
 5963 1e2a 26       		.uleb128 0x26
 5964 1e2b 01       		.uleb128 0x1
 5965 1e2c 52       		.byte	0x52
 5966 1e2d 02       		.uleb128 0x2
 5967 1e2e 08       		.byte	0x8
 5968 1e2f E6       		.byte	0xe6
 5969 1e30 26       		.uleb128 0x26
 5970 1e31 01       		.uleb128 0x1
 5971 1e32 53       		.byte	0x53
ARM GAS  C:\Users\user\AppData\Local\Temp\ccSIFDDJ.s 			page 129


 5972 1e33 02       		.uleb128 0x2
 5973 1e34 08       		.byte	0x8
 5974 1e35 A0       		.byte	0xa0
 5975 1e36 00       		.byte	0
 5976 1e37 25       		.uleb128 0x25
 5977 1e38 58000000 		.4byte	.LVL137
 5978 1e3c 53250000 		.4byte	0x2553
 5979 1e40 4B1E0000 		.4byte	0x1e4b
 5980 1e44 26       		.uleb128 0x26
 5981 1e45 01       		.uleb128 0x1
 5982 1e46 50       		.byte	0x50
 5983 1e47 02       		.uleb128 0x2
 5984 1e48 74       		.byte	0x74
 5985 1e49 00       		.sleb128 0
 5986 1e4a 00       		.byte	0
 5987 1e4b 27       		.uleb128 0x27
 5988 1e4c 60000000 		.4byte	.LVL138
 5989 1e50 81110000 		.4byte	0x1181
 5990 1e54 26       		.uleb128 0x26
 5991 1e55 01       		.uleb128 0x1
 5992 1e56 50       		.byte	0x50
 5993 1e57 01       		.uleb128 0x1
 5994 1e58 31       		.byte	0x31
 5995 1e59 26       		.uleb128 0x26
 5996 1e5a 01       		.uleb128 0x1
 5997 1e5b 51       		.byte	0x51
 5998 1e5c 01       		.uleb128 0x1
 5999 1e5d 31       		.byte	0x31
 6000 1e5e 00       		.byte	0
 6001 1e5f 00       		.byte	0
 6002 1e60 31       		.uleb128 0x31
 6003 1e61 1D000000 		.4byte	.LASF315
 6004 1e65 01       		.byte	0x1
 6005 1e66 FB       		.byte	0xfb
 6006 1e67 00000000 		.4byte	.LFB704
 6007 1e6b C8030000 		.4byte	.LFE704-.LFB704
 6008 1e6f 01       		.uleb128 0x1
 6009 1e70 9C       		.byte	0x9c
 6010 1e71 CE210000 		.4byte	0x21ce
 6011 1e75 32       		.uleb128 0x32
 6012 1e76 4F110000 		.4byte	0x114f
 6013 1e7a 6E010000 		.4byte	.LBB18
 6014 1e7e 06000000 		.4byte	.LBE18-.LBB18
 6015 1e82 01       		.byte	0x1
 6016 1e83 3901     		.2byte	0x139
 6017 1e85 A51E0000 		.4byte	0x1ea5
 6018 1e89 33       		.uleb128 0x33
 6019 1e8a 74110000 		.4byte	0x1174
 6020 1e8e DB020000 		.4byte	.LLST21
 6021 1e92 33       		.uleb128 0x33
 6022 1e93 68110000 		.4byte	0x1168
 6023 1e97 DB020000 		.4byte	.LLST21
 6024 1e9b 33       		.uleb128 0x33
 6025 1e9c 5C110000 		.4byte	0x115c
 6026 1ea0 EF020000 		.4byte	.LLST23
 6027 1ea4 00       		.byte	0
 6028 1ea5 32       		.uleb128 0x32
ARM GAS  C:\Users\user\AppData\Local\Temp\ccSIFDDJ.s 			page 130


 6029 1ea6 4F110000 		.4byte	0x114f
 6030 1eaa FE020000 		.4byte	.LBB20
 6031 1eae 06000000 		.4byte	.LBE20-.LBB20
 6032 1eb2 01       		.byte	0x1
 6033 1eb3 7001     		.2byte	0x170
 6034 1eb5 D51E0000 		.4byte	0x1ed5
 6035 1eb9 33       		.uleb128 0x33
 6036 1eba 74110000 		.4byte	0x1174
 6037 1ebe 07030000 		.4byte	.LLST24
 6038 1ec2 33       		.uleb128 0x33
 6039 1ec3 68110000 		.4byte	0x1168
 6040 1ec7 1B030000 		.4byte	.LLST25
 6041 1ecb 33       		.uleb128 0x33
 6042 1ecc 5C110000 		.4byte	0x115c
 6043 1ed0 2F030000 		.4byte	.LLST26
 6044 1ed4 00       		.byte	0
 6045 1ed5 32       		.uleb128 0x32
 6046 1ed6 4F110000 		.4byte	0x114f
 6047 1eda 44030000 		.4byte	.LBB22
 6048 1ede 08000000 		.4byte	.LBE22-.LBB22
 6049 1ee2 01       		.byte	0x1
 6050 1ee3 8101     		.2byte	0x181
 6051 1ee5 051F0000 		.4byte	0x1f05
 6052 1ee9 33       		.uleb128 0x33
 6053 1eea 74110000 		.4byte	0x1174
 6054 1eee 47030000 		.4byte	.LLST27
 6055 1ef2 33       		.uleb128 0x33
 6056 1ef3 68110000 		.4byte	0x1168
 6057 1ef7 5B030000 		.4byte	.LLST28
 6058 1efb 33       		.uleb128 0x33
 6059 1efc 5C110000 		.4byte	0x115c
 6060 1f00 6F030000 		.4byte	.LLST29
 6061 1f04 00       		.byte	0
 6062 1f05 32       		.uleb128 0x32
 6063 1f06 4F110000 		.4byte	0x114f
 6064 1f0a 4C030000 		.4byte	.LBB24
 6065 1f0e 06000000 		.4byte	.LBE24-.LBB24
 6066 1f12 01       		.byte	0x1
 6067 1f13 8301     		.2byte	0x183
 6068 1f15 351F0000 		.4byte	0x1f35
 6069 1f19 33       		.uleb128 0x33
 6070 1f1a 74110000 		.4byte	0x1174
 6071 1f1e 87030000 		.4byte	.LLST30
 6072 1f22 33       		.uleb128 0x33
 6073 1f23 68110000 		.4byte	0x1168
 6074 1f27 87030000 		.4byte	.LLST30
 6075 1f2b 33       		.uleb128 0x33
 6076 1f2c 5C110000 		.4byte	0x115c
 6077 1f30 9B030000 		.4byte	.LLST32
 6078 1f34 00       		.byte	0
 6079 1f35 32       		.uleb128 0x32
 6080 1f36 4F110000 		.4byte	0x114f
 6081 1f3a 76030000 		.4byte	.LBB26
 6082 1f3e 3E000000 		.4byte	.LBE26-.LBB26
 6083 1f42 01       		.byte	0x1
 6084 1f43 8B01     		.2byte	0x18b
 6085 1f45 651F0000 		.4byte	0x1f65
ARM GAS  C:\Users\user\AppData\Local\Temp\ccSIFDDJ.s 			page 131


 6086 1f49 33       		.uleb128 0x33
 6087 1f4a 74110000 		.4byte	0x1174
 6088 1f4e B3030000 		.4byte	.LLST33
 6089 1f52 33       		.uleb128 0x33
 6090 1f53 68110000 		.4byte	0x1168
 6091 1f57 C7030000 		.4byte	.LLST34
 6092 1f5b 33       		.uleb128 0x33
 6093 1f5c 5C110000 		.4byte	0x115c
 6094 1f60 DB030000 		.4byte	.LLST35
 6095 1f64 00       		.byte	0
 6096 1f65 32       		.uleb128 0x32
 6097 1f66 4F110000 		.4byte	0x114f
 6098 1f6a B4030000 		.4byte	.LBB28
 6099 1f6e 06000000 		.4byte	.LBE28-.LBB28
 6100 1f72 01       		.byte	0x1
 6101 1f73 8D01     		.2byte	0x18d
 6102 1f75 951F0000 		.4byte	0x1f95
 6103 1f79 33       		.uleb128 0x33
 6104 1f7a 74110000 		.4byte	0x1174
 6105 1f7e F3030000 		.4byte	.LLST36
 6106 1f82 33       		.uleb128 0x33
 6107 1f83 68110000 		.4byte	0x1168
 6108 1f87 07040000 		.4byte	.LLST37
 6109 1f8b 33       		.uleb128 0x33
 6110 1f8c 5C110000 		.4byte	0x115c
 6111 1f90 1B040000 		.4byte	.LLST38
 6112 1f94 00       		.byte	0
 6113 1f95 24       		.uleb128 0x24
 6114 1f96 06000000 		.4byte	.LVL139
 6115 1f9a 9A250000 		.4byte	0x259a
 6116 1f9e 25       		.uleb128 0x25
 6117 1f9f 0C000000 		.4byte	.LVL140
 6118 1fa3 A6250000 		.4byte	0x25a6
 6119 1fa7 B11F0000 		.4byte	0x1fb1
 6120 1fab 26       		.uleb128 0x26
 6121 1fac 01       		.uleb128 0x1
 6122 1fad 50       		.byte	0x50
 6123 1fae 01       		.uleb128 0x1
 6124 1faf 44       		.byte	0x44
 6125 1fb0 00       		.byte	0
 6126 1fb1 25       		.uleb128 0x25
 6127 1fb2 12000000 		.4byte	.LVL141
 6128 1fb6 B1250000 		.4byte	0x25b1
 6129 1fba C41F0000 		.4byte	0x1fc4
 6130 1fbe 26       		.uleb128 0x26
 6131 1fbf 01       		.uleb128 0x1
 6132 1fc0 50       		.byte	0x50
 6133 1fc1 01       		.uleb128 0x1
 6134 1fc2 31       		.byte	0x31
 6135 1fc3 00       		.byte	0
 6136 1fc4 24       		.uleb128 0x24
 6137 1fc5 16000000 		.4byte	.LVL142
 6138 1fc9 5F250000 		.4byte	0x255f
 6139 1fcd 25       		.uleb128 0x25
 6140 1fce 1C000000 		.4byte	.LVL143
 6141 1fd2 BC250000 		.4byte	0x25bc
 6142 1fd6 E01F0000 		.4byte	0x1fe0
ARM GAS  C:\Users\user\AppData\Local\Temp\ccSIFDDJ.s 			page 132


 6143 1fda 26       		.uleb128 0x26
 6144 1fdb 01       		.uleb128 0x1
 6145 1fdc 50       		.byte	0x50
 6146 1fdd 01       		.uleb128 0x1
 6147 1fde 30       		.byte	0x30
 6148 1fdf 00       		.byte	0
 6149 1fe0 25       		.uleb128 0x25
 6150 1fe1 24000000 		.4byte	.LVL144
 6151 1fe5 C8250000 		.4byte	0x25c8
 6152 1fe9 F71F0000 		.4byte	0x1ff7
 6153 1fed 26       		.uleb128 0x26
 6154 1fee 01       		.uleb128 0x1
 6155 1fef 50       		.byte	0x50
 6156 1ff0 05       		.uleb128 0x5
 6157 1ff1 0C       		.byte	0xc
 6158 1ff2 FFFFFF00 		.4byte	0xffffff
 6159 1ff6 00       		.byte	0
 6160 1ff7 25       		.uleb128 0x25
 6161 1ff8 2A000000 		.4byte	.LVL145
 6162 1ffc 23250000 		.4byte	0x2523
 6163 2000 0A200000 		.4byte	0x200a
 6164 2004 26       		.uleb128 0x26
 6165 2005 01       		.uleb128 0x1
 6166 2006 50       		.byte	0x50
 6167 2007 01       		.uleb128 0x1
 6168 2008 31       		.byte	0x31
 6169 2009 00       		.byte	0
 6170 200a 24       		.uleb128 0x24
 6171 200b 30000000 		.4byte	.LVL146
 6172 200f 53250000 		.4byte	0x2553
 6173 2013 24       		.uleb128 0x24
 6174 2014 50000000 		.4byte	.LVL147
 6175 2018 EC140000 		.4byte	0x14ec
 6176 201c 25       		.uleb128 0x25
 6177 201d 66000000 		.4byte	.LVL148
 6178 2021 B2120000 		.4byte	0x12b2
 6179 2025 3F200000 		.4byte	0x203f
 6180 2029 26       		.uleb128 0x26
 6181 202a 01       		.uleb128 0x1
 6182 202b 50       		.byte	0x50
 6183 202c 05       		.uleb128 0x5
 6184 202d 03       		.byte	0x3
 6185 202e 00000000 		.4byte	INFRAROUGE
 6186 2032 26       		.uleb128 0x26
 6187 2033 01       		.uleb128 0x1
 6188 2034 51       		.byte	0x51
 6189 2035 01       		.uleb128 0x1
 6190 2036 33       		.byte	0x33
 6191 2037 26       		.uleb128 0x26
 6192 2038 01       		.uleb128 0x1
 6193 2039 52       		.byte	0x52
 6194 203a 03       		.uleb128 0x3
 6195 203b 0A       		.byte	0xa
 6196 203c 4C04     		.2byte	0x44c
 6197 203e 00       		.byte	0
 6198 203f 25       		.uleb128 0x25
 6199 2040 7C000000 		.4byte	.LVL149
ARM GAS  C:\Users\user\AppData\Local\Temp\ccSIFDDJ.s 			page 133


 6200 2044 B2120000 		.4byte	0x12b2
 6201 2048 62200000 		.4byte	0x2062
 6202 204c 26       		.uleb128 0x26
 6203 204d 01       		.uleb128 0x1
 6204 204e 50       		.byte	0x50
 6205 204f 05       		.uleb128 0x5
 6206 2050 03       		.byte	0x3
 6207 2051 00000000 		.4byte	ROUGE
 6208 2055 26       		.uleb128 0x26
 6209 2056 01       		.uleb128 0x1
 6210 2057 51       		.byte	0x51
 6211 2058 01       		.uleb128 0x1
 6212 2059 33       		.byte	0x33
 6213 205a 26       		.uleb128 0x26
 6214 205b 01       		.uleb128 0x1
 6215 205c 52       		.byte	0x52
 6216 205d 03       		.uleb128 0x3
 6217 205e 0A       		.byte	0xa
 6218 205f 4C04     		.2byte	0x44c
 6219 2061 00       		.byte	0
 6220 2062 25       		.uleb128 0x25
 6221 2063 A8000000 		.4byte	.LVL150
 6222 2067 40160000 		.4byte	0x1640
 6223 206b 76200000 		.4byte	0x2076
 6224 206f 26       		.uleb128 0x26
 6225 2070 01       		.uleb128 0x1
 6226 2071 50       		.byte	0x50
 6227 2072 02       		.uleb128 0x2
 6228 2073 08       		.byte	0x8
 6229 2074 28       		.byte	0x28
 6230 2075 00       		.byte	0
 6231 2076 24       		.uleb128 0x24
 6232 2077 0A010000 		.4byte	.LVL151
 6233 207b 40160000 		.4byte	0x1640
 6234 207f 24       		.uleb128 0x24
 6235 2080 30010000 		.4byte	.LVL152
 6236 2084 91170000 		.4byte	0x1791
 6237 2088 24       		.uleb128 0x24
 6238 2089 46010000 		.4byte	.LVL153
 6239 208d 53250000 		.4byte	0x2553
 6240 2091 25       		.uleb128 0x25
 6241 2092 50010000 		.4byte	.LVL154
 6242 2096 47250000 		.4byte	0x2547
 6243 209a B3200000 		.4byte	0x20b3
 6244 209e 26       		.uleb128 0x26
 6245 209f 01       		.uleb128 0x1
 6246 20a0 50       		.byte	0x50
 6247 20a1 05       		.uleb128 0x5
 6248 20a2 03       		.byte	0x3
 6249 20a3 B8020000 		.4byte	.LC28
 6250 20a7 26       		.uleb128 0x26
 6251 20a8 01       		.uleb128 0x1
 6252 20a9 51       		.byte	0x51
 6253 20aa 01       		.uleb128 0x1
 6254 20ab 49       		.byte	0x49
 6255 20ac 26       		.uleb128 0x26
 6256 20ad 01       		.uleb128 0x1
ARM GAS  C:\Users\user\AppData\Local\Temp\ccSIFDDJ.s 			page 134


 6257 20ae 52       		.byte	0x52
 6258 20af 02       		.uleb128 0x2
 6259 20b0 08       		.byte	0x8
 6260 20b1 82       		.byte	0x82
 6261 20b2 00       		.byte	0
 6262 20b3 25       		.uleb128 0x25
 6263 20b4 58010000 		.4byte	.LVL155
 6264 20b8 81110000 		.4byte	0x1181
 6265 20bc CD200000 		.4byte	0x20cd
 6266 20c0 26       		.uleb128 0x26
 6267 20c1 01       		.uleb128 0x1
 6268 20c2 50       		.byte	0x50
 6269 20c3 02       		.uleb128 0x2
 6270 20c4 74       		.byte	0x74
 6271 20c5 00       		.sleb128 0
 6272 20c6 26       		.uleb128 0x26
 6273 20c7 01       		.uleb128 0x1
 6274 20c8 51       		.byte	0x51
 6275 20c9 02       		.uleb128 0x2
 6276 20ca 74       		.byte	0x74
 6277 20cb 00       		.sleb128 0
 6278 20cc 00       		.byte	0
 6279 20cd 24       		.uleb128 0x24
 6280 20ce 7A010000 		.4byte	.LVL158
 6281 20d2 53250000 		.4byte	0x2553
 6282 20d6 25       		.uleb128 0x25
 6283 20d7 84010000 		.4byte	.LVL159
 6284 20db 47250000 		.4byte	0x2547
 6285 20df F8200000 		.4byte	0x20f8
 6286 20e3 26       		.uleb128 0x26
 6287 20e4 01       		.uleb128 0x1
 6288 20e5 50       		.byte	0x50
 6289 20e6 05       		.uleb128 0x5
 6290 20e7 03       		.byte	0x3
 6291 20e8 D0020000 		.4byte	.LC29
 6292 20ec 26       		.uleb128 0x26
 6293 20ed 01       		.uleb128 0x1
 6294 20ee 51       		.byte	0x51
 6295 20ef 01       		.uleb128 0x1
 6296 20f0 49       		.byte	0x49
 6297 20f1 26       		.uleb128 0x26
 6298 20f2 01       		.uleb128 0x1
 6299 20f3 52       		.byte	0x52
 6300 20f4 02       		.uleb128 0x2
 6301 20f5 08       		.byte	0x8
 6302 20f6 82       		.byte	0x82
 6303 20f7 00       		.byte	0
 6304 20f8 25       		.uleb128 0x25
 6305 20f9 8C010000 		.4byte	.LVL160
 6306 20fd 81110000 		.4byte	0x1181
 6307 2101 10210000 		.4byte	0x2110
 6308 2105 26       		.uleb128 0x26
 6309 2106 01       		.uleb128 0x1
 6310 2107 50       		.byte	0x50
 6311 2108 01       		.uleb128 0x1
 6312 2109 31       		.byte	0x31
 6313 210a 26       		.uleb128 0x26
ARM GAS  C:\Users\user\AppData\Local\Temp\ccSIFDDJ.s 			page 135


 6314 210b 01       		.uleb128 0x1
 6315 210c 51       		.byte	0x51
 6316 210d 01       		.uleb128 0x1
 6317 210e 31       		.byte	0x31
 6318 210f 00       		.byte	0
 6319 2110 24       		.uleb128 0x24
 6320 2111 C4010000 		.4byte	.LVL161
 6321 2115 B9180000 		.4byte	0x18b9
 6322 2119 24       		.uleb128 0x24
 6323 211a 18020000 		.4byte	.LVL162
 6324 211e 661A0000 		.4byte	0x1a66
 6325 2122 24       		.uleb128 0x24
 6326 2123 6C020000 		.4byte	.LVL163
 6327 2127 CF1B0000 		.4byte	0x1bcf
 6328 212b 24       		.uleb128 0x24
 6329 212c C0020000 		.4byte	.LVL164
 6330 2130 381D0000 		.4byte	0x1d38
 6331 2134 24       		.uleb128 0x24
 6332 2135 D6020000 		.4byte	.LVL165
 6333 2139 53250000 		.4byte	0x2553
 6334 213d 25       		.uleb128 0x25
 6335 213e E0020000 		.4byte	.LVL166
 6336 2142 47250000 		.4byte	0x2547
 6337 2146 5F210000 		.4byte	0x215f
 6338 214a 26       		.uleb128 0x26
 6339 214b 01       		.uleb128 0x1
 6340 214c 50       		.byte	0x50
 6341 214d 05       		.uleb128 0x5
 6342 214e 03       		.byte	0x3
 6343 214f B8020000 		.4byte	.LC28
 6344 2153 26       		.uleb128 0x26
 6345 2154 01       		.uleb128 0x1
 6346 2155 51       		.byte	0x51
 6347 2156 01       		.uleb128 0x1
 6348 2157 49       		.byte	0x49
 6349 2158 26       		.uleb128 0x26
 6350 2159 01       		.uleb128 0x1
 6351 215a 52       		.byte	0x52
 6352 215b 02       		.uleb128 0x2
 6353 215c 08       		.byte	0x8
 6354 215d 82       		.byte	0x82
 6355 215e 00       		.byte	0
 6356 215f 25       		.uleb128 0x25
 6357 2160 E8020000 		.4byte	.LVL167
 6358 2164 81110000 		.4byte	0x1181
 6359 2168 79210000 		.4byte	0x2179
 6360 216c 26       		.uleb128 0x26
 6361 216d 01       		.uleb128 0x1
 6362 216e 50       		.byte	0x50
 6363 216f 02       		.uleb128 0x2
 6364 2170 74       		.byte	0x74
 6365 2171 00       		.sleb128 0
 6366 2172 26       		.uleb128 0x26
 6367 2173 01       		.uleb128 0x1
 6368 2174 51       		.byte	0x51
 6369 2175 02       		.uleb128 0x2
 6370 2176 74       		.byte	0x74
ARM GAS  C:\Users\user\AppData\Local\Temp\ccSIFDDJ.s 			page 136


 6371 2177 00       		.sleb128 0
 6372 2178 00       		.byte	0
 6373 2179 24       		.uleb128 0x24
 6374 217a 0A030000 		.4byte	.LVL170
 6375 217e 53250000 		.4byte	0x2553
 6376 2182 25       		.uleb128 0x25
 6377 2183 14030000 		.4byte	.LVL171
 6378 2187 47250000 		.4byte	0x2547
 6379 218b A4210000 		.4byte	0x21a4
 6380 218f 26       		.uleb128 0x26
 6381 2190 01       		.uleb128 0x1
 6382 2191 50       		.byte	0x50
 6383 2192 05       		.uleb128 0x5
 6384 2193 03       		.byte	0x3
 6385 2194 D0020000 		.4byte	.LC29
 6386 2198 26       		.uleb128 0x26
 6387 2199 01       		.uleb128 0x1
 6388 219a 51       		.byte	0x51
 6389 219b 01       		.uleb128 0x1
 6390 219c 49       		.byte	0x49
 6391 219d 26       		.uleb128 0x26
 6392 219e 01       		.uleb128 0x1
 6393 219f 52       		.byte	0x52
 6394 21a0 02       		.uleb128 0x2
 6395 21a1 08       		.byte	0x8
 6396 21a2 82       		.byte	0x82
 6397 21a3 00       		.byte	0
 6398 21a4 25       		.uleb128 0x25
 6399 21a5 1C030000 		.4byte	.LVL172
 6400 21a9 81110000 		.4byte	0x1181
 6401 21ad BC210000 		.4byte	0x21bc
 6402 21b1 26       		.uleb128 0x26
 6403 21b2 01       		.uleb128 0x1
 6404 21b3 50       		.byte	0x50
 6405 21b4 01       		.uleb128 0x1
 6406 21b5 31       		.byte	0x31
 6407 21b6 26       		.uleb128 0x26
 6408 21b7 01       		.uleb128 0x1
 6409 21b8 51       		.byte	0x51
 6410 21b9 01       		.uleb128 0x1
 6411 21ba 31       		.byte	0x31
 6412 21bb 00       		.byte	0
 6413 21bc 27       		.uleb128 0x27
 6414 21bd C2030000 		.4byte	.LVL179
 6415 21c1 D4250000 		.4byte	0x25d4
 6416 21c5 26       		.uleb128 0x26
 6417 21c6 01       		.uleb128 0x1
 6418 21c7 50       		.byte	0x50
 6419 21c8 03       		.uleb128 0x3
 6420 21c9 0A       		.byte	0xa
 6421 21ca 5E01     		.2byte	0x15e
 6422 21cc 00       		.byte	0
 6423 21cd 00       		.byte	0
 6424 21ce 07       		.uleb128 0x7
 6425 21cf DC060000 		.4byte	0x6dc
 6426 21d3 DF210000 		.4byte	0x21df
 6427 21d7 34       		.uleb128 0x34
ARM GAS  C:\Users\user\AppData\Local\Temp\ccSIFDDJ.s 			page 137


 6428 21d8 D9000000 		.4byte	0xd9
 6429 21dc F103     		.2byte	0x3f1
 6430 21de 00       		.byte	0
 6431 21df 35       		.uleb128 0x35
 6432 21e0 FB070000 		.4byte	.LASF377
 6433 21e4 1A       		.byte	0x1a
 6434 21e5 19       		.byte	0x19
 6435 21e6 CE210000 		.4byte	0x21ce
 6436 21ea 36       		.uleb128 0x36
 6437 21eb 110F0000 		.4byte	.LASF316
 6438 21ef 12       		.byte	0x12
 6439 21f0 0108     		.2byte	0x801
 6440 21f2 F6210000 		.4byte	0x21f6
 6441 21f6 05       		.uleb128 0x5
 6442 21f7 C3000000 		.4byte	0xc3
 6443 21fb 37       		.uleb128 0x37
 6444 21fc 6D000000 		.4byte	.LASF317
 6445 2200 07       		.byte	0x7
 6446 2201 A7       		.byte	0xa7
 6447 2202 06220000 		.4byte	0x2206
 6448 2206 0F       		.uleb128 0xf
 6449 2207 04       		.byte	0x4
 6450 2208 0C220000 		.4byte	0x220c
 6451 220c 06       		.uleb128 0x6
 6452 220d BE060000 		.4byte	0x6be
 6453 2211 37       		.uleb128 0x37
 6454 2212 A7000000 		.4byte	.LASF318
 6455 2216 13       		.byte	0x13
 6456 2217 5E       		.byte	0x5e
 6457 2218 3A090000 		.4byte	0x93a
 6458 221c 37       		.uleb128 0x37
 6459 221d 810A0000 		.4byte	.LASF319
 6460 2221 14       		.byte	0x14
 6461 2222 1F       		.byte	0x1f
 6462 2223 27220000 		.4byte	0x2227
 6463 2227 06       		.uleb128 0x6
 6464 2228 130B0000 		.4byte	0xb13
 6465 222c 37       		.uleb128 0x37
 6466 222d 8D080000 		.4byte	.LASF320
 6467 2231 15       		.byte	0x15
 6468 2232 87       		.byte	0x87
 6469 2233 160A0000 		.4byte	0xa16
 6470 2237 37       		.uleb128 0x37
 6471 2238 C10F0000 		.4byte	.LASF321
 6472 223c 16       		.byte	0x16
 6473 223d 7F       		.byte	0x7f
 6474 223e 9F080000 		.4byte	0x89f
 6475 2242 37       		.uleb128 0x37
 6476 2243 D6110000 		.4byte	.LASF322
 6477 2247 17       		.byte	0x17
 6478 2248 7F       		.byte	0x7f
 6479 2249 9F080000 		.4byte	0x89f
 6480 224d 36       		.uleb128 0x36
 6481 224e 770B0000 		.4byte	.LASF323
 6482 2252 18       		.byte	0x18
 6483 2253 0008     		.2byte	0x800
 6484 2255 910F0000 		.4byte	0xf91
ARM GAS  C:\Users\user\AppData\Local\Temp\ccSIFDDJ.s 			page 138


 6485 2259 36       		.uleb128 0x36
 6486 225a D7080000 		.4byte	.LASF324
 6487 225e 18       		.byte	0x18
 6488 225f 0708     		.2byte	0x807
 6489 2261 910F0000 		.4byte	0xf91
 6490 2265 36       		.uleb128 0x36
 6491 2266 CF0F0000 		.4byte	.LASF325
 6492 226a 18       		.byte	0x18
 6493 226b 0808     		.2byte	0x808
 6494 226d 910F0000 		.4byte	0xf91
 6495 2271 36       		.uleb128 0x36
 6496 2272 B30F0000 		.4byte	.LASF326
 6497 2276 18       		.byte	0x18
 6498 2277 0E08     		.2byte	0x80e
 6499 2279 910F0000 		.4byte	0xf91
 6500 227d 38       		.uleb128 0x38
 6501 227e 2F040000 		.4byte	.LASF327
 6502 2282 19       		.byte	0x19
 6503 2283 13       		.byte	0x13
 6504 2284 94000000 		.4byte	0x94
 6505 2288 05       		.uleb128 0x5
 6506 2289 03       		.byte	0x3
 6507 228a 00000000 		.4byte	indexBuffer
 6508 228e 07       		.uleb128 0x7
 6509 228f E8060000 		.4byte	0x6e8
 6510 2293 AB220000 		.4byte	0x22ab
 6511 2297 08       		.uleb128 0x8
 6512 2298 D9000000 		.4byte	0xd9
 6513 229c 01       		.byte	0x1
 6514 229d 08       		.uleb128 0x8
 6515 229e D9000000 		.4byte	0xd9
 6516 22a2 02       		.byte	0x2
 6517 22a3 34       		.uleb128 0x34
 6518 22a4 D9000000 		.4byte	0xd9
 6519 22a8 4B04     		.2byte	0x44b
 6520 22aa 00       		.byte	0
 6521 22ab 38       		.uleb128 0x38
 6522 22ac A9120000 		.4byte	.LASF328
 6523 22b0 19       		.byte	0x19
 6524 22b1 1E       		.byte	0x1e
 6525 22b2 8E220000 		.4byte	0x228e
 6526 22b6 05       		.uleb128 0x5
 6527 22b7 03       		.byte	0x3
 6528 22b8 00000000 		.4byte	dataSpo2
 6529 22bc 38       		.uleb128 0x38
 6530 22bd BE090000 		.4byte	.LASF329
 6531 22c1 19       		.byte	0x19
 6532 22c2 1F       		.byte	0x1f
 6533 22c3 CD220000 		.4byte	0x22cd
 6534 22c7 05       		.uleb128 0x5
 6535 22c8 03       		.byte	0x3
 6536 22c9 00000000 		.4byte	pourcentageSpO2
 6537 22cd 05       		.uleb128 0x5
 6538 22ce DC060000 		.4byte	0x6dc
 6539 22d2 39       		.uleb128 0x39
 6540 22d3 42504D00 		.ascii	"BPM\000"
 6541 22d7 19       		.byte	0x19
ARM GAS  C:\Users\user\AppData\Local\Temp\ccSIFDDJ.s 			page 139


 6542 22d8 20       		.byte	0x20
 6543 22d9 E5000000 		.4byte	0xe5
 6544 22dd 05       		.uleb128 0x5
 6545 22de 03       		.byte	0x3
 6546 22df 00000000 		.4byte	BPM
 6547 22e3 38       		.uleb128 0x38
 6548 22e4 66040000 		.4byte	.LASF330
 6549 22e8 19       		.byte	0x19
 6550 22e9 21       		.byte	0x21
 6551 22ea 9A080000 		.4byte	0x89a
 6552 22ee 05       		.uleb128 0x5
 6553 22ef 03       		.byte	0x3
 6554 22f0 00000000 		.4byte	AlarmeBMI160
 6555 22f4 38       		.uleb128 0x38
 6556 22f5 AB020000 		.4byte	.LASF331
 6557 22f9 19       		.byte	0x19
 6558 22fa 22       		.byte	0x22
 6559 22fb 0A070000 		.4byte	0x70a
 6560 22ff 05       		.uleb128 0x5
 6561 2300 03       		.byte	0x3
 6562 2301 00000000 		.4byte	entree
 6563 2305 07       		.uleb128 0x7
 6564 2306 DC060000 		.4byte	0x6dc
 6565 230a 15230000 		.4byte	0x2315
 6566 230e 08       		.uleb128 0x8
 6567 230f D9000000 		.4byte	0xd9
 6568 2313 0A       		.byte	0xa
 6569 2314 00       		.byte	0
 6570 2315 38       		.uleb128 0x38
 6571 2316 CA0A0000 		.4byte	.LASF332
 6572 231a 1A       		.byte	0x1a
 6573 231b 1A       		.byte	0x1a
 6574 231c 05230000 		.4byte	0x2305
 6575 2320 05       		.uleb128 0x5
 6576 2321 03       		.byte	0x3
 6577 2322 00000000 		.4byte	firCoeffs32_LowPass
 6578 2326 38       		.uleb128 0x38
 6579 2327 76090000 		.4byte	.LASF333
 6580 232b 1A       		.byte	0x1a
 6581 232c 1B       		.byte	0x1b
 6582 232d 05230000 		.4byte	0x2305
 6583 2331 05       		.uleb128 0x5
 6584 2332 03       		.byte	0x3
 6585 2333 00000000 		.4byte	firCoeffs32_HighPass
 6586 2337 38       		.uleb128 0x38
 6587 2338 A30C0000 		.4byte	.LASF334
 6588 233c 1A       		.byte	0x1a
 6589 233d 1C       		.byte	0x1c
 6590 233e CE000000 		.4byte	0xce
 6591 2342 05       		.uleb128 0x5
 6592 2343 03       		.byte	0x3
 6593 2344 00000000 		.4byte	blockSize
 6594 2348 38       		.uleb128 0x38
 6595 2349 78110000 		.4byte	.LASF335
 6596 234d 1A       		.byte	0x1a
 6597 234e 2F       		.byte	0x2f
 6598 234f 94000000 		.4byte	0x94
ARM GAS  C:\Users\user\AppData\Local\Temp\ccSIFDDJ.s 			page 140


 6599 2353 05       		.uleb128 0x5
 6600 2354 03       		.byte	0x3
 6601 2355 00000000 		.4byte	minimum_infrarouge
 6602 2359 38       		.uleb128 0x38
 6603 235a 140B0000 		.4byte	.LASF336
 6604 235e 1A       		.byte	0x1a
 6605 235f 30       		.byte	0x30
 6606 2360 94000000 		.4byte	0x94
 6607 2364 05       		.uleb128 0x5
 6608 2365 03       		.byte	0x3
 6609 2366 00000000 		.4byte	minimum_rouge
 6610 236a 38       		.uleb128 0x38
 6611 236b 960A0000 		.4byte	.LASF337
 6612 236f 1A       		.byte	0x1a
 6613 2370 31       		.byte	0x31
 6614 2371 94000000 		.4byte	0x94
 6615 2375 05       		.uleb128 0x5
 6616 2376 03       		.byte	0x3
 6617 2377 00000000 		.4byte	taille_infrarouge
 6618 237b 38       		.uleb128 0x38
 6619 237c 660C0000 		.4byte	.LASF338
 6620 2380 1A       		.byte	0x1a
 6621 2381 32       		.byte	0x32
 6622 2382 94000000 		.4byte	0x94
 6623 2386 05       		.uleb128 0x5
 6624 2387 03       		.byte	0x3
 6625 2388 00000000 		.4byte	taille_rouge
 6626 238c 38       		.uleb128 0x38
 6627 238d BE0E0000 		.4byte	.LASF339
 6628 2391 1B       		.byte	0x1b
 6629 2392 1C       		.byte	0x1c
 6630 2393 E5000000 		.4byte	0xe5
 6631 2397 05       		.uleb128 0x5
 6632 2398 03       		.byte	0x3
 6633 2399 00000000 		.4byte	courant
 6634 239d 38       		.uleb128 0x38
 6635 239e A90E0000 		.4byte	.LASF340
 6636 23a2 1B       		.byte	0x1b
 6637 23a3 1D       		.byte	0x1d
 6638 23a4 0A070000 		.4byte	0x70a
 6639 23a8 05       		.uleb128 0x5
 6640 23a9 03       		.byte	0x3
 6641 23aa 00000000 		.4byte	alarme_acc
 6642 23ae 38       		.uleb128 0x38
 6643 23af 68110000 		.4byte	.LASF341
 6644 23b3 1B       		.byte	0x1b
 6645 23b4 1E       		.byte	0x1e
 6646 23b5 0A070000 		.4byte	0x70a
 6647 23b9 05       		.uleb128 0x5
 6648 23ba 03       		.byte	0x3
 6649 23bb 00000000 		.4byte	alarme_FC
 6650 23bf 38       		.uleb128 0x38
 6651 23c0 5E130000 		.4byte	.LASF342
 6652 23c4 1B       		.byte	0x1b
 6653 23c5 1F       		.byte	0x1f
 6654 23c6 A2000000 		.4byte	0xa2
 6655 23ca 05       		.uleb128 0x5
ARM GAS  C:\Users\user\AppData\Local\Temp\ccSIFDDJ.s 			page 141


 6656 23cb 03       		.byte	0x3
 6657 23cc 00000000 		.4byte	borne_inferieur
 6658 23d0 38       		.uleb128 0x38
 6659 23d1 1F140000 		.4byte	.LASF343
 6660 23d5 1B       		.byte	0x1b
 6661 23d6 20       		.byte	0x20
 6662 23d7 A2000000 		.4byte	0xa2
 6663 23db 05       		.uleb128 0x5
 6664 23dc 03       		.byte	0x3
 6665 23dd 00000000 		.4byte	borne_superieur
 6666 23e1 07       		.uleb128 0x7
 6667 23e2 D5060000 		.4byte	0x6d5
 6668 23e6 F1230000 		.4byte	0x23f1
 6669 23ea 08       		.uleb128 0x8
 6670 23eb D9000000 		.4byte	0xd9
 6671 23ef 63       		.byte	0x63
 6672 23f0 00       		.byte	0
 6673 23f1 38       		.uleb128 0x38
 6674 23f2 1D010000 		.4byte	.LASF344
 6675 23f6 1B       		.byte	0x1b
 6676 23f7 21       		.byte	0x21
 6677 23f8 E1230000 		.4byte	0x23e1
 6678 23fc 05       		.uleb128 0x5
 6679 23fd 03       		.byte	0x3
 6680 23fe 00000000 		.4byte	buffer
 6681 2402 07       		.uleb128 0x7
 6682 2403 F6060000 		.4byte	0x6f6
 6683 2407 13240000 		.4byte	0x2413
 6684 240b 34       		.uleb128 0x34
 6685 240c D9000000 		.4byte	0xd9
 6686 2410 AF16     		.2byte	0x16af
 6687 2412 00       		.byte	0
 6688 2413 38       		.uleb128 0x38
 6689 2414 48010000 		.4byte	.LASF345
 6690 2418 1B       		.byte	0x1b
 6691 2419 22       		.byte	0x22
 6692 241a 02240000 		.4byte	0x2402
 6693 241e 05       		.uleb128 0x5
 6694 241f 03       		.byte	0x3
 6695 2420 00000000 		.4byte	imageBufferCache
 6696 2424 38       		.uleb128 0x38
 6697 2425 B4080000 		.4byte	.LASF346
 6698 2429 11       		.byte	0x11
 6699 242a 2F       		.byte	0x2f
 6700 242b 35240000 		.4byte	0x2435
 6701 242f 05       		.uleb128 0x5
 6702 2430 03       		.byte	0x3
 6703 2431 00000000 		.4byte	currentScreen
 6704 2435 05       		.uleb128 0x5
 6705 2436 44110000 		.4byte	0x1144
 6706 243a 38       		.uleb128 0x38
 6707 243b 84060000 		.4byte	.LASF347
 6708 243f 11       		.byte	0x11
 6709 2440 30       		.byte	0x30
 6710 2441 F6060000 		.4byte	0x6f6
 6711 2445 05       		.uleb128 0x5
 6712 2446 03       		.byte	0x3
ARM GAS  C:\Users\user\AppData\Local\Temp\ccSIFDDJ.s 			page 142


 6713 2447 00000000 		.4byte	postion_MENU
 6714 244b 38       		.uleb128 0x38
 6715 244c 7E130000 		.4byte	.LASF348
 6716 2450 11       		.byte	0x11
 6717 2451 31       		.byte	0x31
 6718 2452 F6060000 		.4byte	0x6f6
 6719 2456 05       		.uleb128 0x5
 6720 2457 03       		.byte	0x3
 6721 2458 00000000 		.4byte	selection_MENU
 6722 245c 07       		.uleb128 0x7
 6723 245d 25000000 		.4byte	0x25
 6724 2461 6D240000 		.4byte	0x246d
 6725 2465 34       		.uleb128 0x34
 6726 2466 D9000000 		.4byte	0xd9
 6727 246a 4F01     		.2byte	0x14f
 6728 246c 00       		.byte	0
 6729 246d 38       		.uleb128 0x38
 6730 246e 68090000 		.4byte	.LASF349
 6731 2472 11       		.byte	0x11
 6732 2473 32       		.byte	0x32
 6733 2474 5C240000 		.4byte	0x245c
 6734 2478 05       		.uleb128 0x5
 6735 2479 03       		.byte	0x3
 6736 247a 00000000 		.4byte	data
 6737 247e 07       		.uleb128 0x7
 6738 247f 25000000 		.4byte	0x25
 6739 2483 8E240000 		.4byte	0x248e
 6740 2487 08       		.uleb128 0x8
 6741 2488 D9000000 		.4byte	0xd9
 6742 248c F9       		.byte	0xf9
 6743 248d 00       		.byte	0
 6744 248e 38       		.uleb128 0x38
 6745 248f 27100000 		.4byte	.LASF350
 6746 2493 11       		.byte	0x11
 6747 2494 33       		.byte	0x33
 6748 2495 7E240000 		.4byte	0x247e
 6749 2499 05       		.uleb128 0x5
 6750 249a 03       		.byte	0x3
 6751 249b 00000000 		.4byte	vecteurespacee
 6752 249f 07       		.uleb128 0x7
 6753 24a0 CE000000 		.4byte	0xce
 6754 24a4 B0240000 		.4byte	0x24b0
 6755 24a8 34       		.uleb128 0x34
 6756 24a9 D9000000 		.4byte	0xd9
 6757 24ad 4B04     		.2byte	0x44b
 6758 24af 00       		.byte	0
 6759 24b0 38       		.uleb128 0x38
 6760 24b1 5B120000 		.4byte	.LASF351
 6761 24b5 11       		.byte	0x11
 6762 24b6 3C       		.byte	0x3c
 6763 24b7 9F240000 		.4byte	0x249f
 6764 24bb 05       		.uleb128 0x5
 6765 24bc 03       		.byte	0x3
 6766 24bd 00000000 		.4byte	INFRAROUGE
 6767 24c1 38       		.uleb128 0x38
 6768 24c2 C2080000 		.4byte	.LASF352
 6769 24c6 11       		.byte	0x11
ARM GAS  C:\Users\user\AppData\Local\Temp\ccSIFDDJ.s 			page 143


 6770 24c7 3D       		.byte	0x3d
 6771 24c8 9F240000 		.4byte	0x249f
 6772 24cc 05       		.uleb128 0x5
 6773 24cd 03       		.byte	0x3
 6774 24ce 00000000 		.4byte	ROUGE
 6775 24d2 07       		.uleb128 0x7
 6776 24d3 CE000000 		.4byte	0xce
 6777 24d7 E2240000 		.4byte	0x24e2
 6778 24db 08       		.uleb128 0x8
 6779 24dc D9000000 		.4byte	0xd9
 6780 24e0 63       		.byte	0x63
 6781 24e1 00       		.byte	0
 6782 24e2 38       		.uleb128 0x38
 6783 24e3 220B0000 		.4byte	.LASF353
 6784 24e7 11       		.byte	0x11
 6785 24e8 41       		.byte	0x41
 6786 24e9 D2240000 		.4byte	0x24d2
 6787 24ed 05       		.uleb128 0x5
 6788 24ee 03       		.byte	0x3
 6789 24ef 00000000 		.4byte	INFRAROUGE_minimum_abs
 6790 24f3 38       		.uleb128 0x38
 6791 24f4 C5050000 		.4byte	.LASF354
 6792 24f8 11       		.byte	0x11
 6793 24f9 42       		.byte	0x42
 6794 24fa D2240000 		.4byte	0x24d2
 6795 24fe 05       		.uleb128 0x5
 6796 24ff 03       		.byte	0x3
 6797 2500 00000000 		.4byte	ROUGE_minimum_abs
 6798 2504 3A       		.uleb128 0x3a
 6799 2505 EB0F0000 		.4byte	.LASF355
 6800 2509 EB0F0000 		.4byte	.LASF355
 6801 250d 1C       		.byte	0x1c
 6802 250e 34       		.byte	0x34
 6803 250f 3A       		.uleb128 0x3a
 6804 2510 D2040000 		.4byte	.LASF356
 6805 2514 D2040000 		.4byte	.LASF356
 6806 2518 0F       		.byte	0xf
 6807 2519 7E       		.byte	0x7e
 6808 251a 3B       		.uleb128 0x3b
 6809 251b 27130000 		.4byte	.LASF378
 6810 251f 27130000 		.4byte	.LASF378
 6811 2523 3C       		.uleb128 0x3c
 6812 2524 DB000000 		.4byte	.LASF357
 6813 2528 DB000000 		.4byte	.LASF357
 6814 252c 18       		.byte	0x18
 6815 252d C501     		.2byte	0x1c5
 6816 252f 3C       		.uleb128 0x3c
 6817 2530 4D060000 		.4byte	.LASF358
 6818 2534 4D060000 		.4byte	.LASF358
 6819 2538 18       		.byte	0x18
 6820 2539 0602     		.2byte	0x206
 6821 253b 3C       		.uleb128 0x3c
 6822 253c C10B0000 		.4byte	.LASF359
 6823 2540 C10B0000 		.4byte	.LASF359
 6824 2544 18       		.byte	0x18
 6825 2545 1202     		.2byte	0x212
 6826 2547 3C       		.uleb128 0x3c
ARM GAS  C:\Users\user\AppData\Local\Temp\ccSIFDDJ.s 			page 144


 6827 2548 CC070000 		.4byte	.LASF360
 6828 254c CC070000 		.4byte	.LASF360
 6829 2550 18       		.byte	0x18
 6830 2551 0503     		.2byte	0x305
 6831 2553 3C       		.uleb128 0x3c
 6832 2554 C5120000 		.4byte	.LASF361
 6833 2558 C5120000 		.4byte	.LASF361
 6834 255c 18       		.byte	0x18
 6835 255d 2B03     		.2byte	0x32b
 6836 255f 3C       		.uleb128 0x3c
 6837 2560 F10B0000 		.4byte	.LASF362
 6838 2564 F10B0000 		.4byte	.LASF362
 6839 2568 18       		.byte	0x18
 6840 2569 F601     		.2byte	0x1f6
 6841 256b 3A       		.uleb128 0x3a
 6842 256c B10D0000 		.4byte	.LASF363
 6843 2570 B10D0000 		.4byte	.LASF363
 6844 2574 1D       		.byte	0x1d
 6845 2575 E7       		.byte	0xe7
 6846 2576 3C       		.uleb128 0x3c
 6847 2577 37120000 		.4byte	.LASF364
 6848 257b 37120000 		.4byte	.LASF364
 6849 257f 18       		.byte	0x18
 6850 2580 2603     		.2byte	0x326
 6851 2582 3C       		.uleb128 0x3c
 6852 2583 E4040000 		.4byte	.LASF365
 6853 2587 E4040000 		.4byte	.LASF365
 6854 258b 18       		.byte	0x18
 6855 258c 0002     		.2byte	0x200
 6856 258e 3C       		.uleb128 0x3c
 6857 258f 16080000 		.4byte	.LASF366
 6858 2593 16080000 		.4byte	.LASF366
 6859 2597 18       		.byte	0x18
 6860 2598 0902     		.2byte	0x209
 6861 259a 3C       		.uleb128 0x3c
 6862 259b 460B0000 		.4byte	.LASF367
 6863 259f 460B0000 		.4byte	.LASF367
 6864 25a3 18       		.byte	0x18
 6865 25a4 6D01     		.2byte	0x16d
 6866 25a6 3A       		.uleb128 0x3a
 6867 25a7 630E0000 		.4byte	.LASF368
 6868 25ab 630E0000 		.4byte	.LASF368
 6869 25af 0F       		.byte	0xf
 6870 25b0 79       		.byte	0x79
 6871 25b1 3A       		.uleb128 0x3a
 6872 25b2 480F0000 		.4byte	.LASF369
 6873 25b6 480F0000 		.4byte	.LASF369
 6874 25ba 0F       		.byte	0xf
 6875 25bb 7A       		.byte	0x7a
 6876 25bc 3C       		.uleb128 0x3c
 6877 25bd FF0D0000 		.4byte	.LASF370
 6878 25c1 FF0D0000 		.4byte	.LASF370
 6879 25c5 18       		.byte	0x18
 6880 25c6 C101     		.2byte	0x1c1
 6881 25c8 3C       		.uleb128 0x3c
 6882 25c9 2D010000 		.4byte	.LASF371
 6883 25cd 2D010000 		.4byte	.LASF371
ARM GAS  C:\Users\user\AppData\Local\Temp\ccSIFDDJ.s 			page 145


 6884 25d1 18       		.byte	0x18
 6885 25d2 C001     		.2byte	0x1c0
 6886 25d4 3C       		.uleb128 0x3c
 6887 25d5 62070000 		.4byte	.LASF372
 6888 25d9 62070000 		.4byte	.LASF372
 6889 25dd 1E       		.byte	0x1e
 6890 25de ED02     		.2byte	0x2ed
 6891 25e0 00       		.byte	0
 6892              		.section	.debug_abbrev,"",%progbits
 6893              	.Ldebug_abbrev0:
 6894 0000 01       		.uleb128 0x1
 6895 0001 11       		.uleb128 0x11
 6896 0002 01       		.byte	0x1
 6897 0003 25       		.uleb128 0x25
 6898 0004 0E       		.uleb128 0xe
 6899 0005 13       		.uleb128 0x13
 6900 0006 0B       		.uleb128 0xb
 6901 0007 03       		.uleb128 0x3
 6902 0008 0E       		.uleb128 0xe
 6903 0009 1B       		.uleb128 0x1b
 6904 000a 0E       		.uleb128 0xe
 6905 000b 55       		.uleb128 0x55
 6906 000c 17       		.uleb128 0x17
 6907 000d 11       		.uleb128 0x11
 6908 000e 01       		.uleb128 0x1
 6909 000f 10       		.uleb128 0x10
 6910 0010 17       		.uleb128 0x17
 6911 0011 00       		.byte	0
 6912 0012 00       		.byte	0
 6913 0013 02       		.uleb128 0x2
 6914 0014 24       		.uleb128 0x24
 6915 0015 00       		.byte	0
 6916 0016 0B       		.uleb128 0xb
 6917 0017 0B       		.uleb128 0xb
 6918 0018 3E       		.uleb128 0x3e
 6919 0019 0B       		.uleb128 0xb
 6920 001a 03       		.uleb128 0x3
 6921 001b 0E       		.uleb128 0xe
 6922 001c 00       		.byte	0
 6923 001d 00       		.byte	0
 6924 001e 03       		.uleb128 0x3
 6925 001f 16       		.uleb128 0x16
 6926 0020 00       		.byte	0
 6927 0021 03       		.uleb128 0x3
 6928 0022 0E       		.uleb128 0xe
 6929 0023 3A       		.uleb128 0x3a
 6930 0024 0B       		.uleb128 0xb
 6931 0025 3B       		.uleb128 0x3b
 6932 0026 0B       		.uleb128 0xb
 6933 0027 49       		.uleb128 0x49
 6934 0028 13       		.uleb128 0x13
 6935 0029 00       		.byte	0
 6936 002a 00       		.byte	0
 6937 002b 04       		.uleb128 0x4
 6938 002c 24       		.uleb128 0x24
 6939 002d 00       		.byte	0
 6940 002e 0B       		.uleb128 0xb
ARM GAS  C:\Users\user\AppData\Local\Temp\ccSIFDDJ.s 			page 146


 6941 002f 0B       		.uleb128 0xb
 6942 0030 3E       		.uleb128 0x3e
 6943 0031 0B       		.uleb128 0xb
 6944 0032 03       		.uleb128 0x3
 6945 0033 08       		.uleb128 0x8
 6946 0034 00       		.byte	0
 6947 0035 00       		.byte	0
 6948 0036 05       		.uleb128 0x5
 6949 0037 35       		.uleb128 0x35
 6950 0038 00       		.byte	0
 6951 0039 49       		.uleb128 0x49
 6952 003a 13       		.uleb128 0x13
 6953 003b 00       		.byte	0
 6954 003c 00       		.byte	0
 6955 003d 06       		.uleb128 0x6
 6956 003e 26       		.uleb128 0x26
 6957 003f 00       		.byte	0
 6958 0040 49       		.uleb128 0x49
 6959 0041 13       		.uleb128 0x13
 6960 0042 00       		.byte	0
 6961 0043 00       		.byte	0
 6962 0044 07       		.uleb128 0x7
 6963 0045 01       		.uleb128 0x1
 6964 0046 01       		.byte	0x1
 6965 0047 49       		.uleb128 0x49
 6966 0048 13       		.uleb128 0x13
 6967 0049 01       		.uleb128 0x1
 6968 004a 13       		.uleb128 0x13
 6969 004b 00       		.byte	0
 6970 004c 00       		.byte	0
 6971 004d 08       		.uleb128 0x8
 6972 004e 21       		.uleb128 0x21
 6973 004f 00       		.byte	0
 6974 0050 49       		.uleb128 0x49
 6975 0051 13       		.uleb128 0x13
 6976 0052 2F       		.uleb128 0x2f
 6977 0053 0B       		.uleb128 0xb
 6978 0054 00       		.byte	0
 6979 0055 00       		.byte	0
 6980 0056 09       		.uleb128 0x9
 6981 0057 13       		.uleb128 0x13
 6982 0058 01       		.byte	0x1
 6983 0059 0B       		.uleb128 0xb
 6984 005a 0B       		.uleb128 0xb
 6985 005b 3A       		.uleb128 0x3a
 6986 005c 0B       		.uleb128 0xb
 6987 005d 3B       		.uleb128 0x3b
 6988 005e 0B       		.uleb128 0xb
 6989 005f 01       		.uleb128 0x1
 6990 0060 13       		.uleb128 0x13
 6991 0061 00       		.byte	0
 6992 0062 00       		.byte	0
 6993 0063 0A       		.uleb128 0xa
 6994 0064 0D       		.uleb128 0xd
 6995 0065 00       		.byte	0
 6996 0066 03       		.uleb128 0x3
 6997 0067 08       		.uleb128 0x8
ARM GAS  C:\Users\user\AppData\Local\Temp\ccSIFDDJ.s 			page 147


 6998 0068 3A       		.uleb128 0x3a
 6999 0069 0B       		.uleb128 0xb
 7000 006a 3B       		.uleb128 0x3b
 7001 006b 0B       		.uleb128 0xb
 7002 006c 49       		.uleb128 0x49
 7003 006d 13       		.uleb128 0x13
 7004 006e 38       		.uleb128 0x38
 7005 006f 0B       		.uleb128 0xb
 7006 0070 00       		.byte	0
 7007 0071 00       		.byte	0
 7008 0072 0B       		.uleb128 0xb
 7009 0073 0D       		.uleb128 0xd
 7010 0074 00       		.byte	0
 7011 0075 03       		.uleb128 0x3
 7012 0076 0E       		.uleb128 0xe
 7013 0077 3A       		.uleb128 0x3a
 7014 0078 0B       		.uleb128 0xb
 7015 0079 3B       		.uleb128 0x3b
 7016 007a 0B       		.uleb128 0xb
 7017 007b 49       		.uleb128 0x49
 7018 007c 13       		.uleb128 0x13
 7019 007d 38       		.uleb128 0x38
 7020 007e 0B       		.uleb128 0xb
 7021 007f 00       		.byte	0
 7022 0080 00       		.byte	0
 7023 0081 0C       		.uleb128 0xc
 7024 0082 13       		.uleb128 0x13
 7025 0083 01       		.byte	0x1
 7026 0084 0B       		.uleb128 0xb
 7027 0085 05       		.uleb128 0x5
 7028 0086 3A       		.uleb128 0x3a
 7029 0087 0B       		.uleb128 0xb
 7030 0088 3B       		.uleb128 0x3b
 7031 0089 0B       		.uleb128 0xb
 7032 008a 01       		.uleb128 0x1
 7033 008b 13       		.uleb128 0x13
 7034 008c 00       		.byte	0
 7035 008d 00       		.byte	0
 7036 008e 0D       		.uleb128 0xd
 7037 008f 0D       		.uleb128 0xd
 7038 0090 00       		.byte	0
 7039 0091 03       		.uleb128 0x3
 7040 0092 0E       		.uleb128 0xe
 7041 0093 3A       		.uleb128 0x3a
 7042 0094 0B       		.uleb128 0xb
 7043 0095 3B       		.uleb128 0x3b
 7044 0096 0B       		.uleb128 0xb
 7045 0097 49       		.uleb128 0x49
 7046 0098 13       		.uleb128 0x13
 7047 0099 38       		.uleb128 0x38
 7048 009a 05       		.uleb128 0x5
 7049 009b 00       		.byte	0
 7050 009c 00       		.byte	0
 7051 009d 0E       		.uleb128 0xe
 7052 009e 16       		.uleb128 0x16
 7053 009f 00       		.byte	0
 7054 00a0 03       		.uleb128 0x3
ARM GAS  C:\Users\user\AppData\Local\Temp\ccSIFDDJ.s 			page 148


 7055 00a1 0E       		.uleb128 0xe
 7056 00a2 3A       		.uleb128 0x3a
 7057 00a3 0B       		.uleb128 0xb
 7058 00a4 3B       		.uleb128 0x3b
 7059 00a5 05       		.uleb128 0x5
 7060 00a6 49       		.uleb128 0x49
 7061 00a7 13       		.uleb128 0x13
 7062 00a8 00       		.byte	0
 7063 00a9 00       		.byte	0
 7064 00aa 0F       		.uleb128 0xf
 7065 00ab 0F       		.uleb128 0xf
 7066 00ac 00       		.byte	0
 7067 00ad 0B       		.uleb128 0xb
 7068 00ae 0B       		.uleb128 0xb
 7069 00af 49       		.uleb128 0x49
 7070 00b0 13       		.uleb128 0x13
 7071 00b1 00       		.byte	0
 7072 00b2 00       		.byte	0
 7073 00b3 10       		.uleb128 0x10
 7074 00b4 0F       		.uleb128 0xf
 7075 00b5 00       		.byte	0
 7076 00b6 0B       		.uleb128 0xb
 7077 00b7 0B       		.uleb128 0xb
 7078 00b8 00       		.byte	0
 7079 00b9 00       		.byte	0
 7080 00ba 11       		.uleb128 0x11
 7081 00bb 04       		.uleb128 0x4
 7082 00bc 01       		.byte	0x1
 7083 00bd 0B       		.uleb128 0xb
 7084 00be 0B       		.uleb128 0xb
 7085 00bf 49       		.uleb128 0x49
 7086 00c0 13       		.uleb128 0x13
 7087 00c1 3A       		.uleb128 0x3a
 7088 00c2 0B       		.uleb128 0xb
 7089 00c3 3B       		.uleb128 0x3b
 7090 00c4 05       		.uleb128 0x5
 7091 00c5 01       		.uleb128 0x1
 7092 00c6 13       		.uleb128 0x13
 7093 00c7 00       		.byte	0
 7094 00c8 00       		.byte	0
 7095 00c9 12       		.uleb128 0x12
 7096 00ca 28       		.uleb128 0x28
 7097 00cb 00       		.byte	0
 7098 00cc 03       		.uleb128 0x3
 7099 00cd 0E       		.uleb128 0xe
 7100 00ce 1C       		.uleb128 0x1c
 7101 00cf 0B       		.uleb128 0xb
 7102 00d0 00       		.byte	0
 7103 00d1 00       		.byte	0
 7104 00d2 13       		.uleb128 0x13
 7105 00d3 15       		.uleb128 0x15
 7106 00d4 01       		.byte	0x1
 7107 00d5 27       		.uleb128 0x27
 7108 00d6 19       		.uleb128 0x19
 7109 00d7 01       		.uleb128 0x1
 7110 00d8 13       		.uleb128 0x13
 7111 00d9 00       		.byte	0
ARM GAS  C:\Users\user\AppData\Local\Temp\ccSIFDDJ.s 			page 149


 7112 00da 00       		.byte	0
 7113 00db 14       		.uleb128 0x14
 7114 00dc 05       		.uleb128 0x5
 7115 00dd 00       		.byte	0
 7116 00de 49       		.uleb128 0x49
 7117 00df 13       		.uleb128 0x13
 7118 00e0 00       		.byte	0
 7119 00e1 00       		.byte	0
 7120 00e2 15       		.uleb128 0x15
 7121 00e3 15       		.uleb128 0x15
 7122 00e4 01       		.byte	0x1
 7123 00e5 27       		.uleb128 0x27
 7124 00e6 19       		.uleb128 0x19
 7125 00e7 49       		.uleb128 0x49
 7126 00e8 13       		.uleb128 0x13
 7127 00e9 01       		.uleb128 0x1
 7128 00ea 13       		.uleb128 0x13
 7129 00eb 00       		.byte	0
 7130 00ec 00       		.byte	0
 7131 00ed 16       		.uleb128 0x16
 7132 00ee 13       		.uleb128 0x13
 7133 00ef 01       		.byte	0x1
 7134 00f0 03       		.uleb128 0x3
 7135 00f1 0E       		.uleb128 0xe
 7136 00f2 0B       		.uleb128 0xb
 7137 00f3 0B       		.uleb128 0xb
 7138 00f4 3A       		.uleb128 0x3a
 7139 00f5 0B       		.uleb128 0xb
 7140 00f6 3B       		.uleb128 0x3b
 7141 00f7 05       		.uleb128 0x5
 7142 00f8 01       		.uleb128 0x1
 7143 00f9 13       		.uleb128 0x13
 7144 00fa 00       		.byte	0
 7145 00fb 00       		.byte	0
 7146 00fc 17       		.uleb128 0x17
 7147 00fd 0D       		.uleb128 0xd
 7148 00fe 00       		.byte	0
 7149 00ff 03       		.uleb128 0x3
 7150 0100 0E       		.uleb128 0xe
 7151 0101 3A       		.uleb128 0x3a
 7152 0102 0B       		.uleb128 0xb
 7153 0103 3B       		.uleb128 0x3b
 7154 0104 05       		.uleb128 0x5
 7155 0105 49       		.uleb128 0x49
 7156 0106 13       		.uleb128 0x13
 7157 0107 38       		.uleb128 0x38
 7158 0108 0B       		.uleb128 0xb
 7159 0109 00       		.byte	0
 7160 010a 00       		.byte	0
 7161 010b 18       		.uleb128 0x18
 7162 010c 13       		.uleb128 0x13
 7163 010d 01       		.byte	0x1
 7164 010e 03       		.uleb128 0x3
 7165 010f 0E       		.uleb128 0xe
 7166 0110 0B       		.uleb128 0xb
 7167 0111 0B       		.uleb128 0xb
 7168 0112 3A       		.uleb128 0x3a
ARM GAS  C:\Users\user\AppData\Local\Temp\ccSIFDDJ.s 			page 150


 7169 0113 0B       		.uleb128 0xb
 7170 0114 3B       		.uleb128 0x3b
 7171 0115 0B       		.uleb128 0xb
 7172 0116 01       		.uleb128 0x1
 7173 0117 13       		.uleb128 0x13
 7174 0118 00       		.byte	0
 7175 0119 00       		.byte	0
 7176 011a 19       		.uleb128 0x19
 7177 011b 26       		.uleb128 0x26
 7178 011c 00       		.byte	0
 7179 011d 00       		.byte	0
 7180 011e 00       		.byte	0
 7181 011f 1A       		.uleb128 0x1a
 7182 0120 13       		.uleb128 0x13
 7183 0121 01       		.byte	0x1
 7184 0122 0B       		.uleb128 0xb
 7185 0123 0B       		.uleb128 0xb
 7186 0124 3A       		.uleb128 0x3a
 7187 0125 0B       		.uleb128 0xb
 7188 0126 3B       		.uleb128 0x3b
 7189 0127 05       		.uleb128 0x5
 7190 0128 01       		.uleb128 0x1
 7191 0129 13       		.uleb128 0x13
 7192 012a 00       		.byte	0
 7193 012b 00       		.byte	0
 7194 012c 1B       		.uleb128 0x1b
 7195 012d 0D       		.uleb128 0xd
 7196 012e 00       		.byte	0
 7197 012f 03       		.uleb128 0x3
 7198 0130 08       		.uleb128 0x8
 7199 0131 3A       		.uleb128 0x3a
 7200 0132 0B       		.uleb128 0xb
 7201 0133 3B       		.uleb128 0x3b
 7202 0134 05       		.uleb128 0x5
 7203 0135 49       		.uleb128 0x49
 7204 0136 13       		.uleb128 0x13
 7205 0137 38       		.uleb128 0x38
 7206 0138 0B       		.uleb128 0xb
 7207 0139 00       		.byte	0
 7208 013a 00       		.byte	0
 7209 013b 1C       		.uleb128 0x1c
 7210 013c 17       		.uleb128 0x17
 7211 013d 01       		.byte	0x1
 7212 013e 0B       		.uleb128 0xb
 7213 013f 0B       		.uleb128 0xb
 7214 0140 3A       		.uleb128 0x3a
 7215 0141 0B       		.uleb128 0xb
 7216 0142 3B       		.uleb128 0x3b
 7217 0143 05       		.uleb128 0x5
 7218 0144 01       		.uleb128 0x1
 7219 0145 13       		.uleb128 0x13
 7220 0146 00       		.byte	0
 7221 0147 00       		.byte	0
 7222 0148 1D       		.uleb128 0x1d
 7223 0149 0D       		.uleb128 0xd
 7224 014a 00       		.byte	0
 7225 014b 03       		.uleb128 0x3
ARM GAS  C:\Users\user\AppData\Local\Temp\ccSIFDDJ.s 			page 151


 7226 014c 0E       		.uleb128 0xe
 7227 014d 3A       		.uleb128 0x3a
 7228 014e 0B       		.uleb128 0xb
 7229 014f 3B       		.uleb128 0x3b
 7230 0150 05       		.uleb128 0x5
 7231 0151 49       		.uleb128 0x49
 7232 0152 13       		.uleb128 0x13
 7233 0153 00       		.byte	0
 7234 0154 00       		.byte	0
 7235 0155 1E       		.uleb128 0x1e
 7236 0156 04       		.uleb128 0x4
 7237 0157 01       		.byte	0x1
 7238 0158 0B       		.uleb128 0xb
 7239 0159 0B       		.uleb128 0xb
 7240 015a 49       		.uleb128 0x49
 7241 015b 13       		.uleb128 0x13
 7242 015c 3A       		.uleb128 0x3a
 7243 015d 0B       		.uleb128 0xb
 7244 015e 3B       		.uleb128 0x3b
 7245 015f 0B       		.uleb128 0xb
 7246 0160 01       		.uleb128 0x1
 7247 0161 13       		.uleb128 0x13
 7248 0162 00       		.byte	0
 7249 0163 00       		.byte	0
 7250 0164 1F       		.uleb128 0x1f
 7251 0165 2E       		.uleb128 0x2e
 7252 0166 01       		.byte	0x1
 7253 0167 03       		.uleb128 0x3
 7254 0168 0E       		.uleb128 0xe
 7255 0169 3A       		.uleb128 0x3a
 7256 016a 0B       		.uleb128 0xb
 7257 016b 3B       		.uleb128 0x3b
 7258 016c 05       		.uleb128 0x5
 7259 016d 27       		.uleb128 0x27
 7260 016e 19       		.uleb128 0x19
 7261 016f 20       		.uleb128 0x20
 7262 0170 0B       		.uleb128 0xb
 7263 0171 01       		.uleb128 0x1
 7264 0172 13       		.uleb128 0x13
 7265 0173 00       		.byte	0
 7266 0174 00       		.byte	0
 7267 0175 20       		.uleb128 0x20
 7268 0176 05       		.uleb128 0x5
 7269 0177 00       		.byte	0
 7270 0178 03       		.uleb128 0x3
 7271 0179 0E       		.uleb128 0xe
 7272 017a 3A       		.uleb128 0x3a
 7273 017b 0B       		.uleb128 0xb
 7274 017c 3B       		.uleb128 0x3b
 7275 017d 05       		.uleb128 0x5
 7276 017e 49       		.uleb128 0x49
 7277 017f 13       		.uleb128 0x13
 7278 0180 00       		.byte	0
 7279 0181 00       		.byte	0
 7280 0182 21       		.uleb128 0x21
 7281 0183 2E       		.uleb128 0x2e
 7282 0184 01       		.byte	0x1
ARM GAS  C:\Users\user\AppData\Local\Temp\ccSIFDDJ.s 			page 152


 7283 0185 3F       		.uleb128 0x3f
 7284 0186 19       		.uleb128 0x19
 7285 0187 03       		.uleb128 0x3
 7286 0188 0E       		.uleb128 0xe
 7287 0189 3A       		.uleb128 0x3a
 7288 018a 0B       		.uleb128 0xb
 7289 018b 3B       		.uleb128 0x3b
 7290 018c 0B       		.uleb128 0xb
 7291 018d 27       		.uleb128 0x27
 7292 018e 19       		.uleb128 0x19
 7293 018f 11       		.uleb128 0x11
 7294 0190 01       		.uleb128 0x1
 7295 0191 12       		.uleb128 0x12
 7296 0192 06       		.uleb128 0x6
 7297 0193 40       		.uleb128 0x40
 7298 0194 18       		.uleb128 0x18
 7299 0195 9742     		.uleb128 0x2117
 7300 0197 19       		.uleb128 0x19
 7301 0198 01       		.uleb128 0x1
 7302 0199 13       		.uleb128 0x13
 7303 019a 00       		.byte	0
 7304 019b 00       		.byte	0
 7305 019c 22       		.uleb128 0x22
 7306 019d 05       		.uleb128 0x5
 7307 019e 00       		.byte	0
 7308 019f 03       		.uleb128 0x3
 7309 01a0 0E       		.uleb128 0xe
 7310 01a1 3A       		.uleb128 0x3a
 7311 01a2 0B       		.uleb128 0xb
 7312 01a3 3B       		.uleb128 0x3b
 7313 01a4 0B       		.uleb128 0xb
 7314 01a5 49       		.uleb128 0x49
 7315 01a6 13       		.uleb128 0x13
 7316 01a7 02       		.uleb128 0x2
 7317 01a8 17       		.uleb128 0x17
 7318 01a9 00       		.byte	0
 7319 01aa 00       		.byte	0
 7320 01ab 23       		.uleb128 0x23
 7321 01ac 34       		.uleb128 0x34
 7322 01ad 00       		.byte	0
 7323 01ae 03       		.uleb128 0x3
 7324 01af 0E       		.uleb128 0xe
 7325 01b0 3A       		.uleb128 0x3a
 7326 01b1 0B       		.uleb128 0xb
 7327 01b2 3B       		.uleb128 0x3b
 7328 01b3 0B       		.uleb128 0xb
 7329 01b4 49       		.uleb128 0x49
 7330 01b5 13       		.uleb128 0x13
 7331 01b6 02       		.uleb128 0x2
 7332 01b7 17       		.uleb128 0x17
 7333 01b8 00       		.byte	0
 7334 01b9 00       		.byte	0
 7335 01ba 24       		.uleb128 0x24
 7336 01bb 898201   		.uleb128 0x4109
 7337 01be 00       		.byte	0
 7338 01bf 11       		.uleb128 0x11
 7339 01c0 01       		.uleb128 0x1
ARM GAS  C:\Users\user\AppData\Local\Temp\ccSIFDDJ.s 			page 153


 7340 01c1 31       		.uleb128 0x31
 7341 01c2 13       		.uleb128 0x13
 7342 01c3 00       		.byte	0
 7343 01c4 00       		.byte	0
 7344 01c5 25       		.uleb128 0x25
 7345 01c6 898201   		.uleb128 0x4109
 7346 01c9 01       		.byte	0x1
 7347 01ca 11       		.uleb128 0x11
 7348 01cb 01       		.uleb128 0x1
 7349 01cc 31       		.uleb128 0x31
 7350 01cd 13       		.uleb128 0x13
 7351 01ce 01       		.uleb128 0x1
 7352 01cf 13       		.uleb128 0x13
 7353 01d0 00       		.byte	0
 7354 01d1 00       		.byte	0
 7355 01d2 26       		.uleb128 0x26
 7356 01d3 8A8201   		.uleb128 0x410a
 7357 01d6 00       		.byte	0
 7358 01d7 02       		.uleb128 0x2
 7359 01d8 18       		.uleb128 0x18
 7360 01d9 9142     		.uleb128 0x2111
 7361 01db 18       		.uleb128 0x18
 7362 01dc 00       		.byte	0
 7363 01dd 00       		.byte	0
 7364 01de 27       		.uleb128 0x27
 7365 01df 898201   		.uleb128 0x4109
 7366 01e2 01       		.byte	0x1
 7367 01e3 11       		.uleb128 0x11
 7368 01e4 01       		.uleb128 0x1
 7369 01e5 31       		.uleb128 0x31
 7370 01e6 13       		.uleb128 0x13
 7371 01e7 00       		.byte	0
 7372 01e8 00       		.byte	0
 7373 01e9 28       		.uleb128 0x28
 7374 01ea 2E       		.uleb128 0x2e
 7375 01eb 01       		.byte	0x1
 7376 01ec 3F       		.uleb128 0x3f
 7377 01ed 19       		.uleb128 0x19
 7378 01ee 03       		.uleb128 0x3
 7379 01ef 0E       		.uleb128 0xe
 7380 01f0 3A       		.uleb128 0x3a
 7381 01f1 0B       		.uleb128 0xb
 7382 01f2 3B       		.uleb128 0x3b
 7383 01f3 0B       		.uleb128 0xb
 7384 01f4 27       		.uleb128 0x27
 7385 01f5 19       		.uleb128 0x19
 7386 01f6 49       		.uleb128 0x49
 7387 01f7 13       		.uleb128 0x13
 7388 01f8 11       		.uleb128 0x11
 7389 01f9 01       		.uleb128 0x1
 7390 01fa 12       		.uleb128 0x12
 7391 01fb 06       		.uleb128 0x6
 7392 01fc 40       		.uleb128 0x40
 7393 01fd 18       		.uleb128 0x18
 7394 01fe 9742     		.uleb128 0x2117
 7395 0200 19       		.uleb128 0x19
 7396 0201 01       		.uleb128 0x1
ARM GAS  C:\Users\user\AppData\Local\Temp\ccSIFDDJ.s 			page 154


 7397 0202 13       		.uleb128 0x13
 7398 0203 00       		.byte	0
 7399 0204 00       		.byte	0
 7400 0205 29       		.uleb128 0x29
 7401 0206 05       		.uleb128 0x5
 7402 0207 00       		.byte	0
 7403 0208 03       		.uleb128 0x3
 7404 0209 08       		.uleb128 0x8
 7405 020a 3A       		.uleb128 0x3a
 7406 020b 0B       		.uleb128 0xb
 7407 020c 3B       		.uleb128 0x3b
 7408 020d 0B       		.uleb128 0xb
 7409 020e 49       		.uleb128 0x49
 7410 020f 13       		.uleb128 0x13
 7411 0210 02       		.uleb128 0x2
 7412 0211 17       		.uleb128 0x17
 7413 0212 00       		.byte	0
 7414 0213 00       		.byte	0
 7415 0214 2A       		.uleb128 0x2a
 7416 0215 05       		.uleb128 0x5
 7417 0216 00       		.byte	0
 7418 0217 03       		.uleb128 0x3
 7419 0218 08       		.uleb128 0x8
 7420 0219 3A       		.uleb128 0x3a
 7421 021a 0B       		.uleb128 0xb
 7422 021b 3B       		.uleb128 0x3b
 7423 021c 0B       		.uleb128 0xb
 7424 021d 49       		.uleb128 0x49
 7425 021e 13       		.uleb128 0x13
 7426 021f 02       		.uleb128 0x2
 7427 0220 18       		.uleb128 0x18
 7428 0221 00       		.byte	0
 7429 0222 00       		.byte	0
 7430 0223 2B       		.uleb128 0x2b
 7431 0224 34       		.uleb128 0x34
 7432 0225 00       		.byte	0
 7433 0226 03       		.uleb128 0x3
 7434 0227 08       		.uleb128 0x8
 7435 0228 3A       		.uleb128 0x3a
 7436 0229 0B       		.uleb128 0xb
 7437 022a 3B       		.uleb128 0x3b
 7438 022b 0B       		.uleb128 0xb
 7439 022c 49       		.uleb128 0x49
 7440 022d 13       		.uleb128 0x13
 7441 022e 02       		.uleb128 0x2
 7442 022f 17       		.uleb128 0x17
 7443 0230 00       		.byte	0
 7444 0231 00       		.byte	0
 7445 0232 2C       		.uleb128 0x2c
 7446 0233 34       		.uleb128 0x34
 7447 0234 00       		.byte	0
 7448 0235 03       		.uleb128 0x3
 7449 0236 08       		.uleb128 0x8
 7450 0237 3A       		.uleb128 0x3a
 7451 0238 0B       		.uleb128 0xb
 7452 0239 3B       		.uleb128 0x3b
 7453 023a 0B       		.uleb128 0xb
ARM GAS  C:\Users\user\AppData\Local\Temp\ccSIFDDJ.s 			page 155


 7454 023b 49       		.uleb128 0x49
 7455 023c 13       		.uleb128 0x13
 7456 023d 02       		.uleb128 0x2
 7457 023e 18       		.uleb128 0x18
 7458 023f 00       		.byte	0
 7459 0240 00       		.byte	0
 7460 0241 2D       		.uleb128 0x2d
 7461 0242 0B       		.uleb128 0xb
 7462 0243 01       		.byte	0x1
 7463 0244 55       		.uleb128 0x55
 7464 0245 17       		.uleb128 0x17
 7465 0246 01       		.uleb128 0x1
 7466 0247 13       		.uleb128 0x13
 7467 0248 00       		.byte	0
 7468 0249 00       		.byte	0
 7469 024a 2E       		.uleb128 0x2e
 7470 024b 0B       		.uleb128 0xb
 7471 024c 01       		.byte	0x1
 7472 024d 11       		.uleb128 0x11
 7473 024e 01       		.uleb128 0x1
 7474 024f 12       		.uleb128 0x12
 7475 0250 06       		.uleb128 0x6
 7476 0251 01       		.uleb128 0x1
 7477 0252 13       		.uleb128 0x13
 7478 0253 00       		.byte	0
 7479 0254 00       		.byte	0
 7480 0255 2F       		.uleb128 0x2f
 7481 0256 34       		.uleb128 0x34
 7482 0257 00       		.byte	0
 7483 0258 03       		.uleb128 0x3
 7484 0259 0E       		.uleb128 0xe
 7485 025a 3A       		.uleb128 0x3a
 7486 025b 0B       		.uleb128 0xb
 7487 025c 3B       		.uleb128 0x3b
 7488 025d 0B       		.uleb128 0xb
 7489 025e 49       		.uleb128 0x49
 7490 025f 13       		.uleb128 0x13
 7491 0260 02       		.uleb128 0x2
 7492 0261 18       		.uleb128 0x18
 7493 0262 00       		.byte	0
 7494 0263 00       		.byte	0
 7495 0264 30       		.uleb128 0x30
 7496 0265 2E       		.uleb128 0x2e
 7497 0266 01       		.byte	0x1
 7498 0267 3F       		.uleb128 0x3f
 7499 0268 19       		.uleb128 0x19
 7500 0269 03       		.uleb128 0x3
 7501 026a 0E       		.uleb128 0xe
 7502 026b 3A       		.uleb128 0x3a
 7503 026c 0B       		.uleb128 0xb
 7504 026d 3B       		.uleb128 0x3b
 7505 026e 0B       		.uleb128 0xb
 7506 026f 11       		.uleb128 0x11
 7507 0270 01       		.uleb128 0x1
 7508 0271 12       		.uleb128 0x12
 7509 0272 06       		.uleb128 0x6
 7510 0273 40       		.uleb128 0x40
ARM GAS  C:\Users\user\AppData\Local\Temp\ccSIFDDJ.s 			page 156


 7511 0274 18       		.uleb128 0x18
 7512 0275 9742     		.uleb128 0x2117
 7513 0277 19       		.uleb128 0x19
 7514 0278 01       		.uleb128 0x1
 7515 0279 13       		.uleb128 0x13
 7516 027a 00       		.byte	0
 7517 027b 00       		.byte	0
 7518 027c 31       		.uleb128 0x31
 7519 027d 2E       		.uleb128 0x2e
 7520 027e 01       		.byte	0x1
 7521 027f 3F       		.uleb128 0x3f
 7522 0280 19       		.uleb128 0x19
 7523 0281 03       		.uleb128 0x3
 7524 0282 0E       		.uleb128 0xe
 7525 0283 3A       		.uleb128 0x3a
 7526 0284 0B       		.uleb128 0xb
 7527 0285 3B       		.uleb128 0x3b
 7528 0286 0B       		.uleb128 0xb
 7529 0287 27       		.uleb128 0x27
 7530 0288 19       		.uleb128 0x19
 7531 0289 8701     		.uleb128 0x87
 7532 028b 19       		.uleb128 0x19
 7533 028c 11       		.uleb128 0x11
 7534 028d 01       		.uleb128 0x1
 7535 028e 12       		.uleb128 0x12
 7536 028f 06       		.uleb128 0x6
 7537 0290 40       		.uleb128 0x40
 7538 0291 18       		.uleb128 0x18
 7539 0292 9742     		.uleb128 0x2117
 7540 0294 19       		.uleb128 0x19
 7541 0295 01       		.uleb128 0x1
 7542 0296 13       		.uleb128 0x13
 7543 0297 00       		.byte	0
 7544 0298 00       		.byte	0
 7545 0299 32       		.uleb128 0x32
 7546 029a 1D       		.uleb128 0x1d
 7547 029b 01       		.byte	0x1
 7548 029c 31       		.uleb128 0x31
 7549 029d 13       		.uleb128 0x13
 7550 029e 11       		.uleb128 0x11
 7551 029f 01       		.uleb128 0x1
 7552 02a0 12       		.uleb128 0x12
 7553 02a1 06       		.uleb128 0x6
 7554 02a2 58       		.uleb128 0x58
 7555 02a3 0B       		.uleb128 0xb
 7556 02a4 59       		.uleb128 0x59
 7557 02a5 05       		.uleb128 0x5
 7558 02a6 01       		.uleb128 0x1
 7559 02a7 13       		.uleb128 0x13
 7560 02a8 00       		.byte	0
 7561 02a9 00       		.byte	0
 7562 02aa 33       		.uleb128 0x33
 7563 02ab 05       		.uleb128 0x5
 7564 02ac 00       		.byte	0
 7565 02ad 31       		.uleb128 0x31
 7566 02ae 13       		.uleb128 0x13
 7567 02af 02       		.uleb128 0x2
ARM GAS  C:\Users\user\AppData\Local\Temp\ccSIFDDJ.s 			page 157


 7568 02b0 17       		.uleb128 0x17
 7569 02b1 00       		.byte	0
 7570 02b2 00       		.byte	0
 7571 02b3 34       		.uleb128 0x34
 7572 02b4 21       		.uleb128 0x21
 7573 02b5 00       		.byte	0
 7574 02b6 49       		.uleb128 0x49
 7575 02b7 13       		.uleb128 0x13
 7576 02b8 2F       		.uleb128 0x2f
 7577 02b9 05       		.uleb128 0x5
 7578 02ba 00       		.byte	0
 7579 02bb 00       		.byte	0
 7580 02bc 35       		.uleb128 0x35
 7581 02bd 34       		.uleb128 0x34
 7582 02be 00       		.byte	0
 7583 02bf 03       		.uleb128 0x3
 7584 02c0 0E       		.uleb128 0xe
 7585 02c1 3A       		.uleb128 0x3a
 7586 02c2 0B       		.uleb128 0xb
 7587 02c3 3B       		.uleb128 0x3b
 7588 02c4 0B       		.uleb128 0xb
 7589 02c5 49       		.uleb128 0x49
 7590 02c6 13       		.uleb128 0x13
 7591 02c7 00       		.byte	0
 7592 02c8 00       		.byte	0
 7593 02c9 36       		.uleb128 0x36
 7594 02ca 34       		.uleb128 0x34
 7595 02cb 00       		.byte	0
 7596 02cc 03       		.uleb128 0x3
 7597 02cd 0E       		.uleb128 0xe
 7598 02ce 3A       		.uleb128 0x3a
 7599 02cf 0B       		.uleb128 0xb
 7600 02d0 3B       		.uleb128 0x3b
 7601 02d1 05       		.uleb128 0x5
 7602 02d2 49       		.uleb128 0x49
 7603 02d3 13       		.uleb128 0x13
 7604 02d4 3F       		.uleb128 0x3f
 7605 02d5 19       		.uleb128 0x19
 7606 02d6 3C       		.uleb128 0x3c
 7607 02d7 19       		.uleb128 0x19
 7608 02d8 00       		.byte	0
 7609 02d9 00       		.byte	0
 7610 02da 37       		.uleb128 0x37
 7611 02db 34       		.uleb128 0x34
 7612 02dc 00       		.byte	0
 7613 02dd 03       		.uleb128 0x3
 7614 02de 0E       		.uleb128 0xe
 7615 02df 3A       		.uleb128 0x3a
 7616 02e0 0B       		.uleb128 0xb
 7617 02e1 3B       		.uleb128 0x3b
 7618 02e2 0B       		.uleb128 0xb
 7619 02e3 49       		.uleb128 0x49
 7620 02e4 13       		.uleb128 0x13
 7621 02e5 3F       		.uleb128 0x3f
 7622 02e6 19       		.uleb128 0x19
 7623 02e7 3C       		.uleb128 0x3c
 7624 02e8 19       		.uleb128 0x19
ARM GAS  C:\Users\user\AppData\Local\Temp\ccSIFDDJ.s 			page 158


 7625 02e9 00       		.byte	0
 7626 02ea 00       		.byte	0
 7627 02eb 38       		.uleb128 0x38
 7628 02ec 34       		.uleb128 0x34
 7629 02ed 00       		.byte	0
 7630 02ee 03       		.uleb128 0x3
 7631 02ef 0E       		.uleb128 0xe
 7632 02f0 3A       		.uleb128 0x3a
 7633 02f1 0B       		.uleb128 0xb
 7634 02f2 3B       		.uleb128 0x3b
 7635 02f3 0B       		.uleb128 0xb
 7636 02f4 49       		.uleb128 0x49
 7637 02f5 13       		.uleb128 0x13
 7638 02f6 3F       		.uleb128 0x3f
 7639 02f7 19       		.uleb128 0x19
 7640 02f8 02       		.uleb128 0x2
 7641 02f9 18       		.uleb128 0x18
 7642 02fa 00       		.byte	0
 7643 02fb 00       		.byte	0
 7644 02fc 39       		.uleb128 0x39
 7645 02fd 34       		.uleb128 0x34
 7646 02fe 00       		.byte	0
 7647 02ff 03       		.uleb128 0x3
 7648 0300 08       		.uleb128 0x8
 7649 0301 3A       		.uleb128 0x3a
 7650 0302 0B       		.uleb128 0xb
 7651 0303 3B       		.uleb128 0x3b
 7652 0304 0B       		.uleb128 0xb
 7653 0305 49       		.uleb128 0x49
 7654 0306 13       		.uleb128 0x13
 7655 0307 3F       		.uleb128 0x3f
 7656 0308 19       		.uleb128 0x19
 7657 0309 02       		.uleb128 0x2
 7658 030a 18       		.uleb128 0x18
 7659 030b 00       		.byte	0
 7660 030c 00       		.byte	0
 7661 030d 3A       		.uleb128 0x3a
 7662 030e 2E       		.uleb128 0x2e
 7663 030f 00       		.byte	0
 7664 0310 3F       		.uleb128 0x3f
 7665 0311 19       		.uleb128 0x19
 7666 0312 3C       		.uleb128 0x3c
 7667 0313 19       		.uleb128 0x19
 7668 0314 6E       		.uleb128 0x6e
 7669 0315 0E       		.uleb128 0xe
 7670 0316 03       		.uleb128 0x3
 7671 0317 0E       		.uleb128 0xe
 7672 0318 3A       		.uleb128 0x3a
 7673 0319 0B       		.uleb128 0xb
 7674 031a 3B       		.uleb128 0x3b
 7675 031b 0B       		.uleb128 0xb
 7676 031c 00       		.byte	0
 7677 031d 00       		.byte	0
 7678 031e 3B       		.uleb128 0x3b
 7679 031f 2E       		.uleb128 0x2e
 7680 0320 00       		.byte	0
 7681 0321 3F       		.uleb128 0x3f
ARM GAS  C:\Users\user\AppData\Local\Temp\ccSIFDDJ.s 			page 159


 7682 0322 19       		.uleb128 0x19
 7683 0323 3C       		.uleb128 0x3c
 7684 0324 19       		.uleb128 0x19
 7685 0325 6E       		.uleb128 0x6e
 7686 0326 0E       		.uleb128 0xe
 7687 0327 03       		.uleb128 0x3
 7688 0328 0E       		.uleb128 0xe
 7689 0329 00       		.byte	0
 7690 032a 00       		.byte	0
 7691 032b 3C       		.uleb128 0x3c
 7692 032c 2E       		.uleb128 0x2e
 7693 032d 00       		.byte	0
 7694 032e 3F       		.uleb128 0x3f
 7695 032f 19       		.uleb128 0x19
 7696 0330 3C       		.uleb128 0x3c
 7697 0331 19       		.uleb128 0x19
 7698 0332 6E       		.uleb128 0x6e
 7699 0333 0E       		.uleb128 0xe
 7700 0334 03       		.uleb128 0x3
 7701 0335 0E       		.uleb128 0xe
 7702 0336 3A       		.uleb128 0x3a
 7703 0337 0B       		.uleb128 0xb
 7704 0338 3B       		.uleb128 0x3b
 7705 0339 05       		.uleb128 0x5
 7706 033a 00       		.byte	0
 7707 033b 00       		.byte	0
 7708 033c 00       		.byte	0
 7709              		.section	.debug_loc,"",%progbits
 7710              	.Ldebug_loc0:
 7711              	.LLST0:
 7712 0000 00000000 		.4byte	.LVL0
 7713 0004 09000000 		.4byte	.LVL1-1
 7714 0008 0100     		.2byte	0x1
 7715 000a 50       		.byte	0x50
 7716 000b 09000000 		.4byte	.LVL1-1
 7717 000f 2C000000 		.4byte	.LFE693
 7718 0013 0400     		.2byte	0x4
 7719 0015 F3       		.byte	0xf3
 7720 0016 01       		.uleb128 0x1
 7721 0017 50       		.byte	0x50
 7722 0018 9F       		.byte	0x9f
 7723 0019 00000000 		.4byte	0
 7724 001d 00000000 		.4byte	0
 7725              	.LLST1:
 7726 0021 00000000 		.4byte	.LVL0
 7727 0025 09000000 		.4byte	.LVL1-1
 7728 0029 0100     		.2byte	0x1
 7729 002b 51       		.byte	0x51
 7730 002c 09000000 		.4byte	.LVL1-1
 7731 0030 2C000000 		.4byte	.LFE693
 7732 0034 0400     		.2byte	0x4
 7733 0036 F3       		.byte	0xf3
 7734 0037 01       		.uleb128 0x1
 7735 0038 51       		.byte	0x51
 7736 0039 9F       		.byte	0x9f
 7737 003a 00000000 		.4byte	0
 7738 003e 00000000 		.4byte	0
ARM GAS  C:\Users\user\AppData\Local\Temp\ccSIFDDJ.s 			page 160


 7739              	.LLST2:
 7740 0042 0C000000 		.4byte	.LVL2
 7741 0046 16000000 		.4byte	.LVL3
 7742 004a 0100     		.2byte	0x1
 7743 004c 50       		.byte	0x50
 7744 004d 16000000 		.4byte	.LVL3
 7745 0051 19000000 		.4byte	.LVL4-1
 7746 0055 0100     		.2byte	0x1
 7747 0057 51       		.byte	0x51
 7748 0058 19000000 		.4byte	.LVL4-1
 7749 005c 28000000 		.4byte	.LVL6
 7750 0060 0100     		.2byte	0x1
 7751 0062 55       		.byte	0x55
 7752 0063 00000000 		.4byte	0
 7753 0067 00000000 		.4byte	0
 7754              	.LLST3:
 7755 006b 00000000 		.4byte	.LVL7
 7756 006f 06000000 		.4byte	.LVL8
 7757 0073 0100     		.2byte	0x1
 7758 0075 50       		.byte	0x50
 7759 0076 06000000 		.4byte	.LVL8
 7760 007a 1E000000 		.4byte	.LVL12
 7761 007e 0100     		.2byte	0x1
 7762 0080 54       		.byte	0x54
 7763 0081 1E000000 		.4byte	.LVL12
 7764 0085 20000000 		.4byte	.LFE694
 7765 0089 0400     		.2byte	0x4
 7766 008b F3       		.byte	0xf3
 7767 008c 01       		.uleb128 0x1
 7768 008d 50       		.byte	0x50
 7769 008e 9F       		.byte	0x9f
 7770 008f 00000000 		.4byte	0
 7771 0093 00000000 		.4byte	0
 7772              	.LLST4:
 7773 0097 06000000 		.4byte	.LVL8
 7774 009b 0A000000 		.4byte	.LVL9
 7775 009f 0200     		.2byte	0x2
 7776 00a1 31       		.byte	0x31
 7777 00a2 9F       		.byte	0x9f
 7778 00a3 0A000000 		.4byte	.LVL9
 7779 00a7 20000000 		.4byte	.LFE694
 7780 00ab 0100     		.2byte	0x1
 7781 00ad 53       		.byte	0x53
 7782 00ae 00000000 		.4byte	0
 7783 00b2 00000000 		.4byte	0
 7784              	.LLST5:
 7785 00b6 00000000 		.4byte	.LVL13
 7786 00ba 06000000 		.4byte	.LVL14
 7787 00be 0100     		.2byte	0x1
 7788 00c0 50       		.byte	0x50
 7789 00c1 06000000 		.4byte	.LVL14
 7790 00c5 1E000000 		.4byte	.LVL18
 7791 00c9 0100     		.2byte	0x1
 7792 00cb 54       		.byte	0x54
 7793 00cc 1E000000 		.4byte	.LVL18
 7794 00d0 20000000 		.4byte	.LFE695
 7795 00d4 0400     		.2byte	0x4
ARM GAS  C:\Users\user\AppData\Local\Temp\ccSIFDDJ.s 			page 161


 7796 00d6 F3       		.byte	0xf3
 7797 00d7 01       		.uleb128 0x1
 7798 00d8 50       		.byte	0x50
 7799 00d9 9F       		.byte	0x9f
 7800 00da 00000000 		.4byte	0
 7801 00de 00000000 		.4byte	0
 7802              	.LLST6:
 7803 00e2 06000000 		.4byte	.LVL14
 7804 00e6 0A000000 		.4byte	.LVL15
 7805 00ea 0200     		.2byte	0x2
 7806 00ec 31       		.byte	0x31
 7807 00ed 9F       		.byte	0x9f
 7808 00ee 0A000000 		.4byte	.LVL15
 7809 00f2 20000000 		.4byte	.LFE695
 7810 00f6 0100     		.2byte	0x1
 7811 00f8 53       		.byte	0x53
 7812 00f9 00000000 		.4byte	0
 7813 00fd 00000000 		.4byte	0
 7814              	.LLST7:
 7815 0101 00000000 		.4byte	.LVL19
 7816 0105 0C000000 		.4byte	.LVL20
 7817 0109 0100     		.2byte	0x1
 7818 010b 50       		.byte	0x50
 7819 010c 0C000000 		.4byte	.LVL20
 7820 0110 06010000 		.4byte	.LVL47
 7821 0114 0100     		.2byte	0x1
 7822 0116 56       		.byte	0x56
 7823 0117 06010000 		.4byte	.LVL47
 7824 011b 2C010000 		.4byte	.LFE696
 7825 011f 0400     		.2byte	0x4
 7826 0121 F3       		.byte	0xf3
 7827 0122 01       		.uleb128 0x1
 7828 0123 50       		.byte	0x50
 7829 0124 9F       		.byte	0x9f
 7830 0125 00000000 		.4byte	0
 7831 0129 00000000 		.4byte	0
 7832              	.LLST8:
 7833 012d 00000000 		.4byte	.LVL19
 7834 0131 0F000000 		.4byte	.LVL21-1
 7835 0135 0100     		.2byte	0x1
 7836 0137 51       		.byte	0x51
 7837 0138 0F000000 		.4byte	.LVL21-1
 7838 013c 2C010000 		.4byte	.LFE696
 7839 0140 0400     		.2byte	0x4
 7840 0142 F3       		.byte	0xf3
 7841 0143 01       		.uleb128 0x1
 7842 0144 51       		.byte	0x51
 7843 0145 9F       		.byte	0x9f
 7844 0146 00000000 		.4byte	0
 7845 014a 00000000 		.4byte	0
 7846              	.LLST9:
 7847 014e 00000000 		.4byte	.LVL19
 7848 0152 0F000000 		.4byte	.LVL21-1
 7849 0156 0100     		.2byte	0x1
 7850 0158 52       		.byte	0x52
 7851 0159 0F000000 		.4byte	.LVL21-1
 7852 015d 06010000 		.4byte	.LVL47
ARM GAS  C:\Users\user\AppData\Local\Temp\ccSIFDDJ.s 			page 162


 7853 0161 0100     		.2byte	0x1
 7854 0163 58       		.byte	0x58
 7855 0164 06010000 		.4byte	.LVL47
 7856 0168 2C010000 		.4byte	.LFE696
 7857 016c 0400     		.2byte	0x4
 7858 016e F3       		.byte	0xf3
 7859 016f 01       		.uleb128 0x1
 7860 0170 52       		.byte	0x52
 7861 0171 9F       		.byte	0x9f
 7862 0172 00000000 		.4byte	0
 7863 0176 00000000 		.4byte	0
 7864              	.LLST10:
 7865 017a 10000000 		.4byte	.LVL21
 7866 017e 1C000000 		.4byte	.LVL23
 7867 0182 0200     		.2byte	0x2
 7868 0184 30       		.byte	0x30
 7869 0185 9F       		.byte	0x9f
 7870 0186 1C000000 		.4byte	.LVL23
 7871 018a 33000000 		.4byte	.LVL27-1
 7872 018e 0100     		.2byte	0x1
 7873 0190 52       		.byte	0x52
 7874 0191 00000000 		.4byte	0
 7875 0195 00000000 		.4byte	0
 7876              	.LLST11:
 7877 0199 14000000 		.4byte	.LVL22
 7878 019d 06010000 		.4byte	.LVL47
 7879 01a1 0100     		.2byte	0x1
 7880 01a3 55       		.byte	0x55
 7881 01a4 06010000 		.4byte	.LVL47
 7882 01a8 2C010000 		.4byte	.LFE696
 7883 01ac 0800     		.2byte	0x8
 7884 01ae F3       		.byte	0xf3
 7885 01af 01       		.uleb128 0x1
 7886 01b0 52       		.byte	0x52
 7887 01b1 0A       		.byte	0xa
 7888 01b2 2C01     		.2byte	0x12c
 7889 01b4 1C       		.byte	0x1c
 7890 01b5 9F       		.byte	0x9f
 7891 01b6 00000000 		.4byte	0
 7892 01ba 00000000 		.4byte	0
 7893              	.LLST12:
 7894 01be 2C000000 		.4byte	.LVL26
 7895 01c2 3E000000 		.4byte	.LVL28
 7896 01c6 0200     		.2byte	0x2
 7897 01c8 30       		.byte	0x30
 7898 01c9 9F       		.byte	0x9f
 7899 01ca 3E000000 		.4byte	.LVL28
 7900 01ce 06010000 		.4byte	.LVL47
 7901 01d2 0100     		.2byte	0x1
 7902 01d4 54       		.byte	0x54
 7903 01d5 00000000 		.4byte	0
 7904 01d9 00000000 		.4byte	0
 7905              	.LLST13:
 7906 01dd 2C000000 		.4byte	.LVL26
 7907 01e1 4C000000 		.4byte	.LVL30
 7908 01e5 0200     		.2byte	0x2
 7909 01e7 30       		.byte	0x30
ARM GAS  C:\Users\user\AppData\Local\Temp\ccSIFDDJ.s 			page 163


 7910 01e8 9F       		.byte	0x9f
 7911 01e9 4C000000 		.4byte	.LVL30
 7912 01ed 7C000000 		.4byte	.LVL33
 7913 01f1 0100     		.2byte	0x1
 7914 01f3 50       		.byte	0x50
 7915 01f4 00000000 		.4byte	0
 7916 01f8 00000000 		.4byte	0
 7917              	.LLST14:
 7918 01fc 7C000000 		.4byte	.LVL33
 7919 0200 94000000 		.4byte	.LVL37
 7920 0204 0100     		.2byte	0x1
 7921 0206 52       		.byte	0x52
 7922 0207 00000000 		.4byte	0
 7923 020b 00000000 		.4byte	0
 7924              	.LLST15:
 7925 020f 14000000 		.4byte	.LVL22
 7926 0213 1C000000 		.4byte	.LVL23
 7927 0217 0400     		.2byte	0x4
 7928 0219 0A       		.byte	0xa
 7929 021a 2C01     		.2byte	0x12c
 7930 021c 9F       		.byte	0x9f
 7931 021d 1C000000 		.4byte	.LVL23
 7932 0221 33000000 		.4byte	.LVL27-1
 7933 0225 0100     		.2byte	0x1
 7934 0227 53       		.byte	0x53
 7935 0228 00000000 		.4byte	0
 7936 022c 00000000 		.4byte	0
 7937              	.LLST16:
 7938 0230 4C000000 		.4byte	.LVL30
 7939 0234 50000000 		.4byte	.LVL31
 7940 0238 0200     		.2byte	0x2
 7941 023a 30       		.byte	0x30
 7942 023b 9F       		.byte	0x9f
 7943 023c 50000000 		.4byte	.LVL31
 7944 0240 7C000000 		.4byte	.LVL33
 7945 0244 0100     		.2byte	0x1
 7946 0246 51       		.byte	0x51
 7947 0247 00000000 		.4byte	0
 7948 024b 00000000 		.4byte	0
 7949              	.LLST17:
 7950 024f 7C000000 		.4byte	.LVL33
 7951 0253 92000000 		.4byte	.LVL36
 7952 0257 0100     		.2byte	0x1
 7953 0259 53       		.byte	0x53
 7954 025a 00000000 		.4byte	0
 7955 025e 00000000 		.4byte	0
 7956              	.LLST18:
 7957 0262 00000000 		.4byte	.LVL48
 7958 0266 0B000000 		.4byte	.LVL49-1
 7959 026a 0100     		.2byte	0x1
 7960 026c 50       		.byte	0x50
 7961 026d 0B000000 		.4byte	.LVL49-1
 7962 0271 5A000000 		.4byte	.LVL58
 7963 0275 0100     		.2byte	0x1
 7964 0277 55       		.byte	0x55
 7965 0278 5A000000 		.4byte	.LVL58
 7966 027c 70000000 		.4byte	.LFE697
ARM GAS  C:\Users\user\AppData\Local\Temp\ccSIFDDJ.s 			page 164


 7967 0280 0400     		.2byte	0x4
 7968 0282 F3       		.byte	0xf3
 7969 0283 01       		.uleb128 0x1
 7970 0284 50       		.byte	0x50
 7971 0285 9F       		.byte	0x9f
 7972 0286 00000000 		.4byte	0
 7973 028a 00000000 		.4byte	0
 7974              	.LLST19:
 7975 028e 00000000 		.4byte	.LVL48
 7976 0292 0B000000 		.4byte	.LVL49-1
 7977 0296 0100     		.2byte	0x1
 7978 0298 51       		.byte	0x51
 7979 0299 0B000000 		.4byte	.LVL49-1
 7980 029d 5A000000 		.4byte	.LVL58
 7981 02a1 0100     		.2byte	0x1
 7982 02a3 54       		.byte	0x54
 7983 02a4 5A000000 		.4byte	.LVL58
 7984 02a8 70000000 		.4byte	.LFE697
 7985 02ac 0400     		.2byte	0x4
 7986 02ae F3       		.byte	0xf3
 7987 02af 01       		.uleb128 0x1
 7988 02b0 51       		.byte	0x51
 7989 02b1 9F       		.byte	0x9f
 7990 02b2 00000000 		.4byte	0
 7991 02b6 00000000 		.4byte	0
 7992              	.LLST20:
 7993 02ba 00000000 		.4byte	.LVL59
 7994 02be 07000000 		.4byte	.LVL60-1
 7995 02c2 0100     		.2byte	0x1
 7996 02c4 50       		.byte	0x50
 7997 02c5 07000000 		.4byte	.LVL60-1
 7998 02c9 8C000000 		.4byte	.LFE698
 7999 02cd 0400     		.2byte	0x4
 8000 02cf F3       		.byte	0xf3
 8001 02d0 01       		.uleb128 0x1
 8002 02d1 50       		.byte	0x50
 8003 02d2 9F       		.byte	0x9f
 8004 02d3 00000000 		.4byte	0
 8005 02d7 00000000 		.4byte	0
 8006              	.LLST21:
 8007 02db 6E010000 		.4byte	.LVL156
 8008 02df 74010000 		.4byte	.LVL157
 8009 02e3 0200     		.2byte	0x2
 8010 02e5 31       		.byte	0x31
 8011 02e6 9F       		.byte	0x9f
 8012 02e7 00000000 		.4byte	0
 8013 02eb 00000000 		.4byte	0
 8014              	.LLST23:
 8015 02ef 6E010000 		.4byte	.LVL156
 8016 02f3 74010000 		.4byte	.LVL157
 8017 02f7 0600     		.2byte	0x6
 8018 02f9 0C       		.byte	0xc
 8019 02fa 80003240 		.4byte	0x40320080
 8020 02fe 9F       		.byte	0x9f
 8021 02ff 00000000 		.4byte	0
 8022 0303 00000000 		.4byte	0
 8023              	.LLST24:
ARM GAS  C:\Users\user\AppData\Local\Temp\ccSIFDDJ.s 			page 165


 8024 0307 FE020000 		.4byte	.LVL168
 8025 030b 04030000 		.4byte	.LVL169
 8026 030f 0200     		.2byte	0x2
 8027 0311 31       		.byte	0x31
 8028 0312 9F       		.byte	0x9f
 8029 0313 00000000 		.4byte	0
 8030 0317 00000000 		.4byte	0
 8031              	.LLST25:
 8032 031b FE020000 		.4byte	.LVL168
 8033 031f 04030000 		.4byte	.LVL169
 8034 0323 0200     		.2byte	0x2
 8035 0325 35       		.byte	0x35
 8036 0326 9F       		.byte	0x9f
 8037 0327 00000000 		.4byte	0
 8038 032b 00000000 		.4byte	0
 8039              	.LLST26:
 8040 032f FE020000 		.4byte	.LVL168
 8041 0333 04030000 		.4byte	.LVL169
 8042 0337 0600     		.2byte	0x6
 8043 0339 0C       		.byte	0xc
 8044 033a 80003240 		.4byte	0x40320080
 8045 033e 9F       		.byte	0x9f
 8046 033f 00000000 		.4byte	0
 8047 0343 00000000 		.4byte	0
 8048              	.LLST27:
 8049 0347 44030000 		.4byte	.LVL173
 8050 034b 4C030000 		.4byte	.LVL174
 8051 034f 0200     		.2byte	0x2
 8052 0351 30       		.byte	0x30
 8053 0352 9F       		.byte	0x9f
 8054 0353 00000000 		.4byte	0
 8055 0357 00000000 		.4byte	0
 8056              	.LLST28:
 8057 035b 44030000 		.4byte	.LVL173
 8058 035f 4C030000 		.4byte	.LVL174
 8059 0363 0200     		.2byte	0x2
 8060 0365 31       		.byte	0x31
 8061 0366 9F       		.byte	0x9f
 8062 0367 00000000 		.4byte	0
 8063 036b 00000000 		.4byte	0
 8064              	.LLST29:
 8065 036f 44030000 		.4byte	.LVL173
 8066 0373 4C030000 		.4byte	.LVL174
 8067 0377 0600     		.2byte	0x6
 8068 0379 0C       		.byte	0xc
 8069 037a 80003240 		.4byte	0x40320080
 8070 037e 9F       		.byte	0x9f
 8071 037f 00000000 		.4byte	0
 8072 0383 00000000 		.4byte	0
 8073              	.LLST30:
 8074 0387 4C030000 		.4byte	.LVL174
 8075 038b 52030000 		.4byte	.LVL175
 8076 038f 0200     		.2byte	0x2
 8077 0391 31       		.byte	0x31
 8078 0392 9F       		.byte	0x9f
 8079 0393 00000000 		.4byte	0
 8080 0397 00000000 		.4byte	0
ARM GAS  C:\Users\user\AppData\Local\Temp\ccSIFDDJ.s 			page 166


 8081              	.LLST32:
 8082 039b 4C030000 		.4byte	.LVL174
 8083 039f 52030000 		.4byte	.LVL175
 8084 03a3 0600     		.2byte	0x6
 8085 03a5 0C       		.byte	0xc
 8086 03a6 80003240 		.4byte	0x40320080
 8087 03aa 9F       		.byte	0x9f
 8088 03ab 00000000 		.4byte	0
 8089 03af 00000000 		.4byte	0
 8090              	.LLST33:
 8091 03b3 76030000 		.4byte	.LVL176
 8092 03b7 B4030000 		.4byte	.LVL177
 8093 03bb 0200     		.2byte	0x2
 8094 03bd 30       		.byte	0x30
 8095 03be 9F       		.byte	0x9f
 8096 03bf 00000000 		.4byte	0
 8097 03c3 00000000 		.4byte	0
 8098              	.LLST34:
 8099 03c7 76030000 		.4byte	.LVL176
 8100 03cb B4030000 		.4byte	.LVL177
 8101 03cf 0200     		.2byte	0x2
 8102 03d1 35       		.byte	0x35
 8103 03d2 9F       		.byte	0x9f
 8104 03d3 00000000 		.4byte	0
 8105 03d7 00000000 		.4byte	0
 8106              	.LLST35:
 8107 03db 76030000 		.4byte	.LVL176
 8108 03df B4030000 		.4byte	.LVL177
 8109 03e3 0600     		.2byte	0x6
 8110 03e5 0C       		.byte	0xc
 8111 03e6 80003240 		.4byte	0x40320080
 8112 03ea 9F       		.byte	0x9f
 8113 03eb 00000000 		.4byte	0
 8114 03ef 00000000 		.4byte	0
 8115              	.LLST36:
 8116 03f3 B4030000 		.4byte	.LVL177
 8117 03f7 BA030000 		.4byte	.LVL178
 8118 03fb 0200     		.2byte	0x2
 8119 03fd 31       		.byte	0x31
 8120 03fe 9F       		.byte	0x9f
 8121 03ff 00000000 		.4byte	0
 8122 0403 00000000 		.4byte	0
 8123              	.LLST37:
 8124 0407 B4030000 		.4byte	.LVL177
 8125 040b BA030000 		.4byte	.LVL178
 8126 040f 0200     		.2byte	0x2
 8127 0411 35       		.byte	0x35
 8128 0412 9F       		.byte	0x9f
 8129 0413 00000000 		.4byte	0
 8130 0417 00000000 		.4byte	0
 8131              	.LLST38:
 8132 041b B4030000 		.4byte	.LVL177
 8133 041f BA030000 		.4byte	.LVL178
 8134 0423 0600     		.2byte	0x6
 8135 0425 0C       		.byte	0xc
 8136 0426 80003240 		.4byte	0x40320080
 8137 042a 9F       		.byte	0x9f
ARM GAS  C:\Users\user\AppData\Local\Temp\ccSIFDDJ.s 			page 167


 8138 042b 00000000 		.4byte	0
 8139 042f 00000000 		.4byte	0
 8140              		.section	.debug_aranges,"",%progbits
 8141 0000 74000000 		.4byte	0x74
 8142 0004 0200     		.2byte	0x2
 8143 0006 00000000 		.4byte	.Ldebug_info0
 8144 000a 04       		.byte	0x4
 8145 000b 00       		.byte	0
 8146 000c 0000     		.2byte	0
 8147 000e 0000     		.2byte	0
 8148 0010 00000000 		.4byte	.LFB693
 8149 0014 2C000000 		.4byte	.LFE693-.LFB693
 8150 0018 00000000 		.4byte	.LFB694
 8151 001c 20000000 		.4byte	.LFE694-.LFB694
 8152 0020 00000000 		.4byte	.LFB695
 8153 0024 20000000 		.4byte	.LFE695-.LFB695
 8154 0028 00000000 		.4byte	.LFB696
 8155 002c 2C010000 		.4byte	.LFE696-.LFB696
 8156 0030 00000000 		.4byte	.LFB697
 8157 0034 70000000 		.4byte	.LFE697-.LFB697
 8158 0038 00000000 		.4byte	.LFB698
 8159 003c 8C000000 		.4byte	.LFE698-.LFB698
 8160 0040 00000000 		.4byte	.LFB699
 8161 0044 74000000 		.4byte	.LFE699-.LFB699
 8162 0048 00000000 		.4byte	.LFB700
 8163 004c BC000000 		.4byte	.LFE700-.LFB700
 8164 0050 00000000 		.4byte	.LFB701
 8165 0054 A4000000 		.4byte	.LFE701-.LFB701
 8166 0058 00000000 		.4byte	.LFB702
 8167 005c A4000000 		.4byte	.LFE702-.LFB702
 8168 0060 00000000 		.4byte	.LFB703
 8169 0064 78000000 		.4byte	.LFE703-.LFB703
 8170 0068 00000000 		.4byte	.LFB704
 8171 006c C8030000 		.4byte	.LFE704-.LFB704
 8172 0070 00000000 		.4byte	0
 8173 0074 00000000 		.4byte	0
 8174              		.section	.debug_ranges,"",%progbits
 8175              	.Ldebug_ranges0:
 8176 0000 14000000 		.4byte	.LBB14
 8177 0004 18000000 		.4byte	.LBE14
 8178 0008 1A000000 		.4byte	.LBB15
 8179 000c 2C000000 		.4byte	.LBE15
 8180 0010 00000000 		.4byte	0
 8181 0014 00000000 		.4byte	0
 8182 0018 00000000 		.4byte	.LFB693
 8183 001c 2C000000 		.4byte	.LFE693
 8184 0020 00000000 		.4byte	.LFB694
 8185 0024 20000000 		.4byte	.LFE694
 8186 0028 00000000 		.4byte	.LFB695
 8187 002c 20000000 		.4byte	.LFE695
 8188 0030 00000000 		.4byte	.LFB696
 8189 0034 2C010000 		.4byte	.LFE696
 8190 0038 00000000 		.4byte	.LFB697
 8191 003c 70000000 		.4byte	.LFE697
 8192 0040 00000000 		.4byte	.LFB698
 8193 0044 8C000000 		.4byte	.LFE698
 8194 0048 00000000 		.4byte	.LFB699
ARM GAS  C:\Users\user\AppData\Local\Temp\ccSIFDDJ.s 			page 168


 8195 004c 74000000 		.4byte	.LFE699
 8196 0050 00000000 		.4byte	.LFB700
 8197 0054 BC000000 		.4byte	.LFE700
 8198 0058 00000000 		.4byte	.LFB701
 8199 005c A4000000 		.4byte	.LFE701
 8200 0060 00000000 		.4byte	.LFB702
 8201 0064 A4000000 		.4byte	.LFE702
 8202 0068 00000000 		.4byte	.LFB703
 8203 006c 78000000 		.4byte	.LFE703
 8204 0070 00000000 		.4byte	.LFB704
 8205 0074 C8030000 		.4byte	.LFE704
 8206 0078 00000000 		.4byte	0
 8207 007c 00000000 		.4byte	0
 8208              		.section	.debug_line,"",%progbits
 8209              	.Ldebug_line0:
 8210 0000 42080000 		.section	.debug_str,"MS",%progbits,1
 8210      02009605 
 8210      00000201 
 8210      FB0E0D00 
 8210      01010101 
 8211              	.LASF91:
 8212 0000 666C6173 		.ascii	"flashCtlMainWs1Freq\000"
 8212      6843746C 
 8212      4D61696E 
 8212      57733146 
 8212      72657100 
 8213              	.LASF31:
 8214 0014 52455345 		.ascii	"RESERVED\000"
 8214      52564544 
 8214      00
 8215              	.LASF315:
 8216 001d 64697370 		.ascii	"display_task\000"
 8216      6C61795F 
 8216      7461736B 
 8216      00
 8217              	.LASF169:
 8218 002a 63795F63 		.ascii	"cy_cb_scb_spi_handle_events_t\000"
 8218      625F7363 
 8218      625F7370 
 8218      695F6861 
 8218      6E646C65 
 8219              	.LASF246:
 8220 0048 74475549 		.ascii	"tGUI_ENC_APIList\000"
 8220      5F454E43 
 8220      5F415049 
 8220      4C697374 
 8220      00
 8221              	.LASF227:
 8222 0059 46697273 		.ascii	"First\000"
 8222      7400
 8223              	.LASF207:
 8224 005f 73746F70 		.ascii	"stopInputMode\000"
 8224      496E7075 
 8224      744D6F64 
 8224      6500
 8225              	.LASF317:
 8226 006d 63795F64 		.ascii	"cy_device\000"
ARM GAS  C:\Users\user\AppData\Local\Temp\ccSIFDDJ.s 			page 169


 8226      65766963 
 8226      6500
 8227              	.LASF118:
 8228 0077 63707573 		.ascii	"cpussCm0ClockCtlOffset\000"
 8228      73436D30 
 8228      436C6F63 
 8228      6B43746C 
 8228      4F666673 
 8229              	.LASF77:
 8230 008e 70657269 		.ascii	"periClockNr\000"
 8230      436C6F63 
 8230      6B4E7200 
 8231              	.LASF150:
 8232 009a 6D617374 		.ascii	"masterStatus\000"
 8232      65725374 
 8232      61747573 
 8232      00
 8233              	.LASF318:
 8234 00a7 43595F45 		.ascii	"CY_EINK_SPIM_context\000"
 8234      494E4B5F 
 8234      5350494D 
 8234      5F636F6E 
 8234      74657874 
 8235              	.LASF231:
 8236 00bc 4755495F 		.ascii	"GUI_FONT_PROP_EXT\000"
 8236      464F4E54 
 8236      5F50524F 
 8236      505F4558 
 8236      5400
 8237              	.LASF51:
 8238 00ce 75646242 		.ascii	"udbBase\000"
 8238      61736500 
 8239              	.LASF224:
 8240 00d6 59506F73 		.ascii	"YPos\000"
 8240      00
 8241              	.LASF357:
 8242 00db 4755495F 		.ascii	"GUI_SetPenSize\000"
 8242      53657450 
 8242      656E5369 
 8242      7A6500
 8243              	.LASF183:
 8244 00ea 74785374 		.ascii	"txStatus\000"
 8244      61747573 
 8244      00
 8245              	.LASF50:
 8246 00f3 70657269 		.ascii	"periBase\000"
 8246      42617365 
 8246      00
 8247              	.LASF249:
 8248 00fc 70664765 		.ascii	"pfGetCharDistX\000"
 8248      74436861 
 8248      72446973 
 8248      745800
 8249              	.LASF302:
 8250 010b 6D696E69 		.ascii	"minimum\000"
 8250      6D756D00 
 8251              	.LASF24:
ARM GAS  C:\Users\user\AppData\Local\Temp\ccSIFDDJ.s 			page 170


 8252 0113 494E5452 		.ascii	"INTR_MASK\000"
 8252      5F4D4153 
 8252      4B00
 8253              	.LASF344:
 8254 011d 62756666 		.ascii	"buffer\000"
 8254      657200
 8255              	.LASF96:
 8256 0124 64774368 		.ascii	"dwChSize\000"
 8256      53697A65 
 8256      00
 8257              	.LASF371:
 8258 012d 4755495F 		.ascii	"GUI_SetBkColor\000"
 8258      53657442 
 8258      6B436F6C 
 8258      6F7200
 8259              	.LASF157:
 8260 013c 736C6176 		.ascii	"slaveStatus\000"
 8260      65537461 
 8260      74757300 
 8261              	.LASF345:
 8262 0148 696D6167 		.ascii	"imageBufferCache\000"
 8262      65427566 
 8262      66657243 
 8262      61636865 
 8262      00
 8263              	.LASF215:
 8264 0159 704C6973 		.ascii	"pList\000"
 8264      7400
 8265              	.LASF42:
 8266 015f 5644445F 		.ascii	"VDD_INTR_MASKED\000"
 8266      494E5452 
 8266      5F4D4153 
 8266      4B454400 
 8267              	.LASF13:
 8268 016f 756E7369 		.ascii	"unsigned int\000"
 8268      676E6564 
 8268      20696E74 
 8268      00
 8269              	.LASF145:
 8270 017c 63795F63 		.ascii	"cy_cb_scb_i2c_handle_events_t\000"
 8270      625F7363 
 8270      625F6932 
 8270      635F6861 
 8270      6E646C65 
 8271              	.LASF155:
 8272 019a 6D617374 		.ascii	"masterBufferIdx\000"
 8272      65724275 
 8272      66666572 
 8272      49647800 
 8273              	.LASF291:
 8274 01aa 706F7765 		.ascii	"powerCycle\000"
 8274      72437963 
 8274      6C6500
 8275              	.LASF258:
 8276 01b5 4755495F 		.ascii	"GUI_GETCHARDISTX\000"
 8276      47455443 
 8276      48415244 
ARM GAS  C:\Users\user\AppData\Local\Temp\ccSIFDDJ.s 			page 171


 8276      49535458 
 8276      00
 8277              	.LASF78:
 8278 01c6 736D6966 		.ascii	"smifDeviceNr\000"
 8278      44657669 
 8278      63654E72 
 8278      00
 8279              	.LASF108:
 8280 01d3 70657269 		.ascii	"periDivCmdPaTypeSelPos\000"
 8280      44697643 
 8280      6D645061 
 8280      54797065 
 8280      53656C50 
 8281              	.LASF178:
 8282 01ea 74784275 		.ascii	"txBufIdx\000"
 8282      66496478 
 8282      00
 8283              	.LASF7:
 8284 01f3 5F5F696E 		.ascii	"__int32_t\000"
 8284      7433325F 
 8284      7400
 8285              	.LASF190:
 8286 01fd 63795F73 		.ascii	"cy_stc_scb_uart_context_t\000"
 8286      74635F73 
 8286      63625F75 
 8286      6172745F 
 8286      636F6E74 
 8287              	.LASF163:
 8288 0217 736C6176 		.ascii	"slaveRxBuffer\000"
 8288      65527842 
 8288      75666665 
 8288      7200
 8289              	.LASF262:
 8290 0225 70466F6E 		.ascii	"pFontData\000"
 8290      74446174 
 8290      6100
 8291              	.LASF72:
 8292 022f 63707573 		.ascii	"cpussFmIrq\000"
 8292      73466D49 
 8292      727100
 8293              	.LASF269:
 8294 023a 43595F45 		.ascii	"CY_EINK_FULL_4STAGE\000"
 8294      494E4B5F 
 8294      46554C4C 
 8294      5F345354 
 8294      41474500 
 8295              	.LASF306:
 8296 024e 66726571 		.ascii	"frequence\000"
 8296      75656E63 
 8296      6500
 8297              	.LASF167:
 8298 0258 63624164 		.ascii	"cbAddr\000"
 8298      647200
 8299              	.LASF142:
 8300 025f 43595F53 		.ascii	"CY_SCB_I2C_ACK\000"
 8300      43425F49 
 8300      32435F41 
ARM GAS  C:\Users\user\AppData\Local\Temp\ccSIFDDJ.s 			page 172


 8300      434B00
 8301              	.LASF208:
 8302 026e 73746F70 		.ascii	"stopInput\000"
 8302      496E7075 
 8302      7400
 8303              	.LASF186:
 8304 0278 72785269 		.ascii	"rxRingBufSize\000"
 8304      6E674275 
 8304      6653697A 
 8304      6500
 8305              	.LASF144:
 8306 0286 63795F65 		.ascii	"cy_en_scb_i2c_command_t\000"
 8306      6E5F7363 
 8306      625F6932 
 8306      635F636F 
 8306      6D6D616E 
 8307              	.LASF104:
 8308 029e 70657269 		.ascii	"periTrGrSize\000"
 8308      54724772 
 8308      53697A65 
 8308      00
 8309              	.LASF331:
 8310 02ab 656E7472 		.ascii	"entree\000"
 8310      656500
 8311              	.LASF107:
 8312 02b2 70657269 		.ascii	"periDivCmdPaDivSelPos\000"
 8312      44697643 
 8312      6D645061 
 8312      44697653 
 8312      656C506F 
 8313              	.LASF26:
 8314 02c8 494E5452 		.ascii	"INTR_SET\000"
 8314      5F534554 
 8314      00
 8315              	.LASF84:
 8316 02d1 63727970 		.ascii	"cryptoMemSize\000"
 8316      746F4D65 
 8316      6D53697A 
 8316      6500
 8317              	.LASF130:
 8318 02df 63707573 		.ascii	"cpussRam1Ctl0\000"
 8318      7352616D 
 8318      3143746C 
 8318      3000
 8319              	.LASF271:
 8320 02ed 63795F65 		.ascii	"cy_eink_update_t\000"
 8320      696E6B5F 
 8320      75706461 
 8320      74655F74 
 8320      00
 8321              	.LASF132:
 8322 02fe 69706353 		.ascii	"ipcStructSize\000"
 8322      74727563 
 8322      7453697A 
 8322      6500
 8323              	.LASF143:
 8324 030c 43595F53 		.ascii	"CY_SCB_I2C_NAK\000"
ARM GAS  C:\Users\user\AppData\Local\Temp\ccSIFDDJ.s 			page 173


 8324      43425F49 
 8324      32435F4E 
 8324      414B00
 8325              	.LASF293:
 8326 031b 6D617869 		.ascii	"maximum_1\000"
 8326      6D756D5F 
 8326      3100
 8327              	.LASF220:
 8328 0325 70446174 		.ascii	"pData\000"
 8328      6100
 8329              	.LASF146:
 8330 032b 63795F63 		.ascii	"cy_cb_scb_i2c_handle_addr_t\000"
 8330      625F7363 
 8330      625F6932 
 8330      635F6861 
 8330      6E646C65 
 8331              	.LASF197:
 8332 0347 636F6D70 		.ascii	"compare0\000"
 8332      61726530 
 8332      00
 8333              	.LASF198:
 8334 0350 636F6D70 		.ascii	"compare1\000"
 8334      61726531 
 8334      00
 8335              	.LASF373:
 8336 0359 474E5520 		.ascii	"GNU C11 5.4.1 20160609 (release) [ARM/embedded-5-br"
 8336      43313120 
 8336      352E342E 
 8336      31203230 
 8336      31363036 
 8337 038c 616E6368 		.ascii	"anch revision 237715] -mcpu=cortex-m4 -mfloat-abi=s"
 8337      20726576 
 8337      6973696F 
 8337      6E203233 
 8337      37373135 
 8338 03bf 6F667466 		.ascii	"oftfp -mfpu=fpv4-sp-d16 -mthumb -g -Og -ffunction-s"
 8338      70202D6D 
 8338      6670753D 
 8338      66707634 
 8338      2D73702D 
 8339 03f2 65637469 		.ascii	"ections -ffat-lto-objects\000"
 8339      6F6E7320 
 8339      2D666661 
 8339      742D6C74 
 8339      6F2D6F62 
 8340              	.LASF66:
 8341 040c 70726F74 		.ascii	"protVersion\000"
 8341      56657273 
 8341      696F6E00 
 8342              	.LASF170:
 8343 0418 63795F73 		.ascii	"cy_stc_scb_i2c_context\000"
 8343      74635F73 
 8343      63625F69 
 8343      32635F63 
 8343      6F6E7465 
 8344              	.LASF327:
 8345 042f 696E6465 		.ascii	"indexBuffer\000"
ARM GAS  C:\Users\user\AppData\Local\Temp\ccSIFDDJ.s 			page 174


 8345      78427566 
 8345      66657200 
 8346              	.LASF106:
 8347 043b 70657269 		.ascii	"periDivCmdTypeSelPos\000"
 8347      44697643 
 8347      6D645479 
 8347      70655365 
 8347      6C506F73 
 8348              	.LASF123:
 8349 0450 63707573 		.ascii	"cpussTrimRamCtlOffset\000"
 8349      73547269 
 8349      6D52616D 
 8349      43746C4F 
 8349      66667365 
 8350              	.LASF330:
 8351 0466 416C6172 		.ascii	"AlarmeBMI160\000"
 8351      6D65424D 
 8351      49313630 
 8351      00
 8352              	.LASF184:
 8353 0473 72785374 		.ascii	"rxStatus\000"
 8353      61747573 
 8353      00
 8354              	.LASF28:
 8355 047c 4346475F 		.ascii	"CFG_IN\000"
 8355      494E00
 8356              	.LASF159:
 8357 0483 736C6176 		.ascii	"slaveTxBuffer\000"
 8357      65547842 
 8357      75666665 
 8357      7200
 8358              	.LASF281:
 8359 0491 73637265 		.ascii	"screen\000"
 8359      656E00
 8360              	.LASF161:
 8361 0498 736C6176 		.ascii	"slaveTxBufferIdx\000"
 8361      65547842 
 8361      75666665 
 8361      72496478 
 8361      00
 8362              	.LASF216:
 8363 04a9 4755495F 		.ascii	"GUI_FONT_TRANSINFO\000"
 8363      464F4E54 
 8363      5F545241 
 8363      4E53494E 
 8363      464F00
 8364              	.LASF18:
 8365 04bc 75696E74 		.ascii	"uint32_t\000"
 8365      33325F74 
 8365      00
 8366              	.LASF239:
 8367 04c5 4755495F 		.ascii	"GUI_FONTINFO\000"
 8367      464F4E54 
 8367      494E464F 
 8367      00
 8368              	.LASF356:
 8369 04d2 43795F45 		.ascii	"Cy_EINK_ShowFrame\000"
ARM GAS  C:\Users\user\AppData\Local\Temp\ccSIFDDJ.s 			page 175


 8369      494E4B5F 
 8369      53686F77 
 8369      4672616D 
 8369      6500
 8370              	.LASF365:
 8371 04e4 4755495F 		.ascii	"GUI_DrawCircle\000"
 8371      44726177 
 8371      43697263 
 8371      6C6500
 8372              	.LASF299:
 8373 04f3 73697A65 		.ascii	"size\000"
 8373      00
 8374              	.LASF44:
 8375 04f8 4750494F 		.ascii	"GPIO_V1_Type\000"
 8375      5F56315F 
 8375      54797065 
 8375      00
 8376              	.LASF116:
 8377 0505 6770696F 		.ascii	"gpioPrtCfgOutOffset\000"
 8377      50727443 
 8377      66674F75 
 8377      744F6666 
 8377      73657400 
 8378              	.LASF226:
 8379 0519 4755495F 		.ascii	"GUI_FONT_PROP\000"
 8379      464F4E54 
 8379      5F50524F 
 8379      5000
 8380              	.LASF235:
 8381 0527 466C6167 		.ascii	"Flags\000"
 8381      7300
 8382              	.LASF275:
 8383 052d 4F505449 		.ascii	"OPTION_1\000"
 8383      4F4E5F31 
 8383      00
 8384              	.LASF21:
 8385 0536 4F55545F 		.ascii	"OUT_SET\000"
 8385      53455400 
 8386              	.LASF276:
 8387 053e 4F505449 		.ascii	"OPTION_2\000"
 8387      4F4E5F32 
 8387      00
 8388              	.LASF59:
 8389 0547 63727970 		.ascii	"cryptoVersion\000"
 8389      746F5665 
 8389      7273696F 
 8389      6E00
 8390              	.LASF234:
 8391 0555 4755495F 		.ascii	"GUI_FONT_MONO\000"
 8391      464F4E54 
 8391      5F4D4F4E 
 8391      4F00
 8392              	.LASF80:
 8393 0563 65704D6F 		.ascii	"epMonitorNr\000"
 8393      6E69746F 
 8393      724E7200 
 8394              	.LASF287:
ARM GAS  C:\Users\user\AppData\Local\Temp\ccSIFDDJ.s 			page 176


 8395 056f 62617365 		.ascii	"base\000"
 8395      00
 8396              	.LASF182:
 8397 0574 63795F73 		.ascii	"cy_stc_scb_uart_context\000"
 8397      74635F73 
 8397      63625F75 
 8397      6172745F 
 8397      636F6E74 
 8398              	.LASF20:
 8399 058c 4F55545F 		.ascii	"OUT_CLR\000"
 8399      434C5200 
 8400              	.LASF33:
 8401 0594 52455345 		.ascii	"RESERVED1\000"
 8401      52564544 
 8401      3100
 8402              	.LASF204:
 8403 059e 72656C6F 		.ascii	"reloadInput\000"
 8403      6164496E 
 8403      70757400 
 8404              	.LASF15:
 8405 05aa 696E7431 		.ascii	"int16_t\000"
 8405      365F7400 
 8406              	.LASF115:
 8407 05b2 6770696F 		.ascii	"gpioPrtCfgInOffset\000"
 8407      50727443 
 8407      6667496E 
 8407      4F666673 
 8407      657400
 8408              	.LASF354:
 8409 05c5 524F5547 		.ascii	"ROUGE_minimum_abs\000"
 8409      455F6D69 
 8409      6E696D75 
 8409      6D5F6162 
 8409      7300
 8410              	.LASF12:
 8411 05d7 6C6F6E67 		.ascii	"long long unsigned int\000"
 8411      206C6F6E 
 8411      6720756E 
 8411      7369676E 
 8411      65642069 
 8412              	.LASF112:
 8413 05ee 70657269 		.ascii	"periDiv24_5CtlOffset\000"
 8413      44697632 
 8413      345F3543 
 8413      746C4F66 
 8413      66736574 
 8414              	.LASF117:
 8415 0603 6770696F 		.ascii	"gpioPrtCfgSioOffset\000"
 8415      50727443 
 8415      66675369 
 8415      6F4F6666 
 8415      73657400 
 8416              	.LASF376:
 8417 0617 43795F47 		.ascii	"Cy_GPIO_Write\000"
 8417      50494F5F 
 8417      57726974 
 8417      6500
ARM GAS  C:\Users\user\AppData\Local\Temp\ccSIFDDJ.s 			page 177


 8418              	.LASF296:
 8419 0625 64726177 		.ascii	"drawGraph\000"
 8419      47726170 
 8419      6800
 8420              	.LASF71:
 8421 062f 63707573 		.ascii	"cpussIpc0Irq\000"
 8421      73497063 
 8421      30497271 
 8421      00
 8422              	.LASF225:
 8423 063c 4755495F 		.ascii	"GUI_CHARINFO_EXT\000"
 8423      43484152 
 8423      494E464F 
 8423      5F455854 
 8423      00
 8424              	.LASF358:
 8425 064d 4755495F 		.ascii	"GUI_DrawGraph\000"
 8425      44726177 
 8425      47726170 
 8425      6800
 8426              	.LASF292:
 8427 065b 70456D77 		.ascii	"pEmwinBuffer\000"
 8427      696E4275 
 8427      66666572 
 8427      00
 8428              	.LASF374:
 8429 0668 44495350 		.ascii	"DISPLAY.c\000"
 8429      4C41592E 
 8429      6300
 8430              	.LASF160:
 8431 0672 736C6176 		.ascii	"slaveTxBufferSize\000"
 8431      65547842 
 8431      75666665 
 8431      7253697A 
 8431      6500
 8432              	.LASF347:
 8433 0684 706F7374 		.ascii	"postion_MENU\000"
 8433      696F6E5F 
 8433      4D454E55 
 8433      00
 8434              	.LASF232:
 8435 0691 70547261 		.ascii	"pTransData\000"
 8435      6E734461 
 8435      746100
 8436              	.LASF137:
 8437 069c 666C6F61 		.ascii	"float32_t\000"
 8437      7433325F 
 8437      7400
 8438              	.LASF158:
 8439 06a6 736C6176 		.ascii	"slaveRdBufEmpty\000"
 8439      65526442 
 8439      7566456D 
 8439      70747900 
 8440              	.LASF236:
 8441 06b6 42617365 		.ascii	"Baseline\000"
 8441      6C696E65 
 8441      00
ARM GAS  C:\Users\user\AppData\Local\Temp\ccSIFDDJ.s 			page 178


 8442              	.LASF205:
 8443 06bf 73746172 		.ascii	"startInputMode\000"
 8443      74496E70 
 8443      75744D6F 
 8443      646500
 8444              	.LASF273:
 8445 06ce 5052494E 		.ascii	"PRINCIPAL_PAGE\000"
 8445      43495041 
 8445      4C5F5041 
 8445      474500
 8446              	.LASF289:
 8447 06dd 76616C75 		.ascii	"value\000"
 8447      6500
 8448              	.LASF29:
 8449 06e3 4346475F 		.ascii	"CFG_OUT\000"
 8449      4F555400 
 8450              	.LASF307:
 8451 06eb 53617475 		.ascii	"Saturation\000"
 8451      72617469 
 8451      6F6E00
 8452              	.LASF173:
 8453 06f6 72784275 		.ascii	"rxBuf\000"
 8453      6600
 8454              	.LASF56:
 8455 06fc 69706342 		.ascii	"ipcBase\000"
 8455      61736500 
 8456              	.LASF93:
 8457 0704 666C6173 		.ascii	"flashCtlMainWs3Freq\000"
 8457      6843746C 
 8457      4D61696E 
 8457      57733346 
 8457      72657100 
 8458              	.LASF75:
 8459 0718 73727373 		.ascii	"srssNumPll\000"
 8459      4E756D50 
 8459      6C6C00
 8460              	.LASF54:
 8461 0723 6770696F 		.ascii	"gpioBase\000"
 8461      42617365 
 8461      00
 8462              	.LASF259:
 8463 072c 4755495F 		.ascii	"GUI_GETFONTINFO\000"
 8463      47455446 
 8463      4F4E5449 
 8463      4E464F00 
 8464              	.LASF86:
 8465 073c 666C6173 		.ascii	"flashPipeRequired\000"
 8465      68506970 
 8465      65526571 
 8465      75697265 
 8465      6400
 8466              	.LASF248:
 8467 074e 70664469 		.ascii	"pfDispChar\000"
 8467      73704368 
 8467      617200
 8468              	.LASF166:
 8469 0759 63624576 		.ascii	"cbEvents\000"
ARM GAS  C:\Users\user\AppData\Local\Temp\ccSIFDDJ.s 			page 179


 8469      656E7473 
 8469      00
 8470              	.LASF372:
 8471 0762 76546173 		.ascii	"vTaskDelay\000"
 8471      6B44656C 
 8471      617900
 8472              	.LASF375:
 8473 076d 433A5C55 		.ascii	"C:\\Users\\user\\Desktop\\RENDUFINAL\\ESSAI_3\\Labo"
 8473      73657273 
 8473      5C757365 
 8473      725C4465 
 8473      736B746F 
 8474 079a 7261746F 		.ascii	"ratoire3.cydsn\000"
 8474      69726533 
 8474      2E637964 
 8474      736E00
 8475              	.LASF141:
 8476 07a9 5F426F6F 		.ascii	"_Bool\000"
 8476      6C00
 8477              	.LASF255:
 8478 07af 584D6167 		.ascii	"XMag\000"
 8478      00
 8479              	.LASF294:
 8480 07b4 6D696E69 		.ascii	"minimum_1\000"
 8480      6D756D5F 
 8480      3100
 8481              	.LASF252:
 8482 07be 70664765 		.ascii	"pfGetCharInfo\000"
 8482      74436861 
 8482      72496E66 
 8482      6F00
 8483              	.LASF360:
 8484 07cc 4755495F 		.ascii	"GUI_DispStringAt\000"
 8484      44697370 
 8484      53747269 
 8484      6E674174 
 8484      00
 8485              	.LASF147:
 8486 07dd 75736552 		.ascii	"useRxFifo\000"
 8486      78466966 
 8486      6F00
 8487              	.LASF251:
 8488 07e7 70664973 		.ascii	"pfIsInFont\000"
 8488      496E466F 
 8488      6E7400
 8489              	.LASF40:
 8490 07f2 5644445F 		.ascii	"VDD_INTR\000"
 8490      494E5452 
 8490      00
 8491              	.LASF377:
 8492 07fb 66697253 		.ascii	"firStateF32\000"
 8492      74617465 
 8492      46333200 
 8493              	.LASF243:
 8494 0807 70664765 		.ascii	"pfGetLineDistX\000"
 8494      744C696E 
 8494      65446973 
ARM GAS  C:\Users\user\AppData\Local\Temp\ccSIFDDJ.s 			page 180


 8494      745800
 8495              	.LASF366:
 8496 0816 4755495F 		.ascii	"GUI_DrawLine\000"
 8496      44726177 
 8496      4C696E65 
 8496      00
 8497              	.LASF297:
 8498 0823 646F6E6E 		.ascii	"donnees\000"
 8498      65657300 
 8499              	.LASF60:
 8500 082b 64775665 		.ascii	"dwVersion\000"
 8500      7273696F 
 8500      6E00
 8501              	.LASF125:
 8502 0835 63707573 		.ascii	"cpussSysTickCtlOffset\000"
 8502      73537973 
 8502      5469636B 
 8502      43746C4F 
 8502      66667365 
 8503              	.LASF81:
 8504 084b 75646250 		.ascii	"udbPresent\000"
 8504      72657365 
 8504      6E7400
 8505              	.LASF257:
 8506 0856 4755495F 		.ascii	"GUI_DISPCHAR\000"
 8506      44495350 
 8506      43484152 
 8506      00
 8507              	.LASF45:
 8508 0863 4750494F 		.ascii	"GPIO_PRT_Type\000"
 8508      5F505254 
 8508      5F547970 
 8508      6500
 8509              	.LASF99:
 8510 0871 64775374 		.ascii	"dwStatusChIdxPos\000"
 8510      61747573 
 8510      43684964 
 8510      78506F73 
 8510      00
 8511              	.LASF5:
 8512 0882 5F5F7569 		.ascii	"__uint16_t\000"
 8512      6E743136 
 8512      5F7400
 8513              	.LASF320:
 8514 088d 55415254 		.ascii	"UART_1_context\000"
 8514      5F315F63 
 8514      6F6E7465 
 8514      787400
 8515              	.LASF310:
 8516 089c 44726177 		.ascii	"DrawOption1\000"
 8516      4F707469 
 8516      6F6E3100 
 8517              	.LASF311:
 8518 08a8 44726177 		.ascii	"DrawOption2\000"
 8518      4F707469 
 8518      6F6E3200 
 8519              	.LASF346:
ARM GAS  C:\Users\user\AppData\Local\Temp\ccSIFDDJ.s 			page 181


 8520 08b4 63757272 		.ascii	"currentScreen\000"
 8520      656E7453 
 8520      63726565 
 8520      6E00
 8521              	.LASF352:
 8522 08c2 524F5547 		.ascii	"ROUGE\000"
 8522      4500
 8523              	.LASF156:
 8524 08c8 6D617374 		.ascii	"masterNumBytes\000"
 8524      65724E75 
 8524      6D427974 
 8524      657300
 8525              	.LASF324:
 8526 08d7 4755495F 		.ascii	"GUI_Font16_1\000"
 8526      466F6E74 
 8526      31365F31 
 8526      00
 8527              	.LASF70:
 8528 08e4 63707573 		.ascii	"cpussFlashPaSize\000"
 8528      73466C61 
 8528      73685061 
 8528      53697A65 
 8528      00
 8529              	.LASF213:
 8530 08f5 46697273 		.ascii	"FirstChar\000"
 8530      74436861 
 8530      7200
 8531              	.LASF49:
 8532 08ff 666C6173 		.ascii	"flashcBase\000"
 8532      68634261 
 8532      736500
 8533              	.LASF136:
 8534 090a 63686172 		.ascii	"char\000"
 8534      00
 8535              	.LASF188:
 8536 090f 72785269 		.ascii	"rxRingBufTail\000"
 8536      6E674275 
 8536      66546169 
 8536      6C00
 8537              	.LASF303:
 8538 091d 75706461 		.ascii	"updateParameters\000"
 8538      74655061 
 8538      72616D65 
 8538      74657273 
 8538      00
 8539              	.LASF82:
 8540 092e 73797350 		.ascii	"sysPmSimoPresent\000"
 8540      6D53696D 
 8540      6F507265 
 8540      73656E74 
 8540      00
 8541              	.LASF154:
 8542 093f 6D617374 		.ascii	"masterBufferSize\000"
 8542      65724275 
 8542      66666572 
 8542      53697A65 
 8542      00
ARM GAS  C:\Users\user\AppData\Local\Temp\ccSIFDDJ.s 			page 182


 8543              	.LASF193:
 8544 0950 636C6F63 		.ascii	"clockPrescaler\000"
 8544      6B507265 
 8544      7363616C 
 8544      657200
 8545              	.LASF247:
 8546 095f 4755495F 		.ascii	"GUI_FONT\000"
 8546      464F4E54 
 8546      00
 8547              	.LASF349:
 8548 0968 64617461 		.ascii	"data\000"
 8548      00
 8549              	.LASF175:
 8550 096d 72784275 		.ascii	"rxBufIdx\000"
 8550      66496478 
 8550      00
 8551              	.LASF333:
 8552 0976 66697243 		.ascii	"firCoeffs32_HighPass\000"
 8552      6F656666 
 8552      7333325F 
 8552      48696768 
 8552      50617373 
 8553              	.LASF179:
 8554 098b 696E6974 		.ascii	"initKey\000"
 8554      4B657900 
 8555              	.LASF100:
 8556 0993 64775374 		.ascii	"dwStatusChIdxMsk\000"
 8556      61747573 
 8556      43684964 
 8556      784D736B 
 8556      00
 8557              	.LASF14:
 8558 09a4 75696E74 		.ascii	"uint8_t\000"
 8558      385F7400 
 8559              	.LASF172:
 8560 09ac 73746174 		.ascii	"status\000"
 8560      757300
 8561              	.LASF229:
 8562 09b3 70614368 		.ascii	"paCharInfo\000"
 8562      6172496E 
 8562      666F00
 8563              	.LASF329:
 8564 09be 706F7572 		.ascii	"pourcentageSpO2\000"
 8564      63656E74 
 8564      61676553 
 8564      704F3200 
 8565              	.LASF223:
 8566 09ce 58506F73 		.ascii	"XPos\000"
 8566      00
 8567              	.LASF162:
 8568 09d3 736C6176 		.ascii	"slaveTxBufferCnt\000"
 8568      65547842 
 8568      75666665 
 8568      72436E74 
 8568      00
 8569              	.LASF35:
 8570 09e4 494E5452 		.ascii	"INTR_CAUSE0\000"
ARM GAS  C:\Users\user\AppData\Local\Temp\ccSIFDDJ.s 			page 183


 8570      5F434155 
 8570      53453000 
 8571              	.LASF36:
 8572 09f0 494E5452 		.ascii	"INTR_CAUSE1\000"
 8572      5F434155 
 8572      53453100 
 8573              	.LASF105:
 8574 09fc 70657269 		.ascii	"periDivCmdDivSelMsk\000"
 8574      44697643 
 8574      6D644469 
 8574      7653656C 
 8574      4D736B00 
 8575              	.LASF37:
 8576 0a10 494E5452 		.ascii	"INTR_CAUSE2\000"
 8576      5F434155 
 8576      53453200 
 8577              	.LASF38:
 8578 0a1c 494E5452 		.ascii	"INTR_CAUSE3\000"
 8578      5F434155 
 8578      53453300 
 8579              	.LASF254:
 8580 0a28 59446973 		.ascii	"YDist\000"
 8580      7400
 8581              	.LASF113:
 8582 0a2e 6770696F 		.ascii	"gpioPrtIntrCfgOffset\000"
 8582      50727449 
 8582      6E747243 
 8582      66674F66 
 8582      66736574 
 8583              	.LASF111:
 8584 0a43 70657269 		.ascii	"periDiv16_5CtlOffset\000"
 8584      44697631 
 8584      365F3543 
 8584      746C4F66 
 8584      66736574 
 8585              	.LASF181:
 8586 0a58 63795F63 		.ascii	"cy_cb_scb_uart_handle_events_t\000"
 8586      625F7363 
 8586      625F7561 
 8586      72745F68 
 8586      616E646C 
 8587              	.LASF286:
 8588 0a77 54595045 		.ascii	"TYPEGRAPH\000"
 8588      47524150 
 8588      4800
 8589              	.LASF319:
 8590 0a81 43595F45 		.ascii	"CY_EINK_Timer_config\000"
 8590      494E4B5F 
 8590      54696D65 
 8590      725F636F 
 8590      6E666967 
 8591              	.LASF337:
 8592 0a96 7461696C 		.ascii	"taille_infrarouge\000"
 8592      6C655F69 
 8592      6E667261 
 8592      726F7567 
 8592      6500
ARM GAS  C:\Users\user\AppData\Local\Temp\ccSIFDDJ.s 			page 184


 8593              	.LASF270:
 8594 0aa8 43595F45 		.ascii	"CY_EINK_FULL_2STAGE\000"
 8594      494E4B5F 
 8594      46554C4C 
 8594      5F325354 
 8594      41474500 
 8595              	.LASF11:
 8596 0abc 6C6F6E67 		.ascii	"long long int\000"
 8596      206C6F6E 
 8596      6720696E 
 8596      7400
 8597              	.LASF332:
 8598 0aca 66697243 		.ascii	"firCoeffs32_LowPass\000"
 8598      6F656666 
 8598      7333325F 
 8598      4C6F7750 
 8598      61737300 
 8599              	.LASF97:
 8600 0ade 64774368 		.ascii	"dwChCtlPrioPos\000"
 8600      43746C50 
 8600      72696F50 
 8600      6F7300
 8601              	.LASF250:
 8602 0aed 70664765 		.ascii	"pfGetFontInfo\000"
 8602      74466F6E 
 8602      74496E66 
 8602      6F00
 8603              	.LASF57:
 8604 0afb 63727970 		.ascii	"cryptoBase\000"
 8604      746F4261 
 8604      736500
 8605              	.LASF129:
 8606 0b06 63707573 		.ascii	"cpussRam0Ctl0\000"
 8606      7352616D 
 8606      3043746C 
 8606      3000
 8607              	.LASF336:
 8608 0b14 6D696E69 		.ascii	"minimum_rouge\000"
 8608      6D756D5F 
 8608      726F7567 
 8608      6500
 8609              	.LASF353:
 8610 0b22 494E4652 		.ascii	"INFRAROUGE_minimum_abs\000"
 8610      41524F55 
 8610      47455F6D 
 8610      696E696D 
 8610      756D5F61 
 8611              	.LASF219:
 8612 0b39 42797465 		.ascii	"BytesPerLine\000"
 8612      73506572 
 8612      4C696E65 
 8612      00
 8613              	.LASF367:
 8614 0b46 4755495F 		.ascii	"GUI_Init\000"
 8614      496E6974 
 8614      00
 8615              	.LASF48:
ARM GAS  C:\Users\user\AppData\Local\Temp\ccSIFDDJ.s 			page 185


 8616 0b4f 63707573 		.ascii	"cpussBase\000"
 8616      73426173 
 8616      6500
 8617              	.LASF279:
 8618 0b59 4F505449 		.ascii	"OPTION_3_ETAT\000"
 8618      4F4E5F33 
 8618      5F455441 
 8618      5400
 8619              	.LASF87:
 8620 0b67 666C6173 		.ascii	"flashWriteDelay\000"
 8620      68577269 
 8620      74654465 
 8620      6C617900 
 8621              	.LASF323:
 8622 0b77 4755495F 		.ascii	"GUI_Font8_1\000"
 8622      466F6E74 
 8622      385F3100 
 8623              	.LASF253:
 8624 0b83 70616645 		.ascii	"pafEncode\000"
 8624      6E636F64 
 8624      6500
 8625              	.LASF148:
 8626 0b8d 75736554 		.ascii	"useTxFifo\000"
 8626      78466966 
 8626      6F00
 8627              	.LASF180:
 8628 0b97 63795F73 		.ascii	"cy_stc_scb_spi_context_t\000"
 8628      74635F73 
 8628      63625F73 
 8628      70695F63 
 8628      6F6E7465 
 8629              	.LASF4:
 8630 0bb0 5F5F696E 		.ascii	"__int16_t\000"
 8630      7431365F 
 8630      7400
 8631              	.LASF305:
 8632 0bba 70617261 		.ascii	"param2\000"
 8632      6D3200
 8633              	.LASF359:
 8634 0bc1 4755495F 		.ascii	"GUI_DrawRect\000"
 8634      44726177 
 8634      52656374 
 8634      00
 8635              	.LASF242:
 8636 0bce 74474C5F 		.ascii	"tGL_DispLine\000"
 8636      44697370 
 8636      4C696E65 
 8636      00
 8637              	.LASF53:
 8638 0bdb 6873696F 		.ascii	"hsiomBase\000"
 8638      6D426173 
 8638      6500
 8639              	.LASF152:
 8640 0be5 6D617374 		.ascii	"masterRdDir\000"
 8640      65725264 
 8640      44697200 
 8641              	.LASF362:
ARM GAS  C:\Users\user\AppData\Local\Temp\ccSIFDDJ.s 			page 186


 8642 0bf1 4755495F 		.ascii	"GUI_Clear\000"
 8642      436C6561 
 8642      7200
 8643              	.LASF103:
 8644 0bfb 70657269 		.ascii	"periTrGrOffset\000"
 8644      54724772 
 8644      4F666673 
 8644      657400
 8645              	.LASF73:
 8646 0c0a 63707573 		.ascii	"cpussNotConnectedIrq\000"
 8646      734E6F74 
 8646      436F6E6E 
 8646      65637465 
 8646      64497271 
 8647              	.LASF228:
 8648 0c1f 4C617374 		.ascii	"Last\000"
 8648      00
 8649              	.LASF187:
 8650 0c24 72785269 		.ascii	"rxRingBufHead\000"
 8650      6E674275 
 8650      66486561 
 8650      6400
 8651              	.LASF69:
 8652 0c32 63707573 		.ascii	"cpussDwChNr\000"
 8652      73447743 
 8652      684E7200 
 8653              	.LASF203:
 8654 0c3e 72656C6F 		.ascii	"reloadInputMode\000"
 8654      6164496E 
 8654      7075744D 
 8654      6F646500 
 8655              	.LASF300:
 8656 0c4e 7461696C 		.ascii	"taille\000"
 8656      6C6500
 8657              	.LASF201:
 8658 0c55 63617074 		.ascii	"captureInputMode\000"
 8658      75726549 
 8658      6E707574 
 8658      4D6F6465 
 8658      00
 8659              	.LASF338:
 8660 0c66 7461696C 		.ascii	"taille_rouge\000"
 8660      6C655F72 
 8660      6F756765 
 8660      00
 8661              	.LASF244:
 8662 0c73 70664765 		.ascii	"pfGetLineLen\000"
 8662      744C696E 
 8662      654C656E 
 8662      00
 8663              	.LASF177:
 8664 0c80 74784275 		.ascii	"txBufSize\000"
 8664      6653697A 
 8664      6500
 8665              	.LASF67:
 8666 0c8a 63707573 		.ascii	"cpussIpcNr\000"
 8666      73497063 
ARM GAS  C:\Users\user\AppData\Local\Temp\ccSIFDDJ.s 			page 187


 8666      4E7200
 8667              	.LASF222:
 8668 0c95 5953697A 		.ascii	"YSize\000"
 8668      6500
 8669              	.LASF238:
 8670 0c9b 43486569 		.ascii	"CHeight\000"
 8670      67687400 
 8671              	.LASF334:
 8672 0ca3 626C6F63 		.ascii	"blockSize\000"
 8672      6B53697A 
 8672      6500
 8673              	.LASF79:
 8674 0cad 70617373 		.ascii	"passSarChannels\000"
 8674      53617243 
 8674      68616E6E 
 8674      656C7300 
 8675              	.LASF165:
 8676 0cbd 736C6176 		.ascii	"slaveRxBufferIdx\000"
 8676      65527842 
 8676      75666665 
 8676      72496478 
 8676      00
 8677              	.LASF261:
 8678 0cce 4755495F 		.ascii	"GUI_GETCHARINFO\000"
 8678      47455443 
 8678      48415249 
 8678      4E464F00 
 8679              	.LASF131:
 8680 0cde 63707573 		.ascii	"cpussRam2Ctl0\000"
 8680      7352616D 
 8680      3243746C 
 8680      3000
 8681              	.LASF266:
 8682 0cec 70765F65 		.ascii	"pv_eink_frame_data_t\000"
 8682      696E6B5F 
 8682      6672616D 
 8682      655F6461 
 8682      74615F74 
 8683              	.LASF151:
 8684 0d01 6D617374 		.ascii	"masterPause\000"
 8684      65725061 
 8684      75736500 
 8685              	.LASF268:
 8686 0d0d 43595F45 		.ascii	"CY_EINK_PARTIAL\000"
 8686      494E4B5F 
 8686      50415254 
 8686      49414C00 
 8687              	.LASF274:
 8688 0d1d 4D41494E 		.ascii	"MAIN_MENU\000"
 8688      5F4D454E 
 8688      5500
 8689              	.LASF176:
 8690 0d27 74784275 		.ascii	"txBuf\000"
 8690      6600
 8691              	.LASF272:
 8692 0d2d 5469636B 		.ascii	"TickType_t\000"
 8692      54797065 
ARM GAS  C:\Users\user\AppData\Local\Temp\ccSIFDDJ.s 			page 188


 8692      5F7400
 8693              	.LASF88:
 8694 0d38 666C6173 		.ascii	"flashProgramDelay\000"
 8694      6850726F 
 8694      6772616D 
 8694      44656C61 
 8694      7900
 8695              	.LASF110:
 8696 0d4a 70657269 		.ascii	"periDiv16CtlOffset\000"
 8696      44697631 
 8696      3643746C 
 8696      4F666673 
 8696      657400
 8697              	.LASF164:
 8698 0d5d 736C6176 		.ascii	"slaveRxBufferSize\000"
 8698      65527842 
 8698      75666665 
 8698      7253697A 
 8698      6500
 8699              	.LASF233:
 8700 0d6f 70547261 		.ascii	"pTrans\000"
 8700      6E7300
 8701              	.LASF240:
 8702 0d76 74475549 		.ascii	"tGUI_GetLineDistX\000"
 8702      5F476574 
 8702      4C696E65 
 8702      44697374 
 8702      5800
 8703              	.LASF6:
 8704 0d88 73686F72 		.ascii	"short unsigned int\000"
 8704      7420756E 
 8704      7369676E 
 8704      65642069 
 8704      6E7400
 8705              	.LASF185:
 8706 0d9b 72785269 		.ascii	"rxRingBuf\000"
 8706      6E674275 
 8706      6600
 8707              	.LASF47:
 8708 0da5 6C6F6E67 		.ascii	"long double\000"
 8708      20646F75 
 8708      626C6500 
 8709              	.LASF363:
 8710 0db1 73707269 		.ascii	"sprintf\000"
 8710      6E746600 
 8711              	.LASF16:
 8712 0db9 75696E74 		.ascii	"uint16_t\000"
 8712      31365F74 
 8712      00
 8713              	.LASF52:
 8714 0dc2 70726F74 		.ascii	"protBase\000"
 8714      42617365 
 8714      00
 8715              	.LASF43:
 8716 0dcb 5644445F 		.ascii	"VDD_INTR_SET\000"
 8716      494E5452 
 8716      5F534554 
ARM GAS  C:\Users\user\AppData\Local\Temp\ccSIFDDJ.s 			page 189


 8716      00
 8717              	.LASF194:
 8718 0dd8 72756E4D 		.ascii	"runMode\000"
 8718      6F646500 
 8719              	.LASF102:
 8720 0de0 70657269 		.ascii	"periTrCmdGrSelMsk\000"
 8720      5472436D 
 8720      64477253 
 8720      656C4D73 
 8720      6B00
 8721              	.LASF153:
 8722 0df2 6D617374 		.ascii	"masterBuffer\000"
 8722      65724275 
 8722      66666572 
 8722      00
 8723              	.LASF370:
 8724 0dff 4755495F 		.ascii	"GUI_SetColor\000"
 8724      53657443 
 8724      6F6C6F72 
 8724      00
 8725              	.LASF76:
 8726 0e0c 73727373 		.ascii	"srssNumHfroot\000"
 8726      4E756D48 
 8726      66726F6F 
 8726      7400
 8727              	.LASF211:
 8728 0e1a 63795F73 		.ascii	"cy_stc_tcpwm_counter_config_t\000"
 8728      74635F74 
 8728      6370776D 
 8728      5F636F75 
 8728      6E746572 
 8729              	.LASF237:
 8730 0e38 4C486569 		.ascii	"LHeight\000"
 8730      67687400 
 8731              	.LASF92:
 8732 0e40 666C6173 		.ascii	"flashCtlMainWs2Freq\000"
 8732      6843746C 
 8732      4D61696E 
 8732      57733246 
 8732      72657100 
 8733              	.LASF282:
 8734 0e54 464C4147 		.ascii	"FLAG1\000"
 8734      3100
 8735              	.LASF19:
 8736 0e5a 73697A65 		.ascii	"sizetype\000"
 8736      74797065 
 8736      00
 8737              	.LASF368:
 8738 0e63 43795F45 		.ascii	"Cy_EINK_Start\000"
 8738      494E4B5F 
 8738      53746172 
 8738      7400
 8739              	.LASF127:
 8740 0e71 63707573 		.ascii	"cpussCm4NmiCtlOffset\000"
 8740      73436D34 
 8740      4E6D6943 
 8740      746C4F66 
ARM GAS  C:\Users\user\AppData\Local\Temp\ccSIFDDJ.s 			page 190


 8740      66736574 
 8741              	.LASF196:
 8742 0e86 636F6D70 		.ascii	"compareOrCapture\000"
 8742      6172654F 
 8742      72436170 
 8742      74757265 
 8742      00
 8743              	.LASF109:
 8744 0e97 70657269 		.ascii	"periDiv8CtlOffset\000"
 8744      44697638 
 8744      43746C4F 
 8744      66667365 
 8744      7400
 8745              	.LASF340:
 8746 0ea9 616C6172 		.ascii	"alarme_acc\000"
 8746      6D655F61 
 8746      636300
 8747              	.LASF0:
 8748 0eb4 73686F72 		.ascii	"short int\000"
 8748      7420696E 
 8748      7400
 8749              	.LASF339:
 8750 0ebe 636F7572 		.ascii	"courant\000"
 8750      616E7400 
 8751              	.LASF200:
 8752 0ec6 696E7465 		.ascii	"interruptSources\000"
 8752      72727570 
 8752      74536F75 
 8752      72636573 
 8752      00
 8753              	.LASF199:
 8754 0ed7 656E6162 		.ascii	"enableCompareSwap\000"
 8754      6C65436F 
 8754      6D706172 
 8754      65537761 
 8754      7000
 8755              	.LASF264:
 8756 0ee9 7050726F 		.ascii	"pProp\000"
 8756      7000
 8757              	.LASF8:
 8758 0eef 6C6F6E67 		.ascii	"long int\000"
 8758      20696E74 
 8758      00
 8759              	.LASF309:
 8760 0ef8 706F735F 		.ascii	"pos_curseur\000"
 8760      63757273 
 8760      65757200 
 8761              	.LASF58:
 8762 0f04 63707573 		.ascii	"cpussVersion\000"
 8762      73566572 
 8762      73696F6E 
 8762      00
 8763              	.LASF316:
 8764 0f11 49544D5F 		.ascii	"ITM_RxBuffer\000"
 8764      52784275 
 8764      66666572 
 8764      00
ARM GAS  C:\Users\user\AppData\Local\Temp\ccSIFDDJ.s 			page 191


 8765              	.LASF209:
 8766 0f1e 636F756E 		.ascii	"countInputMode\000"
 8766      74496E70 
 8766      75744D6F 
 8766      646500
 8767              	.LASF62:
 8768 0f2d 6770696F 		.ascii	"gpioVersion\000"
 8768      56657273 
 8768      696F6E00 
 8769              	.LASF280:
 8770 0f39 6C6F6361 		.ascii	"location\000"
 8770      74696F6E 
 8770      00
 8771              	.LASF263:
 8772 0f42 704D6F6E 		.ascii	"pMono\000"
 8772      6F00
 8773              	.LASF369:
 8774 0f48 43795F45 		.ascii	"Cy_EINK_Power\000"
 8774      494E4B5F 
 8774      506F7765 
 8774      7200
 8775              	.LASF61:
 8776 0f56 666C6173 		.ascii	"flashcVersion\000"
 8776      68635665 
 8776      7273696F 
 8776      6E00
 8777              	.LASF214:
 8778 0f64 4C617374 		.ascii	"LastChar\000"
 8778      43686172 
 8778      00
 8779              	.LASF195:
 8780 0f6d 636F756E 		.ascii	"countDirection\000"
 8780      74446972 
 8780      65637469 
 8780      6F6E00
 8781              	.LASF34:
 8782 0f7c 4750494F 		.ascii	"GPIO_PRT_V1_Type\000"
 8782      5F505254 
 8782      5F56315F 
 8782      54797065 
 8782      00
 8783              	.LASF295:
 8784 0f8d 55706461 		.ascii	"UpdateDisplay\000"
 8784      74654469 
 8784      73706C61 
 8784      7900
 8785              	.LASF23:
 8786 0f9b 494E5452 		.ascii	"INTR\000"
 8786      00
 8787              	.LASF135:
 8788 0fa0 63686172 		.ascii	"char_t\000"
 8788      5F7400
 8789              	.LASF285:
 8790 0fa7 464C4147 		.ascii	"FLAG_DEPART\000"
 8790      5F444550 
 8790      41525400 
 8791              	.LASF326:
ARM GAS  C:\Users\user\AppData\Local\Temp\ccSIFDDJ.s 			page 192


 8792 0fb3 4755495F 		.ascii	"GUI_Font32B_1\000"
 8792      466F6E74 
 8792      3332425F 
 8792      3100
 8793              	.LASF321:
 8794 0fc1 4932435F 		.ascii	"I2C_1_context\000"
 8794      315F636F 
 8794      6E746578 
 8794      7400
 8795              	.LASF325:
 8796 0fcf 4755495F 		.ascii	"GUI_Font16B_1\000"
 8796      466F6E74 
 8796      3136425F 
 8796      3100
 8797              	.LASF32:
 8798 0fdd 4346475F 		.ascii	"CFG_IN_GPIO5V\000"
 8798      494E5F47 
 8798      50494F35 
 8798      5600
 8799              	.LASF355:
 8800 0feb 4C43445F 		.ascii	"LCD_GetDisplayBuffer\000"
 8800      47657444 
 8800      6973706C 
 8800      61794275 
 8800      66666572 
 8801              	.LASF313:
 8802 1000 44726177 		.ascii	"DrawOption3_inferieur\000"
 8802      4F707469 
 8802      6F6E335F 
 8802      696E6665 
 8802      72696575 
 8803              	.LASF189:
 8804 1016 74784C65 		.ascii	"txLeftToTransmit\000"
 8804      6674546F 
 8804      5472616E 
 8804      736D6974 
 8804      00
 8805              	.LASF350:
 8806 1027 76656374 		.ascii	"vecteurespacee\000"
 8806      65757265 
 8806      73706163 
 8806      656500
 8807              	.LASF22:
 8808 1036 4F55545F 		.ascii	"OUT_INV\000"
 8808      494E5600 
 8809              	.LASF122:
 8810 103e 63707573 		.ascii	"cpussCm4PwrCtlOffset\000"
 8810      73436D34 
 8810      50777243 
 8810      746C4F66 
 8810      66736574 
 8811              	.LASF3:
 8812 1053 5F5F7569 		.ascii	"__uint8_t\000"
 8812      6E74385F 
 8812      7400
 8813              	.LASF290:
 8814 105d 75706461 		.ascii	"updateMethod\000"
ARM GAS  C:\Users\user\AppData\Local\Temp\ccSIFDDJ.s 			page 193


 8814      74654D65 
 8814      74686F64 
 8814      00
 8815              	.LASF245:
 8816 106a 70664469 		.ascii	"pfDispLine\000"
 8816      73704C69 
 8816      6E6500
 8817              	.LASF312:
 8818 1075 44726177 		.ascii	"DrawOption3_superieur\000"
 8818      4F707469 
 8818      6F6E335F 
 8818      73757065 
 8818      72696575 
 8819              	.LASF126:
 8820 108b 63707573 		.ascii	"cpussCm0NmiCtlOffset\000"
 8820      73436D30 
 8820      4E6D6943 
 8820      746C4F66 
 8820      66736574 
 8821              	.LASF119:
 8822 10a0 63707573 		.ascii	"cpussCm4ClockCtlOffset\000"
 8822      73436D34 
 8822      436C6F63 
 8822      6B43746C 
 8822      4F666673 
 8823              	.LASF25:
 8824 10b7 494E5452 		.ascii	"INTR_MASKED\000"
 8824      5F4D4153 
 8824      4B454400 
 8825              	.LASF241:
 8826 10c3 74475549 		.ascii	"tGUI_GetLineLen\000"
 8826      5F476574 
 8826      4C696E65 
 8826      4C656E00 
 8827              	.LASF124:
 8828 10d3 63707573 		.ascii	"cpussTrimRomCtlOffset\000"
 8828      73547269 
 8828      6D526F6D 
 8828      43746C4F 
 8828      66667365 
 8829              	.LASF301:
 8830 10e9 6D617869 		.ascii	"maximum\000"
 8830      6D756D00 
 8831              	.LASF63:
 8832 10f1 6873696F 		.ascii	"hsiomVersion\000"
 8832      6D566572 
 8832      73696F6E 
 8832      00
 8833              	.LASF10:
 8834 10fe 6C6F6E67 		.ascii	"long unsigned int\000"
 8834      20756E73 
 8834      69676E65 
 8834      6420696E 
 8834      7400
 8835              	.LASF128:
 8836 1110 63707573 		.ascii	"cpussRomCtl\000"
 8836      73526F6D 
ARM GAS  C:\Users\user\AppData\Local\Temp\ccSIFDDJ.s 			page 194


 8836      43746C00 
 8837              	.LASF138:
 8838 111c 666C6F61 		.ascii	"float\000"
 8838      7400
 8839              	.LASF212:
 8840 1122 4755495F 		.ascii	"GUI_FONT_TRANSLIST\000"
 8840      464F4E54 
 8840      5F545241 
 8840      4E534C49 
 8840      535400
 8841              	.LASF17:
 8842 1135 696E7433 		.ascii	"int32_t\000"
 8842      325F7400 
 8843              	.LASF202:
 8844 113d 63617074 		.ascii	"captureInput\000"
 8844      75726549 
 8844      6E707574 
 8844      00
 8845              	.LASF308:
 8846 114a 44726177 		.ascii	"DrawMenu\000"
 8846      4D656E75 
 8846      00
 8847              	.LASF121:
 8848 1153 63707573 		.ascii	"cpussCm0StatusOffset\000"
 8848      73436D30 
 8848      53746174 
 8848      75734F66 
 8848      66736574 
 8849              	.LASF341:
 8850 1168 616C6172 		.ascii	"alarme_FC\000"
 8850      6D655F46 
 8850      4300
 8851              	.LASF218:
 8852 1172 58446973 		.ascii	"XDist\000"
 8852      7400
 8853              	.LASF335:
 8854 1178 6D696E69 		.ascii	"minimum_infrarouge\000"
 8854      6D756D5F 
 8854      696E6672 
 8854      61726F75 
 8854      676500
 8855              	.LASF2:
 8856 118b 756E7369 		.ascii	"unsigned char\000"
 8856      676E6564 
 8856      20636861 
 8856      7200
 8857              	.LASF9:
 8858 1199 5F5F7569 		.ascii	"__uint32_t\000"
 8858      6E743332 
 8858      5F7400
 8859              	.LASF46:
 8860 11a4 4750494F 		.ascii	"GPIO_Type\000"
 8860      5F547970 
 8860      6500
 8861              	.LASF133:
 8862 11ae 6970634C 		.ascii	"ipcLockStatusOffset\000"
 8862      6F636B53 
ARM GAS  C:\Users\user\AppData\Local\Temp\ccSIFDDJ.s 			page 195


 8862      74617475 
 8862      734F6666 
 8862      73657400 
 8863              	.LASF210:
 8864 11c2 636F756E 		.ascii	"countInput\000"
 8864      74496E70 
 8864      757400
 8865              	.LASF27:
 8866 11cd 494E5452 		.ascii	"INTR_CFG\000"
 8866      5F434647 
 8866      00
 8867              	.LASF322:
 8868 11d6 4932435F 		.ascii	"I2C_2_context\000"
 8868      325F636F 
 8868      6E746578 
 8868      7400
 8869              	.LASF171:
 8870 11e4 63795F73 		.ascii	"cy_stc_scb_spi_context\000"
 8870      74635F73 
 8870      63625F73 
 8870      70695F63 
 8870      6F6E7465 
 8871              	.LASF89:
 8872 11fb 666C6173 		.ascii	"flashEraseDelay\000"
 8872      68457261 
 8872      73654465 
 8872      6C617900 
 8873              	.LASF90:
 8874 120b 666C6173 		.ascii	"flashCtlMainWs0Freq\000"
 8874      6843746C 
 8874      4D61696E 
 8874      57733046 
 8874      72657100 
 8875              	.LASF149:
 8876 121f 73746174 		.ascii	"state\000"
 8876      6500
 8877              	.LASF83:
 8878 1225 70726F74 		.ascii	"protBusMasterMask\000"
 8878      4275734D 
 8878      61737465 
 8878      724D6173 
 8878      6B00
 8879              	.LASF364:
 8880 1237 4755495F 		.ascii	"GUI_SetTextAlign\000"
 8880      53657454 
 8880      65787441 
 8880      6C69676E 
 8880      00
 8881              	.LASF277:
 8882 1248 4F505449 		.ascii	"OPTION_3_superieur\000"
 8882      4F4E5F33 
 8882      5F737570 
 8882      65726965 
 8882      757200
 8883              	.LASF351:
 8884 125b 494E4652 		.ascii	"INFRAROUGE\000"
 8884      41524F55 
ARM GAS  C:\Users\user\AppData\Local\Temp\ccSIFDDJ.s 			page 196


 8884      474500
 8885              	.LASF85:
 8886 1266 666C6173 		.ascii	"flashRwwRequired\000"
 8886      68527777 
 8886      52657175 
 8886      69726564 
 8886      00
 8887              	.LASF283:
 8888 1277 464C4147 		.ascii	"FLAG2\000"
 8888      3200
 8889              	.LASF284:
 8890 127d 464C4147 		.ascii	"FLAG3\000"
 8890      3300
 8891              	.LASF114:
 8892 1283 6770696F 		.ascii	"gpioPrtCfgOffset\000"
 8892      50727443 
 8892      66674F66 
 8892      66736574 
 8892      00
 8893              	.LASF288:
 8894 1294 70696E4E 		.ascii	"pinNum\000"
 8894      756D00
 8895              	.LASF41:
 8896 129b 5644445F 		.ascii	"VDD_INTR_MASK\000"
 8896      494E5452 
 8896      5F4D4153 
 8896      4B00
 8897              	.LASF328:
 8898 12a9 64617461 		.ascii	"dataSpo2\000"
 8898      53706F32 
 8898      00
 8899              	.LASF1:
 8900 12b2 7369676E 		.ascii	"signed char\000"
 8900      65642063 
 8900      68617200 
 8901              	.LASF192:
 8902 12be 70657269 		.ascii	"period\000"
 8902      6F6400
 8903              	.LASF361:
 8904 12c5 4755495F 		.ascii	"GUI_SetFont\000"
 8904      53657446 
 8904      6F6E7400 
 8905              	.LASF95:
 8906 12d1 64774368 		.ascii	"dwChOffset\000"
 8906      4F666673 
 8906      657400
 8907              	.LASF68:
 8908 12dc 63707573 		.ascii	"cpussIpcIrqNr\000"
 8908      73497063 
 8908      4972714E 
 8908      7200
 8909              	.LASF191:
 8910 12ea 63795F73 		.ascii	"cy_stc_tcpwm_counter_config\000"
 8910      74635F74 
 8910      6370776D 
 8910      5F636F75 
 8910      6E746572 
ARM GAS  C:\Users\user\AppData\Local\Temp\ccSIFDDJ.s 			page 197


 8911              	.LASF98:
 8912 1306 64774368 		.ascii	"dwChCtlPreemptablePos\000"
 8912      43746C50 
 8912      7265656D 
 8912      70746162 
 8912      6C65506F 
 8913              	.LASF256:
 8914 131c 594D6167 		.ascii	"YMag\000"
 8914      00
 8915              	.LASF217:
 8916 1321 5853697A 		.ascii	"XSize\000"
 8916      6500
 8917              	.LASF378:
 8918 1327 6D656D63 		.ascii	"memcpy\000"
 8918      707900
 8919              	.LASF120:
 8920 132e 63707573 		.ascii	"cpussCm4StatusOffset\000"
 8920      73436D34 
 8920      53746174 
 8920      75734F66 
 8920      66736574 
 8921              	.LASF134:
 8922 1343 63795F73 		.ascii	"cy_stc_device_t\000"
 8922      74635F64 
 8922      65766963 
 8922      655F7400 
 8923              	.LASF39:
 8924 1353 5644445F 		.ascii	"VDD_ACTIVE\000"
 8924      41435449 
 8924      564500
 8925              	.LASF342:
 8926 135e 626F726E 		.ascii	"borne_inferieur\000"
 8926      655F696E 
 8926      66657269 
 8926      65757200 
 8927              	.LASF267:
 8928 136e 63795F65 		.ascii	"cy_eink_frame_t\000"
 8928      696E6B5F 
 8928      6672616D 
 8928      655F7400 
 8929              	.LASF348:
 8930 137e 73656C65 		.ascii	"selection_MENU\000"
 8930      6374696F 
 8930      6E5F4D45 
 8930      4E5500
 8931              	.LASF65:
 8932 138d 70657269 		.ascii	"periVersion\000"
 8932      56657273 
 8932      696F6E00 
 8933              	.LASF140:
 8934 1399 75696E74 		.ascii	"uint8\000"
 8934      3800
 8935              	.LASF139:
 8936 139f 646F7562 		.ascii	"double\000"
 8936      6C6500
 8937              	.LASF55:
 8938 13a6 70617373 		.ascii	"passBase\000"
ARM GAS  C:\Users\user\AppData\Local\Temp\ccSIFDDJ.s 			page 198


 8938      42617365 
 8938      00
 8939              	.LASF221:
 8940 13af 4755495F 		.ascii	"GUI_CHARINFO\000"
 8940      43484152 
 8940      494E464F 
 8940      00
 8941              	.LASF260:
 8942 13bc 4755495F 		.ascii	"GUI_ISINFONT\000"
 8942      4953494E 
 8942      464F4E54 
 8942      00
 8943              	.LASF74:
 8944 13c9 73727373 		.ascii	"srssNumClkpath\000"
 8944      4E756D43 
 8944      6C6B7061 
 8944      746800
 8945              	.LASF304:
 8946 13d8 70617261 		.ascii	"param1\000"
 8946      6D3100
 8947              	.LASF168:
 8948 13df 63795F73 		.ascii	"cy_stc_scb_i2c_context_t\000"
 8948      74635F73 
 8948      63625F69 
 8948      32635F63 
 8948      6F6E7465 
 8949              	.LASF30:
 8950 13f8 4346475F 		.ascii	"CFG_SIO\000"
 8950      53494F00 
 8951              	.LASF94:
 8952 1400 666C6173 		.ascii	"flashCtlMainWs4Freq\000"
 8952      6843746C 
 8952      4D61696E 
 8952      57733446 
 8952      72657100 
 8953              	.LASF298:
 8954 1414 65737061 		.ascii	"espacement\000"
 8954      63656D65 
 8954      6E7400
 8955              	.LASF343:
 8956 141f 626F726E 		.ascii	"borne_superieur\000"
 8956      655F7375 
 8956      70657269 
 8956      65757200 
 8957              	.LASF230:
 8958 142f 704E6578 		.ascii	"pNext\000"
 8958      7400
 8959              	.LASF278:
 8960 1435 4F505449 		.ascii	"OPTION_3_inferieur\000"
 8960      4F4E5F33 
 8960      5F696E66 
 8960      65726965 
 8960      757200
 8961              	.LASF314:
 8962 1448 44726177 		.ascii	"DrawOption3_ETAT\000"
 8962      4F707469 
 8962      6F6E335F 
ARM GAS  C:\Users\user\AppData\Local\Temp\ccSIFDDJ.s 			page 199


 8962      45544154 
 8962      00
 8963              	.LASF64:
 8964 1459 69706356 		.ascii	"ipcVersion\000"
 8964      65727369 
 8964      6F6E00
 8965              	.LASF265:
 8966 1464 7050726F 		.ascii	"pPropExt\000"
 8966      70457874 
 8966      00
 8967              	.LASF101:
 8968 146d 70657269 		.ascii	"periTrCmdOffset\000"
 8968      5472436D 
 8968      644F6666 
 8968      73657400 
 8969              	.LASF174:
 8970 147d 72784275 		.ascii	"rxBufSize\000"
 8970      6653697A 
 8970      6500
 8971              	.LASF206:
 8972 1487 73746172 		.ascii	"startInput\000"
 8972      74496E70 
 8972      757400
 8973              		.ident	"GCC: (GNU Tools for ARM Embedded Processors) 5.4.1 20160609 (release) [ARM/embedded-5-bran
