ARM GAS  C:\Users\Mahrukh\AppData\Local\Temp\cc9cxDT2.s 			page 1


   1              		.syntax unified
   2              		.cpu cortex-m4
   3              		.eabi_attribute 27, 1
   4              		.fpu fpv4-sp-d16
   5              		.eabi_attribute 20, 1
   6              		.eabi_attribute 21, 1
   7              		.eabi_attribute 23, 3
   8              		.eabi_attribute 24, 1
   9              		.eabi_attribute 25, 1
  10              		.eabi_attribute 26, 1
  11              		.eabi_attribute 30, 1
  12              		.eabi_attribute 34, 1
  13              		.eabi_attribute 18, 4
  14              		.thumb
  15              		.syntax unified
  16              		.file	"main_cm4.c"
  17              		.text
  18              	.Ltext0:
  19              		.cfi_sections	.debug_frame
  20              		.section	.text.largest,"ax",%progbits
  21              		.align	2
  22              		.global	largest
  23              		.thumb
  24              		.thumb_func
  25              		.type	largest, %function
  26              	largest:
  27              	.LFB638:
  28              		.file 1 "main_cm4.c"
   1:main_cm4.c    **** /******************************************************************************
   2:main_cm4.c    **** * File Name: main_cm4.c
   3:main_cm4.c    **** *
   4:main_cm4.c    **** * Version: 1.2
   5:main_cm4.c    **** *
   6:main_cm4.c    **** * Description: This file main application code for the CE223727 EmWin Graphics
   7:main_cm4.c    **** *				library EInk Display 
   8:main_cm4.c    **** 
   9:main_cm4.c    **** ********************************************************************************
  10:main_cm4.c    **** *************MODIFIED by Christophe Cloutier-Tremblay.**************************
  11:main_cm4.c    **** ********************************************************************************
  12:main_cm4.c    **** * 
  13:main_cm4.c    **** *
  14:main_cm4.c    **** * Hardware Dependency: CY8CKIT-028-EPD E-Ink Display Shield
  15:main_cm4.c    **** *					   CY8CKIT-062-BLE PSoC6 BLE Pioneer Kit
  16:main_cm4.c    **** *
  17:main_cm4.c    **** ******************************************************************************* 
  18:main_cm4.c    **** * Copyright (2019), Cypress Semiconductor Corporation. All rights reserved. 
  19:main_cm4.c    **** ******************************************************************************* 
  20:main_cm4.c    **** * This software, including source code, documentation and related materials 
  21:main_cm4.c    **** * (“Software”), is owned by Cypress Semiconductor Corporation or one of its 
  22:main_cm4.c    **** * subsidiaries (“Cypress”) and is protected by and subject to worldwide patent 
  23:main_cm4.c    **** * protection (United States and foreign), United States copyright laws and 
  24:main_cm4.c    **** * international treaty provisions. Therefore, you may use this Software only 
  25:main_cm4.c    **** * as provided in the license agreement accompanying the software package from 
  26:main_cm4.c    **** * which you obtained this Software (“EULA”). 
  27:main_cm4.c    **** * 
  28:main_cm4.c    **** * If no EULA applies, Cypress hereby grants you a personal, non-exclusive, 
  29:main_cm4.c    **** * non-transferable license to copy, modify, and compile the Software source 
ARM GAS  C:\Users\Mahrukh\AppData\Local\Temp\cc9cxDT2.s 			page 2


  30:main_cm4.c    **** * code solely for use in connection with Cypress’s integrated circuit products. 
  31:main_cm4.c    **** * Any reproduction, modification, translation, compilation, or representation 
  32:main_cm4.c    **** * of this Software except as specified above is prohibited without the express 
  33:main_cm4.c    **** * written permission of Cypress. 
  34:main_cm4.c    **** * 
  35:main_cm4.c    **** * Disclaimer: THIS SOFTWARE IS PROVIDED AS-IS, WITH NO WARRANTY OF ANY KIND, 
  36:main_cm4.c    **** * EXPRESS OR IMPLIED, INCLUDING, BUT NOT LIMITED TO, NONINFRINGEMENT, IMPLIED 
  37:main_cm4.c    **** * WARRANTIES OF MERCHANTABILITY AND FITNESS FOR A PARTICULAR PURPOSE. Cypress 
  38:main_cm4.c    **** * reserves the right to make changes to the Software without notice. Cypress 
  39:main_cm4.c    **** * does not assume any liability arising out of the application or use of the 
  40:main_cm4.c    **** * Software or any product or circuit described in the Software. Cypress does 
  41:main_cm4.c    **** * not authorize its products for use in any products where a malfunction or 
  42:main_cm4.c    **** * failure of the Cypress product may reasonably be expected to result in 
  43:main_cm4.c    **** * significant property damage, injury or death (“High Risk Product”). By 
  44:main_cm4.c    **** * including Cypress’s product in a High Risk Product, the manufacturer of such 
  45:main_cm4.c    **** * system or application assumes all risk of such use and in doing so agrees to 
  46:main_cm4.c    **** * indemnify Cypress against all liability.
  47:main_cm4.c    **** ********************************************************************************/
  48:main_cm4.c    **** 
  49:main_cm4.c    **** #include "project.h"
  50:main_cm4.c    **** #include "GUI.h"
  51:main_cm4.c    **** #include "pervasive_eink_hardware_driver.h"
  52:main_cm4.c    **** #include "cy_eink_library.h"
  53:main_cm4.c    **** #include "LCDConf.h"
  54:main_cm4.c    **** #include <stdlib.h>
  55:main_cm4.c    **** 
  56:main_cm4.c    **** //vecteur sinus de 150 élément entre -1 et 1
  57:main_cm4.c    **** uint32_t vecteurdonnees[]={99513,98160,99413,98419,99319,98729,99145,99050,98949,99419,98798,99851,
  58:main_cm4.c    **** int size= sizeof(vecteurdonnees)/sizeof (vecteurdonnees[0]); 
  59:main_cm4.c    **** I16 data[150]; 
  60:main_cm4.c    **** I16 vecteurespacee [250]; 
  61:main_cm4.c    **** /* Image buffer cache */
  62:main_cm4.c    **** uint8 imageBufferCache[CY_EINK_FRAME_SIZE] = {0};
  63:main_cm4.c    **** 
  64:main_cm4.c    **** /*******************************************************************************
  65:main_cm4.c    **** * Function Name: void UpdateDisplay(void)
  66:main_cm4.c    **** ********************************************************************************
  67:main_cm4.c    **** *
  68:main_cm4.c    **** * Summary: This function updates the display with the data in the display 
  69:main_cm4.c    **** *			buffer.  The function first transfers the content of the EmWin
  70:main_cm4.c    **** *			display buffer to the primary EInk display buffer.  Then it calls
  71:main_cm4.c    **** *			the Cy_EINK_ShowFrame function to update the display, and then
  72:main_cm4.c    **** *			it copies the EmWin display buffer to the Eink display cache buffer
  73:main_cm4.c    **** *
  74:main_cm4.c    **** * Parameters:
  75:main_cm4.c    **** *  None
  76:main_cm4.c    **** *
  77:main_cm4.c    **** * Return:
  78:main_cm4.c    **** *  None
  79:main_cm4.c    **** *
  80:main_cm4.c    **** * Side Effects:
  81:main_cm4.c    **** *  It takes about a second to refresh the display.  This is a blocking function
  82:main_cm4.c    **** *  and only returns after the display refresh
  83:main_cm4.c    **** *
  84:main_cm4.c    **** *******************************************************************************/
  85:main_cm4.c    **** uint32_t largest(uint32_t arr[], int n)      //dans quel document H je déclare cette fonction? 
  86:main_cm4.c    **** {
ARM GAS  C:\Users\Mahrukh\AppData\Local\Temp\cc9cxDT2.s 			page 3


  29              		.loc 1 86 0
  30              		.cfi_startproc
  31              		@ args = 0, pretend = 0, frame = 0
  32              		@ frame_needed = 0, uses_anonymous_args = 0
  33              		@ link register save eliminated.
  34              	.LVL0:
  35 0000 10B4     		push	{r4}
  36              		.cfi_def_cfa_offset 4
  37              		.cfi_offset 4, -4
  38 0002 0446     		mov	r4, r0
  87:main_cm4.c    ****     int i;
  88:main_cm4.c    ****     // Initialize maximum element
  89:main_cm4.c    ****     uint32_t max = arr[0];
  39              		.loc 1 89 0
  40 0004 0068     		ldr	r0, [r0]
  41              	.LVL1:
  90:main_cm4.c    ****     // Traverse array elements from second and
  91:main_cm4.c    ****     // compare every element with current max 
  92:main_cm4.c    ****     for (i = 1; i < n; i++){
  42              		.loc 1 92 0
  43 0006 0123     		movs	r3, #1
  44 0008 05E0     		b	.L2
  45              	.LVL2:
  46              	.L4:
  93:main_cm4.c    ****         if (arr[i] > max){
  47              		.loc 1 93 0
  48 000a 54F82320 		ldr	r2, [r4, r3, lsl #2]
  49 000e 9042     		cmp	r0, r2
  50 0010 00D2     		bcs	.L3
  94:main_cm4.c    ****             max = arr[i];}}
  51              		.loc 1 94 0
  52 0012 1046     		mov	r0, r2
  53              	.LVL3:
  54              	.L3:
  92:main_cm4.c    ****         if (arr[i] > max){
  55              		.loc 1 92 0 discriminator 2
  56 0014 0133     		adds	r3, r3, #1
  57              	.LVL4:
  58              	.L2:
  92:main_cm4.c    ****         if (arr[i] > max){
  59              		.loc 1 92 0 is_stmt 0 discriminator 1
  60 0016 8B42     		cmp	r3, r1
  61 0018 F7DB     		blt	.L4
  95:main_cm4.c    ****     return max;
  96:main_cm4.c    **** }
  62              		.loc 1 96 0 is_stmt 1
  63 001a 5DF8044B 		ldr	r4, [sp], #4
  64              		.cfi_restore 4
  65              		.cfi_def_cfa_offset 0
  66              	.LVL5:
  67 001e 7047     		bx	lr
  68              		.cfi_endproc
  69              	.LFE638:
  70              		.size	largest, .-largest
  71              		.section	.text.UpdateDisplay,"ax",%progbits
  72              		.align	2
  73              		.global	UpdateDisplay
ARM GAS  C:\Users\Mahrukh\AppData\Local\Temp\cc9cxDT2.s 			page 4


  74              		.thumb
  75              		.thumb_func
  76              		.type	UpdateDisplay, %function
  77              	UpdateDisplay:
  78              	.LFB639:
  97:main_cm4.c    **** 
  98:main_cm4.c    **** void UpdateDisplay(cy_eink_update_t updateMethod, bool powerCycle)
  99:main_cm4.c    **** {
  79              		.loc 1 99 0
  80              		.cfi_startproc
  81              		@ args = 0, pretend = 0, frame = 0
  82              		@ frame_needed = 0, uses_anonymous_args = 0
  83              	.LVL6:
  84 0000 F8B5     		push	{r3, r4, r5, r6, r7, lr}
  85              		.cfi_def_cfa_offset 24
  86              		.cfi_offset 3, -24
  87              		.cfi_offset 4, -20
  88              		.cfi_offset 5, -16
  89              		.cfi_offset 6, -12
  90              		.cfi_offset 7, -8
  91              		.cfi_offset 14, -4
  92 0002 0646     		mov	r6, r0
  93 0004 0F46     		mov	r7, r1
 100:main_cm4.c    ****     cy_eink_frame_t* pEmwinBuffer;
 101:main_cm4.c    **** 
 102:main_cm4.c    ****     /* Get the pointer to Emwin's display buffer */
 103:main_cm4.c    ****     pEmwinBuffer = (cy_eink_frame_t*)LCD_GetDisplayBuffer();
  94              		.loc 1 103 0
  95 0006 FFF7FEFF 		bl	LCD_GetDisplayBuffer
  96              	.LVL7:
  97 000a 0546     		mov	r5, r0
  98              	.LVL8:
 104:main_cm4.c    **** 
 105:main_cm4.c    ****     /* Update the EInk display */
 106:main_cm4.c    ****     Cy_EINK_ShowFrame(imageBufferCache, pEmwinBuffer, updateMethod, powerCycle);
  99              		.loc 1 106 0
 100 000c 064C     		ldr	r4, .L9
 101 000e 3B46     		mov	r3, r7
 102 0010 3246     		mov	r2, r6
 103 0012 0146     		mov	r1, r0
 104 0014 2046     		mov	r0, r4
 105              	.LVL9:
 106 0016 FFF7FEFF 		bl	Cy_EINK_ShowFrame
 107              	.LVL10:
 107:main_cm4.c    **** 
 108:main_cm4.c    ****     /* Copy the EmWin display buffer to the imageBuffer cache*/
 109:main_cm4.c    ****     memcpy(imageBufferCache, pEmwinBuffer, CY_EINK_FRAME_SIZE);
 108              		.loc 1 109 0
 109 001a 41F2B062 		movw	r2, #5808
 110 001e 2946     		mov	r1, r5
 111 0020 2046     		mov	r0, r4
 112 0022 FFF7FEFF 		bl	memcpy
 113              	.LVL11:
 114 0026 F8BD     		pop	{r3, r4, r5, r6, r7, pc}
 115              	.LVL12:
 116              	.L10:
 117              		.align	2
ARM GAS  C:\Users\Mahrukh\AppData\Local\Temp\cc9cxDT2.s 			page 5


 118              	.L9:
 119 0028 00000000 		.word	.LANCHOR0
 120              		.cfi_endproc
 121              	.LFE639:
 122              		.size	UpdateDisplay, .-UpdateDisplay
 123              		.section	.text.ClearScreen,"ax",%progbits
 124              		.align	2
 125              		.global	ClearScreen
 126              		.thumb
 127              		.thumb_func
 128              		.type	ClearScreen, %function
 129              	ClearScreen:
 130              	.LFB640:
 110:main_cm4.c    **** }
 111:main_cm4.c    **** 
 112:main_cm4.c    **** 
 113:main_cm4.c    **** /*******************************************************************************
 114:main_cm4.c    **** * Function Name: void ClearScreen(void)
 115:main_cm4.c    **** ********************************************************************************
 116:main_cm4.c    **** *
 117:main_cm4.c    **** * Summary: This function clears the screen
 118:main_cm4.c    **** *
 119:main_cm4.c    **** * Parameters:
 120:main_cm4.c    **** *  None
 121:main_cm4.c    **** *
 122:main_cm4.c    **** * Return:
 123:main_cm4.c    **** *  None
 124:main_cm4.c    **** *
 125:main_cm4.c    **** *******************************************************************************/
 126:main_cm4.c    **** void ClearScreen(void)
 127:main_cm4.c    **** {
 131              		.loc 1 127 0
 132              		.cfi_startproc
 133              		@ args = 0, pretend = 0, frame = 0
 134              		@ frame_needed = 0, uses_anonymous_args = 0
 135 0000 08B5     		push	{r3, lr}
 136              		.cfi_def_cfa_offset 8
 137              		.cfi_offset 3, -8
 138              		.cfi_offset 14, -4
 128:main_cm4.c    ****     GUI_SetColor(GUI_BLACK);
 139              		.loc 1 128 0
 140 0002 0020     		movs	r0, #0
 141 0004 FFF7FEFF 		bl	GUI_SetColor
 142              	.LVL13:
 129:main_cm4.c    ****     GUI_SetBkColor(GUI_WHITE);
 143              		.loc 1 129 0
 144 0008 6FF07F40 		mvn	r0, #-16777216
 145 000c FFF7FEFF 		bl	GUI_SetBkColor
 146              	.LVL14:
 130:main_cm4.c    ****     GUI_Clear();
 147              		.loc 1 130 0
 148 0010 FFF7FEFF 		bl	GUI_Clear
 149              	.LVL15:
 131:main_cm4.c    ****     UpdateDisplay(CY_EINK_FULL_4STAGE, true);
 150              		.loc 1 131 0
 151 0014 0121     		movs	r1, #1
 152 0016 0846     		mov	r0, r1
ARM GAS  C:\Users\Mahrukh\AppData\Local\Temp\cc9cxDT2.s 			page 6


 153 0018 FFF7FEFF 		bl	UpdateDisplay
 154              	.LVL16:
 155 001c 08BD     		pop	{r3, pc}
 156              		.cfi_endproc
 157              	.LFE640:
 158              		.size	ClearScreen, .-ClearScreen
 159 001e 00BF     		.section	.text.WaitforSwitchPressAndRelease,"ax",%progbits
 160              		.align	2
 161              		.global	WaitforSwitchPressAndRelease
 162              		.thumb
 163              		.thumb_func
 164              		.type	WaitforSwitchPressAndRelease, %function
 165              	WaitforSwitchPressAndRelease:
 166              	.LFB641:
 132:main_cm4.c    **** }
 133:main_cm4.c    **** /*******************************************************************************
 134:main_cm4.c    **** * Function Name: void WaitforSwitchPressAndRelease(void)
 135:main_cm4.c    **** ********************************************************************************
 136:main_cm4.c    **** *
 137:main_cm4.c    **** * Summary: This implements a simple "Wait for button press and release"
 138:main_cm4.c    **** *			function.  It first waits for the button to be pressed and then
 139:main_cm4.c    **** *			waits for the button to be released.
 140:main_cm4.c    **** *
 141:main_cm4.c    **** * Parameters:
 142:main_cm4.c    **** *  None
 143:main_cm4.c    **** *
 144:main_cm4.c    **** * Return:
 145:main_cm4.c    **** *  None
 146:main_cm4.c    **** *
 147:main_cm4.c    **** * Side Effects:
 148:main_cm4.c    **** *  This is a blocking function and exits only on a button press and release
 149:main_cm4.c    **** *
 150:main_cm4.c    **** *******************************************************************************/
 151:main_cm4.c    **** void WaitforSwitchPressAndRelease(void)
 152:main_cm4.c    **** {
 167              		.loc 1 152 0
 168              		.cfi_startproc
 169              		@ args = 0, pretend = 0, frame = 0
 170              		@ frame_needed = 0, uses_anonymous_args = 0
 171 0000 08B5     		push	{r3, lr}
 172              		.cfi_def_cfa_offset 8
 173              		.cfi_offset 3, -8
 174              		.cfi_offset 14, -4
 175              	.L14:
 153:main_cm4.c    ****     /* Wait for SW2 to be pressed */
 154:main_cm4.c    ****     while(Status_SW2_Read() != 0);
 176              		.loc 1 154 0 discriminator 1
 177 0002 FFF7FEFF 		bl	Status_SW2_Read
 178              	.LVL17:
 179 0006 0028     		cmp	r0, #0
 180 0008 FBD1     		bne	.L14
 181              	.L15:
 155:main_cm4.c    ****     
 156:main_cm4.c    ****     /* Wait for SW2 to be released */
 157:main_cm4.c    ****     while(Status_SW2_Read() == 0);
 182              		.loc 1 157 0 discriminator 1
 183 000a FFF7FEFF 		bl	Status_SW2_Read
ARM GAS  C:\Users\Mahrukh\AppData\Local\Temp\cc9cxDT2.s 			page 7


 184              	.LVL18:
 185 000e 0028     		cmp	r0, #0
 186 0010 FBD0     		beq	.L15
 158:main_cm4.c    **** }
 187              		.loc 1 158 0
 188 0012 08BD     		pop	{r3, pc}
 189              		.cfi_endproc
 190              	.LFE641:
 191              		.size	WaitforSwitchPressAndRelease, .-WaitforSwitchPressAndRelease
 192              		.section	.text.drawGraph,"ax",%progbits
 193              		.align	2
 194              		.global	drawGraph
 195              		.thumb
 196              		.thumb_func
 197              		.type	drawGraph, %function
 198              	drawGraph:
 199              	.LFB642:
 159:main_cm4.c    **** void drawGraph(int longueur, int espacement){
 200              		.loc 1 159 0
 201              		.cfi_startproc
 202              		@ args = 0, pretend = 0, frame = 0
 203              		@ frame_needed = 0, uses_anonymous_args = 0
 204              	.LVL19:
 205 0000 38B5     		push	{r3, r4, r5, lr}
 206              		.cfi_def_cfa_offset 16
 207              		.cfi_offset 3, -16
 208              		.cfi_offset 4, -12
 209              		.cfi_offset 5, -8
 210              		.cfi_offset 14, -4
 211 0002 0446     		mov	r4, r0
 212 0004 0D46     		mov	r5, r1
 160:main_cm4.c    ****     
 161:main_cm4.c    ****     GUI_Clear();
 213              		.loc 1 161 0
 214 0006 FFF7FEFF 		bl	GUI_Clear
 215              	.LVL20:
 162:main_cm4.c    ****     GUI_SetPenSize(1);
 216              		.loc 1 162 0
 217 000a 0120     		movs	r0, #1
 218 000c FFF7FEFF 		bl	GUI_SetPenSize
 219              	.LVL21:
 163:main_cm4.c    ****     //GUI_DrawRect(7, 5, 257, 155);
 164:main_cm4.c    ****     uint32_t maximum=0; 
 165:main_cm4.c    ****     maximum = (largest(vecteurdonnees, longueur)); 
 220              		.loc 1 165 0
 221 0010 2146     		mov	r1, r4
 222 0012 1548     		ldr	r0, .L25
 223 0014 FFF7FEFF 		bl	largest
 224              	.LVL22:
 225              	.LBB4:
 166:main_cm4.c    ****     for(int i=0;i<longueur;i++){
 226              		.loc 1 166 0
 227 0018 0022     		movs	r2, #0
 228 001a 0BE0     		b	.L18
 229              	.LVL23:
 230              	.L19:
 167:main_cm4.c    ****         data[i]=(vecteurdonnees[i]*150/(maximum));  //fait une ligne, à régler! 
ARM GAS  C:\Users\Mahrukh\AppData\Local\Temp\cc9cxDT2.s 			page 8


 231              		.loc 1 167 0 discriminator 3
 232 001c 124B     		ldr	r3, .L25
 233 001e 53F82210 		ldr	r1, [r3, r2, lsl #2]
 234 0022 9623     		movs	r3, #150
 235 0024 03FB01F3 		mul	r3, r3, r1
 236 0028 B3FBF0F3 		udiv	r3, r3, r0
 237 002c 0F49     		ldr	r1, .L25+4
 238 002e 21F81230 		strh	r3, [r1, r2, lsl #1]	@ movhi
 166:main_cm4.c    ****     for(int i=0;i<longueur;i++){
 239              		.loc 1 166 0 discriminator 3
 240 0032 0132     		adds	r2, r2, #1
 241              	.LVL24:
 242              	.L18:
 166:main_cm4.c    ****     for(int i=0;i<longueur;i++){
 243              		.loc 1 166 0 is_stmt 0 discriminator 1
 244 0034 A242     		cmp	r2, r4
 245 0036 F1DB     		blt	.L19
 246 0038 0020     		movs	r0, #0
 247              	.LVL25:
 248 003a 0BE0     		b	.L20
 249              	.LVL26:
 250              	.L21:
 251              	.LBE4:
 252              	.LBB5:
 253              	.LBB6:
 168:main_cm4.c    ****     }
 169:main_cm4.c    ****     for (int a=0;a<longueur; a+=espacement) {
 170:main_cm4.c    ****         for (int b=0; b<longueur;  b++) {
 171:main_cm4.c    ****             vecteurespacee[b]= data[a]; 
 254              		.loc 1 171 0 is_stmt 1 discriminator 3
 255 003c 0B4A     		ldr	r2, .L25+4
 256 003e 32F91010 		ldrsh	r1, [r2, r0, lsl #1]
 257 0042 0B4A     		ldr	r2, .L25+8
 258 0044 22F81310 		strh	r1, [r2, r3, lsl #1]	@ movhi
 170:main_cm4.c    ****             vecteurespacee[b]= data[a]; 
 259              		.loc 1 170 0 discriminator 3
 260 0048 0133     		adds	r3, r3, #1
 261              	.LVL27:
 262 004a 00E0     		b	.L22
 263              	.LVL28:
 264              	.L23:
 265              	.LBE6:
 266 004c 0023     		movs	r3, #0
 267              	.L22:
 268              	.LVL29:
 269              	.LBB7:
 170:main_cm4.c    ****             vecteurespacee[b]= data[a]; 
 270              		.loc 1 170 0 is_stmt 0 discriminator 1
 271 004e A342     		cmp	r3, r4
 272 0050 F4DB     		blt	.L21
 273              	.LBE7:
 169:main_cm4.c    ****         for (int b=0; b<longueur;  b++) {
 274              		.loc 1 169 0 is_stmt 1 discriminator 2
 275 0052 2844     		add	r0, r0, r5
 276              	.LVL30:
 277              	.L20:
 169:main_cm4.c    ****         for (int b=0; b<longueur;  b++) {
ARM GAS  C:\Users\Mahrukh\AppData\Local\Temp\cc9cxDT2.s 			page 9


 278              		.loc 1 169 0 is_stmt 0 discriminator 1
 279 0054 A042     		cmp	r0, r4
 280 0056 F9DB     		blt	.L23
 281              	.LVL31:
 282              	.LBE5:
 172:main_cm4.c    ****         }
 173:main_cm4.c    ****     }
 174:main_cm4.c    ****     int sizeespace=0;
 175:main_cm4.c    ****     sizeespace= (sizeof vecteurespacee/sizeof vecteurespacee[0]); 
 176:main_cm4.c    ****  
 177:main_cm4.c    ****     GUI_DrawGraph(vecteurespacee, sizeespace, 1,100);
 283              		.loc 1 177 0 is_stmt 1
 284 0058 6423     		movs	r3, #100
 285 005a 0122     		movs	r2, #1
 286 005c FA21     		movs	r1, #250
 287 005e 0448     		ldr	r0, .L25+8
 288              	.LVL32:
 289 0060 FFF7FEFF 		bl	GUI_DrawGraph
 290              	.LVL33:
 291 0064 38BD     		pop	{r3, r4, r5, pc}
 292              	.LVL34:
 293              	.L26:
 294 0066 00BF     		.align	2
 295              	.L25:
 296 0068 00000000 		.word	.LANCHOR1
 297 006c 00000000 		.word	data
 298 0070 00000000 		.word	vecteurespacee
 299              		.cfi_endproc
 300              	.LFE642:
 301              		.size	drawGraph, .-drawGraph
 302              		.section	.text.updateParameters,"ax",%progbits
 303              		.align	2
 304              		.global	updateParameters
 305              		.thumb
 306              		.thumb_func
 307              		.type	updateParameters, %function
 308              	updateParameters:
 309              	.LFB643:
 178:main_cm4.c    ****     
 179:main_cm4.c    **** }
 180:main_cm4.c    **** /*******************************************************************************
 181:main_cm4.c    **** * Function Name: drawGraph
 182:main_cm4.c    **** ********************************************************************************
 183:main_cm4.c    **** *
 184:main_cm4.c    **** * Summary: This function clears the screen
 185:main_cm4.c    **** *
 186:main_cm4.c    **** * Parameters:
 187:main_cm4.c    **** *  None
 188:main_cm4.c    **** *
 189:main_cm4.c    **** * Return:
 190:main_cm4.c    **** *  None
 191:main_cm4.c    **** *
 192:main_cm4.c    **** *******************************************************************************/
 193:main_cm4.c    **** 
 194:main_cm4.c    **** /* Function Name: drawGraph
 195:main_cm4.c    **** ********************************************************************************
 196:main_cm4.c    **** *
ARM GAS  C:\Users\Mahrukh\AppData\Local\Temp\cc9cxDT2.s 			page 10


 197:main_cm4.c    **** * Summary: This function clears the screen
 198:main_cm4.c    **** *
 199:main_cm4.c    **** * Parameters:
 200:main_cm4.c    **** *  None
 201:main_cm4.c    **** *
 202:main_cm4.c    **** * Return:
 203:main_cm4.c    **** *  None
 204:main_cm4.c    **** *
 205:main_cm4.c    **** *******************************************************************************/
 206:main_cm4.c    **** /*void updateParameters(param1, param2)
 207:main_cm4.c    **** {   GUI_SetColor(GUI_BLACK);
 208:main_cm4.c    ****     GUI_SetBkColor(GUI_WHITE);
 209:main_cm4.c    ****    //Write a title and subtile	
 210:main_cm4.c    ****    GUI_SetFont(GUI_FONT_8_1);
 211:main_cm4.c    ****     GUI_SetTextAlign(GUI_TA_CENTER);
 212:main_cm4.c    ****     GUI_DispStringAt("Duty Cycle:", 45, 163);
 213:main_cm4.c    ****     GUI_SetFont(GUI_FONT_8_1);
 214:main_cm4.c    ****     GUI_DispStringAt("Moyenne:", 150, 163);
 215:main_cm4.c    **** 
 216:main_cm4.c    **** } */
 217:main_cm4.c    **** void updateParameters(int param1, int param2){
 310              		.loc 1 217 0
 311              		.cfi_startproc
 312              		@ args = 0, pretend = 0, frame = 104
 313              		@ frame_needed = 0, uses_anonymous_args = 0
 314              	.LVL35:
 315 0000 30B5     		push	{r4, r5, lr}
 316              		.cfi_def_cfa_offset 12
 317              		.cfi_offset 4, -12
 318              		.cfi_offset 5, -8
 319              		.cfi_offset 14, -4
 320 0002 9BB0     		sub	sp, sp, #108
 321              		.cfi_def_cfa_offset 120
 322 0004 0546     		mov	r5, r0
 323 0006 0C46     		mov	r4, r1
 218:main_cm4.c    ****     GUI_Clear(); 
 324              		.loc 1 218 0
 325 0008 FFF7FEFF 		bl	GUI_Clear
 326              	.LVL36:
 219:main_cm4.c    ****     GUI_SetColor(GUI_BLACK);
 327              		.loc 1 219 0
 328 000c 0020     		movs	r0, #0
 329 000e FFF7FEFF 		bl	GUI_SetColor
 330              	.LVL37:
 220:main_cm4.c    ****     GUI_SetBkColor(GUI_WHITE);
 331              		.loc 1 220 0
 332 0012 6FF07F40 		mvn	r0, #-16777216
 333 0016 FFF7FEFF 		bl	GUI_SetBkColor
 334              	.LVL38:
 221:main_cm4.c    ****     
 222:main_cm4.c    ****     char frequence[50];
 223:main_cm4.c    ****     char Saturation[50];
 224:main_cm4.c    ****     
 225:main_cm4.c    ****     sprintf(frequence,"Frequence cardiaque: %d ",param1);
 335              		.loc 1 225 0
 336 001a 2A46     		mov	r2, r5
 337 001c 0B49     		ldr	r1, .L29
ARM GAS  C:\Users\Mahrukh\AppData\Local\Temp\cc9cxDT2.s 			page 11


 338 001e 0DA8     		add	r0, sp, #52
 339 0020 FFF7FEFF 		bl	sprintf
 340              	.LVL39:
 226:main_cm4.c    ****     sprintf(Saturation,"Taux d'oxygene: %d ",param2);
 341              		.loc 1 226 0
 342 0024 2246     		mov	r2, r4
 343 0026 0A49     		ldr	r1, .L29+4
 344 0028 6846     		mov	r0, sp
 345 002a FFF7FEFF 		bl	sprintf
 346              	.LVL40:
 227:main_cm4.c    ****     
 228:main_cm4.c    ****     GUI_SetFont(GUI_FONT_8_1);
 347              		.loc 1 228 0
 348 002e 0948     		ldr	r0, .L29+8
 349 0030 FFF7FEFF 		bl	GUI_SetFont
 350              	.LVL41:
 229:main_cm4.c    ****     GUI_DispStringAt(frequence, 1, 130); //n'affiche pas, pourquoi?
 351              		.loc 1 229 0
 352 0034 8222     		movs	r2, #130
 353 0036 0121     		movs	r1, #1
 354 0038 0DA8     		add	r0, sp, #52
 355 003a FFF7FEFF 		bl	GUI_DispStringAt
 356              	.LVL42:
 230:main_cm4.c    ****     GUI_DispStringAt(Saturation, 1, 150);
 357              		.loc 1 230 0
 358 003e 9622     		movs	r2, #150
 359 0040 0121     		movs	r1, #1
 360 0042 6846     		mov	r0, sp
 361 0044 FFF7FEFF 		bl	GUI_DispStringAt
 362              	.LVL43:
 231:main_cm4.c    **** }
 363              		.loc 1 231 0
 364 0048 1BB0     		add	sp, sp, #108
 365              		.cfi_def_cfa_offset 12
 366              		@ sp needed
 367 004a 30BD     		pop	{r4, r5, pc}
 368              	.LVL44:
 369              	.L30:
 370              		.align	2
 371              	.L29:
 372 004c 00000000 		.word	.LC0
 373 0050 1C000000 		.word	.LC1
 374 0054 00000000 		.word	GUI_Font8_1
 375              		.cfi_endproc
 376              	.LFE643:
 377              		.size	updateParameters, .-updateParameters
 378              		.section	.text.main,"ax",%progbits
 379              		.align	2
 380              		.global	main
 381              		.thumb
 382              		.thumb_func
 383              		.type	main, %function
 384              	main:
 385              	.LFB644:
 232:main_cm4.c    **** /*******************************************************************************
 233:main_cm4.c    **** * Function Name: int main(void)
 234:main_cm4.c    **** ********************************************************************************/
ARM GAS  C:\Users\Mahrukh\AppData\Local\Temp\cc9cxDT2.s 			page 12


 235:main_cm4.c    ****  
 236:main_cm4.c    **** /*
 237:main_cm4.c    **** *******************************************************************************/
 238:main_cm4.c    **** int main(void)
 239:main_cm4.c    **** {
 386              		.loc 1 239 0
 387              		.cfi_startproc
 388              		@ Volatile: function does not return.
 389              		@ args = 0, pretend = 0, frame = 0
 390              		@ frame_needed = 0, uses_anonymous_args = 0
 391 0000 08B5     		push	{r3, lr}
 392              		.cfi_def_cfa_offset 8
 393              		.cfi_offset 3, -8
 394              		.cfi_offset 14, -4
 395              	.LBB8:
 396              	.LBB9:
 397              		.file 2 "Generated_Source\\PSoC6\\pdl\\cmsis/include/cmsis_gcc.h"
   1:Generated_Source\PSoC6\pdl\cmsis/include/cmsis_gcc.h **** /**************************************************************************//**
   2:Generated_Source\PSoC6\pdl\cmsis/include/cmsis_gcc.h ****  * @file     cmsis_gcc.h
   3:Generated_Source\PSoC6\pdl\cmsis/include/cmsis_gcc.h ****  * @brief    CMSIS compiler GCC header file
   4:Generated_Source\PSoC6\pdl\cmsis/include/cmsis_gcc.h ****  * @version  V5.0.3
   5:Generated_Source\PSoC6\pdl\cmsis/include/cmsis_gcc.h ****  * @date     16. January 2018
   6:Generated_Source\PSoC6\pdl\cmsis/include/cmsis_gcc.h ****  ******************************************************************************/
   7:Generated_Source\PSoC6\pdl\cmsis/include/cmsis_gcc.h **** /*
   8:Generated_Source\PSoC6\pdl\cmsis/include/cmsis_gcc.h ****  * Copyright (c) 2009-2017 ARM Limited. All rights reserved.
   9:Generated_Source\PSoC6\pdl\cmsis/include/cmsis_gcc.h ****  *
  10:Generated_Source\PSoC6\pdl\cmsis/include/cmsis_gcc.h ****  * SPDX-License-Identifier: Apache-2.0
  11:Generated_Source\PSoC6\pdl\cmsis/include/cmsis_gcc.h ****  *
  12:Generated_Source\PSoC6\pdl\cmsis/include/cmsis_gcc.h ****  * Licensed under the Apache License, Version 2.0 (the License); you may
  13:Generated_Source\PSoC6\pdl\cmsis/include/cmsis_gcc.h ****  * not use this file except in compliance with the License.
  14:Generated_Source\PSoC6\pdl\cmsis/include/cmsis_gcc.h ****  * You may obtain a copy of the License at
  15:Generated_Source\PSoC6\pdl\cmsis/include/cmsis_gcc.h ****  *
  16:Generated_Source\PSoC6\pdl\cmsis/include/cmsis_gcc.h ****  * www.apache.org/licenses/LICENSE-2.0
  17:Generated_Source\PSoC6\pdl\cmsis/include/cmsis_gcc.h ****  *
  18:Generated_Source\PSoC6\pdl\cmsis/include/cmsis_gcc.h ****  * Unless required by applicable law or agreed to in writing, software
  19:Generated_Source\PSoC6\pdl\cmsis/include/cmsis_gcc.h ****  * distributed under the License is distributed on an AS IS BASIS, WITHOUT
  20:Generated_Source\PSoC6\pdl\cmsis/include/cmsis_gcc.h ****  * WARRANTIES OR CONDITIONS OF ANY KIND, either express or implied.
  21:Generated_Source\PSoC6\pdl\cmsis/include/cmsis_gcc.h ****  * See the License for the specific language governing permissions and
  22:Generated_Source\PSoC6\pdl\cmsis/include/cmsis_gcc.h ****  * limitations under the License.
  23:Generated_Source\PSoC6\pdl\cmsis/include/cmsis_gcc.h ****  */
  24:Generated_Source\PSoC6\pdl\cmsis/include/cmsis_gcc.h **** 
  25:Generated_Source\PSoC6\pdl\cmsis/include/cmsis_gcc.h **** #ifndef __CMSIS_GCC_H
  26:Generated_Source\PSoC6\pdl\cmsis/include/cmsis_gcc.h **** #define __CMSIS_GCC_H
  27:Generated_Source\PSoC6\pdl\cmsis/include/cmsis_gcc.h **** 
  28:Generated_Source\PSoC6\pdl\cmsis/include/cmsis_gcc.h **** /* ignore some GCC warnings */
  29:Generated_Source\PSoC6\pdl\cmsis/include/cmsis_gcc.h **** #pragma GCC diagnostic push
  30:Generated_Source\PSoC6\pdl\cmsis/include/cmsis_gcc.h **** #pragma GCC diagnostic ignored "-Wsign-conversion"
  31:Generated_Source\PSoC6\pdl\cmsis/include/cmsis_gcc.h **** #pragma GCC diagnostic ignored "-Wconversion"
  32:Generated_Source\PSoC6\pdl\cmsis/include/cmsis_gcc.h **** #pragma GCC diagnostic ignored "-Wunused-parameter"
  33:Generated_Source\PSoC6\pdl\cmsis/include/cmsis_gcc.h **** 
  34:Generated_Source\PSoC6\pdl\cmsis/include/cmsis_gcc.h **** /* Fallback for __has_builtin */
  35:Generated_Source\PSoC6\pdl\cmsis/include/cmsis_gcc.h **** #ifndef __has_builtin
  36:Generated_Source\PSoC6\pdl\cmsis/include/cmsis_gcc.h ****   #define __has_builtin(x) (0)
  37:Generated_Source\PSoC6\pdl\cmsis/include/cmsis_gcc.h **** #endif
  38:Generated_Source\PSoC6\pdl\cmsis/include/cmsis_gcc.h **** 
  39:Generated_Source\PSoC6\pdl\cmsis/include/cmsis_gcc.h **** /* CMSIS compiler specific defines */
  40:Generated_Source\PSoC6\pdl\cmsis/include/cmsis_gcc.h **** #ifndef   __ASM
ARM GAS  C:\Users\Mahrukh\AppData\Local\Temp\cc9cxDT2.s 			page 13


  41:Generated_Source\PSoC6\pdl\cmsis/include/cmsis_gcc.h ****   #define __ASM                                  __asm
  42:Generated_Source\PSoC6\pdl\cmsis/include/cmsis_gcc.h **** #endif
  43:Generated_Source\PSoC6\pdl\cmsis/include/cmsis_gcc.h **** #ifndef   __INLINE
  44:Generated_Source\PSoC6\pdl\cmsis/include/cmsis_gcc.h ****   #define __INLINE                               inline
  45:Generated_Source\PSoC6\pdl\cmsis/include/cmsis_gcc.h **** #endif
  46:Generated_Source\PSoC6\pdl\cmsis/include/cmsis_gcc.h **** #ifndef   __STATIC_INLINE
  47:Generated_Source\PSoC6\pdl\cmsis/include/cmsis_gcc.h ****   #define __STATIC_INLINE                        static inline
  48:Generated_Source\PSoC6\pdl\cmsis/include/cmsis_gcc.h **** #endif
  49:Generated_Source\PSoC6\pdl\cmsis/include/cmsis_gcc.h **** #ifndef   __STATIC_FORCEINLINE                 
  50:Generated_Source\PSoC6\pdl\cmsis/include/cmsis_gcc.h ****   #define __STATIC_FORCEINLINE                   __attribute__((always_inline)) static inline
  51:Generated_Source\PSoC6\pdl\cmsis/include/cmsis_gcc.h **** #endif                                           
  52:Generated_Source\PSoC6\pdl\cmsis/include/cmsis_gcc.h **** #ifndef   __NO_RETURN
  53:Generated_Source\PSoC6\pdl\cmsis/include/cmsis_gcc.h ****   #define __NO_RETURN                            __attribute__((__noreturn__))
  54:Generated_Source\PSoC6\pdl\cmsis/include/cmsis_gcc.h **** #endif
  55:Generated_Source\PSoC6\pdl\cmsis/include/cmsis_gcc.h **** #ifndef   __USED
  56:Generated_Source\PSoC6\pdl\cmsis/include/cmsis_gcc.h ****   #define __USED                                 __attribute__((used))
  57:Generated_Source\PSoC6\pdl\cmsis/include/cmsis_gcc.h **** #endif
  58:Generated_Source\PSoC6\pdl\cmsis/include/cmsis_gcc.h **** #ifndef   __WEAK
  59:Generated_Source\PSoC6\pdl\cmsis/include/cmsis_gcc.h ****   #define __WEAK                                 __attribute__((weak))
  60:Generated_Source\PSoC6\pdl\cmsis/include/cmsis_gcc.h **** #endif
  61:Generated_Source\PSoC6\pdl\cmsis/include/cmsis_gcc.h **** #ifndef   __PACKED
  62:Generated_Source\PSoC6\pdl\cmsis/include/cmsis_gcc.h ****   #define __PACKED                               __attribute__((packed, aligned(1)))
  63:Generated_Source\PSoC6\pdl\cmsis/include/cmsis_gcc.h **** #endif
  64:Generated_Source\PSoC6\pdl\cmsis/include/cmsis_gcc.h **** #ifndef   __PACKED_STRUCT
  65:Generated_Source\PSoC6\pdl\cmsis/include/cmsis_gcc.h ****   #define __PACKED_STRUCT                        struct __attribute__((packed, aligned(1)))
  66:Generated_Source\PSoC6\pdl\cmsis/include/cmsis_gcc.h **** #endif
  67:Generated_Source\PSoC6\pdl\cmsis/include/cmsis_gcc.h **** #ifndef   __PACKED_UNION
  68:Generated_Source\PSoC6\pdl\cmsis/include/cmsis_gcc.h ****   #define __PACKED_UNION                         union __attribute__((packed, aligned(1)))
  69:Generated_Source\PSoC6\pdl\cmsis/include/cmsis_gcc.h **** #endif
  70:Generated_Source\PSoC6\pdl\cmsis/include/cmsis_gcc.h **** #ifndef   __UNALIGNED_UINT32        /* deprecated */
  71:Generated_Source\PSoC6\pdl\cmsis/include/cmsis_gcc.h ****   #pragma GCC diagnostic push
  72:Generated_Source\PSoC6\pdl\cmsis/include/cmsis_gcc.h ****   #pragma GCC diagnostic ignored "-Wpacked"
  73:Generated_Source\PSoC6\pdl\cmsis/include/cmsis_gcc.h ****   #pragma GCC diagnostic ignored "-Wattributes"
  74:Generated_Source\PSoC6\pdl\cmsis/include/cmsis_gcc.h ****   struct __attribute__((packed)) T_UINT32 { uint32_t v; };
  75:Generated_Source\PSoC6\pdl\cmsis/include/cmsis_gcc.h ****   #pragma GCC diagnostic pop
  76:Generated_Source\PSoC6\pdl\cmsis/include/cmsis_gcc.h ****   #define __UNALIGNED_UINT32(x)                  (((struct T_UINT32 *)(x))->v)
  77:Generated_Source\PSoC6\pdl\cmsis/include/cmsis_gcc.h **** #endif
  78:Generated_Source\PSoC6\pdl\cmsis/include/cmsis_gcc.h **** #ifndef   __UNALIGNED_UINT16_WRITE
  79:Generated_Source\PSoC6\pdl\cmsis/include/cmsis_gcc.h ****   #pragma GCC diagnostic push
  80:Generated_Source\PSoC6\pdl\cmsis/include/cmsis_gcc.h ****   #pragma GCC diagnostic ignored "-Wpacked"
  81:Generated_Source\PSoC6\pdl\cmsis/include/cmsis_gcc.h ****   #pragma GCC diagnostic ignored "-Wattributes"
  82:Generated_Source\PSoC6\pdl\cmsis/include/cmsis_gcc.h ****   __PACKED_STRUCT T_UINT16_WRITE { uint16_t v; };
  83:Generated_Source\PSoC6\pdl\cmsis/include/cmsis_gcc.h ****   #pragma GCC diagnostic pop
  84:Generated_Source\PSoC6\pdl\cmsis/include/cmsis_gcc.h ****   #define __UNALIGNED_UINT16_WRITE(addr, val)    (void)((((struct T_UINT16_WRITE *)(void *)(addr))-
  85:Generated_Source\PSoC6\pdl\cmsis/include/cmsis_gcc.h **** #endif
  86:Generated_Source\PSoC6\pdl\cmsis/include/cmsis_gcc.h **** #ifndef   __UNALIGNED_UINT16_READ
  87:Generated_Source\PSoC6\pdl\cmsis/include/cmsis_gcc.h ****   #pragma GCC diagnostic push
  88:Generated_Source\PSoC6\pdl\cmsis/include/cmsis_gcc.h ****   #pragma GCC diagnostic ignored "-Wpacked"
  89:Generated_Source\PSoC6\pdl\cmsis/include/cmsis_gcc.h ****   #pragma GCC diagnostic ignored "-Wattributes"
  90:Generated_Source\PSoC6\pdl\cmsis/include/cmsis_gcc.h ****   __PACKED_STRUCT T_UINT16_READ { uint16_t v; };
  91:Generated_Source\PSoC6\pdl\cmsis/include/cmsis_gcc.h ****   #pragma GCC diagnostic pop
  92:Generated_Source\PSoC6\pdl\cmsis/include/cmsis_gcc.h ****   #define __UNALIGNED_UINT16_READ(addr)          (((const struct T_UINT16_READ *)(const void *)(add
  93:Generated_Source\PSoC6\pdl\cmsis/include/cmsis_gcc.h **** #endif
  94:Generated_Source\PSoC6\pdl\cmsis/include/cmsis_gcc.h **** #ifndef   __UNALIGNED_UINT32_WRITE
  95:Generated_Source\PSoC6\pdl\cmsis/include/cmsis_gcc.h ****   #pragma GCC diagnostic push
  96:Generated_Source\PSoC6\pdl\cmsis/include/cmsis_gcc.h ****   #pragma GCC diagnostic ignored "-Wpacked"
  97:Generated_Source\PSoC6\pdl\cmsis/include/cmsis_gcc.h ****   #pragma GCC diagnostic ignored "-Wattributes"
ARM GAS  C:\Users\Mahrukh\AppData\Local\Temp\cc9cxDT2.s 			page 14


  98:Generated_Source\PSoC6\pdl\cmsis/include/cmsis_gcc.h ****   __PACKED_STRUCT T_UINT32_WRITE { uint32_t v; };
  99:Generated_Source\PSoC6\pdl\cmsis/include/cmsis_gcc.h ****   #pragma GCC diagnostic pop
 100:Generated_Source\PSoC6\pdl\cmsis/include/cmsis_gcc.h ****   #define __UNALIGNED_UINT32_WRITE(addr, val)    (void)((((struct T_UINT32_WRITE *)(void *)(addr))-
 101:Generated_Source\PSoC6\pdl\cmsis/include/cmsis_gcc.h **** #endif
 102:Generated_Source\PSoC6\pdl\cmsis/include/cmsis_gcc.h **** #ifndef   __UNALIGNED_UINT32_READ
 103:Generated_Source\PSoC6\pdl\cmsis/include/cmsis_gcc.h ****   #pragma GCC diagnostic push
 104:Generated_Source\PSoC6\pdl\cmsis/include/cmsis_gcc.h ****   #pragma GCC diagnostic ignored "-Wpacked"
 105:Generated_Source\PSoC6\pdl\cmsis/include/cmsis_gcc.h ****   #pragma GCC diagnostic ignored "-Wattributes"
 106:Generated_Source\PSoC6\pdl\cmsis/include/cmsis_gcc.h ****   __PACKED_STRUCT T_UINT32_READ { uint32_t v; };
 107:Generated_Source\PSoC6\pdl\cmsis/include/cmsis_gcc.h ****   #pragma GCC diagnostic pop
 108:Generated_Source\PSoC6\pdl\cmsis/include/cmsis_gcc.h ****   #define __UNALIGNED_UINT32_READ(addr)          (((const struct T_UINT32_READ *)(const void *)(add
 109:Generated_Source\PSoC6\pdl\cmsis/include/cmsis_gcc.h **** #endif
 110:Generated_Source\PSoC6\pdl\cmsis/include/cmsis_gcc.h **** #ifndef   __ALIGNED
 111:Generated_Source\PSoC6\pdl\cmsis/include/cmsis_gcc.h ****   #define __ALIGNED(x)                           __attribute__((aligned(x)))
 112:Generated_Source\PSoC6\pdl\cmsis/include/cmsis_gcc.h **** #endif
 113:Generated_Source\PSoC6\pdl\cmsis/include/cmsis_gcc.h **** #ifndef   __RESTRICT
 114:Generated_Source\PSoC6\pdl\cmsis/include/cmsis_gcc.h ****   #define __RESTRICT                             __restrict
 115:Generated_Source\PSoC6\pdl\cmsis/include/cmsis_gcc.h **** #endif
 116:Generated_Source\PSoC6\pdl\cmsis/include/cmsis_gcc.h **** 
 117:Generated_Source\PSoC6\pdl\cmsis/include/cmsis_gcc.h **** 
 118:Generated_Source\PSoC6\pdl\cmsis/include/cmsis_gcc.h **** /* ###########################  Core Function Access  ########################### */
 119:Generated_Source\PSoC6\pdl\cmsis/include/cmsis_gcc.h **** /** \ingroup  CMSIS_Core_FunctionInterface
 120:Generated_Source\PSoC6\pdl\cmsis/include/cmsis_gcc.h ****     \defgroup CMSIS_Core_RegAccFunctions CMSIS Core Register Access Functions
 121:Generated_Source\PSoC6\pdl\cmsis/include/cmsis_gcc.h ****   @{
 122:Generated_Source\PSoC6\pdl\cmsis/include/cmsis_gcc.h ****  */
 123:Generated_Source\PSoC6\pdl\cmsis/include/cmsis_gcc.h **** 
 124:Generated_Source\PSoC6\pdl\cmsis/include/cmsis_gcc.h **** /**
 125:Generated_Source\PSoC6\pdl\cmsis/include/cmsis_gcc.h ****   \brief   Enable IRQ Interrupts
 126:Generated_Source\PSoC6\pdl\cmsis/include/cmsis_gcc.h ****   \details Enables IRQ interrupts by clearing the I-bit in the CPSR.
 127:Generated_Source\PSoC6\pdl\cmsis/include/cmsis_gcc.h ****            Can only be executed in Privileged modes.
 128:Generated_Source\PSoC6\pdl\cmsis/include/cmsis_gcc.h ****  */
 129:Generated_Source\PSoC6\pdl\cmsis/include/cmsis_gcc.h **** __STATIC_FORCEINLINE void __enable_irq(void)
 130:Generated_Source\PSoC6\pdl\cmsis/include/cmsis_gcc.h **** {
 131:Generated_Source\PSoC6\pdl\cmsis/include/cmsis_gcc.h ****   __ASM volatile ("cpsie i" : : : "memory");
 398              		.loc 2 131 0
 399              		.syntax unified
 400              	@ 131 "Generated_Source\PSoC6\pdl\cmsis/include/cmsis_gcc.h" 1
 401 0002 62B6     		cpsie i
 402              	@ 0 "" 2
 403              		.thumb
 404              		.syntax unified
 405              	.LBE9:
 406              	.LBE8:
 240:main_cm4.c    ****      __enable_irq(); /* Enable global interrupts. */
 241:main_cm4.c    ****     
 242:main_cm4.c    ****     /* Initialize emWin Graphics */
 243:main_cm4.c    ****     GUI_Init();
 407              		.loc 1 243 0
 408 0004 FFF7FEFF 		bl	GUI_Init
 409              	.LVL45:
 244:main_cm4.c    **** 
 245:main_cm4.c    ****     /* Start the eInk display interface and turn on the display power */
 246:main_cm4.c    ****     Cy_EINK_Start(20);
 410              		.loc 1 246 0
 411 0008 1420     		movs	r0, #20
 412 000a FFF7FEFF 		bl	Cy_EINK_Start
 413              	.LVL46:
ARM GAS  C:\Users\Mahrukh\AppData\Local\Temp\cc9cxDT2.s 			page 15


 247:main_cm4.c    ****     Cy_EINK_Power(1);
 414              		.loc 1 247 0
 415 000e 0120     		movs	r0, #1
 416 0010 FFF7FEFF 		bl	Cy_EINK_Power
 417              	.LVL47:
 248:main_cm4.c    ****     
 249:main_cm4.c    ****     //PRÉSENTATION PAGE D'ACCEUIL
 250:main_cm4.c    ****     
 251:main_cm4.c    ****     GUI_SetPenSize(1);
 418              		.loc 1 251 0
 419 0014 0120     		movs	r0, #1
 420 0016 FFF7FEFF 		bl	GUI_SetPenSize
 421              	.LVL48:
 252:main_cm4.c    ****     GUI_SetColor(GUI_BLACK);
 422              		.loc 1 252 0
 423 001a 0020     		movs	r0, #0
 424 001c FFF7FEFF 		bl	GUI_SetColor
 425              	.LVL49:
 253:main_cm4.c    ****     GUI_SetBkColor(GUI_WHITE);
 426              		.loc 1 253 0
 427 0020 6FF07F40 		mvn	r0, #-16777216
 428 0024 FFF7FEFF 		bl	GUI_SetBkColor
 429              	.LVL50:
 254:main_cm4.c    ****     GUI_Clear();
 430              		.loc 1 254 0
 431 0028 FFF7FEFF 		bl	GUI_Clear
 432              	.LVL51:
 255:main_cm4.c    ****     GUI_DrawRect(1,1,263,120); //graphique à afficher  
 433              		.loc 1 255 0
 434 002c 7823     		movs	r3, #120
 435 002e 40F20712 		movw	r2, #263
 436 0032 0121     		movs	r1, #1
 437 0034 0846     		mov	r0, r1
 438 0036 FFF7FEFF 		bl	GUI_DrawRect
 439              	.LVL52:
 256:main_cm4.c    ****     GUI_DrawRect(120,124,263,175); //Rectangle pour choix de courbe à affichée 
 440              		.loc 1 256 0
 441 003a AF23     		movs	r3, #175
 442 003c 40F20712 		movw	r2, #263
 443 0040 7C21     		movs	r1, #124
 444 0042 7820     		movs	r0, #120
 445 0044 FFF7FEFF 		bl	GUI_DrawRect
 446              	.LVL53:
 257:main_cm4.c    ****     GUI_DrawLine(192,126,192,173);
 447              		.loc 1 257 0
 448 0048 AD23     		movs	r3, #173
 449 004a C022     		movs	r2, #192
 450 004c 7E21     		movs	r1, #126
 451 004e 1046     		mov	r0, r2
 452 0050 FFF7FEFF 		bl	GUI_DrawLine
 453              	.LVL54:
 258:main_cm4.c    ****     GUI_DispStringAt("COURBE", 130, 145);
 454              		.loc 1 258 0
 455 0054 124C     		ldr	r4, .L34
 456 0056 9122     		movs	r2, #145
 457 0058 8221     		movs	r1, #130
 458 005a 2046     		mov	r0, r4
ARM GAS  C:\Users\Mahrukh\AppData\Local\Temp\cc9cxDT2.s 			page 16


 459 005c FFF7FEFF 		bl	GUI_DispStringAt
 460              	.LVL55:
 259:main_cm4.c    ****     GUI_DispStringAt("ROUGE", 130, 155);
 461              		.loc 1 259 0
 462 0060 9B22     		movs	r2, #155
 463 0062 8221     		movs	r1, #130
 464 0064 0F48     		ldr	r0, .L34+4
 465 0066 FFF7FEFF 		bl	GUI_DispStringAt
 466              	.LVL56:
 260:main_cm4.c    ****     GUI_DispStringAt("COURBE", 200, 145);
 467              		.loc 1 260 0
 468 006a 9122     		movs	r2, #145
 469 006c C821     		movs	r1, #200
 470 006e 2046     		mov	r0, r4
 471 0070 FFF7FEFF 		bl	GUI_DispStringAt
 472              	.LVL57:
 261:main_cm4.c    ****     GUI_DispStringAt("INFRAROUGE", 200,155);
 473              		.loc 1 261 0
 474 0074 9B22     		movs	r2, #155
 475 0076 C821     		movs	r1, #200
 476 0078 0B48     		ldr	r0, .L34+8
 477 007a FFF7FEFF 		bl	GUI_DispStringAt
 478              	.LVL58:
 262:main_cm4.c    ****     updateParameters(100,1666); 
 479              		.loc 1 262 0
 480 007e 40F28261 		movw	r1, #1666
 481 0082 6420     		movs	r0, #100
 482 0084 FFF7FEFF 		bl	updateParameters
 483              	.LVL59:
 263:main_cm4.c    ****     
 264:main_cm4.c    ****     
 265:main_cm4.c    ****     //Présentation page de MENU
 266:main_cm4.c    ****     /*
 267:main_cm4.c    ****     GUI_SetPenSize(1);
 268:main_cm4.c    ****     GUI_SetColor(GUI_BLACK);
 269:main_cm4.c    ****     GUI_SetBkColor(GUI_WHITE);
 270:main_cm4.c    ****     GUI_Clear();
 271:main_cm4.c    ****     GUI_SetFont(GUI_FONT_16_1);
 272:main_cm4.c    ****     GUI_DispStringAt("MENU D'OPTIONS", 76,1);
 273:main_cm4.c    ****     GUI_DrawRect(1,16,263,66);
 274:main_cm4.c    ****     GUI_DispStringAt("Désac./Activ. Alarme accéléromètre", 5,35);
 275:main_cm4.c    ****     GUI_DrawRect(1,71,263,121);
 276:main_cm4.c    ****     GUI_DispStringAt("Choix courant DELs", 5,90);
 277:main_cm4.c    ****     GUI_DrawRect(1,126,263,175);
 278:main_cm4.c    ****     GUI_DispStringAt("Choix des bornes de l'intervalle HR", 5,145);
 279:main_cm4.c    ****     */
 280:main_cm4.c    ****     
 281:main_cm4.c    ****     //Présentation OPTION 2 
 282:main_cm4.c    ****     /*
 283:main_cm4.c    ****     GUI_SetColor(GUI_BLACK);
 284:main_cm4.c    ****     GUI_SetBkColor(GUI_WHITE);
 285:main_cm4.c    ****     GUI_Clear();
 286:main_cm4.c    ****     GUI_DispStringAt("Veuillez entrez un courant pour les DELs",1,1);
 287:main_cm4.c    ****     GUI_DrawRect(5,20,259,150);
 288:main_cm4.c    ****     GUI_SetFont(GUI_FONT_32B_1);
 289:main_cm4.c    ****     GUI_DispStringAt("50 mA",78,85);           //Faire un sprintf avec la variable du courant 
 290:main_cm4.c    ****     */
ARM GAS  C:\Users\Mahrukh\AppData\Local\Temp\cc9cxDT2.s 			page 17


 291:main_cm4.c    ****     
 292:main_cm4.c    ****     
 293:main_cm4.c    ****    //Présentation OPTION 3 
 294:main_cm4.c    ****    //drawGraph(vecteurdonnees); 
 295:main_cm4.c    ****   //I16 a[]= {10000, 20000, 30000,4550,7800,9600,24500}; 
 296:main_cm4.c    ****     drawGraph(size, 2); 
 484              		.loc 1 296 0
 485 0088 0221     		movs	r1, #2
 486 008a 084B     		ldr	r3, .L34+12
 487 008c D3F84005 		ldr	r0, [r3, #1344]
 488 0090 FFF7FEFF 		bl	drawGraph
 489              	.LVL60:
 297:main_cm4.c    ****    
 298:main_cm4.c    ****  
 299:main_cm4.c    **** 
 300:main_cm4.c    ****  UpdateDisplay(CY_EINK_FULL_4STAGE, true);
 490              		.loc 1 300 0
 491 0094 0121     		movs	r1, #1
 492 0096 0846     		mov	r0, r1
 493 0098 FFF7FEFF 		bl	UpdateDisplay
 494              	.LVL61:
 495              	.L32:
 496 009c FEE7     		b	.L32
 497              	.L35:
 498 009e 00BF     		.align	2
 499              	.L34:
 500 00a0 30000000 		.word	.LC2
 501 00a4 38000000 		.word	.LC3
 502 00a8 40000000 		.word	.LC4
 503 00ac 00000000 		.word	.LANCHOR1
 504              		.cfi_endproc
 505              	.LFE644:
 506              		.size	main, .-main
 507              		.global	imageBufferCache
 508              		.comm	vecteurespacee,500,4
 509              		.comm	data,300,4
 510              		.global	size
 511              		.global	vecteurdonnees
 512              		.data
 513              		.align	2
 514              		.set	.LANCHOR1,. + 0
 515              		.type	vecteurdonnees, %object
 516              		.size	vecteurdonnees, 1344
 517              	vecteurdonnees:
 518 0000 B9840100 		.word	99513
 519 0004 707F0100 		.word	98160
 520 0008 55840100 		.word	99413
 521 000c 73800100 		.word	98419
 522 0010 F7830100 		.word	99319
 523 0014 A9810100 		.word	98729
 524 0018 49830100 		.word	99145
 525 001c EA820100 		.word	99050
 526 0020 85820100 		.word	98949
 527 0024 5B840100 		.word	99419
 528 0028 EE810100 		.word	98798
 529 002c 0B860100 		.word	99851
 530 0030 77810100 		.word	98679
ARM GAS  C:\Users\Mahrukh\AppData\Local\Temp\cc9cxDT2.s 			page 18


 531 0034 06860100 		.word	99846
 532 0038 61810100 		.word	98657
 533 003c 51880100 		.word	100433
 534 0040 25810100 		.word	98597
 535 0044 65880100 		.word	100453
 536 0048 99810100 		.word	98713
 537 004c C6880100 		.word	100550
 538 0050 40820100 		.word	98880
 539 0054 398A0100 		.word	100921
 540 0058 7E820100 		.word	98942
 541 005c 96890100 		.word	100758
 542 0060 4C830100 		.word	99148
 543 0064 1D890100 		.word	100637
 544 0068 AB830100 		.word	99243
 545 006c 90880100 		.word	100496
 546 0070 62840100 		.word	99426
 547 0074 DC870100 		.word	100316
 548 0078 5D850100 		.word	99677
 549 007c FA860100 		.word	100090
 550 0080 1F860100 		.word	99871
 551 0084 F9850100 		.word	99833
 552 0088 3B870100 		.word	100155
 553 008c 49850100 		.word	99657
 554 0090 C0880100 		.word	100544
 555 0094 58840100 		.word	99416
 556 0098 B5880100 		.word	100533
 557 009c 16840100 		.word	99350
 558 00a0 078B0100 		.word	101127
 559 00a4 C2830100 		.word	99266
 560 00a8 7A8A0100 		.word	100986
 561 00ac 1F840100 		.word	99359
 562 00b0 1F8B0100 		.word	101151
 563 00b4 2A840100 		.word	99370
 564 00b8 758C0100 		.word	101493
 565 00bc 02850100 		.word	99586
 566 00c0 A28B0100 		.word	101282
 567 00c4 0D850100 		.word	99597
 568 00c8 838B0100 		.word	101251
 569 00cc 81850100 		.word	99713
 570 00d0 A38A0100 		.word	101027
 571 00d4 38860100 		.word	99896
 572 00d8 3E8A0100 		.word	100926
 573 00dc 0D870100 		.word	100109
 574 00e0 11890100 		.word	100625
 575 00e4 F9870100 		.word	100345
 576 00e8 11880100 		.word	100369
 577 00ec 11890100 		.word	100625
 578 00f0 54870100 		.word	100180
 579 00f4 7A8A0100 		.word	100986
 580 00f8 8F860100 		.word	99983
 581 00fc 208B0100 		.word	101152
 582 0100 5A860100 		.word	99930
 583 0104 778D0100 		.word	101751
 584 0108 E1850100 		.word	99809
 585 010c CD8C0100 		.word	101581
 586 0110 6E860100 		.word	99950
 587 0114 F58D0100 		.word	101877
ARM GAS  C:\Users\Mahrukh\AppData\Local\Temp\cc9cxDT2.s 			page 19


 588 0118 10870100 		.word	100112
 589 011c 428F0100 		.word	102210
 590 0120 9B870100 		.word	100251
 591 0124 768E0100 		.word	102006
 592 0128 27880100 		.word	100391
 593 012c B48E0100 		.word	102068
 594 0130 9A880100 		.word	100506
 595 0134 448E0100 		.word	101956
 596 0138 AF890100 		.word	100783
 597 013c F08D0100 		.word	101872
 598 0140 E48A0100 		.word	101092
 599 0144 3C8D0100 		.word	101692
 600 0148 B08B0100 		.word	101296
 601 014c 9C8C0100 		.word	101532
 602 0150 658D0100 		.word	101733
 603 0154 BF8B0100 		.word	101311
 604 0158 A68E0100 		.word	102054
 605 015c D98A0100 		.word	101081
 606 0160 4F8E0100 		.word	101967
 607 0164 73890100 		.word	100723
 608 0168 778F0100 		.word	102263
 609 016c 4B870100 		.word	100171
 610 0170 668C0100 		.word	101478
 611 0174 CA840100 		.word	99530
 612 0178 BB8A0100 		.word	101051
 613 017c 41820100 		.word	98881
 614 0180 D4880100 		.word	100564
 615 0184 207F0100 		.word	98080
 616 0188 96840100 		.word	99478
 617 018c AC7C0100 		.word	97452
 618 0190 C0810100 		.word	98752
 619 0194 C5790100 		.word	96709
 620 0198 047E0100 		.word	97796
 621 019c A8770100 		.word	96168
 622 01a0 F17A0100 		.word	97009
 623 01a4 62760100 		.word	95842
 624 01a8 B1770100 		.word	96177
 625 01ac 2E750100 		.word	95534
 626 01b0 3F750100 		.word	95551
 627 01b4 18750100 		.word	95512
 628 01b8 4F730100 		.word	95055
 629 01bc 87750100 		.word	95623
 630 01c0 AB710100 		.word	94635
 631 01c4 04750100 		.word	95492
 632 01c8 A5700100 		.word	94373
 633 01cc 39770100 		.word	96057
 634 01d0 04700100 		.word	94212
 635 01d4 70760100 		.word	95856
 636 01d8 75700100 		.word	94325
 637 01dc CE770100 		.word	96206
 638 01e0 E7700100 		.word	94439
 639 01e4 52790100 		.word	96594
 640 01e8 8E710100 		.word	94606
 641 01ec AC780100 		.word	96428
 642 01f0 A9720100 		.word	94889
 643 01f4 D4790100 		.word	96724
 644 01f8 75730100 		.word	95093
ARM GAS  C:\Users\Mahrukh\AppData\Local\Temp\cc9cxDT2.s 			page 20


 645 01fc 85790100 		.word	96645
 646 0200 CC740100 		.word	95436
 647 0204 6E790100 		.word	96622
 648 0208 4A760100 		.word	95818
 649 020c 08790100 		.word	96520
 650 0210 2A770100 		.word	96042
 651 0214 83780100 		.word	96387
 652 0218 27790100 		.word	96551
 653 021c 38780100 		.word	96312
 654 0220 BF7A0100 		.word	96959
 655 0224 C8770100 		.word	96200
 656 0228 337B0100 		.word	97075
 657 022c 74770100 		.word	96116
 658 0230 D37D0100 		.word	97747
 659 0234 1B770100 		.word	96027
 660 0238 597D0100 		.word	97625
 661 023c A6770100 		.word	96166
 662 0240 367F0100 		.word	98102
 663 0244 02780100 		.word	96258
 664 0248 A0800100 		.word	98464
 665 024c BC780100 		.word	96444
 666 0250 23800100 		.word	98339
 667 0254 EF790100 		.word	96751
 668 0258 37810100 		.word	98615
 669 025c 607A0100 		.word	96864
 670 0260 7D800100 		.word	98429
 671 0264 597B0100 		.word	97113
 672 0268 E87F0100 		.word	98280
 673 026c 017C0100 		.word	97281
 674 0270 D57E0100 		.word	98005
 675 0274 6A7C0100 		.word	97386
 676 0278 137E0100 		.word	97811
 677 027c C37D0100 		.word	97731
 678 0280 9C7C0100 		.word	97436
 679 0284 9C7E0100 		.word	97948
 680 0288 797B0100 		.word	97145
 681 028c 637E0100 		.word	97891
 682 0290 517A0100 		.word	96849
 683 0294 62800100 		.word	98402
 684 0298 5F790100 		.word	96607
 685 029c 407F0100 		.word	98112
 686 02a0 20790100 		.word	96544
 687 02a4 21800100 		.word	98337
 688 02a8 A3780100 		.word	96419
 689 02ac 05810100 		.word	98565
 690 02b0 F4780100 		.word	96500
 691 02b4 C67F0100 		.word	98246
 692 02b8 E6780100 		.word	96486
 693 02bc 59800100 		.word	98393
 694 02c0 0C790100 		.word	96524
 695 02c4 347F0100 		.word	98100
 696 02c8 D6790100 		.word	96726
 697 02cc AA7E0100 		.word	97962
 698 02d0 867A0100 		.word	96902
 699 02d4 987D0100 		.word	97688
 700 02d8 097B0100 		.word	97033
 701 02dc DB7C0100 		.word	97499
ARM GAS  C:\Users\Mahrukh\AppData\Local\Temp\cc9cxDT2.s 			page 21


 702 02e0 BC7C0100 		.word	97468
 703 02e4 1F7C0100 		.word	97311
 704 02e8 AD7D0100 		.word	97709
 705 02ec 767B0100 		.word	97142
 706 02f0 B77E0100 		.word	97975
 707 02f4 267B0100 		.word	97062
 708 02f8 D6800100 		.word	98518
 709 02fc A17A0100 		.word	96929
 710 0300 BD800100 		.word	98493
 711 0304 247B0100 		.word	97060
 712 0308 A6820100 		.word	98982
 713 030c 767B0100 		.word	97142
 714 0310 3C840100 		.word	99388
 715 0314 7E7C0100 		.word	97406
 716 0318 C5830100 		.word	99269
 717 031c 427D0100 		.word	97602
 718 0320 0D850100 		.word	99597
 719 0324 007E0100 		.word	97792
 720 0328 81840100 		.word	99457
 721 032c 307F0100 		.word	98096
 722 0330 5B840100 		.word	99419
 723 0334 48800100 		.word	98376
 724 0338 EB830100 		.word	99307
 725 033c 36810100 		.word	98614
 726 0340 AD830100 		.word	99245
 727 0344 ED820100 		.word	99053
 728 0348 EB820100 		.word	99051
 729 034c 18840100 		.word	99352
 730 0350 33820100 		.word	98867
 731 0354 51850100 		.word	99665
 732 0358 CC810100 		.word	98764
 733 035c 77870100 		.word	100215
 734 0360 80810100 		.word	98688
 735 0364 30870100 		.word	100144
 736 0368 B7810100 		.word	98743
 737 036c 13890100 		.word	100627
 738 0370 C0810100 		.word	98752
 739 0374 3B8A0100 		.word	100923
 740 0378 D8820100 		.word	99032
 741 037c BF890100 		.word	100799
 742 0380 16830100 		.word	99094
 743 0384 F78A0100 		.word	101111
 744 0388 AC830100 		.word	99244
 745 038c 048A0100 		.word	100868
 746 0390 4B840100 		.word	99403
 747 0394 BD890100 		.word	100797
 748 0398 25850100 		.word	99621
 749 039c ED880100 		.word	100589
 750 03a0 B3850100 		.word	99763
 751 03a4 19880100 		.word	100377
 752 03a8 04870100 		.word	100100
 753 03ac 2C870100 		.word	100140
 754 03b0 AD870100 		.word	100269
 755 03b4 21860100 		.word	99873
 756 03b8 D3880100 		.word	100563
 757 03bc 5A850100 		.word	99674
 758 03c0 9D8A0100 		.word	101021
ARM GAS  C:\Users\Mahrukh\AppData\Local\Temp\cc9cxDT2.s 			page 22


 759 03c4 C4840100 		.word	99524
 760 03c8 698A0100 		.word	100969
 761 03cc DF840100 		.word	99551
 762 03d0 568C0100 		.word	101462
 763 03d4 EC840100 		.word	99564
 764 03d8 0D8D0100 		.word	101645
 765 03dc 6C850100 		.word	99692
 766 03e0 468C0100 		.word	101446
 767 03e4 BA850100 		.word	99770
 768 03e8 AB8D0100 		.word	101803
 769 03ec 3D860100 		.word	99901
 770 03f0 148D0100 		.word	101652
 771 03f4 1D870100 		.word	100125
 772 03f8 808C0100 		.word	101504
 773 03fc B7870100 		.word	100279
 774 0400 D38B0100 		.word	101331
 775 0404 69880100 		.word	100457
 776 0408 F68A0100 		.word	101110
 777 040c AA890100 		.word	100778
 778 0410 338A0100 		.word	100915
 779 0414 8F8A0100 		.word	101007
 780 0418 3F890100 		.word	100671
 781 041c A98B0100 		.word	101289
 782 0420 F2880100 		.word	100594
 783 0424 BA8D0100 		.word	101818
 784 0428 02880100 		.word	100354
 785 042c 598D0100 		.word	101721
 786 0430 19880100 		.word	100377
 787 0434 7E8F0100 		.word	102270
 788 0438 E1870100 		.word	100321
 789 043c EA8F0100 		.word	102378
 790 0440 B9880100 		.word	100537
 791 0444 DA8F0100 		.word	102362
 792 0448 4C890100 		.word	100684
 793 044c 8F910100 		.word	102799
 794 0450 C5890100 		.word	100805
 795 0454 B9900100 		.word	102585
 796 0458 E28A0100 		.word	101090
 797 045c D2900100 		.word	102610
 798 0460 938B0100 		.word	101267
 799 0464 05900100 		.word	102405
 800 0468 538C0100 		.word	101459
 801 046c 738F0100 		.word	102259
 802 0470 168E0100 		.word	101910
 803 0474 D98E0100 		.word	102105
 804 0478 0C8F0100 		.word	102156
 805 047c 4E8E0100 		.word	101966
 806 0480 2A900100 		.word	102442
 807 0484 A38D0100 		.word	101795
 808 0488 29920100 		.word	102953
 809 048c F08C0100 		.word	101616
 810 0490 F9910100 		.word	102905
 811 0494 0C8D0100 		.word	101644
 812 0498 76940100 		.word	103542
 813 049c D28C0100 		.word	101586
 814 04a0 3B940100 		.word	103483
 815 04a4 F28C0100 		.word	101618
ARM GAS  C:\Users\Mahrukh\AppData\Local\Temp\cc9cxDT2.s 			page 23


 816 04a8 92930100 		.word	103314
 817 04ac 288C0100 		.word	101416
 818 04b0 78930100 		.word	103288
 819 04b4 988A0100 		.word	101016
 820 04b8 71900100 		.word	102513
 821 04bc 05890100 		.word	100613
 822 04c0 6F8D0100 		.word	101743
 823 04c4 5D860100 		.word	99933
 824 04c8 99890100 		.word	100761
 825 04cc 6E840100 		.word	99438
 826 04d0 EA850100 		.word	99818
 827 04d4 5C820100 		.word	98908
 828 04d8 4F820100 		.word	98895
 829 04dc 79800100 		.word	98425
 830 04e0 CD7E0100 		.word	97997
 831 04e4 787F0100 		.word	98168
 832 04e8 B07B0100 		.word	97200
 833 04ec D87E0100 		.word	98008
 834 04f0 15790100 		.word	96533
 835 04f4 217D0100 		.word	97569
 836 04f8 9E770100 		.word	96158
 837 04fc 2D7E0100 		.word	97837
 838 0500 4C760100 		.word	95820
 839 0504 087D0100 		.word	97544
 840 0508 11760100 		.word	95761
 841 050c D87C0100 		.word	97496
 842 0510 0E760100 		.word	95758
 843 0514 227E0100 		.word	97826
 844 0518 77760100 		.word	95863
 845 051c 2A7D0100 		.word	97578
 846 0520 27770100 		.word	96039
 847 0524 087D0100 		.word	97544
 848 0528 D1770100 		.word	96209
 849 052c D57C0100 		.word	97493
 850 0530 A0780100 		.word	96416
 851 0534 8D7C0100 		.word	97421
 852 0538 737A0100 		.word	96883
 853 053c 3C7C0100 		.word	97340
 854              		.type	size, %object
 855              		.size	size, 4
 856              	size:
 857 0540 50010000 		.word	336
 858              		.section	.rodata.str1.4,"aMS",%progbits,1
 859              		.align	2
 860              	.LC0:
 861 0000 46726571 		.ascii	"Frequence cardiaque: %d \000"
 861      75656E63 
 861      65206361 
 861      72646961 
 861      7175653A 
 862 0019 000000   		.space	3
 863              	.LC1:
 864 001c 54617578 		.ascii	"Taux d'oxygene: %d \000"
 864      2064276F 
 864      78796765 
 864      6E653A20 
 864      25642000 
ARM GAS  C:\Users\Mahrukh\AppData\Local\Temp\cc9cxDT2.s 			page 24


 865              	.LC2:
 866 0030 434F5552 		.ascii	"COURBE\000"
 866      424500
 867 0037 00       		.space	1
 868              	.LC3:
 869 0038 524F5547 		.ascii	"ROUGE\000"
 869      4500
 870 003e 0000     		.space	2
 871              	.LC4:
 872 0040 494E4652 		.ascii	"INFRAROUGE\000"
 872      41524F55 
 872      474500
 873              		.bss
 874              		.align	2
 875              		.set	.LANCHOR0,. + 0
 876              		.type	imageBufferCache, %object
 877              		.size	imageBufferCache, 5808
 878              	imageBufferCache:
 879 0000 00000000 		.space	5808
 879      00000000 
 879      00000000 
 879      00000000 
 879      00000000 
 880              		.text
 881              	.Letext0:
 882              		.file 3 "c:\\program files (x86)\\cypress\\psoc creator\\4.4\\psoc creator\\import\\gnu\\arm\\5.4.
 883              		.file 4 "c:\\program files (x86)\\cypress\\psoc creator\\4.4\\psoc creator\\import\\gnu\\arm\\5.4.
 884              		.file 5 "Generated_Source\\PSoC6\\pdl\\drivers/peripheral/device/cy_device.h"
 885              		.file 6 "Generated_Source\\PSoC6\\pdl\\drivers/peripheral/syslib/cy_syslib.h"
 886              		.file 7 "Generated_Source\\PSoC6\\pdl\\drivers/peripheral/sar/cy_sar.h"
 887              		.file 8 "Generated_Source\\PSoC6\\pdl\\drivers/peripheral/scb/cy_scb_spi.h"
 888              		.file 9 "Generated_Source\\PSoC6\\pdl\\drivers/peripheral/tcpwm/cy_tcpwm_counter.h"
 889              		.file 10 "Generated_Source\\PSoC6\\pdl\\drivers/peripheral/tcpwm/cy_tcpwm_pwm.h"
 890              		.file 11 "Generated_Source\\PSoC6/ADC_1.h"
 891              		.file 12 "Generated_Source\\PSoC6\\pdl\\middleware/emWin/code/include/GUI_Type.h"
 892              		.file 13 ".\\eInk Library/pervasive_eink_hardware_driver.h"
 893              		.file 14 ".\\eInk Library/cy_eink_library.h"
 894              		.file 15 "Generated_Source\\PSoC6\\pdl\\cmsis/include/core_cm4.h"
 895              		.file 16 "Generated_Source\\PSoC6/CY_EINK_SPIM.h"
 896              		.file 17 "Generated_Source\\PSoC6/CY_EINK_Timer.h"
 897              		.file 18 "Generated_Source\\PSoC6/PWM.h"
 898              		.file 19 "Generated_Source\\PSoC6\\pdl\\middleware/emWin/code/include/GUI.h"
 899              		.file 20 "LCDConf.h"
 900              		.file 21 "Generated_Source\\PSoC6/Status_SW2.h"
 901              		.file 22 "c:\\program files (x86)\\cypress\\psoc creator\\4.4\\psoc creator\\import\\gnu\\arm\\5.4