ARM GAS  C:\Users\Mahrukh\AppData\Local\Temp\ccgflWoc.s 			page 1


   1              		.syntax unified
   2              		.cpu cortex-m4
   3              		.eabi_attribute 27, 1
   4              		.fpu fpv4-sp-d16
   5              		.eabi_attribute 20, 1
   6              		.eabi_attribute 21, 1
   7              		.eabi_attribute 23, 3
   8              		.eabi_attribute 24, 1
   9              		.eabi_attribute 25, 1
  10              		.eabi_attribute 26, 1
  11              		.eabi_attribute 30, 1
  12              		.eabi_attribute 34, 1
  13              		.eabi_attribute 18, 4
  14              		.thumb
  15              		.syntax unified
  16              		.file	"CapSense_Processing.c"
  17              		.text
  18              	.Ltext0:
  19              		.cfi_sections	.debug_frame
  20              		.section	.text.CapSense_DpInitialize,"ax",%progbits
  21              		.align	2
  22              		.global	CapSense_DpInitialize
  23              		.thumb
  24              		.thumb_func
  25              		.type	CapSense_DpInitialize, %function
  26              	CapSense_DpInitialize:
  27              	.LFB133:
  28              		.file 1 "Generated_Source\\PSoC6\\CapSense_Processing.c"
   1:Generated_Source\PSoC6/CapSense_Processing.c **** /***************************************************************************//**
   2:Generated_Source\PSoC6/CapSense_Processing.c **** * \file CapSense_Processing.c
   3:Generated_Source\PSoC6/CapSense_Processing.c **** * \version 3.0
   4:Generated_Source\PSoC6/CapSense_Processing.c **** *
   5:Generated_Source\PSoC6/CapSense_Processing.c **** * \brief
   6:Generated_Source\PSoC6/CapSense_Processing.c **** *   This file provides the source code for the Data Processing module APIs
   7:Generated_Source\PSoC6/CapSense_Processing.c **** *   of the Component. The Data Processing module is responsible for the
   8:Generated_Source\PSoC6/CapSense_Processing.c **** *   low level raw counts processing provided by the sensing module, maintaining
   9:Generated_Source\PSoC6/CapSense_Processing.c **** *   baseline and difference values and performing high-level widget processing
  10:Generated_Source\PSoC6/CapSense_Processing.c **** *   like updating button status or calculating slider position.
  11:Generated_Source\PSoC6/CapSense_Processing.c **** *
  12:Generated_Source\PSoC6/CapSense_Processing.c **** * \see CapSense v3.0 Datasheet
  13:Generated_Source\PSoC6/CapSense_Processing.c **** *
  14:Generated_Source\PSoC6/CapSense_Processing.c **** *//*****************************************************************************
  15:Generated_Source\PSoC6/CapSense_Processing.c **** * Copyright (2016-2017), Cypress Semiconductor Corporation.
  16:Generated_Source\PSoC6/CapSense_Processing.c **** ********************************************************************************
  17:Generated_Source\PSoC6/CapSense_Processing.c **** * This software is owned by Cypress Semiconductor Corporation (Cypress) and is
  18:Generated_Source\PSoC6/CapSense_Processing.c **** * protected by and subject to worldwide patent protection (United States and
  19:Generated_Source\PSoC6/CapSense_Processing.c **** * foreign), United States copyright laws and international treaty provisions.
  20:Generated_Source\PSoC6/CapSense_Processing.c **** * Cypress hereby grants to licensee a personal, non-exclusive, non-transferable
  21:Generated_Source\PSoC6/CapSense_Processing.c **** * license to copy, use, modify, create derivative works of, and compile the
  22:Generated_Source\PSoC6/CapSense_Processing.c **** * Cypress Source Code and derivative works for the sole purpose of creating
  23:Generated_Source\PSoC6/CapSense_Processing.c **** * custom software in support of licensee product to be used only in conjunction
  24:Generated_Source\PSoC6/CapSense_Processing.c **** * with a Cypress integrated circuit as specified in the applicable agreement.
  25:Generated_Source\PSoC6/CapSense_Processing.c **** * Any reproduction, modification, translation, compilation, or representation of
  26:Generated_Source\PSoC6/CapSense_Processing.c **** * this software except as specified above is prohibited without the express
  27:Generated_Source\PSoC6/CapSense_Processing.c **** * written permission of Cypress.
  28:Generated_Source\PSoC6/CapSense_Processing.c **** *
  29:Generated_Source\PSoC6/CapSense_Processing.c **** * Disclaimer: CYPRESS MAKES NO WARRANTY OF ANY KIND, EXPRESS OR IMPLIED, WITH
ARM GAS  C:\Users\Mahrukh\AppData\Local\Temp\ccgflWoc.s 			page 2


  30:Generated_Source\PSoC6/CapSense_Processing.c **** * REGARD TO THIS MATERIAL, INCLUDING, BUT NOT LIMITED TO, THE IMPLIED
  31:Generated_Source\PSoC6/CapSense_Processing.c **** * WARRANTIES OF MERCHANTABILITY AND FITNESS FOR A PARTICULAR PURPOSE.
  32:Generated_Source\PSoC6/CapSense_Processing.c **** * Cypress reserves the right to make changes without further notice to the
  33:Generated_Source\PSoC6/CapSense_Processing.c **** * materials described herein. Cypress does not assume any liability arising out
  34:Generated_Source\PSoC6/CapSense_Processing.c **** * of the application or use of any product or circuit described herein. Cypress
  35:Generated_Source\PSoC6/CapSense_Processing.c **** * does not authorize its products for use as critical components in life-support
  36:Generated_Source\PSoC6/CapSense_Processing.c **** * systems where a malfunction or failure may reasonably be expected to result in
  37:Generated_Source\PSoC6/CapSense_Processing.c **** * significant injury to the user. The inclusion of Cypress' product in a life-
  38:Generated_Source\PSoC6/CapSense_Processing.c **** * support systems application implies that the manufacturer assumes all risk of
  39:Generated_Source\PSoC6/CapSense_Processing.c **** * such use and in doing so indemnifies Cypress against all charges. Use may be
  40:Generated_Source\PSoC6/CapSense_Processing.c **** * limited by and subject to the applicable Cypress software license agreement.
  41:Generated_Source\PSoC6/CapSense_Processing.c **** *******************************************************************************/
  42:Generated_Source\PSoC6/CapSense_Processing.c **** 
  43:Generated_Source\PSoC6/CapSense_Processing.c **** #include "syslib/cy_syslib.h"
  44:Generated_Source\PSoC6/CapSense_Processing.c **** #include <stddef.h>
  45:Generated_Source\PSoC6/CapSense_Processing.c **** #include <string.h>
  46:Generated_Source\PSoC6/CapSense_Processing.c **** #include "CapSense_Configuration.h"
  47:Generated_Source\PSoC6/CapSense_Processing.c **** #include "CapSense_Processing.h"
  48:Generated_Source\PSoC6/CapSense_Processing.c **** #include "CapSense_Filter.h"
  49:Generated_Source\PSoC6/CapSense_Processing.c **** 
  50:Generated_Source\PSoC6/CapSense_Processing.c **** #if (0u != CapSense_CENTROID_EN)
  51:Generated_Source\PSoC6/CapSense_Processing.c ****     #include "CapSense_Centroid_LL.h"
  52:Generated_Source\PSoC6/CapSense_Processing.c **** #endif /* (0 != CapSense_CENTROID_EN) */
  53:Generated_Source\PSoC6/CapSense_Processing.c **** 
  54:Generated_Source\PSoC6/CapSense_Processing.c **** #if (0 != (CapSense_CSD_AUTOTUNE & CapSense_CSD_SS_TH_EN))
  55:Generated_Source\PSoC6/CapSense_Processing.c ****     #include "CapSense_SmartSense_LL.h"
  56:Generated_Source\PSoC6/CapSense_Processing.c **** #endif /* (0 != (CapSense_CSD_AUTOTUNE & CapSense_CSD_SS_TH_EN)) */
  57:Generated_Source\PSoC6/CapSense_Processing.c **** 
  58:Generated_Source\PSoC6/CapSense_Processing.c **** #if (CapSense_ENABLE == CapSense_SELF_TEST_EN)
  59:Generated_Source\PSoC6/CapSense_Processing.c ****     #include "CapSense_SelfTest.h"
  60:Generated_Source\PSoC6/CapSense_Processing.c **** #endif
  61:Generated_Source\PSoC6/CapSense_Processing.c **** 
  62:Generated_Source\PSoC6/CapSense_Processing.c **** #if (CapSense_ENABLE == CapSense_CENTROID_5X5_CSD_EN)
  63:Generated_Source\PSoC6/CapSense_Processing.c ****     #include "CapSense_AdvancedCentroid_LL.h"
  64:Generated_Source\PSoC6/CapSense_Processing.c **** #endif
  65:Generated_Source\PSoC6/CapSense_Processing.c **** 
  66:Generated_Source\PSoC6/CapSense_Processing.c **** #if (CapSense_ENABLE == CapSense_POS_ADAPTIVE_IIR_FILTER_EN)
  67:Generated_Source\PSoC6/CapSense_Processing.c ****     #include "CapSense_AdaptiveFilter_LL.h"
  68:Generated_Source\PSoC6/CapSense_Processing.c **** #endif
  69:Generated_Source\PSoC6/CapSense_Processing.c **** 
  70:Generated_Source\PSoC6/CapSense_Processing.c **** #if(CapSense_ENABLE == CapSense_BALLISTIC_MULTIPLIER_EN)
  71:Generated_Source\PSoC6/CapSense_Processing.c ****     #include "CapSense_Gesture.h"
  72:Generated_Source\PSoC6/CapSense_Processing.c **** #endif
  73:Generated_Source\PSoC6/CapSense_Processing.c **** 
  74:Generated_Source\PSoC6/CapSense_Processing.c **** /**************************************************************************************************
  75:Generated_Source\PSoC6/CapSense_Processing.c **** * Local definition
  76:Generated_Source\PSoC6/CapSense_Processing.c **** ***************************************************************************************************
  77:Generated_Source\PSoC6/CapSense_Processing.c **** 
  78:Generated_Source\PSoC6/CapSense_Processing.c **** /* UINT32 constant with all odd bits set. It is used by the processing function of the Proximity wi
  79:Generated_Source\PSoC6/CapSense_Processing.c **** *  determine type of the status bit: odd bits report proximity status; even bits report touch statu
  80:Generated_Source\PSoC6/CapSense_Processing.c **** */
  81:Generated_Source\PSoC6/CapSense_Processing.c **** #define UINT32_ODD_BITS_CONST       (0x55555555u)
  82:Generated_Source\PSoC6/CapSense_Processing.c **** 
  83:Generated_Source\PSoC6/CapSense_Processing.c **** /* Default value for the Off Debounce counter when the Off Debounce is disabled */
  84:Generated_Source\PSoC6/CapSense_Processing.c **** #define DEFAULT_OFF_DEBOUNCE_VALUE  (1u)
  85:Generated_Source\PSoC6/CapSense_Processing.c **** #define PERCENTAGE_100              (100u)
  86:Generated_Source\PSoC6/CapSense_Processing.c **** #define TEMP_BUFFER_MSB_SHIFT       (16)
ARM GAS  C:\Users\Mahrukh\AppData\Local\Temp\ccgflWoc.s 			page 3


  87:Generated_Source\PSoC6/CapSense_Processing.c **** 
  88:Generated_Source\PSoC6/CapSense_Processing.c **** /**************************************************************************************************
  89:Generated_Source\PSoC6/CapSense_Processing.c **** * Local variables
  90:Generated_Source\PSoC6/CapSense_Processing.c **** ***************************************************************************************************
  91:Generated_Source\PSoC6/CapSense_Processing.c **** #if (0u != CapSense_CSX_MULTIPHASE_TX_EN)
  92:Generated_Source\PSoC6/CapSense_Processing.c ****     static uint16 deconvRowData[CapSense_CSX_MAX_TX_PHASE_LENGTH];
  93:Generated_Source\PSoC6/CapSense_Processing.c **** #endif
  94:Generated_Source\PSoC6/CapSense_Processing.c **** 
  95:Generated_Source\PSoC6/CapSense_Processing.c **** 
  96:Generated_Source\PSoC6/CapSense_Processing.c **** /**************************************************************************************************
  97:Generated_Source\PSoC6/CapSense_Processing.c **** * Static Function Prototypes
  98:Generated_Source\PSoC6/CapSense_Processing.c **** ***************************************************************************************************
  99:Generated_Source\PSoC6/CapSense_Processing.c **** /**
 100:Generated_Source\PSoC6/CapSense_Processing.c **** * \cond SECTION_CYSENSE_INTERNAL
 101:Generated_Source\PSoC6/CapSense_Processing.c **** * \addtogroup group_cysense_internal
 102:Generated_Source\PSoC6/CapSense_Processing.c **** * \{
 103:Generated_Source\PSoC6/CapSense_Processing.c **** */
 104:Generated_Source\PSoC6/CapSense_Processing.c **** #if (0u != CapSense_TOTAL_LINEAR_SLIDERS)
 105:Generated_Source\PSoC6/CapSense_Processing.c ****     __STATIC_INLINE void DpUpdateLinSlider(
 106:Generated_Source\PSoC6/CapSense_Processing.c ****                         const uint16 newPos[], uint32 numTouches,
 107:Generated_Source\PSoC6/CapSense_Processing.c ****                         CapSense_FLASH_WD_STRUCT const *ptrFlashWdgt,
 108:Generated_Source\PSoC6/CapSense_Processing.c ****                         CapSense_RAM_WD_SLIDER_STRUCT *ptrRamWdgt);
 109:Generated_Source\PSoC6/CapSense_Processing.c **** #endif /* #if (0u != CapSense_TOTAL_LINEAR_SLIDERS) */
 110:Generated_Source\PSoC6/CapSense_Processing.c **** 
 111:Generated_Source\PSoC6/CapSense_Processing.c **** #if (0u != CapSense_TOTAL_RADIAL_SLIDERS)
 112:Generated_Source\PSoC6/CapSense_Processing.c ****     __STATIC_INLINE void DpUpdateRadSlider(
 113:Generated_Source\PSoC6/CapSense_Processing.c ****                         const uint16 newPos[], uint32 numTouches,
 114:Generated_Source\PSoC6/CapSense_Processing.c ****                         CapSense_FLASH_WD_STRUCT const * ptrFlashWdgt,
 115:Generated_Source\PSoC6/CapSense_Processing.c ****                         CapSense_RAM_WD_SLIDER_STRUCT *ptrRamWdgt);
 116:Generated_Source\PSoC6/CapSense_Processing.c **** #endif /* #if (0u != CapSense_TOTAL_RADIAL_SLIDERS) */
 117:Generated_Source\PSoC6/CapSense_Processing.c **** 
 118:Generated_Source\PSoC6/CapSense_Processing.c **** #if (0u != CapSense_CSD_TOUCHPAD_WIDGET_EN)
 119:Generated_Source\PSoC6/CapSense_Processing.c ****     __STATIC_INLINE void CapSense_DpInitCsdTouchpad(CapSense_FLASH_WD_STRUCT const * ptrFlashWdgt);
 120:Generated_Source\PSoC6/CapSense_Processing.c **** #endif /* #if (0u != CapSense_CSD_TOUCHPAD_WIDGET_EN) */
 121:Generated_Source\PSoC6/CapSense_Processing.c **** 
 122:Generated_Source\PSoC6/CapSense_Processing.c **** #if (0u != CapSense_CSX_TOUCHPAD_WIDGET_EN)
 123:Generated_Source\PSoC6/CapSense_Processing.c ****     __STATIC_INLINE void CapSense_DpInitCsxTouchpad(CapSense_FLASH_WD_STRUCT const * ptrFlashWdgt);
 124:Generated_Source\PSoC6/CapSense_Processing.c **** #endif /* #if (0u != CapSense_CSX_TOUCHPAD_WIDGET_EN) */
 125:Generated_Source\PSoC6/CapSense_Processing.c **** 
 126:Generated_Source\PSoC6/CapSense_Processing.c **** #if (0u != CapSense_SLIDER_WIDGET_EN)
 127:Generated_Source\PSoC6/CapSense_Processing.c ****     __STATIC_INLINE void CapSense_DpInitSlider(CapSense_FLASH_WD_STRUCT const * ptrFlashWdgt);
 128:Generated_Source\PSoC6/CapSense_Processing.c **** #endif /* #if (0u != CapSense_SLIDER_WIDGET_EN) */
 129:Generated_Source\PSoC6/CapSense_Processing.c **** 
 130:Generated_Source\PSoC6/CapSense_Processing.c **** #if (0u != CapSense_CSD_MATRIX_WIDGET_EN)
 131:Generated_Source\PSoC6/CapSense_Processing.c ****     __STATIC_INLINE void CapSense_DpInitCsdMatrix(CapSense_FLASH_WD_STRUCT const * ptrFlashWdgt);
 132:Generated_Source\PSoC6/CapSense_Processing.c **** #endif /* #if (0u != CapSense_CSD_MATRIX_WIDGET_EN) */
 133:Generated_Source\PSoC6/CapSense_Processing.c **** 
 134:Generated_Source\PSoC6/CapSense_Processing.c **** /** \}
 135:Generated_Source\PSoC6/CapSense_Processing.c **** * \endcond */
 136:Generated_Source\PSoC6/CapSense_Processing.c **** 
 137:Generated_Source\PSoC6/CapSense_Processing.c **** #if (0u != CapSense_CSD_TOUCHPAD_WIDGET_EN)
 138:Generated_Source\PSoC6/CapSense_Processing.c **** /*******************************************************************************
 139:Generated_Source\PSoC6/CapSense_Processing.c **** * Function Name: CapSense_DpInitCsdTouchpad
 140:Generated_Source\PSoC6/CapSense_Processing.c **** ****************************************************************************//**
 141:Generated_Source\PSoC6/CapSense_Processing.c **** *
 142:Generated_Source\PSoC6/CapSense_Processing.c **** * \brief
 143:Generated_Source\PSoC6/CapSense_Processing.c **** *  Performs initialization of the CSD touchpad widget.
ARM GAS  C:\Users\Mahrukh\AppData\Local\Temp\ccgflWoc.s 			page 4


 144:Generated_Source\PSoC6/CapSense_Processing.c **** *   - Resets the position data to NONE
 145:Generated_Source\PSoC6/CapSense_Processing.c **** *   - Initializes the position filter history if enabled.
 146:Generated_Source\PSoC6/CapSense_Processing.c **** *
 147:Generated_Source\PSoC6/CapSense_Processing.c **** * \details
 148:Generated_Source\PSoC6/CapSense_Processing.c **** *  The position data is always reset to the CapSense_TOUCHPAD_POS_NONE value.
 149:Generated_Source\PSoC6/CapSense_Processing.c **** *  The same happens to the position filter history data if enabled.
 150:Generated_Source\PSoC6/CapSense_Processing.c **** *
 151:Generated_Source\PSoC6/CapSense_Processing.c **** *******************************************************************************/
 152:Generated_Source\PSoC6/CapSense_Processing.c **** __STATIC_INLINE void CapSense_DpInitCsdTouchpad(CapSense_FLASH_WD_STRUCT const * ptrFlashWdgt)
 153:Generated_Source\PSoC6/CapSense_Processing.c **** {
 154:Generated_Source\PSoC6/CapSense_Processing.c ****     #if (CapSense_ENABLE == CapSense_CENTROID_5X5_CSD_EN)
 155:Generated_Source\PSoC6/CapSense_Processing.c ****         uint32 touchIndex;
 156:Generated_Source\PSoC6/CapSense_Processing.c ****     #endif
 157:Generated_Source\PSoC6/CapSense_Processing.c **** 
 158:Generated_Source\PSoC6/CapSense_Processing.c ****     CapSense_RAM_WD_CSD_TOUCHPAD_STRUCT *ptrWdTouchpad;
 159:Generated_Source\PSoC6/CapSense_Processing.c **** 
 160:Generated_Source\PSoC6/CapSense_Processing.c ****     #if (0u != CapSense_POSITION_FILTER_EN)
 161:Generated_Source\PSoC6/CapSense_Processing.c ****         CapSense_TOUCHPAD_POS_HISTORY_STRUCT *ptrHistory;
 162:Generated_Source\PSoC6/CapSense_Processing.c ****     #endif  /* #if (0u != CapSense_POSITION_FILTER_EN) */
 163:Generated_Source\PSoC6/CapSense_Processing.c **** 
 164:Generated_Source\PSoC6/CapSense_Processing.c ****     #if (0u != CapSense_POS_ADAPTIVE_IIR_FILTER_EN)
 165:Generated_Source\PSoC6/CapSense_Processing.c ****         ADAPTIVE_FILTER_CONTEXT_STRUCT adpContext;
 166:Generated_Source\PSoC6/CapSense_Processing.c ****     #endif /* (0u != CapSense_POS_ADAPTIVE_IIR_FILTER_EN) */
 167:Generated_Source\PSoC6/CapSense_Processing.c **** 
 168:Generated_Source\PSoC6/CapSense_Processing.c ****     ptrWdTouchpad = ptrFlashWdgt->ptr2WdgtRam;
 169:Generated_Source\PSoC6/CapSense_Processing.c **** 
 170:Generated_Source\PSoC6/CapSense_Processing.c ****     /* Reset position data */
 171:Generated_Source\PSoC6/CapSense_Processing.c ****     #if (CapSense_ENABLE == CapSense_CENTROID_5X5_CSD_EN)
 172:Generated_Source\PSoC6/CapSense_Processing.c ****         #if (CapSense_ENABLE == CapSense_CENTROID_3X3_CSD_EN)
 173:Generated_Source\PSoC6/CapSense_Processing.c ****             if (0u != (ptrFlashWdgt->staticConfig & CapSense_CENTROID_5X5_MASK))
 174:Generated_Source\PSoC6/CapSense_Processing.c ****             {
 175:Generated_Source\PSoC6/CapSense_Processing.c ****         #endif
 176:Generated_Source\PSoC6/CapSense_Processing.c **** 
 177:Generated_Source\PSoC6/CapSense_Processing.c ****         ptrWdTouchpad->position.touchNum = 0u;
 178:Generated_Source\PSoC6/CapSense_Processing.c **** 
 179:Generated_Source\PSoC6/CapSense_Processing.c ****         #if (0u != CapSense_POSITION_FILTER_EN)
 180:Generated_Source\PSoC6/CapSense_Processing.c ****             ptrHistory = ptrFlashWdgt->ptr2PosHistory;
 181:Generated_Source\PSoC6/CapSense_Processing.c ****         #endif /* (0u != CapSense_POSITION_FILTER_EN) */
 182:Generated_Source\PSoC6/CapSense_Processing.c **** 
 183:Generated_Source\PSoC6/CapSense_Processing.c ****         for (touchIndex = 0u; touchIndex < ADVANCED_CENTROID_MAX_TOUCHES; touchIndex++)
 184:Generated_Source\PSoC6/CapSense_Processing.c ****         {
 185:Generated_Source\PSoC6/CapSense_Processing.c ****             ptrWdTouchpad->position.pos[touchIndex].x = ADVANCED_CENTROID_POSITION_NONE;
 186:Generated_Source\PSoC6/CapSense_Processing.c ****             ptrWdTouchpad->position.pos[touchIndex].y = ADVANCED_CENTROID_POSITION_NONE;
 187:Generated_Source\PSoC6/CapSense_Processing.c ****             ptrWdTouchpad->position.pos[touchIndex].zX = ADVANCED_CENTROID_POSITION_NONE;
 188:Generated_Source\PSoC6/CapSense_Processing.c ****             ptrWdTouchpad->position.pos[touchIndex].zY = ADVANCED_CENTROID_POSITION_NONE;
 189:Generated_Source\PSoC6/CapSense_Processing.c **** 
 190:Generated_Source\PSoC6/CapSense_Processing.c ****             /* Clear position filter history data if available */
 191:Generated_Source\PSoC6/CapSense_Processing.c ****             #if (0u != CapSense_POSITION_FILTER_EN)
 192:Generated_Source\PSoC6/CapSense_Processing.c ****                 if (NULL != ptrHistory)
 193:Generated_Source\PSoC6/CapSense_Processing.c ****                 {
 194:Generated_Source\PSoC6/CapSense_Processing.c ****                     CapSense_InitPosFiltersDd(&ptrHistory[touchIndex], CapSense_TOUCHPAD_POS_NONE, 
 195:Generated_Source\PSoC6/CapSense_Processing.c ****                     #if (0u != CapSense_POS_ADAPTIVE_IIR_FILTER_EN)
 196:Generated_Source\PSoC6/CapSense_Processing.c ****                         AdaptiveFilter_Initialize(&ptrWdTouchpad->aiirConfig, &adpContext);
 197:Generated_Source\PSoC6/CapSense_Processing.c ****                         ptrHistory[touchIndex].xPos.posAIIRCoeff = adpContext.coefficient;
 198:Generated_Source\PSoC6/CapSense_Processing.c ****                         ptrHistory[touchIndex].yPos.posAIIRCoeff = adpContext.coefficient;
 199:Generated_Source\PSoC6/CapSense_Processing.c ****                     #endif /* (0u != CapSense_POS_ADAPTIVE_IIR_FILTER_EN) */
 200:Generated_Source\PSoC6/CapSense_Processing.c ****                 }
ARM GAS  C:\Users\Mahrukh\AppData\Local\Temp\ccgflWoc.s 			page 5


 201:Generated_Source\PSoC6/CapSense_Processing.c ****             #endif /* (0u != CapSense_POSITION_FILTER_EN) */
 202:Generated_Source\PSoC6/CapSense_Processing.c ****         }
 203:Generated_Source\PSoC6/CapSense_Processing.c **** 
 204:Generated_Source\PSoC6/CapSense_Processing.c ****         #if (CapSense_ENABLE == CapSense_CENTROID_3X3_CSD_EN)
 205:Generated_Source\PSoC6/CapSense_Processing.c ****             }
 206:Generated_Source\PSoC6/CapSense_Processing.c ****         #endif
 207:Generated_Source\PSoC6/CapSense_Processing.c ****     #endif
 208:Generated_Source\PSoC6/CapSense_Processing.c **** 
 209:Generated_Source\PSoC6/CapSense_Processing.c ****     #if (CapSense_ENABLE == CapSense_CENTROID_3X3_CSD_EN)
 210:Generated_Source\PSoC6/CapSense_Processing.c ****         if (0u != (ptrFlashWdgt->staticConfig & CapSense_CENTROID_3X3_MASK))
 211:Generated_Source\PSoC6/CapSense_Processing.c ****         {
 212:Generated_Source\PSoC6/CapSense_Processing.c ****             ptrWdTouchpad->posX = CapSense_TOUCHPAD_POS_NONE;
 213:Generated_Source\PSoC6/CapSense_Processing.c ****             ptrWdTouchpad->posY = CapSense_TOUCHPAD_POS_NONE;
 214:Generated_Source\PSoC6/CapSense_Processing.c **** 
 215:Generated_Source\PSoC6/CapSense_Processing.c ****             /* Clear position filter history data if available */
 216:Generated_Source\PSoC6/CapSense_Processing.c ****             #if (0u != CapSense_POSITION_FILTER_EN)
 217:Generated_Source\PSoC6/CapSense_Processing.c ****                 ptrHistory = ptrFlashWdgt->ptr2PosHistory;
 218:Generated_Source\PSoC6/CapSense_Processing.c ****                 CapSense_InitPosFiltersDd(ptrHistory, CapSense_TOUCHPAD_POS_NONE, CapSense_TOUCHPAD
 219:Generated_Source\PSoC6/CapSense_Processing.c **** 
 220:Generated_Source\PSoC6/CapSense_Processing.c ****                 #if (0u != CapSense_POS_ADAPTIVE_IIR_FILTER_EN)
 221:Generated_Source\PSoC6/CapSense_Processing.c ****                     if (NULL != ptrHistory)
 222:Generated_Source\PSoC6/CapSense_Processing.c ****                     {
 223:Generated_Source\PSoC6/CapSense_Processing.c ****                         AdaptiveFilter_Initialize(&ptrWdTouchpad->aiirConfig, &adpContext);
 224:Generated_Source\PSoC6/CapSense_Processing.c ****                         ptrHistory->xPos.posAIIRCoeff = adpContext.coefficient;
 225:Generated_Source\PSoC6/CapSense_Processing.c ****                         ptrHistory->yPos.posAIIRCoeff = adpContext.coefficient;
 226:Generated_Source\PSoC6/CapSense_Processing.c ****                     }
 227:Generated_Source\PSoC6/CapSense_Processing.c ****                 #endif /* (0u != CapSense_POS_ADAPTIVE_IIR_FILTER_EN) */
 228:Generated_Source\PSoC6/CapSense_Processing.c ****             #endif /* (0u != CapSense_POSITION_FILTER_EN) */
 229:Generated_Source\PSoC6/CapSense_Processing.c ****         }
 230:Generated_Source\PSoC6/CapSense_Processing.c ****     #endif
 231:Generated_Source\PSoC6/CapSense_Processing.c **** }
 232:Generated_Source\PSoC6/CapSense_Processing.c **** #endif /* #if (0u != CapSense_CSD_TOUCHPAD_WIDGET_EN) */
 233:Generated_Source\PSoC6/CapSense_Processing.c **** 
 234:Generated_Source\PSoC6/CapSense_Processing.c **** #if (0u != CapSense_CSX_TOUCHPAD_WIDGET_EN)
 235:Generated_Source\PSoC6/CapSense_Processing.c **** /*******************************************************************************
 236:Generated_Source\PSoC6/CapSense_Processing.c **** * Function Name: CapSense_DpInitCsxTouchpad
 237:Generated_Source\PSoC6/CapSense_Processing.c **** ****************************************************************************//**
 238:Generated_Source\PSoC6/CapSense_Processing.c **** *
 239:Generated_Source\PSoC6/CapSense_Processing.c **** * \brief
 240:Generated_Source\PSoC6/CapSense_Processing.c **** *  Performs initialization of the CSX touchpad widget i.e. Resets the position data to NONE.
 241:Generated_Source\PSoC6/CapSense_Processing.c **** *
 242:Generated_Source\PSoC6/CapSense_Processing.c **** * \details
 243:Generated_Source\PSoC6/CapSense_Processing.c **** *  The position data is always reset to the CapSense_TOUCHPAD_POS_NONE value.
 244:Generated_Source\PSoC6/CapSense_Processing.c **** *
 245:Generated_Source\PSoC6/CapSense_Processing.c **** *******************************************************************************/
 246:Generated_Source\PSoC6/CapSense_Processing.c **** __STATIC_INLINE void CapSense_DpInitCsxTouchpad(CapSense_FLASH_WD_STRUCT const * ptrFlashWdgt)
 247:Generated_Source\PSoC6/CapSense_Processing.c **** {
 248:Generated_Source\PSoC6/CapSense_Processing.c ****     CapSense_RAM_WD_CSX_TOUCHPAD_STRUCT *ptrWdTouchpad;
 249:Generated_Source\PSoC6/CapSense_Processing.c **** 
 250:Generated_Source\PSoC6/CapSense_Processing.c ****     #if (0u != CapSense_POSITION_FILTER_EN)
 251:Generated_Source\PSoC6/CapSense_Processing.c ****         uint32 touchIndex;
 252:Generated_Source\PSoC6/CapSense_Processing.c ****         CapSense_TOUCHPAD_POS_HISTORY_STRUCT *ptrHistory;
 253:Generated_Source\PSoC6/CapSense_Processing.c ****     #endif  /* #if (0u != CapSense_POSITION_FILTER_EN) */
 254:Generated_Source\PSoC6/CapSense_Processing.c **** 
 255:Generated_Source\PSoC6/CapSense_Processing.c ****     #if (0u != CapSense_POS_ADAPTIVE_IIR_FILTER_EN)
 256:Generated_Source\PSoC6/CapSense_Processing.c ****         ADAPTIVE_FILTER_CONTEXT_STRUCT adpContext;
 257:Generated_Source\PSoC6/CapSense_Processing.c ****     #endif /* (0u != CapSense_POS_ADAPTIVE_IIR_FILTER_EN) */
ARM GAS  C:\Users\Mahrukh\AppData\Local\Temp\ccgflWoc.s 			page 6


 258:Generated_Source\PSoC6/CapSense_Processing.c **** 
 259:Generated_Source\PSoC6/CapSense_Processing.c ****     ptrWdTouchpad = ptrFlashWdgt->ptr2WdgtRam;
 260:Generated_Source\PSoC6/CapSense_Processing.c **** 
 261:Generated_Source\PSoC6/CapSense_Processing.c ****     #if (0u != CapSense_POSITION_FILTER_EN)
 262:Generated_Source\PSoC6/CapSense_Processing.c ****         ptrHistory = ptrFlashWdgt->ptr2PosHistory;
 263:Generated_Source\PSoC6/CapSense_Processing.c ****     #endif /* (0u != CapSense_POSITION_FILTER_EN) */
 264:Generated_Source\PSoC6/CapSense_Processing.c **** 
 265:Generated_Source\PSoC6/CapSense_Processing.c ****     /* Reset position data for finger */
 266:Generated_Source\PSoC6/CapSense_Processing.c ****     ptrWdTouchpad->touch[0u].x = CapSense_TOUCHPAD_POS_NONE;
 267:Generated_Source\PSoC6/CapSense_Processing.c ****     ptrWdTouchpad->touch[0u].y = CapSense_TOUCHPAD_POS_NONE;
 268:Generated_Source\PSoC6/CapSense_Processing.c ****     ptrWdTouchpad->touch[0u].z = CY_LO8(CapSense_TOUCHPAD_POS_NONE);
 269:Generated_Source\PSoC6/CapSense_Processing.c **** 
 270:Generated_Source\PSoC6/CapSense_Processing.c ****     #if (CapSense_CSX_MAX_FINGERS > 1u)
 271:Generated_Source\PSoC6/CapSense_Processing.c ****         ptrWdTouchpad->touch[1u].x = CapSense_TOUCHPAD_POS_NONE;
 272:Generated_Source\PSoC6/CapSense_Processing.c ****         ptrWdTouchpad->touch[1u].y = CapSense_TOUCHPAD_POS_NONE;
 273:Generated_Source\PSoC6/CapSense_Processing.c ****         ptrWdTouchpad->touch[1u].z = CY_LO8(CapSense_TOUCHPAD_POS_NONE);
 274:Generated_Source\PSoC6/CapSense_Processing.c ****     #endif /* #if (CapSense_CSX_MAX_FINGERS > 1u) */
 275:Generated_Source\PSoC6/CapSense_Processing.c **** 
 276:Generated_Source\PSoC6/CapSense_Processing.c ****     #if (CapSense_CSX_MAX_FINGERS > 2u)
 277:Generated_Source\PSoC6/CapSense_Processing.c ****         ptrWdTouchpad->touch[2u].x = CapSense_TOUCHPAD_POS_NONE;
 278:Generated_Source\PSoC6/CapSense_Processing.c ****         ptrWdTouchpad->touch[2u].y = CapSense_TOUCHPAD_POS_NONE;
 279:Generated_Source\PSoC6/CapSense_Processing.c ****         ptrWdTouchpad->touch[2u].z = CY_LO8(CapSense_TOUCHPAD_POS_NONE);
 280:Generated_Source\PSoC6/CapSense_Processing.c ****     #endif /* #if (CapSense_CSX_MAX_FINGERS > 2u) */
 281:Generated_Source\PSoC6/CapSense_Processing.c **** 
 282:Generated_Source\PSoC6/CapSense_Processing.c ****     #if (0u != CapSense_POSITION_FILTER_EN)
 283:Generated_Source\PSoC6/CapSense_Processing.c ****         for (touchIndex = 0u; touchIndex < CapSense_CSX_MAX_FINGERS; touchIndex++)
 284:Generated_Source\PSoC6/CapSense_Processing.c ****         {
 285:Generated_Source\PSoC6/CapSense_Processing.c ****             if (NULL != ptrHistory)
 286:Generated_Source\PSoC6/CapSense_Processing.c ****             {
 287:Generated_Source\PSoC6/CapSense_Processing.c ****                 /* Clear position filter history data if available */
 288:Generated_Source\PSoC6/CapSense_Processing.c ****                 CapSense_InitPosFiltersDd(&ptrHistory[touchIndex], CapSense_TOUCHPAD_POS_NONE, CapS
 289:Generated_Source\PSoC6/CapSense_Processing.c ****                 #if (0u != CapSense_POS_ADAPTIVE_IIR_FILTER_EN)
 290:Generated_Source\PSoC6/CapSense_Processing.c ****                     AdaptiveFilter_Initialize(&ptrWdTouchpad->aiirConfig, &adpContext);
 291:Generated_Source\PSoC6/CapSense_Processing.c ****                     ptrHistory[touchIndex].xPos.posAIIRCoeff = adpContext.coefficient;
 292:Generated_Source\PSoC6/CapSense_Processing.c ****                     ptrHistory[touchIndex].yPos.posAIIRCoeff = adpContext.coefficient;
 293:Generated_Source\PSoC6/CapSense_Processing.c ****                 #endif /* (0u != CapSense_POS_ADAPTIVE_IIR_FILTER_EN) */
 294:Generated_Source\PSoC6/CapSense_Processing.c ****             }
 295:Generated_Source\PSoC6/CapSense_Processing.c ****         }
 296:Generated_Source\PSoC6/CapSense_Processing.c ****     #endif /* (0u != CapSense_POSITION_FILTER_EN) */
 297:Generated_Source\PSoC6/CapSense_Processing.c **** }
 298:Generated_Source\PSoC6/CapSense_Processing.c **** #endif /* #if (0u != CapSense_CSX_TOUCHPAD_WIDGET_EN) */
 299:Generated_Source\PSoC6/CapSense_Processing.c **** 
 300:Generated_Source\PSoC6/CapSense_Processing.c **** #if (0u != CapSense_SLIDER_WIDGET_EN)
 301:Generated_Source\PSoC6/CapSense_Processing.c **** /*******************************************************************************
 302:Generated_Source\PSoC6/CapSense_Processing.c **** * Function Name: CapSense_DpInitSlider
 303:Generated_Source\PSoC6/CapSense_Processing.c **** ****************************************************************************//**
 304:Generated_Source\PSoC6/CapSense_Processing.c **** *
 305:Generated_Source\PSoC6/CapSense_Processing.c **** * \brief
 306:Generated_Source\PSoC6/CapSense_Processing.c **** *  Performs initialization of the Radial and Linear Slider widget.
 307:Generated_Source\PSoC6/CapSense_Processing.c **** *   - Resets the position data to NONE
 308:Generated_Source\PSoC6/CapSense_Processing.c **** *   - Initializes the position filter history to NONE if enabled.
 309:Generated_Source\PSoC6/CapSense_Processing.c **** *
 310:Generated_Source\PSoC6/CapSense_Processing.c **** * \details
 311:Generated_Source\PSoC6/CapSense_Processing.c **** *  Position data is always reset to the CapSense_SLIDER_POS_NONE value.
 312:Generated_Source\PSoC6/CapSense_Processing.c **** *  The same happens to the position filter history data if enabled.
 313:Generated_Source\PSoC6/CapSense_Processing.c **** *
 314:Generated_Source\PSoC6/CapSense_Processing.c **** *******************************************************************************/
ARM GAS  C:\Users\Mahrukh\AppData\Local\Temp\ccgflWoc.s 			page 7


 315:Generated_Source\PSoC6/CapSense_Processing.c **** __STATIC_INLINE void CapSense_DpInitSlider(CapSense_FLASH_WD_STRUCT const * ptrFlashWdgt)
 316:Generated_Source\PSoC6/CapSense_Processing.c **** {
 317:Generated_Source\PSoC6/CapSense_Processing.c ****     uint32 idx;
 318:Generated_Source\PSoC6/CapSense_Processing.c ****     CapSense_RAM_WD_SLIDER_STRUCT *ptrWdSlider;
 319:Generated_Source\PSoC6/CapSense_Processing.c **** 
 320:Generated_Source\PSoC6/CapSense_Processing.c ****     #if (0u != CapSense_POSITION_FILTER_EN)
 321:Generated_Source\PSoC6/CapSense_Processing.c ****         CapSense_SLIDER_POS_HISTORY_STRUCT *ptrHistory;
 322:Generated_Source\PSoC6/CapSense_Processing.c ****     #endif /* #if (0u != CapSense_POSITION_FILTER_EN) */
 323:Generated_Source\PSoC6/CapSense_Processing.c **** 
 324:Generated_Source\PSoC6/CapSense_Processing.c ****     #if (0u != CapSense_POS_ADAPTIVE_IIR_FILTER_EN)
 325:Generated_Source\PSoC6/CapSense_Processing.c ****         ADAPTIVE_FILTER_CONTEXT_STRUCT context;
 326:Generated_Source\PSoC6/CapSense_Processing.c ****     #endif /* (0u != CapSense_POS_ADAPTIVE_IIR_FILTER_EN) */
 327:Generated_Source\PSoC6/CapSense_Processing.c **** 
 328:Generated_Source\PSoC6/CapSense_Processing.c ****     ptrWdSlider = ptrFlashWdgt->ptr2WdgtRam;
 329:Generated_Source\PSoC6/CapSense_Processing.c **** 
 330:Generated_Source\PSoC6/CapSense_Processing.c ****     /* Reset slider position data to NONE */
 331:Generated_Source\PSoC6/CapSense_Processing.c ****     for (idx = 0u; idx < CapSense_NUM_CENTROIDS; idx++)
 332:Generated_Source\PSoC6/CapSense_Processing.c ****     {
 333:Generated_Source\PSoC6/CapSense_Processing.c ****         ptrWdSlider->position[idx] = CapSense_SLIDER_POS_NONE;
 334:Generated_Source\PSoC6/CapSense_Processing.c **** 
 335:Generated_Source\PSoC6/CapSense_Processing.c ****         #if (0u != CapSense_POSITION_FILTER_EN)
 336:Generated_Source\PSoC6/CapSense_Processing.c ****             ptrHistory = ptrFlashWdgt->ptr2PosHistory;
 337:Generated_Source\PSoC6/CapSense_Processing.c ****             if (NULL != ptrHistory)
 338:Generated_Source\PSoC6/CapSense_Processing.c ****             {
 339:Generated_Source\PSoC6/CapSense_Processing.c ****                 CapSense_InitPosFiltersSd(&ptrHistory[idx], CapSense_SLIDER_POS_NONE);
 340:Generated_Source\PSoC6/CapSense_Processing.c ****                 #if (0u != CapSense_POS_ADAPTIVE_IIR_FILTER_EN)
 341:Generated_Source\PSoC6/CapSense_Processing.c ****                     AdaptiveFilter_Initialize(&ptrWdSlider->aiirConfig, &context);
 342:Generated_Source\PSoC6/CapSense_Processing.c ****                     ptrHistory->posAIIRCoeff = context.coefficient;
 343:Generated_Source\PSoC6/CapSense_Processing.c ****                 #endif /* (0u != CapSense_POS_ADAPTIVE_IIR_FILTER_EN) */
 344:Generated_Source\PSoC6/CapSense_Processing.c ****             }
 345:Generated_Source\PSoC6/CapSense_Processing.c **** 
 346:Generated_Source\PSoC6/CapSense_Processing.c ****         #endif /* #if (0u != CapSense_POSITION_FILTER_EN) */
 347:Generated_Source\PSoC6/CapSense_Processing.c ****     }
 348:Generated_Source\PSoC6/CapSense_Processing.c **** }
 349:Generated_Source\PSoC6/CapSense_Processing.c **** #endif /* #if (0u != CapSense_SLIDER_WIDGET_EN) */
 350:Generated_Source\PSoC6/CapSense_Processing.c **** 
 351:Generated_Source\PSoC6/CapSense_Processing.c **** #if (0u != CapSense_CSD_MATRIX_WIDGET_EN)
 352:Generated_Source\PSoC6/CapSense_Processing.c **** /*******************************************************************************
 353:Generated_Source\PSoC6/CapSense_Processing.c **** * Function Name: CapSense_DpInitCsdMatrix
 354:Generated_Source\PSoC6/CapSense_Processing.c **** ****************************************************************************//**
 355:Generated_Source\PSoC6/CapSense_Processing.c **** *
 356:Generated_Source\PSoC6/CapSense_Processing.c **** * \brief
 357:Generated_Source\PSoC6/CapSense_Processing.c **** *  Performs initialization of the CSD Matrix Buttons widget.
 358:Generated_Source\PSoC6/CapSense_Processing.c **** *   - Resets the active button position data to NONE.
 359:Generated_Source\PSoC6/CapSense_Processing.c **** *
 360:Generated_Source\PSoC6/CapSense_Processing.c **** * \details
 361:Generated_Source\PSoC6/CapSense_Processing.c **** *  Position data is always reset to the CapSense_MATRIX_POS_NONE value.
 362:Generated_Source\PSoC6/CapSense_Processing.c **** *
 363:Generated_Source\PSoC6/CapSense_Processing.c **** *******************************************************************************/
 364:Generated_Source\PSoC6/CapSense_Processing.c **** __STATIC_INLINE void CapSense_DpInitCsdMatrix(CapSense_FLASH_WD_STRUCT const * ptrFlashWdgt)
 365:Generated_Source\PSoC6/CapSense_Processing.c **** {
 366:Generated_Source\PSoC6/CapSense_Processing.c ****     CapSense_RAM_WD_CSD_MATRIX_STRUCT *ptrRamWdgt;
 367:Generated_Source\PSoC6/CapSense_Processing.c **** 
 368:Generated_Source\PSoC6/CapSense_Processing.c ****     ptrRamWdgt = (CapSense_RAM_WD_CSD_MATRIX_STRUCT *)ptrFlashWdgt->ptr2WdgtRam;
 369:Generated_Source\PSoC6/CapSense_Processing.c **** 
 370:Generated_Source\PSoC6/CapSense_Processing.c ****     /* Reset sensor id, row and col registers in data structure */
 371:Generated_Source\PSoC6/CapSense_Processing.c ****     ptrRamWdgt->posRow   = CapSense_MATRIX_POS_NONE;
ARM GAS  C:\Users\Mahrukh\AppData\Local\Temp\ccgflWoc.s 			page 8


 372:Generated_Source\PSoC6/CapSense_Processing.c ****     ptrRamWdgt->posCol   = CapSense_MATRIX_POS_NONE;
 373:Generated_Source\PSoC6/CapSense_Processing.c ****     ptrRamWdgt->posSnsId = CapSense_MATRIX_POS_NONE;
 374:Generated_Source\PSoC6/CapSense_Processing.c **** }
 375:Generated_Source\PSoC6/CapSense_Processing.c **** #endif /* #if (0u != CapSense_CSD_MATRIX_WIDGET_EN) */
 376:Generated_Source\PSoC6/CapSense_Processing.c **** 
 377:Generated_Source\PSoC6/CapSense_Processing.c **** /*******************************************************************************
 378:Generated_Source\PSoC6/CapSense_Processing.c **** * Function Name: CapSense_DpInitialize
 379:Generated_Source\PSoC6/CapSense_Processing.c **** ****************************************************************************//**
 380:Generated_Source\PSoC6/CapSense_Processing.c **** *
 381:Generated_Source\PSoC6/CapSense_Processing.c **** * \brief
 382:Generated_Source\PSoC6/CapSense_Processing.c **** *  Performs initialization of the data processing FW module:
 383:Generated_Source\PSoC6/CapSense_Processing.c **** *   - Resets the de-bounce counters of all the widgets
 384:Generated_Source\PSoC6/CapSense_Processing.c **** *   - Resets the position filter history for slider and touchpad widgets
 385:Generated_Source\PSoC6/CapSense_Processing.c **** *   - Clears widget and sensor statuses
 386:Generated_Source\PSoC6/CapSense_Processing.c **** *   - Enables all the widgets.
 387:Generated_Source\PSoC6/CapSense_Processing.c **** *
 388:Generated_Source\PSoC6/CapSense_Processing.c **** * \details
 389:Generated_Source\PSoC6/CapSense_Processing.c **** *  The Button and Matrix Button widgets have individual de-bounce counter per
 390:Generated_Source\PSoC6/CapSense_Processing.c **** *  sensor for the CSD widgets and per node for the CSX widgets.
 391:Generated_Source\PSoC6/CapSense_Processing.c **** *
 392:Generated_Source\PSoC6/CapSense_Processing.c **** *  The Slider and Touchpad widgets have a single de-bounce counter per widget.
 393:Generated_Source\PSoC6/CapSense_Processing.c **** *
 394:Generated_Source\PSoC6/CapSense_Processing.c **** *  The Proximity widget has two de-bounce counters per sensor. One for the
 395:Generated_Source\PSoC6/CapSense_Processing.c **** *  proximity event and second for the touch event.
 396:Generated_Source\PSoC6/CapSense_Processing.c **** *
 397:Generated_Source\PSoC6/CapSense_Processing.c **** *  All debounce counters during initialization are set to the value of the
 398:Generated_Source\PSoC6/CapSense_Processing.c **** *  onDebounce widget parameter.
 399:Generated_Source\PSoC6/CapSense_Processing.c **** *
 400:Generated_Source\PSoC6/CapSense_Processing.c **** *******************************************************************************/
 401:Generated_Source\PSoC6/CapSense_Processing.c **** void CapSense_DpInitialize(void)
 402:Generated_Source\PSoC6/CapSense_Processing.c **** {
  29              		.loc 1 402 0
  30              		.cfi_startproc
  31              		@ args = 0, pretend = 0, frame = 0
  32              		@ frame_needed = 0, uses_anonymous_args = 0
  33 0000 F8B5     		push	{r3, r4, r5, r6, r7, lr}
  34              		.cfi_def_cfa_offset 24
  35              		.cfi_offset 3, -24
  36              		.cfi_offset 4, -20
  37              		.cfi_offset 5, -16
  38              		.cfi_offset 6, -12
  39              		.cfi_offset 7, -8
  40              		.cfi_offset 14, -4
  41              	.LVL0:
 403:Generated_Source\PSoC6/CapSense_Processing.c ****     uint32 wdgtId;
 404:Generated_Source\PSoC6/CapSense_Processing.c ****     CapSense_WD_TYPE_ENUM widgetType;
 405:Generated_Source\PSoC6/CapSense_Processing.c ****     CapSense_RAM_WD_BASE_STRUCT * ptrRamWdgt;
 406:Generated_Source\PSoC6/CapSense_Processing.c ****     CapSense_FLASH_WD_STRUCT const * ptrFlashWdgt;
 407:Generated_Source\PSoC6/CapSense_Processing.c **** 
 408:Generated_Source\PSoC6/CapSense_Processing.c ****     for (wdgtId = 0u; wdgtId < CapSense_WDGT_STATUS_WORDS; wdgtId++)
  42              		.loc 1 408 0
  43 0002 0023     		movs	r3, #0
  44 0004 0AE0     		b	.L2
  45              	.LVL1:
  46              	.L3:
 409:Generated_Source\PSoC6/CapSense_Processing.c ****     {
 410:Generated_Source\PSoC6/CapSense_Processing.c ****         /* Clear widget status */
ARM GAS  C:\Users\Mahrukh\AppData\Local\Temp\ccgflWoc.s 			page 9


 411:Generated_Source\PSoC6/CapSense_Processing.c ****         CapSense_dsRam.wdgtStatus[wdgtId] = 0u;
  47              		.loc 1 411 0 discriminator 3
  48 0006 204A     		ldr	r2, .L15
  49 0008 191D     		adds	r1, r3, #4
  50 000a 02EB8100 		add	r0, r2, r1, lsl #2
  51 000e 0024     		movs	r4, #0
  52 0010 4460     		str	r4, [r0, #4]
 412:Generated_Source\PSoC6/CapSense_Processing.c **** 
 413:Generated_Source\PSoC6/CapSense_Processing.c ****         /* Enable all the widgets */
 414:Generated_Source\PSoC6/CapSense_Processing.c ****         CapSense_dsRam.wdgtEnable[wdgtId] = 0xFFFFFFFFLu;
  53              		.loc 1 414 0 discriminator 3
  54 0012 4FF0FF30 		mov	r0, #-1
  55 0016 42F82100 		str	r0, [r2, r1, lsl #2]
 408:Generated_Source\PSoC6/CapSense_Processing.c ****     {
  56              		.loc 1 408 0 discriminator 3
  57 001a 0133     		adds	r3, r3, #1
  58              	.LVL2:
  59              	.L2:
 408:Generated_Source\PSoC6/CapSense_Processing.c ****     {
  60              		.loc 1 408 0 is_stmt 0 discriminator 1
  61 001c 002B     		cmp	r3, #0
  62 001e F2D0     		beq	.L3
  63 0020 1A4C     		ldr	r4, .L15+4
  64 0022 0323     		movs	r3, #3
  65              	.LVL3:
  66 0024 2CE0     		b	.L4
  67              	.LVL4:
  68              	.L12:
 415:Generated_Source\PSoC6/CapSense_Processing.c **** 
 416:Generated_Source\PSoC6/CapSense_Processing.c ****         /* Set all the widgets to working state if the Self-Test is not enabled */
 417:Generated_Source\PSoC6/CapSense_Processing.c ****         #if (0u != CapSense_SELF_TEST_EN)
 418:Generated_Source\PSoC6/CapSense_Processing.c ****             CapSense_dsRam.wdgtWorking[wdgtId] = 0xFFFFFFFFLu;
 419:Generated_Source\PSoC6/CapSense_Processing.c ****         #endif /* #if (0u == CapSense_SELF_TEST_EN) */
 420:Generated_Source\PSoC6/CapSense_Processing.c ****     }
 421:Generated_Source\PSoC6/CapSense_Processing.c **** 
 422:Generated_Source\PSoC6/CapSense_Processing.c ****     ptrFlashWdgt = CapSense_dsFlash.wdgtArray;
 423:Generated_Source\PSoC6/CapSense_Processing.c **** 
 424:Generated_Source\PSoC6/CapSense_Processing.c ****     for (wdgtId = CapSense_TOTAL_WIDGETS; wdgtId-- > 0u; )
 425:Generated_Source\PSoC6/CapSense_Processing.c ****     {
 426:Generated_Source\PSoC6/CapSense_Processing.c ****         ptrRamWdgt = (CapSense_RAM_WD_BASE_STRUCT *)ptrFlashWdgt->ptr2WdgtRam;
  69              		.loc 1 426 0 is_stmt 1
  70 0026 6668     		ldr	r6, [r4, #4]
  71              	.LVL5:
 427:Generated_Source\PSoC6/CapSense_Processing.c ****         widgetType = (CapSense_WD_TYPE_ENUM)ptrFlashWdgt->wdgtType;
  72              		.loc 1 427 0
  73 0028 A27E     		ldrb	r2, [r4, #26]	@ zero_extendqisi2
  74              	.LVL6:
 428:Generated_Source\PSoC6/CapSense_Processing.c **** 
 429:Generated_Source\PSoC6/CapSense_Processing.c ****         /* Clear all sensor statuses */
 430:Generated_Source\PSoC6/CapSense_Processing.c ****         CapSense_dsRam.snsStatus[wdgtId] = 0u;
  75              		.loc 1 430 0
  76 002a 174B     		ldr	r3, .L15
  77 002c 2B44     		add	r3, r3, r5
  78 002e 0021     		movs	r1, #0
  79 0030 1976     		strb	r1, [r3, #24]
 431:Generated_Source\PSoC6/CapSense_Processing.c **** 
 432:Generated_Source\PSoC6/CapSense_Processing.c ****         /* Reset de-bounce counters */
ARM GAS  C:\Users\Mahrukh\AppData\Local\Temp\ccgflWoc.s 			page 10


 433:Generated_Source\PSoC6/CapSense_Processing.c ****         switch (widgetType)
  80              		.loc 1 433 0
  81 0032 012A     		cmp	r2, #1
  82 0034 03D0     		beq	.L6
  83 0036 0AB3     		cbz	r2, .L5
  84 0038 032A     		cmp	r2, #3
  85 003a 07D9     		bls	.L13
  86 003c 1EE0     		b	.L5
  87              	.L6:
 434:Generated_Source\PSoC6/CapSense_Processing.c ****         {
 435:Generated_Source\PSoC6/CapSense_Processing.c ****         #if (0u != CapSense_MATRIX_WIDGET_EN)
 436:Generated_Source\PSoC6/CapSense_Processing.c ****             case CapSense_WD_MATRIX_BUTTON_E:
 437:Generated_Source\PSoC6/CapSense_Processing.c ****                 #if (0u != CapSense_CSD_MATRIX_WIDGET_EN)
 438:Generated_Source\PSoC6/CapSense_Processing.c ****                     if (CapSense_SENSE_METHOD_CSD_E == CapSense_GET_SENSE_METHOD(ptrFlashWdgt))
 439:Generated_Source\PSoC6/CapSense_Processing.c ****                     {
 440:Generated_Source\PSoC6/CapSense_Processing.c ****                         CapSense_DpInitCsdMatrix(ptrFlashWdgt);
 441:Generated_Source\PSoC6/CapSense_Processing.c ****                     }
 442:Generated_Source\PSoC6/CapSense_Processing.c ****                 #endif /* #if (0u != CapSense_CSD_MATRIX_WIDGET_EN) */
 443:Generated_Source\PSoC6/CapSense_Processing.c **** 
 444:Generated_Source\PSoC6/CapSense_Processing.c ****                 if (NULL != ptrFlashWdgt->ptr2DebounceArr)
 445:Generated_Source\PSoC6/CapSense_Processing.c ****                 {
 446:Generated_Source\PSoC6/CapSense_Processing.c ****                     /* Initialize array of debounce counters */
 447:Generated_Source\PSoC6/CapSense_Processing.c ****                     (void)memset(ptrFlashWdgt->ptr2DebounceArr,
 448:Generated_Source\PSoC6/CapSense_Processing.c ****                                  (int32)ptrRamWdgt->onDebounce,
 449:Generated_Source\PSoC6/CapSense_Processing.c ****                                  (size_t)ptrFlashWdgt->totalNumSns);
 450:Generated_Source\PSoC6/CapSense_Processing.c ****                 }
 451:Generated_Source\PSoC6/CapSense_Processing.c ****                 break;
 452:Generated_Source\PSoC6/CapSense_Processing.c ****         #endif /* #if (0u != CapSense_MATRIX_WIDGET_EN) */
 453:Generated_Source\PSoC6/CapSense_Processing.c **** 
 454:Generated_Source\PSoC6/CapSense_Processing.c ****         #if (0u != CapSense_BUTTON_WIDGET_EN)
 455:Generated_Source\PSoC6/CapSense_Processing.c ****             case CapSense_WD_BUTTON_E:
 456:Generated_Source\PSoC6/CapSense_Processing.c ****                 if (NULL != ptrFlashWdgt->ptr2DebounceArr)
  88              		.loc 1 456 0
  89 003e 2069     		ldr	r0, [r4, #16]
  90 0040 E0B1     		cbz	r0, .L5
 457:Generated_Source\PSoC6/CapSense_Processing.c ****                 {
 458:Generated_Source\PSoC6/CapSense_Processing.c ****                     /* Initialize array of debounce counters */
 459:Generated_Source\PSoC6/CapSense_Processing.c ****                     (void)memset(ptrFlashWdgt->ptr2DebounceArr,
  91              		.loc 1 459 0
  92 0042 228B     		ldrh	r2, [r4, #24]
  93              	.LVL7:
  94 0044 F179     		ldrb	r1, [r6, #7]	@ zero_extendqisi2
  95 0046 FFF7FEFF 		bl	memset
  96              	.LVL8:
  97 004a 17E0     		b	.L5
  98              	.LVL9:
  99              	.L13:
 460:Generated_Source\PSoC6/CapSense_Processing.c ****                                  (int32)ptrRamWdgt->onDebounce,
 461:Generated_Source\PSoC6/CapSense_Processing.c ****                                  (size_t)ptrFlashWdgt->totalNumSns);
 462:Generated_Source\PSoC6/CapSense_Processing.c ****                 }
 463:Generated_Source\PSoC6/CapSense_Processing.c ****                 break;
 464:Generated_Source\PSoC6/CapSense_Processing.c ****         #endif /* #if (0u != CapSense_BUTTON_WIDGET_EN) */
 465:Generated_Source\PSoC6/CapSense_Processing.c **** 
 466:Generated_Source\PSoC6/CapSense_Processing.c ****         #if (0u != CapSense_SLIDER_WIDGET_EN)
 467:Generated_Source\PSoC6/CapSense_Processing.c ****             case CapSense_WD_LINEAR_SLIDER_E:
 468:Generated_Source\PSoC6/CapSense_Processing.c ****             case CapSense_WD_RADIAL_SLIDER_E:
 469:Generated_Source\PSoC6/CapSense_Processing.c ****                 if (NULL != ptrFlashWdgt->ptr2DebounceArr)
ARM GAS  C:\Users\Mahrukh\AppData\Local\Temp\ccgflWoc.s 			page 11


 100              		.loc 1 469 0
 101 004c 2369     		ldr	r3, [r4, #16]
 102 004e 0BB1     		cbz	r3, .L8
 470:Generated_Source\PSoC6/CapSense_Processing.c ****                 {
 471:Generated_Source\PSoC6/CapSense_Processing.c ****                     /* Initialize single debounce counter of slider */
 472:Generated_Source\PSoC6/CapSense_Processing.c ****                     *(uint8 *)(ptrFlashWdgt->ptr2DebounceArr) = ptrRamWdgt->onDebounce;
 103              		.loc 1 472 0
 104 0050 F279     		ldrb	r2, [r6, #7]	@ zero_extendqisi2
 105              	.LVL10:
 106 0052 1A70     		strb	r2, [r3]
 107              	.L8:
 108              	.LVL11:
 109              	.LBB4:
 110              	.LBB5:
 328:Generated_Source\PSoC6/CapSense_Processing.c **** 
 111              		.loc 1 328 0
 112 0054 6768     		ldr	r7, [r4, #4]
 113              	.LVL12:
 331:Generated_Source\PSoC6/CapSense_Processing.c ****     {
 114              		.loc 1 331 0
 115 0056 0026     		movs	r6, #0
 116              	.LVL13:
 117 0058 0EE0     		b	.L9
 118              	.LVL14:
 119              	.L11:
 333:Generated_Source\PSoC6/CapSense_Processing.c **** 
 120              		.loc 1 333 0
 121 005a 06F10803 		add	r3, r6, #8
 122 005e 07EB4303 		add	r3, r7, r3, lsl #1
 123 0062 4FF6FF72 		movw	r2, #65535
 124 0066 9A80     		strh	r2, [r3, #4]	@ movhi
 336:Generated_Source\PSoC6/CapSense_Processing.c ****             if (NULL != ptrHistory)
 125              		.loc 1 336 0
 126 0068 A06A     		ldr	r0, [r4, #40]
 127              	.LVL15:
 337:Generated_Source\PSoC6/CapSense_Processing.c ****             {
 128              		.loc 1 337 0
 129 006a 20B1     		cbz	r0, .L10
 339:Generated_Source\PSoC6/CapSense_Processing.c ****                 #if (0u != CapSense_POS_ADAPTIVE_IIR_FILTER_EN)
 130              		.loc 1 339 0
 131 006c 1146     		mov	r1, r2
 132 006e 00EB4600 		add	r0, r0, r6, lsl #1
 133              	.LVL16:
 134 0072 FFF7FEFF 		bl	CapSense_InitPosFiltersSd
 135              	.LVL17:
 136              	.L10:
 331:Generated_Source\PSoC6/CapSense_Processing.c ****     {
 137              		.loc 1 331 0
 138 0076 0136     		adds	r6, r6, #1
 139              	.LVL18:
 140              	.L9:
 141 0078 002E     		cmp	r6, #0
 142 007a EED0     		beq	.L11
 143              	.LVL19:
 144              	.L5:
 145              	.LBE5:
 146              	.LBE4:
ARM GAS  C:\Users\Mahrukh\AppData\Local\Temp\ccgflWoc.s 			page 12


 473:Generated_Source\PSoC6/CapSense_Processing.c ****                 }
 474:Generated_Source\PSoC6/CapSense_Processing.c **** 
 475:Generated_Source\PSoC6/CapSense_Processing.c ****                 CapSense_DpInitSlider(ptrFlashWdgt);
 476:Generated_Source\PSoC6/CapSense_Processing.c **** 
 477:Generated_Source\PSoC6/CapSense_Processing.c ****                 break;
 478:Generated_Source\PSoC6/CapSense_Processing.c ****         #endif /* #if (0u != CapSense_SLIDER_WIDGET_EN) */
 479:Generated_Source\PSoC6/CapSense_Processing.c **** 
 480:Generated_Source\PSoC6/CapSense_Processing.c ****         #if (0u != CapSense_TOUCHPAD_WIDGET_EN)
 481:Generated_Source\PSoC6/CapSense_Processing.c ****             case CapSense_WD_TOUCHPAD_E:
 482:Generated_Source\PSoC6/CapSense_Processing.c ****                 if (NULL != ptrFlashWdgt->ptr2DebounceArr)
 483:Generated_Source\PSoC6/CapSense_Processing.c ****                 {
 484:Generated_Source\PSoC6/CapSense_Processing.c ****                     /* Initialize single debounce counter of touchpad */
 485:Generated_Source\PSoC6/CapSense_Processing.c ****                     *(uint8 *)(ptrFlashWdgt->ptr2DebounceArr) = ptrRamWdgt->onDebounce;
 486:Generated_Source\PSoC6/CapSense_Processing.c ****                 }
 487:Generated_Source\PSoC6/CapSense_Processing.c **** 
 488:Generated_Source\PSoC6/CapSense_Processing.c ****                 #if (0u != CapSense_CSD_TOUCHPAD_WIDGET_EN)
 489:Generated_Source\PSoC6/CapSense_Processing.c ****                     if (CapSense_SENSE_METHOD_CSD_E == CapSense_GET_SENSE_METHOD(ptrFlashWdgt))
 490:Generated_Source\PSoC6/CapSense_Processing.c ****                     {
 491:Generated_Source\PSoC6/CapSense_Processing.c ****                         CapSense_DpInitCsdTouchpad(ptrFlashWdgt);
 492:Generated_Source\PSoC6/CapSense_Processing.c ****                     }
 493:Generated_Source\PSoC6/CapSense_Processing.c ****                 #endif /* #if (0u != CapSense_CSD_TOUCHPAD_WIDGET_EN) */
 494:Generated_Source\PSoC6/CapSense_Processing.c **** 
 495:Generated_Source\PSoC6/CapSense_Processing.c ****                 #if (0u != CapSense_CSX_TOUCHPAD_WIDGET_EN)
 496:Generated_Source\PSoC6/CapSense_Processing.c ****                     if (CapSense_SENSE_METHOD_CSX_E == CapSense_GET_SENSE_METHOD(ptrFlashWdgt))
 497:Generated_Source\PSoC6/CapSense_Processing.c ****                     {
 498:Generated_Source\PSoC6/CapSense_Processing.c ****                         CapSense_DpInitCsxTouchpad(ptrFlashWdgt);
 499:Generated_Source\PSoC6/CapSense_Processing.c ****                     }
 500:Generated_Source\PSoC6/CapSense_Processing.c ****                 #endif /* #if (0u != CapSense_CSX_TOUCHPAD_WIDGET_EN) */
 501:Generated_Source\PSoC6/CapSense_Processing.c **** 
 502:Generated_Source\PSoC6/CapSense_Processing.c ****                 break;
 503:Generated_Source\PSoC6/CapSense_Processing.c ****         #endif /* #if (0u != CapSense_TOUCHPAD_WIDGET_EN) */
 504:Generated_Source\PSoC6/CapSense_Processing.c **** 
 505:Generated_Source\PSoC6/CapSense_Processing.c ****         #if (0u != CapSense_PROXIMITY_WIDGET_EN)
 506:Generated_Source\PSoC6/CapSense_Processing.c ****             case CapSense_WD_PROXIMITY_E:
 507:Generated_Source\PSoC6/CapSense_Processing.c ****                 if (NULL != ptrFlashWdgt->ptr2DebounceArr)
 508:Generated_Source\PSoC6/CapSense_Processing.c ****                 {
 509:Generated_Source\PSoC6/CapSense_Processing.c ****                     /* Proximity widgets have 2 de-bounce counters per sensor.
 510:Generated_Source\PSoC6/CapSense_Processing.c ****                      * Therefore the number of sensors is multiplied by 2.
 511:Generated_Source\PSoC6/CapSense_Processing.c ****                      */
 512:Generated_Source\PSoC6/CapSense_Processing.c ****                    (void)memset(ptrFlashWdgt->ptr2DebounceArr,
 513:Generated_Source\PSoC6/CapSense_Processing.c ****                                 (int32)ptrRamWdgt->onDebounce,
 514:Generated_Source\PSoC6/CapSense_Processing.c ****                                 (size_t)ptrFlashWdgt->totalNumSns * 2u);
 515:Generated_Source\PSoC6/CapSense_Processing.c ****                 }
 516:Generated_Source\PSoC6/CapSense_Processing.c ****                 break;
 517:Generated_Source\PSoC6/CapSense_Processing.c ****         #endif /* #if (0u != CapSense_PROXIMITY_WIDGET_EN) */
 518:Generated_Source\PSoC6/CapSense_Processing.c **** 
 519:Generated_Source\PSoC6/CapSense_Processing.c ****             default:
 520:Generated_Source\PSoC6/CapSense_Processing.c ****                 break;
 521:Generated_Source\PSoC6/CapSense_Processing.c ****         }
 522:Generated_Source\PSoC6/CapSense_Processing.c **** 
 523:Generated_Source\PSoC6/CapSense_Processing.c ****         /* Move to next widget */
 524:Generated_Source\PSoC6/CapSense_Processing.c ****         ptrFlashWdgt++;
 147              		.loc 1 524 0
 148 007c 3034     		adds	r4, r4, #48
 149              	.LVL20:
 424:Generated_Source\PSoC6/CapSense_Processing.c ****     {
 150              		.loc 1 424 0
ARM GAS  C:\Users\Mahrukh\AppData\Local\Temp\ccgflWoc.s 			page 13


 151 007e 2B46     		mov	r3, r5
 152              	.LVL21:
 153              	.L4:
 424:Generated_Source\PSoC6/CapSense_Processing.c ****     {
 154              		.loc 1 424 0 is_stmt 0 discriminator 1
 155 0080 5D1E     		subs	r5, r3, #1
 156              	.LVL22:
 157 0082 002B     		cmp	r3, #0
 158 0084 CFD1     		bne	.L12
 525:Generated_Source\PSoC6/CapSense_Processing.c ****     }
 526:Generated_Source\PSoC6/CapSense_Processing.c **** }
 159              		.loc 1 526 0 is_stmt 1
 160 0086 F8BD     		pop	{r3, r4, r5, r6, r7, pc}
 161              	.LVL23:
 162              	.L16:
 163              		.align	2
 164              	.L15:
 165 0088 00000000 		.word	CapSense_dsRam
 166 008c 00000000 		.word	CapSense_dsFlash
 167              		.cfi_endproc
 168              	.LFE133:
 169              		.size	CapSense_DpInitialize, .-CapSense_DpInitialize
 170              		.section	.text.CapSense_DpUpdateThresholds,"ax",%progbits
 171              		.align	2
 172              		.global	CapSense_DpUpdateThresholds
 173              		.thumb
 174              		.thumb_func
 175              		.type	CapSense_DpUpdateThresholds, %function
 176              	CapSense_DpUpdateThresholds:
 177              	.LFB140:
 527:Generated_Source\PSoC6/CapSense_Processing.c **** 
 528:Generated_Source\PSoC6/CapSense_Processing.c **** #if (0u != CapSense_TOTAL_CSX_WIDGETS)
 529:Generated_Source\PSoC6/CapSense_Processing.c **** /*******************************************************************************
 530:Generated_Source\PSoC6/CapSense_Processing.c **** * Function Name: CapSense_DpProcessCsxWidgetRawCounts
 531:Generated_Source\PSoC6/CapSense_Processing.c **** ****************************************************************************//**
 532:Generated_Source\PSoC6/CapSense_Processing.c **** *
 533:Generated_Source\PSoC6/CapSense_Processing.c **** * \brief
 534:Generated_Source\PSoC6/CapSense_Processing.c **** *  Performs default processing of the CSX raw counts.
 535:Generated_Source\PSoC6/CapSense_Processing.c **** *
 536:Generated_Source\PSoC6/CapSense_Processing.c **** * \details
 537:Generated_Source\PSoC6/CapSense_Processing.c **** *  Performs default processing of the CSX raw counts:
 538:Generated_Source\PSoC6/CapSense_Processing.c **** *   - Run Filters
 539:Generated_Source\PSoC6/CapSense_Processing.c **** *   - Update Baselines
 540:Generated_Source\PSoC6/CapSense_Processing.c **** *   - Update Differences
 541:Generated_Source\PSoC6/CapSense_Processing.c **** *   - Update Status.
 542:Generated_Source\PSoC6/CapSense_Processing.c **** *  The same process is applied to all the sensors of the specified widget.
 543:Generated_Source\PSoC6/CapSense_Processing.c **** *
 544:Generated_Source\PSoC6/CapSense_Processing.c **** * \param ptrFlashWdgt The pointer to the Flash widget structure.
 545:Generated_Source\PSoC6/CapSense_Processing.c **** *
 546:Generated_Source\PSoC6/CapSense_Processing.c **** * \return
 547:Generated_Source\PSoC6/CapSense_Processing.c **** *  Returns the status of the specified widget processing operation:
 548:Generated_Source\PSoC6/CapSense_Processing.c **** *  - CY_RET_SUCCESS if operation was successfully completed;
 549:Generated_Source\PSoC6/CapSense_Processing.c **** *  - CapSense_PROCESS_BASELINE_FAILED if baseline processing of any
 550:Generated_Source\PSoC6/CapSense_Processing.c **** *    sensor of the specified widget failed. The result is concatenated with the index
 551:Generated_Source\PSoC6/CapSense_Processing.c **** *    of failed sensor.
 552:Generated_Source\PSoC6/CapSense_Processing.c **** *
 553:Generated_Source\PSoC6/CapSense_Processing.c **** *******************************************************************************/
ARM GAS  C:\Users\Mahrukh\AppData\Local\Temp\ccgflWoc.s 			page 14


 554:Generated_Source\PSoC6/CapSense_Processing.c **** uint32 CapSense_DpProcessCsxWidgetRawCounts(CapSense_FLASH_WD_STRUCT const *ptrFlashWdgt)
 555:Generated_Source\PSoC6/CapSense_Processing.c **** {
 556:Generated_Source\PSoC6/CapSense_Processing.c ****     uint32 result = CY_RET_SUCCESS;
 557:Generated_Source\PSoC6/CapSense_Processing.c ****     uint32 widgetType;
 558:Generated_Source\PSoC6/CapSense_Processing.c ****     uint32 snsCount;
 559:Generated_Source\PSoC6/CapSense_Processing.c ****     CapSense_RAM_SNS_STRUCT *ptrSnsTmp;
 560:Generated_Source\PSoC6/CapSense_Processing.c ****     CapSense_RAM_WD_BASE_STRUCT *ptrRamWdgt;
 561:Generated_Source\PSoC6/CapSense_Processing.c **** 
 562:Generated_Source\PSoC6/CapSense_Processing.c ****     #if (CapSense_ENABLE == CapSense_RC_FILTER_EN)
 563:Generated_Source\PSoC6/CapSense_Processing.c ****         CapSense_PTR_FILTER_VARIANT fltrHistV;
 564:Generated_Source\PSoC6/CapSense_Processing.c **** 
 565:Generated_Source\PSoC6/CapSense_Processing.c ****         fltrHistV.ptr = ptrFlashWdgt->ptr2FltrHistory;
 566:Generated_Source\PSoC6/CapSense_Processing.c ****     #endif /* #if (CapSense_ENABLE == CapSense_RC_FILTER_EN) */
 567:Generated_Source\PSoC6/CapSense_Processing.c **** 
 568:Generated_Source\PSoC6/CapSense_Processing.c ****     ptrSnsTmp = ptrFlashWdgt->ptr2SnsRam;
 569:Generated_Source\PSoC6/CapSense_Processing.c ****     snsCount = ptrFlashWdgt->totalNumSns;
 570:Generated_Source\PSoC6/CapSense_Processing.c ****     ptrRamWdgt = (CapSense_RAM_WD_BASE_STRUCT *)ptrFlashWdgt->ptr2WdgtRam;
 571:Generated_Source\PSoC6/CapSense_Processing.c ****     widgetType = ptrFlashWdgt->wdgtType;
 572:Generated_Source\PSoC6/CapSense_Processing.c **** 
 573:Generated_Source\PSoC6/CapSense_Processing.c ****     /* Run deconvolution algorithm for the widgets with multiphase TX support */
 574:Generated_Source\PSoC6/CapSense_Processing.c ****     #if (0u != CapSense_CSX_MULTIPHASE_TX_EN)
 575:Generated_Source\PSoC6/CapSense_Processing.c ****         if (0u != (ptrFlashWdgt->staticConfig & CapSense_MULTIPHASE_TX_MASK))
 576:Generated_Source\PSoC6/CapSense_Processing.c ****         {
 577:Generated_Source\PSoC6/CapSense_Processing.c ****             CapSense_DpDeconvolution(ptrFlashWdgt);
 578:Generated_Source\PSoC6/CapSense_Processing.c ****         }
 579:Generated_Source\PSoC6/CapSense_Processing.c ****     #endif  /* #if (0u != CapSense_CSX_MULTIPHASE_TX_EN) */
 580:Generated_Source\PSoC6/CapSense_Processing.c **** 
 581:Generated_Source\PSoC6/CapSense_Processing.c ****     for (;snsCount-- > 0u;)
 582:Generated_Source\PSoC6/CapSense_Processing.c ****     {
 583:Generated_Source\PSoC6/CapSense_Processing.c ****         #if (CapSense_ENABLE == CapSense_RC_FILTER_EN)
 584:Generated_Source\PSoC6/CapSense_Processing.c ****             CapSense_FtRunEnabledFiltersInternal(fltrHistV, ptrSnsTmp, widgetType);
 585:Generated_Source\PSoC6/CapSense_Processing.c ****             #if (CapSense_ALP_FILTER_EN)
 586:Generated_Source\PSoC6/CapSense_Processing.c ****                 CapSense_ConfigRunALPInternal(fltrHistV, ptrRamWdgt, ptrSnsTmp, widgetType);
 587:Generated_Source\PSoC6/CapSense_Processing.c ****             #endif
 588:Generated_Source\PSoC6/CapSense_Processing.c ****         #endif /* #if (CapSense_ENABLE == CapSense_RC_FILTER_EN) */
 589:Generated_Source\PSoC6/CapSense_Processing.c **** 
 590:Generated_Source\PSoC6/CapSense_Processing.c ****         result = CapSense_FtUpdateBaseline(ptrRamWdgt, ptrSnsTmp, widgetType);
 591:Generated_Source\PSoC6/CapSense_Processing.c **** 
 592:Generated_Source\PSoC6/CapSense_Processing.c ****         #if (CapSense_ENABLE == CapSense_TST_BSLN_DUPLICATION_EN)
 593:Generated_Source\PSoC6/CapSense_Processing.c ****             if (CY_RET_SUCCESS != result)
 594:Generated_Source\PSoC6/CapSense_Processing.c ****             {
 595:Generated_Source\PSoC6/CapSense_Processing.c ****                 result = snsCount | CapSense_PROCESS_BASELINE_FAILED;
 596:Generated_Source\PSoC6/CapSense_Processing.c ****             }
 597:Generated_Source\PSoC6/CapSense_Processing.c ****         #endif /* (CapSense_ENABLE == CapSense_TST_BSLN_DUPLICATION_EN) */
 598:Generated_Source\PSoC6/CapSense_Processing.c **** 
 599:Generated_Source\PSoC6/CapSense_Processing.c ****         CapSense_DpUpdateDifferences(ptrRamWdgt, ptrSnsTmp);
 600:Generated_Source\PSoC6/CapSense_Processing.c **** 
 601:Generated_Source\PSoC6/CapSense_Processing.c ****         /* Move pointers to the next sensor and filter history objects */
 602:Generated_Source\PSoC6/CapSense_Processing.c ****         ptrSnsTmp++;
 603:Generated_Source\PSoC6/CapSense_Processing.c ****         
 604:Generated_Source\PSoC6/CapSense_Processing.c ****         #if (CapSense_ENABLE == CapSense_RC_FILTER_EN)
 605:Generated_Source\PSoC6/CapSense_Processing.c ****             CapSense_INC_REG_FLTR_OBJ(fltrHistV);
 606:Generated_Source\PSoC6/CapSense_Processing.c ****         #endif /* #if (CapSense_ENABLE == CapSense_RC_FILTER_EN) */
 607:Generated_Source\PSoC6/CapSense_Processing.c ****     }
 608:Generated_Source\PSoC6/CapSense_Processing.c ****     return result;
 609:Generated_Source\PSoC6/CapSense_Processing.c **** }
 610:Generated_Source\PSoC6/CapSense_Processing.c **** 
ARM GAS  C:\Users\Mahrukh\AppData\Local\Temp\ccgflWoc.s 			page 15


 611:Generated_Source\PSoC6/CapSense_Processing.c **** /*******************************************************************************
 612:Generated_Source\PSoC6/CapSense_Processing.c **** * Function Name: CapSense_DpProcessCsxSensorRawCountsExt
 613:Generated_Source\PSoC6/CapSense_Processing.c **** ****************************************************************************//**
 614:Generated_Source\PSoC6/CapSense_Processing.c **** *
 615:Generated_Source\PSoC6/CapSense_Processing.c **** * \brief
 616:Generated_Source\PSoC6/CapSense_Processing.c **** *   Performs customized processing of the CSX sensor raw counts.
 617:Generated_Source\PSoC6/CapSense_Processing.c **** *
 618:Generated_Source\PSoC6/CapSense_Processing.c **** * \details
 619:Generated_Source\PSoC6/CapSense_Processing.c **** *   Performs customized processing of the CSX sensor raw counts.
 620:Generated_Source\PSoC6/CapSense_Processing.c **** *
 621:Generated_Source\PSoC6/CapSense_Processing.c **** *   If all bits are set at once the default processing order will take place.
 622:Generated_Source\PSoC6/CapSense_Processing.c **** *   For the custom order this API can be called multiple times and execute one task at a time.
 623:Generated_Source\PSoC6/CapSense_Processing.c **** *
 624:Generated_Source\PSoC6/CapSense_Processing.c **** * \param ptrFlashWdgt The pointer to the Flash Widget Object.
 625:Generated_Source\PSoC6/CapSense_Processing.c **** * \param curSnsPtr    The pointer to the specific RAM Sensor Object.
 626:Generated_Source\PSoC6/CapSense_Processing.c **** * \param fltrHistV    The pointer to the Filter History Object in RAM associated with specific sens
 627:Generated_Source\PSoC6/CapSense_Processing.c **** * \param mode         The bit-mask with the data processing tasks to be executed.
 628:Generated_Source\PSoC6/CapSense_Processing.c **** *   The mode parameters can take the following values:
 629:Generated_Source\PSoC6/CapSense_Processing.c **** *    - CapSense_PROCESS_FILTER     (0x01) Run Firmware Filter
 630:Generated_Source\PSoC6/CapSense_Processing.c **** *    - CapSense_PROCESS_BASELINE   (0x02) Update Baselines
 631:Generated_Source\PSoC6/CapSense_Processing.c **** *    - CapSense_PROCESS_DIFFCOUNTS (0x04) Update Difference Counts
 632:Generated_Source\PSoC6/CapSense_Processing.c **** *    - CapSense_PROCESS_ALL               Execute all tasks
 633:Generated_Source\PSoC6/CapSense_Processing.c **** *
 634:Generated_Source\PSoC6/CapSense_Processing.c **** * \return
 635:Generated_Source\PSoC6/CapSense_Processing.c **** *  Returns the status of the specified sensor processing operation:
 636:Generated_Source\PSoC6/CapSense_Processing.c **** *  - CY_RET_SUCCESS if operation was successfully completed;
 637:Generated_Source\PSoC6/CapSense_Processing.c **** *  - CapSense_PROCESS_BASELINE_FAILED if baseline processing of any
 638:Generated_Source\PSoC6/CapSense_Processing.c **** *    sensor of the specified widget failed. The result is concatenated with the index
 639:Generated_Source\PSoC6/CapSense_Processing.c **** *    of failed sensor.
 640:Generated_Source\PSoC6/CapSense_Processing.c **** *
 641:Generated_Source\PSoC6/CapSense_Processing.c **** *******************************************************************************/
 642:Generated_Source\PSoC6/CapSense_Processing.c **** uint32 CapSense_DpProcessCsxSensorRawCountsExt(
 643:Generated_Source\PSoC6/CapSense_Processing.c ****                 CapSense_FLASH_WD_STRUCT const *ptrFlashWdgt,
 644:Generated_Source\PSoC6/CapSense_Processing.c ****                 CapSense_RAM_SNS_STRUCT *curSnsPtr,
 645:Generated_Source\PSoC6/CapSense_Processing.c ****                 CapSense_PTR_FILTER_VARIANT fltrHistV,
 646:Generated_Source\PSoC6/CapSense_Processing.c ****                 uint32 mode)
 647:Generated_Source\PSoC6/CapSense_Processing.c **** {
 648:Generated_Source\PSoC6/CapSense_Processing.c ****     uint32  result = CY_RET_SUCCESS;
 649:Generated_Source\PSoC6/CapSense_Processing.c ****     uint32  widgetType;
 650:Generated_Source\PSoC6/CapSense_Processing.c ****     CapSense_RAM_WD_BASE_STRUCT *ptrRamWdgt;
 651:Generated_Source\PSoC6/CapSense_Processing.c **** 
 652:Generated_Source\PSoC6/CapSense_Processing.c ****     widgetType = ptrFlashWdgt->wdgtType;
 653:Generated_Source\PSoC6/CapSense_Processing.c ****     ptrRamWdgt = (CapSense_RAM_WD_BASE_STRUCT *)ptrFlashWdgt->ptr2WdgtRam;
 654:Generated_Source\PSoC6/CapSense_Processing.c **** 
 655:Generated_Source\PSoC6/CapSense_Processing.c ****     #if (CapSense_ENABLE == CapSense_RC_FILTER_EN)
 656:Generated_Source\PSoC6/CapSense_Processing.c ****         if (0u != (mode & CapSense_PROCESS_FILTER))
 657:Generated_Source\PSoC6/CapSense_Processing.c ****         {
 658:Generated_Source\PSoC6/CapSense_Processing.c ****             CapSense_FtRunEnabledFiltersInternal(fltrHistV, curSnsPtr, widgetType);
 659:Generated_Source\PSoC6/CapSense_Processing.c ****             #if (CapSense_ALP_FILTER_EN)
 660:Generated_Source\PSoC6/CapSense_Processing.c ****                 CapSense_ConfigRunALPInternal(fltrHistV, ptrRamWdgt, curSnsPtr, widgetType);
 661:Generated_Source\PSoC6/CapSense_Processing.c ****             #endif
 662:Generated_Source\PSoC6/CapSense_Processing.c ****         }
 663:Generated_Source\PSoC6/CapSense_Processing.c ****     #else
 664:Generated_Source\PSoC6/CapSense_Processing.c ****         (void)fltrHistV; /* This parameter is unused in such configurations */
 665:Generated_Source\PSoC6/CapSense_Processing.c ****     #endif /* #if (CapSense_ENABLE == CapSense_RC_FILTER_EN) */
 666:Generated_Source\PSoC6/CapSense_Processing.c **** 
 667:Generated_Source\PSoC6/CapSense_Processing.c ****     if (0u != (mode & CapSense_PROCESS_BASELINE))
ARM GAS  C:\Users\Mahrukh\AppData\Local\Temp\ccgflWoc.s 			page 16


 668:Generated_Source\PSoC6/CapSense_Processing.c ****     {
 669:Generated_Source\PSoC6/CapSense_Processing.c ****         result = CapSense_FtUpdateBaseline(ptrRamWdgt, curSnsPtr, widgetType);
 670:Generated_Source\PSoC6/CapSense_Processing.c ****     }
 671:Generated_Source\PSoC6/CapSense_Processing.c **** 
 672:Generated_Source\PSoC6/CapSense_Processing.c ****     if (0u != (mode & CapSense_PROCESS_DIFFCOUNTS))
 673:Generated_Source\PSoC6/CapSense_Processing.c ****     {
 674:Generated_Source\PSoC6/CapSense_Processing.c ****         CapSense_DpUpdateDifferences(ptrRamWdgt, curSnsPtr);
 675:Generated_Source\PSoC6/CapSense_Processing.c ****     }
 676:Generated_Source\PSoC6/CapSense_Processing.c ****     return result;
 677:Generated_Source\PSoC6/CapSense_Processing.c **** }
 678:Generated_Source\PSoC6/CapSense_Processing.c **** 
 679:Generated_Source\PSoC6/CapSense_Processing.c **** 
 680:Generated_Source\PSoC6/CapSense_Processing.c **** /*******************************************************************************
 681:Generated_Source\PSoC6/CapSense_Processing.c **** * Function Name: CapSense_DpProcessCsxWidgetStatus
 682:Generated_Source\PSoC6/CapSense_Processing.c **** ****************************************************************************//**
 683:Generated_Source\PSoC6/CapSense_Processing.c **** *
 684:Generated_Source\PSoC6/CapSense_Processing.c **** * \brief
 685:Generated_Source\PSoC6/CapSense_Processing.c **** *   Updates the status of the CSX widget in the Data Structure.
 686:Generated_Source\PSoC6/CapSense_Processing.c **** *
 687:Generated_Source\PSoC6/CapSense_Processing.c **** * \details
 688:Generated_Source\PSoC6/CapSense_Processing.c **** *  This API determines the type of widget and runs the appropriate function
 689:Generated_Source\PSoC6/CapSense_Processing.c **** *  that implements the status update algorithm for this type of widget.
 690:Generated_Source\PSoC6/CapSense_Processing.c **** *
 691:Generated_Source\PSoC6/CapSense_Processing.c **** *  When the widget-specific processing completes this API updates the snsStatus
 692:Generated_Source\PSoC6/CapSense_Processing.c **** *  and wdgtStatus registers in the data structure. The wdgtStatus register
 693:Generated_Source\PSoC6/CapSense_Processing.c **** *  is a bitmask were each bit corresponds to the specific widget identified by
 694:Generated_Source\PSoC6/CapSense_Processing.c **** *  the widget index. When the bit is set the widget is active (touched);
 695:Generated_Source\PSoC6/CapSense_Processing.c **** *
 696:Generated_Source\PSoC6/CapSense_Processing.c **** *  Depending on the type of widget the snsStatus register may contain either
 697:Generated_Source\PSoC6/CapSense_Processing.c **** *  status of each widget node (active/non-active) or in case of the CSX Touchpad
 698:Generated_Source\PSoC6/CapSense_Processing.c **** *  is contains the number of touches. In both cases 0 means that widget is not
 699:Generated_Source\PSoC6/CapSense_Processing.c **** *  active.
 700:Generated_Source\PSoC6/CapSense_Processing.c **** *
 701:Generated_Source\PSoC6/CapSense_Processing.c **** * \param widgetId     The widget ID number.
 702:Generated_Source\PSoC6/CapSense_Processing.c **** * \param ptrFlashWdgt The pointer to the Flash Widget Object.
 703:Generated_Source\PSoC6/CapSense_Processing.c **** *
 704:Generated_Source\PSoC6/CapSense_Processing.c **** *******************************************************************************/
 705:Generated_Source\PSoC6/CapSense_Processing.c **** void CapSense_DpProcessCsxWidgetStatus(uint32 widgetId, CapSense_FLASH_WD_STRUCT const *ptrFlashWdg
 706:Generated_Source\PSoC6/CapSense_Processing.c **** {
 707:Generated_Source\PSoC6/CapSense_Processing.c ****     uint32 sensorStatus;
 708:Generated_Source\PSoC6/CapSense_Processing.c ****     uint32 wdStatusIndex;
 709:Generated_Source\PSoC6/CapSense_Processing.c ****     uint32 wdStatusMask;
 710:Generated_Source\PSoC6/CapSense_Processing.c ****     CapSense_WD_TYPE_ENUM widgetType;
 711:Generated_Source\PSoC6/CapSense_Processing.c **** 
 712:Generated_Source\PSoC6/CapSense_Processing.c ****     widgetType = (CapSense_WD_TYPE_ENUM)ptrFlashWdgt->wdgtType;
 713:Generated_Source\PSoC6/CapSense_Processing.c ****     sensorStatus = CapSense_dsRam.snsStatus[widgetId];
 714:Generated_Source\PSoC6/CapSense_Processing.c **** 
 715:Generated_Source\PSoC6/CapSense_Processing.c ****     switch (widgetType)
 716:Generated_Source\PSoC6/CapSense_Processing.c ****     {
 717:Generated_Source\PSoC6/CapSense_Processing.c ****     #if (0u != CapSense_BUTTON_WIDGET_EN)
 718:Generated_Source\PSoC6/CapSense_Processing.c ****         case CapSense_WD_BUTTON_E:
 719:Generated_Source\PSoC6/CapSense_Processing.c ****             sensorStatus = CapSense_DpProcessButton(sensorStatus, ptrFlashWdgt);
 720:Generated_Source\PSoC6/CapSense_Processing.c ****             break;
 721:Generated_Source\PSoC6/CapSense_Processing.c ****     #endif /* #if (0u != CapSense_BUTTON_WIDGET_EN) */
 722:Generated_Source\PSoC6/CapSense_Processing.c **** 
 723:Generated_Source\PSoC6/CapSense_Processing.c ****     #if (0u != CapSense_CSX_MATRIX_WIDGET_EN)
 724:Generated_Source\PSoC6/CapSense_Processing.c ****         case CapSense_WD_MATRIX_BUTTON_E:
ARM GAS  C:\Users\Mahrukh\AppData\Local\Temp\ccgflWoc.s 			page 17


 725:Generated_Source\PSoC6/CapSense_Processing.c ****             sensorStatus = CapSense_DpProcessButton(sensorStatus, ptrFlashWdgt);
 726:Generated_Source\PSoC6/CapSense_Processing.c ****             break;
 727:Generated_Source\PSoC6/CapSense_Processing.c ****     #endif /* #if (0u != CapSense_CSX_MATRIX_WIDGET_EN) */
 728:Generated_Source\PSoC6/CapSense_Processing.c **** 
 729:Generated_Source\PSoC6/CapSense_Processing.c ****     #if (0u != CapSense_CSX_TOUCHPAD_WIDGET_EN)
 730:Generated_Source\PSoC6/CapSense_Processing.c ****         case CapSense_WD_TOUCHPAD_E:
 731:Generated_Source\PSoC6/CapSense_Processing.c ****             sensorStatus = CapSense_DpProcessCsxTouchpad(sensorStatus, ptrFlashWdgt);
 732:Generated_Source\PSoC6/CapSense_Processing.c ****             break;
 733:Generated_Source\PSoC6/CapSense_Processing.c ****     #endif /* #if (0u != CapSense_CSX_TOUCHPAD_WIDGET_EN) */
 734:Generated_Source\PSoC6/CapSense_Processing.c **** 
 735:Generated_Source\PSoC6/CapSense_Processing.c ****     default:
 736:Generated_Source\PSoC6/CapSense_Processing.c ****         CY_ASSERT(0 != 0);
 737:Generated_Source\PSoC6/CapSense_Processing.c ****         break;
 738:Generated_Source\PSoC6/CapSense_Processing.c ****     }
 739:Generated_Source\PSoC6/CapSense_Processing.c **** 
 740:Generated_Source\PSoC6/CapSense_Processing.c ****     /* Update sensor status in the data structure */
 741:Generated_Source\PSoC6/CapSense_Processing.c ****     CapSense_dsRam.snsStatus[widgetId] = (CapSense_SNS_STS_TYPE)sensorStatus;
 742:Generated_Source\PSoC6/CapSense_Processing.c **** 
 743:Generated_Source\PSoC6/CapSense_Processing.c ****     /* The next two lines calculate index and bitmask of the widget status bit in the wdgtStatus ar
 744:Generated_Source\PSoC6/CapSense_Processing.c ****     wdStatusIndex = CapSense_GET_WDGT_STATUS_INDEX(widgetId);
 745:Generated_Source\PSoC6/CapSense_Processing.c ****     wdStatusMask = CapSense_GET_WDGT_STATUS_MASK(widgetId);
 746:Generated_Source\PSoC6/CapSense_Processing.c **** 
 747:Generated_Source\PSoC6/CapSense_Processing.c ****     /* Check if there are active sensors and update widget status accordingly */
 748:Generated_Source\PSoC6/CapSense_Processing.c ****     if (0u == sensorStatus)
 749:Generated_Source\PSoC6/CapSense_Processing.c ****     {
 750:Generated_Source\PSoC6/CapSense_Processing.c ****         CapSense_dsRam.wdgtStatus[wdStatusIndex] &= ~wdStatusMask;
 751:Generated_Source\PSoC6/CapSense_Processing.c ****     }
 752:Generated_Source\PSoC6/CapSense_Processing.c ****     else
 753:Generated_Source\PSoC6/CapSense_Processing.c ****     {
 754:Generated_Source\PSoC6/CapSense_Processing.c ****         CapSense_dsRam.wdgtStatus[wdStatusIndex] |= wdStatusMask;
 755:Generated_Source\PSoC6/CapSense_Processing.c ****     }
 756:Generated_Source\PSoC6/CapSense_Processing.c **** }
 757:Generated_Source\PSoC6/CapSense_Processing.c **** #endif /* #if CapSense_TOTAL_CSX_WIDGETS */
 758:Generated_Source\PSoC6/CapSense_Processing.c **** 
 759:Generated_Source\PSoC6/CapSense_Processing.c **** #if (0u != CapSense_TOTAL_CSD_WIDGETS)
 760:Generated_Source\PSoC6/CapSense_Processing.c **** /*******************************************************************************
 761:Generated_Source\PSoC6/CapSense_Processing.c **** * Function Name: CapSense_DpProcessCsdWidgetRawCounts
 762:Generated_Source\PSoC6/CapSense_Processing.c **** ****************************************************************************//**
 763:Generated_Source\PSoC6/CapSense_Processing.c **** *
 764:Generated_Source\PSoC6/CapSense_Processing.c **** * \brief
 765:Generated_Source\PSoC6/CapSense_Processing.c **** *   Performs default processing for the CSD widget raw counts.
 766:Generated_Source\PSoC6/CapSense_Processing.c **** *
 767:Generated_Source\PSoC6/CapSense_Processing.c **** * \details
 768:Generated_Source\PSoC6/CapSense_Processing.c **** *   Performs default processing for the CSD widget raw counts:
 769:Generated_Source\PSoC6/CapSense_Processing.c **** *    - Run Filters
 770:Generated_Source\PSoC6/CapSense_Processing.c **** *    - Update Thresholds (FW Auto-tuning)
 771:Generated_Source\PSoC6/CapSense_Processing.c **** *    - Update Baselines
 772:Generated_Source\PSoC6/CapSense_Processing.c **** *    - Update Differences.
 773:Generated_Source\PSoC6/CapSense_Processing.c **** *   The process is applied to all widget's sensors.
 774:Generated_Source\PSoC6/CapSense_Processing.c **** *
 775:Generated_Source\PSoC6/CapSense_Processing.c **** * \param ptrFlashWdgt The pointer to the Flash Widget Object.
 776:Generated_Source\PSoC6/CapSense_Processing.c **** *
 777:Generated_Source\PSoC6/CapSense_Processing.c **** * \return
 778:Generated_Source\PSoC6/CapSense_Processing.c **** *  Returns the status of the specified widget processing operation:
 779:Generated_Source\PSoC6/CapSense_Processing.c **** *  - CY_RET_SUCCESS if operation was successfully completed;
 780:Generated_Source\PSoC6/CapSense_Processing.c **** *  - CapSense_PROCESS_BASELINE_FAILED if baseline processing of any
 781:Generated_Source\PSoC6/CapSense_Processing.c **** *    sensor of the specified widget failed. The result is concatenated with the index
ARM GAS  C:\Users\Mahrukh\AppData\Local\Temp\ccgflWoc.s 			page 18


 782:Generated_Source\PSoC6/CapSense_Processing.c **** *    of failed sensor.
 783:Generated_Source\PSoC6/CapSense_Processing.c **** *
 784:Generated_Source\PSoC6/CapSense_Processing.c **** *******************************************************************************/
 785:Generated_Source\PSoC6/CapSense_Processing.c **** uint32 CapSense_DpProcessCsdWidgetRawCounts(CapSense_FLASH_WD_STRUCT const *ptrFlashWdgt)
 786:Generated_Source\PSoC6/CapSense_Processing.c **** {
 787:Generated_Source\PSoC6/CapSense_Processing.c ****     uint32  result = CY_RET_SUCCESS;
 788:Generated_Source\PSoC6/CapSense_Processing.c **** 
 789:Generated_Source\PSoC6/CapSense_Processing.c ****     #if (CapSense_ENABLE == CapSense_TST_BSLN_DUPLICATION_EN)
 790:Generated_Source\PSoC6/CapSense_Processing.c ****         uint32 bslnTstResult = CY_RET_SUCCESS;
 791:Generated_Source\PSoC6/CapSense_Processing.c ****     #endif /* (CapSense_ENABLE == CapSense_TST_BSLN_DUPLICATION_EN) */
 792:Generated_Source\PSoC6/CapSense_Processing.c **** 
 793:Generated_Source\PSoC6/CapSense_Processing.c ****     uint32  widgetType;
 794:Generated_Source\PSoC6/CapSense_Processing.c ****     uint32  snsId;
 795:Generated_Source\PSoC6/CapSense_Processing.c ****     CapSense_RAM_SNS_STRUCT *ptrSnsTmp;
 796:Generated_Source\PSoC6/CapSense_Processing.c ****     CapSense_RAM_WD_BASE_STRUCT *ptrRamWdgt;
 797:Generated_Source\PSoC6/CapSense_Processing.c **** 
 798:Generated_Source\PSoC6/CapSense_Processing.c ****     #if (0u != (CapSense_CSD_AUTOTUNE & CapSense_CSD_SS_TH_EN))
 799:Generated_Source\PSoC6/CapSense_Processing.c ****         /* The noise envelope data is available only when Full CSD Auto-Tuning is enabled */
 800:Generated_Source\PSoC6/CapSense_Processing.c ****         SMARTSENSE_CSD_NOISE_ENVELOPE_STRUCT *ptrNoiseEnvelope;
 801:Generated_Source\PSoC6/CapSense_Processing.c ****         #if (CapSense_ENABLE == CapSense_PROXIMITY_WIDGET_EN)
 802:Generated_Source\PSoC6/CapSense_Processing.c ****             uint32  proximityThreshold;
 803:Generated_Source\PSoC6/CapSense_Processing.c ****         #endif /* (0 != CapSense_PROXIMITY_WIDGET_EN) */
 804:Generated_Source\PSoC6/CapSense_Processing.c ****     #endif /* #if (0u != (CapSense_CSD_AUTOTUNE & CapSense_CSD_SS_TH_EN)) */
 805:Generated_Source\PSoC6/CapSense_Processing.c **** 
 806:Generated_Source\PSoC6/CapSense_Processing.c ****     #if (CapSense_ENABLE == CapSense_RC_FILTER_EN)
 807:Generated_Source\PSoC6/CapSense_Processing.c ****         CapSense_PTR_FILTER_VARIANT fltrHistV;
 808:Generated_Source\PSoC6/CapSense_Processing.c **** 
 809:Generated_Source\PSoC6/CapSense_Processing.c ****         /* Determine if widget type is proximity */
 810:Generated_Source\PSoC6/CapSense_Processing.c ****         uint32 isProxWdgt = (CapSense_GET_WIDGET_TYPE(ptrFlashWdgt) == CapSense_WD_PROXIMITY_E) ? 1
 811:Generated_Source\PSoC6/CapSense_Processing.c **** 
 812:Generated_Source\PSoC6/CapSense_Processing.c ****         /* Get pointer to the filter history object */
 813:Generated_Source\PSoC6/CapSense_Processing.c ****         fltrHistV.ptr = ptrFlashWdgt->ptr2FltrHistory;
 814:Generated_Source\PSoC6/CapSense_Processing.c ****     #endif /* #if (CapSense_ENABLE == CapSense_RC_FILTER_EN) */
 815:Generated_Source\PSoC6/CapSense_Processing.c **** 
 816:Generated_Source\PSoC6/CapSense_Processing.c ****     ptrSnsTmp = ptrFlashWdgt->ptr2SnsRam;
 817:Generated_Source\PSoC6/CapSense_Processing.c ****     ptrRamWdgt = (CapSense_RAM_WD_BASE_STRUCT *)ptrFlashWdgt->ptr2WdgtRam;
 818:Generated_Source\PSoC6/CapSense_Processing.c ****     widgetType = ptrFlashWdgt->wdgtType;
 819:Generated_Source\PSoC6/CapSense_Processing.c **** 
 820:Generated_Source\PSoC6/CapSense_Processing.c ****     #if (0u != (CapSense_CSD_AUTOTUNE & CapSense_CSD_SS_TH_EN))
 821:Generated_Source\PSoC6/CapSense_Processing.c ****         ptrNoiseEnvelope = ptrFlashWdgt->ptr2NoiseEnvlp;
 822:Generated_Source\PSoC6/CapSense_Processing.c ****     #endif /* #if (0u != (CapSense_CSD_AUTOTUNE & CapSense_CSD_SS_TH_EN)) */
 823:Generated_Source\PSoC6/CapSense_Processing.c **** 
 824:Generated_Source\PSoC6/CapSense_Processing.c ****     /* Iterate through all widget's sensors */
 825:Generated_Source\PSoC6/CapSense_Processing.c ****     for(snsId = 0u; snsId < ptrFlashWdgt->totalNumSns; snsId++)
 826:Generated_Source\PSoC6/CapSense_Processing.c ****     {
 827:Generated_Source\PSoC6/CapSense_Processing.c ****         /* Run all enabled filter on specified widget's sensor */
 828:Generated_Source\PSoC6/CapSense_Processing.c ****         #if (CapSense_ENABLE == CapSense_RC_FILTER_EN)
 829:Generated_Source\PSoC6/CapSense_Processing.c ****             CapSense_FtRunEnabledFiltersInternal(fltrHistV, ptrSnsTmp, widgetType);
 830:Generated_Source\PSoC6/CapSense_Processing.c ****             #if (CapSense_ALP_FILTER_EN)
 831:Generated_Source\PSoC6/CapSense_Processing.c ****                 CapSense_ConfigRunALPInternal(fltrHistV, ptrRamWdgt, ptrSnsTmp, widgetType);
 832:Generated_Source\PSoC6/CapSense_Processing.c ****             #endif
 833:Generated_Source\PSoC6/CapSense_Processing.c ****         #endif /* #if (CapSense_ENABLE == CapSense_RC_FILTER_EN) */
 834:Generated_Source\PSoC6/CapSense_Processing.c **** 
 835:Generated_Source\PSoC6/CapSense_Processing.c ****         /* Run auto-tuning activities */
 836:Generated_Source\PSoC6/CapSense_Processing.c ****         #if (0u != (CapSense_CSD_AUTOTUNE & CapSense_CSD_SS_TH_EN))
 837:Generated_Source\PSoC6/CapSense_Processing.c ****             SmartSense_RunNoiseEnvelope(ptrSnsTmp->raw[0u], ptrRamWdgt->sigPFC, ptrNoiseEnvelope);
 838:Generated_Source\PSoC6/CapSense_Processing.c ****             CapSense_DpUpdateThresholds(ptrRamWdgt, ptrNoiseEnvelope, snsId);
ARM GAS  C:\Users\Mahrukh\AppData\Local\Temp\ccgflWoc.s 			page 19


 839:Generated_Source\PSoC6/CapSense_Processing.c **** 
 840:Generated_Source\PSoC6/CapSense_Processing.c ****             /* Calculate Proximity Touch Threshold in SmartSense mode based on Finger Threshold and
 841:Generated_Source\PSoC6/CapSense_Processing.c ****             #if (CapSense_ENABLE == CapSense_PROXIMITY_WIDGET_EN)
 842:Generated_Source\PSoC6/CapSense_Processing.c ****                 if (CapSense_WD_PROXIMITY_E == CapSense_GET_WIDGET_TYPE(ptrFlashWdgt))
 843:Generated_Source\PSoC6/CapSense_Processing.c ****                 {
 844:Generated_Source\PSoC6/CapSense_Processing.c ****                     proximityThreshold = ((uint32)ptrRamWdgt->fingerTh * CapSense_PROX_TOUCH_COEFF)
 845:Generated_Source\PSoC6/CapSense_Processing.c ****                     if ((((1Lu) << CapSense_THRESHOLD_SIZE) - 1u) < proximityThreshold)
 846:Generated_Source\PSoC6/CapSense_Processing.c ****                     {
 847:Generated_Source\PSoC6/CapSense_Processing.c ****                         proximityThreshold = ((1Lu) << CapSense_THRESHOLD_SIZE) - 1u;
 848:Generated_Source\PSoC6/CapSense_Processing.c ****                     }
 849:Generated_Source\PSoC6/CapSense_Processing.c ****                     ((CapSense_RAM_WD_PROXIMITY_STRUCT *)ptrFlashWdgt->ptr2WdgtRam)->proxTouchTh =
 850:Generated_Source\PSoC6/CapSense_Processing.c ****                         (CapSense_THRESHOLD_TYPE)proximityThreshold;
 851:Generated_Source\PSoC6/CapSense_Processing.c ****                 }
 852:Generated_Source\PSoC6/CapSense_Processing.c ****             #endif /* (0 != CapSense_PROXIMITY_WIDGET_EN) */
 853:Generated_Source\PSoC6/CapSense_Processing.c **** 
 854:Generated_Source\PSoC6/CapSense_Processing.c ****             /* Move to next noise-envelope object */
 855:Generated_Source\PSoC6/CapSense_Processing.c ****             ptrNoiseEnvelope++;
 856:Generated_Source\PSoC6/CapSense_Processing.c ****         #endif /* (0u != (CapSense_CSD_AUTOTUNE & CapSense_CSD_SS_TH_EN)) */
 857:Generated_Source\PSoC6/CapSense_Processing.c **** 
 858:Generated_Source\PSoC6/CapSense_Processing.c ****         #if (CapSense_ENABLE == CapSense_TST_BSLN_DUPLICATION_EN)
 859:Generated_Source\PSoC6/CapSense_Processing.c ****             bslnTstResult = CapSense_FtUpdateBaseline(ptrRamWdgt, ptrSnsTmp, widgetType);
 860:Generated_Source\PSoC6/CapSense_Processing.c ****             if ((CY_RET_SUCCESS != bslnTstResult) && (CY_RET_SUCCESS == result))
 861:Generated_Source\PSoC6/CapSense_Processing.c ****             {
 862:Generated_Source\PSoC6/CapSense_Processing.c ****                 result = snsId | CapSense_PROCESS_BASELINE_FAILED;
 863:Generated_Source\PSoC6/CapSense_Processing.c ****             }
 864:Generated_Source\PSoC6/CapSense_Processing.c ****         #else /* (CapSense_ENABLE == CapSense_TST_BSLN_DUPLICATION_EN) */
 865:Generated_Source\PSoC6/CapSense_Processing.c ****             result = CapSense_FtUpdateBaseline(ptrRamWdgt, ptrSnsTmp, widgetType);
 866:Generated_Source\PSoC6/CapSense_Processing.c ****         #endif /* (CapSense_ENABLE == CapSense_TST_BSLN_DUPLICATION_EN) */
 867:Generated_Source\PSoC6/CapSense_Processing.c **** 
 868:Generated_Source\PSoC6/CapSense_Processing.c ****         CapSense_DpUpdateDifferences(ptrRamWdgt, ptrSnsTmp);
 869:Generated_Source\PSoC6/CapSense_Processing.c **** 
 870:Generated_Source\PSoC6/CapSense_Processing.c ****         /* Move to next sensor object */
 871:Generated_Source\PSoC6/CapSense_Processing.c ****         ptrSnsTmp++;
 872:Generated_Source\PSoC6/CapSense_Processing.c **** 
 873:Generated_Source\PSoC6/CapSense_Processing.c ****         #if (CapSense_ENABLE == CapSense_RC_FILTER_EN)
 874:Generated_Source\PSoC6/CapSense_Processing.c ****             /* Move to the next filter history object */
 875:Generated_Source\PSoC6/CapSense_Processing.c ****             CapSense_INC_FLTR_OBJ_VARIANT(isProxWdgt, fltrHistV);
 876:Generated_Source\PSoC6/CapSense_Processing.c ****         #endif /* #if (CapSense_ENABLE == CapSense_RC_FILTER_EN) */
 877:Generated_Source\PSoC6/CapSense_Processing.c ****     }
 878:Generated_Source\PSoC6/CapSense_Processing.c ****     return result;
 879:Generated_Source\PSoC6/CapSense_Processing.c **** }
 880:Generated_Source\PSoC6/CapSense_Processing.c **** 
 881:Generated_Source\PSoC6/CapSense_Processing.c **** 
 882:Generated_Source\PSoC6/CapSense_Processing.c **** /*******************************************************************************
 883:Generated_Source\PSoC6/CapSense_Processing.c **** * Function Name: CapSense_DpProcessCsdSensorRawCountsExt
 884:Generated_Source\PSoC6/CapSense_Processing.c **** ****************************************************************************//**
 885:Generated_Source\PSoC6/CapSense_Processing.c **** *
 886:Generated_Source\PSoC6/CapSense_Processing.c **** * \brief
 887:Generated_Source\PSoC6/CapSense_Processing.c **** *   Performs customized processing of the CSD sensor raw counts.
 888:Generated_Source\PSoC6/CapSense_Processing.c **** *
 889:Generated_Source\PSoC6/CapSense_Processing.c **** * \details
 890:Generated_Source\PSoC6/CapSense_Processing.c **** *   Performs customized processing of the CSD sensor raw counts.
 891:Generated_Source\PSoC6/CapSense_Processing.c **** *
 892:Generated_Source\PSoC6/CapSense_Processing.c **** *   Note that this API updates data associated only with the sensor. It cannot be used to update
 893:Generated_Source\PSoC6/CapSense_Processing.c **** *   widget status.
 894:Generated_Source\PSoC6/CapSense_Processing.c **** *
 895:Generated_Source\PSoC6/CapSense_Processing.c **** * \param ptrFlashWdgt The pointer to the Flash widget structure.
ARM GAS  C:\Users\Mahrukh\AppData\Local\Temp\ccgflWoc.s 			page 20


 896:Generated_Source\PSoC6/CapSense_Processing.c **** * \param curSnsPtr    The pointer to the sensor object in RAM.
 897:Generated_Source\PSoC6/CapSense_Processing.c **** * \param fltrHistV    The pointer to the Filter History Object in RAM.
 898:Generated_Source\PSoC6/CapSense_Processing.c **** * \param mode         The bit-mask with the data processing tasks to be executed.
 899:Generated_Source\PSoC6/CapSense_Processing.c **** *   The mode parameters can take the following values:
 900:Generated_Source\PSoC6/CapSense_Processing.c **** *    - CapSense_PROCESS_FILTER     (0x01) Run Firmware Filter
 901:Generated_Source\PSoC6/CapSense_Processing.c **** *    - CapSense_PROCESS_BASELINE   (0x02) Update Baselines
 902:Generated_Source\PSoC6/CapSense_Processing.c **** *    - CapSense_PROCESS_DIFFCOUNTS (0x04) Update Difference Counts
 903:Generated_Source\PSoC6/CapSense_Processing.c **** *    - CapSense_PROCESS_CALC_NOISE (0x08) Calculate Noise (only if FW Tuning is enabled)
 904:Generated_Source\PSoC6/CapSense_Processing.c **** *    - CapSense_PROCESS_THRESHOLDS (0x10) Update Thresholds (only if FW Tuning is enabled)
 905:Generated_Source\PSoC6/CapSense_Processing.c **** *    - CapSense_PROCESS_ALL               Execute all tasks
 906:Generated_Source\PSoC6/CapSense_Processing.c **** *
 907:Generated_Source\PSoC6/CapSense_Processing.c **** * \return
 908:Generated_Source\PSoC6/CapSense_Processing.c **** *  Returns the status of the specified sensor processing operation:
 909:Generated_Source\PSoC6/CapSense_Processing.c **** *  - CY_RET_SUCCESS if operation was successfully completed;
 910:Generated_Source\PSoC6/CapSense_Processing.c **** *  - CapSense_PROCESS_BASELINE_FAILED if baseline processing of any
 911:Generated_Source\PSoC6/CapSense_Processing.c **** *    sensor of the specified widget failed. The result is concatenated with the index
 912:Generated_Source\PSoC6/CapSense_Processing.c **** *    of failed sensor.
 913:Generated_Source\PSoC6/CapSense_Processing.c **** *
 914:Generated_Source\PSoC6/CapSense_Processing.c **** *******************************************************************************/
 915:Generated_Source\PSoC6/CapSense_Processing.c **** uint32 CapSense_DpProcessCsdSensorRawCountsExt(
 916:Generated_Source\PSoC6/CapSense_Processing.c ****                 CapSense_FLASH_WD_STRUCT const *ptrFlashWdgt,
 917:Generated_Source\PSoC6/CapSense_Processing.c ****                 CapSense_RAM_SNS_STRUCT *curSnsPtr,
 918:Generated_Source\PSoC6/CapSense_Processing.c ****                 CapSense_PTR_FILTER_VARIANT fltrHistV,
 919:Generated_Source\PSoC6/CapSense_Processing.c ****                  uint32 mode)
 920:Generated_Source\PSoC6/CapSense_Processing.c **** {
 921:Generated_Source\PSoC6/CapSense_Processing.c ****     uint32 result = CY_RET_SUCCESS;
 922:Generated_Source\PSoC6/CapSense_Processing.c ****     uint32  widgetType;
 923:Generated_Source\PSoC6/CapSense_Processing.c ****     CapSense_RAM_WD_BASE_STRUCT *ptrRamWdgt;
 924:Generated_Source\PSoC6/CapSense_Processing.c **** 
 925:Generated_Source\PSoC6/CapSense_Processing.c ****     #if (0u != (CapSense_CSD_AUTOTUNE & CapSense_CSD_SS_TH_EN))
 926:Generated_Source\PSoC6/CapSense_Processing.c ****         SMARTSENSE_CSD_NOISE_ENVELOPE_STRUCT *ptrNoiseEnvelope;
 927:Generated_Source\PSoC6/CapSense_Processing.c ****         #if (CapSense_ENABLE == CapSense_PROXIMITY_WIDGET_EN)
 928:Generated_Source\PSoC6/CapSense_Processing.c ****             uint32  proximityThreshold;
 929:Generated_Source\PSoC6/CapSense_Processing.c ****         #endif /* (0 != CapSense_PROXIMITY_WIDGET_EN) */
 930:Generated_Source\PSoC6/CapSense_Processing.c **** 
 931:Generated_Source\PSoC6/CapSense_Processing.c ****         /* Need to specify pointer to corresponding sensor's noise-envelope object.*/
 932:Generated_Source\PSoC6/CapSense_Processing.c ****         ptrNoiseEnvelope = ptrFlashWdgt->ptr2NoiseEnvlp;
 933:Generated_Source\PSoC6/CapSense_Processing.c ****     #endif /* (0u != (CapSense_CSD_AUTOTUNE & CapSense_CSD_SS_TH_EN)) */
 934:Generated_Source\PSoC6/CapSense_Processing.c **** 
 935:Generated_Source\PSoC6/CapSense_Processing.c ****     widgetType = ptrFlashWdgt->wdgtType;
 936:Generated_Source\PSoC6/CapSense_Processing.c ****     ptrRamWdgt = (CapSense_RAM_WD_BASE_STRUCT *)ptrFlashWdgt->ptr2WdgtRam;
 937:Generated_Source\PSoC6/CapSense_Processing.c **** 
 938:Generated_Source\PSoC6/CapSense_Processing.c ****     #if (CapSense_ENABLE == CapSense_RC_FILTER_EN)
 939:Generated_Source\PSoC6/CapSense_Processing.c ****         if (0u != (mode & CapSense_PROCESS_FILTER))
 940:Generated_Source\PSoC6/CapSense_Processing.c ****         {
 941:Generated_Source\PSoC6/CapSense_Processing.c ****             CapSense_FtRunEnabledFiltersInternal(fltrHistV, curSnsPtr, widgetType);
 942:Generated_Source\PSoC6/CapSense_Processing.c ****             #if (CapSense_ALP_FILTER_EN)
 943:Generated_Source\PSoC6/CapSense_Processing.c ****                 CapSense_ConfigRunALPInternal(fltrHistV, ptrRamWdgt, curSnsPtr, widgetType);
 944:Generated_Source\PSoC6/CapSense_Processing.c ****             #endif
 945:Generated_Source\PSoC6/CapSense_Processing.c ****         }
 946:Generated_Source\PSoC6/CapSense_Processing.c ****     #else
 947:Generated_Source\PSoC6/CapSense_Processing.c ****         (void)fltrHistV; /* This parameter is unused in such configurations */
 948:Generated_Source\PSoC6/CapSense_Processing.c ****     #endif /* #if (CapSense_ENABLE == CapSense_RC_FILTER_EN) */
 949:Generated_Source\PSoC6/CapSense_Processing.c **** 
 950:Generated_Source\PSoC6/CapSense_Processing.c ****     #if (0u != (CapSense_CSD_AUTOTUNE & CapSense_CSD_SS_TH_EN))
 951:Generated_Source\PSoC6/CapSense_Processing.c ****         if (0u != (mode & CapSense_PROCESS_CALC_NOISE))
 952:Generated_Source\PSoC6/CapSense_Processing.c ****         {
ARM GAS  C:\Users\Mahrukh\AppData\Local\Temp\ccgflWoc.s 			page 21


 953:Generated_Source\PSoC6/CapSense_Processing.c ****             SmartSense_RunNoiseEnvelope(curSnsPtr->raw[0u], ptrRamWdgt->sigPFC, ptrNoiseEnvelope);
 954:Generated_Source\PSoC6/CapSense_Processing.c ****         }
 955:Generated_Source\PSoC6/CapSense_Processing.c **** 
 956:Generated_Source\PSoC6/CapSense_Processing.c ****         if (0u != (mode & CapSense_PROCESS_THRESHOLDS))
 957:Generated_Source\PSoC6/CapSense_Processing.c ****         {
 958:Generated_Source\PSoC6/CapSense_Processing.c ****             CapSense_DpUpdateThresholds(ptrRamWdgt, ptrNoiseEnvelope, 0u);
 959:Generated_Source\PSoC6/CapSense_Processing.c **** 
 960:Generated_Source\PSoC6/CapSense_Processing.c ****             /* Calculate Proximity Touch Threshold in SmartSense mode based on Finger Threshold and
 961:Generated_Source\PSoC6/CapSense_Processing.c ****             #if (CapSense_ENABLE == CapSense_PROXIMITY_WIDGET_EN)
 962:Generated_Source\PSoC6/CapSense_Processing.c ****                 if (CapSense_WD_PROXIMITY_E == CapSense_GET_WIDGET_TYPE(ptrFlashWdgt))
 963:Generated_Source\PSoC6/CapSense_Processing.c ****                 {
 964:Generated_Source\PSoC6/CapSense_Processing.c ****                     proximityThreshold = ((uint32)ptrRamWdgt->fingerTh * CapSense_PROX_TOUCH_COEFF)
 965:Generated_Source\PSoC6/CapSense_Processing.c ****                     if ((((1Lu) << CapSense_THRESHOLD_SIZE) - 1u) < proximityThreshold)
 966:Generated_Source\PSoC6/CapSense_Processing.c ****                     {
 967:Generated_Source\PSoC6/CapSense_Processing.c ****                         proximityThreshold = ((1Lu) << CapSense_THRESHOLD_SIZE) - 1u;
 968:Generated_Source\PSoC6/CapSense_Processing.c ****                     }
 969:Generated_Source\PSoC6/CapSense_Processing.c ****                     ((CapSense_RAM_WD_PROXIMITY_STRUCT *)ptrFlashWdgt->ptr2WdgtRam)->proxTouchTh =
 970:Generated_Source\PSoC6/CapSense_Processing.c ****                         (CapSense_THRESHOLD_TYPE)proximityThreshold;
 971:Generated_Source\PSoC6/CapSense_Processing.c ****                 }
 972:Generated_Source\PSoC6/CapSense_Processing.c ****             #endif /* (0 != CapSense_PROXIMITY_WIDGET_EN) */
 973:Generated_Source\PSoC6/CapSense_Processing.c ****         }
 974:Generated_Source\PSoC6/CapSense_Processing.c ****     #endif /* #if (0u != (CapSense_CSD_AUTOTUNE & CapSense_CSD_SS_TH_EN)) */
 975:Generated_Source\PSoC6/CapSense_Processing.c **** 
 976:Generated_Source\PSoC6/CapSense_Processing.c ****     if (0u != (mode & CapSense_PROCESS_BASELINE))
 977:Generated_Source\PSoC6/CapSense_Processing.c ****     {
 978:Generated_Source\PSoC6/CapSense_Processing.c ****         result = CapSense_FtUpdateBaseline(ptrRamWdgt, curSnsPtr, widgetType);
 979:Generated_Source\PSoC6/CapSense_Processing.c ****     }
 980:Generated_Source\PSoC6/CapSense_Processing.c **** 
 981:Generated_Source\PSoC6/CapSense_Processing.c ****     if (0u != (mode & CapSense_PROCESS_DIFFCOUNTS))
 982:Generated_Source\PSoC6/CapSense_Processing.c ****     {
 983:Generated_Source\PSoC6/CapSense_Processing.c ****         CapSense_DpUpdateDifferences(ptrRamWdgt, curSnsPtr);
 984:Generated_Source\PSoC6/CapSense_Processing.c ****     }
 985:Generated_Source\PSoC6/CapSense_Processing.c ****     return result;
 986:Generated_Source\PSoC6/CapSense_Processing.c **** }
 987:Generated_Source\PSoC6/CapSense_Processing.c **** 
 988:Generated_Source\PSoC6/CapSense_Processing.c **** /*******************************************************************************
 989:Generated_Source\PSoC6/CapSense_Processing.c **** * Function Name: CapSense_DpProcessCsdWidgetStatus
 990:Generated_Source\PSoC6/CapSense_Processing.c **** ****************************************************************************//**
 991:Generated_Source\PSoC6/CapSense_Processing.c **** *
 992:Generated_Source\PSoC6/CapSense_Processing.c **** * \brief
 993:Generated_Source\PSoC6/CapSense_Processing.c **** *  Runs the status processing of the CSD widget and updates it in the Data Structure.
 994:Generated_Source\PSoC6/CapSense_Processing.c **** *
 995:Generated_Source\PSoC6/CapSense_Processing.c **** * \details
 996:Generated_Source\PSoC6/CapSense_Processing.c **** *  This API determines the widget type and calls the appropriate low-level processing
 997:Generated_Source\PSoC6/CapSense_Processing.c **** *  function. Based on the returned results it updates the widget and sensor
 998:Generated_Source\PSoC6/CapSense_Processing.c **** *  status in the data structure. Any widget specific registers like the centroid
 999:Generated_Source\PSoC6/CapSense_Processing.c **** *  position are updated directly in the low-level processing function.
1000:Generated_Source\PSoC6/CapSense_Processing.c **** *
1001:Generated_Source\PSoC6/CapSense_Processing.c **** *  When the widget-specific processing completes this API updates the snsStatus
1002:Generated_Source\PSoC6/CapSense_Processing.c **** *  and wdgtStatus registers in the data structure. The wdgtStatus register
1003:Generated_Source\PSoC6/CapSense_Processing.c **** *  is a bitmask were each bit corresponds to the specific widget identified by
1004:Generated_Source\PSoC6/CapSense_Processing.c **** *  the widget index. When the bit is set the widget is active (touched);
1005:Generated_Source\PSoC6/CapSense_Processing.c **** *
1006:Generated_Source\PSoC6/CapSense_Processing.c **** *  The snsStatus register for CSD widgets contains status of each widget sensor
1007:Generated_Source\PSoC6/CapSense_Processing.c **** *  (active/non-active). Each bit corresponds to one sensor. In case of the
1008:Generated_Source\PSoC6/CapSense_Processing.c **** *  Proximity widget two bits are used per sensor: one for proximity status and
1009:Generated_Source\PSoC6/CapSense_Processing.c **** *  second for the touch status.
ARM GAS  C:\Users\Mahrukh\AppData\Local\Temp\ccgflWoc.s 			page 22


1010:Generated_Source\PSoC6/CapSense_Processing.c **** *
1011:Generated_Source\PSoC6/CapSense_Processing.c **** * \param widgetId      The widget index number.
1012:Generated_Source\PSoC6/CapSense_Processing.c **** * \param ptrFlashWdgt  The pointer to the Flash widget structure.
1013:Generated_Source\PSoC6/CapSense_Processing.c **** *
1014:Generated_Source\PSoC6/CapSense_Processing.c **** *******************************************************************************/
1015:Generated_Source\PSoC6/CapSense_Processing.c **** void CapSense_DpProcessCsdWidgetStatus(uint32 widgetId, CapSense_FLASH_WD_STRUCT const *ptrFlashWdg
1016:Generated_Source\PSoC6/CapSense_Processing.c **** {
1017:Generated_Source\PSoC6/CapSense_Processing.c ****     uint32 sensorStatus;
1018:Generated_Source\PSoC6/CapSense_Processing.c ****     uint32 wdStatusIndex;
1019:Generated_Source\PSoC6/CapSense_Processing.c ****     uint32 wdStatusMask;
1020:Generated_Source\PSoC6/CapSense_Processing.c ****     CapSense_WD_TYPE_ENUM widgetType;
1021:Generated_Source\PSoC6/CapSense_Processing.c **** 
1022:Generated_Source\PSoC6/CapSense_Processing.c ****     widgetType = (CapSense_WD_TYPE_ENUM)ptrFlashWdgt->wdgtType;
1023:Generated_Source\PSoC6/CapSense_Processing.c ****     sensorStatus = CapSense_dsRam.snsStatus[widgetId];
1024:Generated_Source\PSoC6/CapSense_Processing.c **** 
1025:Generated_Source\PSoC6/CapSense_Processing.c ****     switch (widgetType)
1026:Generated_Source\PSoC6/CapSense_Processing.c ****     {
1027:Generated_Source\PSoC6/CapSense_Processing.c ****     #if (0u != CapSense_BUTTON_WIDGET_EN)
1028:Generated_Source\PSoC6/CapSense_Processing.c ****         case CapSense_WD_BUTTON_E:
1029:Generated_Source\PSoC6/CapSense_Processing.c ****             sensorStatus = CapSense_DpProcessButton(sensorStatus, ptrFlashWdgt);
1030:Generated_Source\PSoC6/CapSense_Processing.c ****             break;
1031:Generated_Source\PSoC6/CapSense_Processing.c ****     #endif /* #if (0u != CapSense_BUTTON_WIDGET_EN) */
1032:Generated_Source\PSoC6/CapSense_Processing.c **** 
1033:Generated_Source\PSoC6/CapSense_Processing.c ****     #if (0u != CapSense_SLIDER_WIDGET_EN)
1034:Generated_Source\PSoC6/CapSense_Processing.c ****         case CapSense_WD_LINEAR_SLIDER_E:
1035:Generated_Source\PSoC6/CapSense_Processing.c ****         case CapSense_WD_RADIAL_SLIDER_E:
1036:Generated_Source\PSoC6/CapSense_Processing.c ****             sensorStatus = CapSense_DpProcessSlider(sensorStatus, ptrFlashWdgt);
1037:Generated_Source\PSoC6/CapSense_Processing.c ****             break;
1038:Generated_Source\PSoC6/CapSense_Processing.c ****     #endif /* #if (0u != CapSense_SLIDER_WIDGET_EN) */
1039:Generated_Source\PSoC6/CapSense_Processing.c **** 
1040:Generated_Source\PSoC6/CapSense_Processing.c ****     #if (0u != CapSense_CSD_MATRIX_WIDGET_EN)
1041:Generated_Source\PSoC6/CapSense_Processing.c ****         case CapSense_WD_MATRIX_BUTTON_E:
1042:Generated_Source\PSoC6/CapSense_Processing.c ****             sensorStatus = CapSense_DpProcessCsdMatrix(sensorStatus, ptrFlashWdgt);
1043:Generated_Source\PSoC6/CapSense_Processing.c ****             break;
1044:Generated_Source\PSoC6/CapSense_Processing.c ****     #endif /* #if (0u != CapSense_CSD_MATRIX_WIDGET_EN) */
1045:Generated_Source\PSoC6/CapSense_Processing.c **** 
1046:Generated_Source\PSoC6/CapSense_Processing.c ****     #if (0u != CapSense_CSD_TOUCHPAD_WIDGET_EN)
1047:Generated_Source\PSoC6/CapSense_Processing.c ****         case CapSense_WD_TOUCHPAD_E:
1048:Generated_Source\PSoC6/CapSense_Processing.c ****             sensorStatus = CapSense_DpProcessCsdTouchpad(sensorStatus, ptrFlashWdgt);
1049:Generated_Source\PSoC6/CapSense_Processing.c ****             #if (0u != CapSense_BALLISTIC_MULTIPLIER_EN)
1050:Generated_Source\PSoC6/CapSense_Processing.c ****                 CapSense_RunBallisticMultiplier(widgetId);
1051:Generated_Source\PSoC6/CapSense_Processing.c ****             #endif /* (0u != CapSense_BALLISTIC_MULTIPLIER_EN) */
1052:Generated_Source\PSoC6/CapSense_Processing.c ****             break;
1053:Generated_Source\PSoC6/CapSense_Processing.c ****     #endif /* #if (0u != CapSense_CSD_TOUCHPAD_WIDGET_EN) */
1054:Generated_Source\PSoC6/CapSense_Processing.c **** 
1055:Generated_Source\PSoC6/CapSense_Processing.c ****     #if (0u != CapSense_PROXIMITY_WIDGET_EN)
1056:Generated_Source\PSoC6/CapSense_Processing.c ****         case CapSense_WD_PROXIMITY_E:
1057:Generated_Source\PSoC6/CapSense_Processing.c ****             sensorStatus = CapSense_DpProcessProximity(sensorStatus, ptrFlashWdgt);
1058:Generated_Source\PSoC6/CapSense_Processing.c ****             break;
1059:Generated_Source\PSoC6/CapSense_Processing.c ****     #endif /* #if (0u != CapSense_PROXIMITY_WIDGET_EN) */
1060:Generated_Source\PSoC6/CapSense_Processing.c **** 
1061:Generated_Source\PSoC6/CapSense_Processing.c ****     default:
1062:Generated_Source\PSoC6/CapSense_Processing.c ****         CY_ASSERT(0 != 0);
1063:Generated_Source\PSoC6/CapSense_Processing.c ****         break;
1064:Generated_Source\PSoC6/CapSense_Processing.c ****     }
1065:Generated_Source\PSoC6/CapSense_Processing.c **** 
1066:Generated_Source\PSoC6/CapSense_Processing.c ****     CapSense_dsRam.snsStatus[widgetId] = (CapSense_SNS_STS_TYPE)sensorStatus;
ARM GAS  C:\Users\Mahrukh\AppData\Local\Temp\ccgflWoc.s 			page 23


1067:Generated_Source\PSoC6/CapSense_Processing.c **** 
1068:Generated_Source\PSoC6/CapSense_Processing.c ****     /* The next two lines calculate index and bitmask of the widget status bit in the wdgtStatus ar
1069:Generated_Source\PSoC6/CapSense_Processing.c ****     wdStatusIndex = CapSense_GET_WDGT_STATUS_INDEX(widgetId);
1070:Generated_Source\PSoC6/CapSense_Processing.c ****     wdStatusMask = CapSense_GET_WDGT_STATUS_MASK(widgetId);
1071:Generated_Source\PSoC6/CapSense_Processing.c **** 
1072:Generated_Source\PSoC6/CapSense_Processing.c ****     /* Check if there are active sensors and update widget status accordingly */
1073:Generated_Source\PSoC6/CapSense_Processing.c ****     if (0u == sensorStatus)
1074:Generated_Source\PSoC6/CapSense_Processing.c ****     {
1075:Generated_Source\PSoC6/CapSense_Processing.c ****         CapSense_dsRam.wdgtStatus[wdStatusIndex] &= ~wdStatusMask;
1076:Generated_Source\PSoC6/CapSense_Processing.c ****     }
1077:Generated_Source\PSoC6/CapSense_Processing.c ****     else
1078:Generated_Source\PSoC6/CapSense_Processing.c ****     {
1079:Generated_Source\PSoC6/CapSense_Processing.c ****         CapSense_dsRam.wdgtStatus[wdStatusIndex] |= wdStatusMask;
1080:Generated_Source\PSoC6/CapSense_Processing.c ****     }
1081:Generated_Source\PSoC6/CapSense_Processing.c **** }
1082:Generated_Source\PSoC6/CapSense_Processing.c **** #endif /* #if (0u != CapSense_TOTAL_CSD_WIDGETS) */
1083:Generated_Source\PSoC6/CapSense_Processing.c **** 
1084:Generated_Source\PSoC6/CapSense_Processing.c **** 
1085:Generated_Source\PSoC6/CapSense_Processing.c **** #if (0 != (CapSense_CSD_AUTOTUNE & CapSense_CSD_SS_TH_EN))
1086:Generated_Source\PSoC6/CapSense_Processing.c **** /*******************************************************************************
1087:Generated_Source\PSoC6/CapSense_Processing.c **** * Function Name: CapSense_DpUpdateThresholds
1088:Generated_Source\PSoC6/CapSense_Processing.c **** ****************************************************************************//**
1089:Generated_Source\PSoC6/CapSense_Processing.c **** *
1090:Generated_Source\PSoC6/CapSense_Processing.c **** * \brief
1091:Generated_Source\PSoC6/CapSense_Processing.c **** *   Updates noise and finger thresholds for a specified widget.
1092:Generated_Source\PSoC6/CapSense_Processing.c **** *
1093:Generated_Source\PSoC6/CapSense_Processing.c **** * \details
1094:Generated_Source\PSoC6/CapSense_Processing.c **** *   Updates noise and finger thresholds for a specified widget.
1095:Generated_Source\PSoC6/CapSense_Processing.c **** *   This algorithm is a part of Auto-tuning feature.
1096:Generated_Source\PSoC6/CapSense_Processing.c **** *
1097:Generated_Source\PSoC6/CapSense_Processing.c **** * \param ptrRamWdgt       The pointer to the RAM widget object.
1098:Generated_Source\PSoC6/CapSense_Processing.c **** * \param ptrNoiseEnvelope The pointer to the noise-envelope object in RAM.
1099:Generated_Source\PSoC6/CapSense_Processing.c **** * \param startFlag        The flag indicates when new widget is processed.
1100:Generated_Source\PSoC6/CapSense_Processing.c **** *
1101:Generated_Source\PSoC6/CapSense_Processing.c **** *******************************************************************************/
1102:Generated_Source\PSoC6/CapSense_Processing.c **** void CapSense_DpUpdateThresholds(CapSense_RAM_WD_BASE_STRUCT *ptrRamWdgt,
1103:Generated_Source\PSoC6/CapSense_Processing.c ****                                          SMARTSENSE_CSD_NOISE_ENVELOPE_STRUCT *ptrNoiseEnvelope,
1104:Generated_Source\PSoC6/CapSense_Processing.c ****                                          uint32 startFlag)
1105:Generated_Source\PSoC6/CapSense_Processing.c **** {
 178              		.loc 1 1105 0
 179              		.cfi_startproc
 180              		@ args = 0, pretend = 0, frame = 8
 181              		@ frame_needed = 0, uses_anonymous_args = 0
 182              	.LVL24:
 183 0000 10B5     		push	{r4, lr}
 184              		.cfi_def_cfa_offset 8
 185              		.cfi_offset 4, -8
 186              		.cfi_offset 14, -4
 187 0002 82B0     		sub	sp, sp, #8
 188              		.cfi_def_cfa_offset 16
 189 0004 0446     		mov	r4, r0
 190 0006 0846     		mov	r0, r1
 191              	.LVL25:
1106:Generated_Source\PSoC6/CapSense_Processing.c ****     SMARTSENSE_UPDATE_THRESHOLDS_STRUCT thresholds;
1107:Generated_Source\PSoC6/CapSense_Processing.c ****     SMARTSENSE_UPDATE_THRESHOLDS_STRUCT *ptrThresholds = &thresholds;
1108:Generated_Source\PSoC6/CapSense_Processing.c ****     ptrThresholds->fingerTh = ptrRamWdgt->fingerTh;
 192              		.loc 1 1108 0
ARM GAS  C:\Users\Mahrukh\AppData\Local\Temp\ccgflWoc.s 			page 24


 193 0008 6388     		ldrh	r3, [r4, #2]
 194 000a 02A9     		add	r1, sp, #8
 195              	.LVL26:
 196 000c 21F8083D 		strh	r3, [r1, #-8]!	@ movhi
1109:Generated_Source\PSoC6/CapSense_Processing.c **** 
1110:Generated_Source\PSoC6/CapSense_Processing.c ****     SmartSense_UpdateThresholds(ptrNoiseEnvelope, ptrThresholds, ptrRamWdgt->sigPFC, startFlag);
 197              		.loc 1 1110 0
 198 0010 1346     		mov	r3, r2
 199 0012 228A     		ldrh	r2, [r4, #16]
 200              	.LVL27:
 201 0014 FFF7FEFF 		bl	SmartSense_UpdateThresholds
 202              	.LVL28:
1111:Generated_Source\PSoC6/CapSense_Processing.c **** 
1112:Generated_Source\PSoC6/CapSense_Processing.c ****     ptrRamWdgt->fingerTh = ptrThresholds->fingerTh;
 203              		.loc 1 1112 0
 204 0018 BDF80030 		ldrh	r3, [sp]
 205 001c 6380     		strh	r3, [r4, #2]	@ movhi
1113:Generated_Source\PSoC6/CapSense_Processing.c ****     ptrRamWdgt->noiseTh = ptrThresholds->noiseTh;
 206              		.loc 1 1113 0
 207 001e 9DF80230 		ldrb	r3, [sp, #2]	@ zero_extendqisi2
 208 0022 2371     		strb	r3, [r4, #4]
1114:Generated_Source\PSoC6/CapSense_Processing.c ****     ptrRamWdgt->nNoiseTh = ptrThresholds->nNoiseTh;
 209              		.loc 1 1114 0
 210 0024 9DF80330 		ldrb	r3, [sp, #3]	@ zero_extendqisi2
 211 0028 6371     		strb	r3, [r4, #5]
1115:Generated_Source\PSoC6/CapSense_Processing.c ****     ptrRamWdgt->hysteresis = ptrThresholds->hysteresis;
 212              		.loc 1 1115 0
 213 002a 9DF80430 		ldrb	r3, [sp, #4]	@ zero_extendqisi2
 214 002e A371     		strb	r3, [r4, #6]
1116:Generated_Source\PSoC6/CapSense_Processing.c **** }
 215              		.loc 1 1116 0
 216 0030 02B0     		add	sp, sp, #8
 217              		.cfi_def_cfa_offset 8
 218              	.LVL29:
 219              		@ sp needed
 220 0032 10BD     		pop	{r4, pc}
 221              		.cfi_endproc
 222              	.LFE140:
 223              		.size	CapSense_DpUpdateThresholds, .-CapSense_DpUpdateThresholds
 224              		.section	.text.CapSense_DpUpdateDifferences,"ax",%progbits
 225              		.align	2
 226              		.global	CapSense_DpUpdateDifferences
 227              		.thumb
 228              		.thumb_func
 229              		.type	CapSense_DpUpdateDifferences, %function
 230              	CapSense_DpUpdateDifferences:
 231              	.LFB141:
1117:Generated_Source\PSoC6/CapSense_Processing.c **** #endif /* #if (0u != (CapSense_CSD_AUTOTUNE & CapSense_CSD_SS_TH_EN)) */
1118:Generated_Source\PSoC6/CapSense_Processing.c **** 
1119:Generated_Source\PSoC6/CapSense_Processing.c **** 
1120:Generated_Source\PSoC6/CapSense_Processing.c **** /*******************************************************************************
1121:Generated_Source\PSoC6/CapSense_Processing.c **** * Function Name: CapSense_DpUpdateDifferences
1122:Generated_Source\PSoC6/CapSense_Processing.c **** ****************************************************************************//**
1123:Generated_Source\PSoC6/CapSense_Processing.c **** *
1124:Generated_Source\PSoC6/CapSense_Processing.c **** * \brief
1125:Generated_Source\PSoC6/CapSense_Processing.c **** *   Calculates new difference values.
1126:Generated_Source\PSoC6/CapSense_Processing.c **** *   Also, executes the multi-frequency scan algorithm if it is enabled.
ARM GAS  C:\Users\Mahrukh\AppData\Local\Temp\ccgflWoc.s 			page 25


1127:Generated_Source\PSoC6/CapSense_Processing.c **** *
1128:Generated_Source\PSoC6/CapSense_Processing.c **** * \details
1129:Generated_Source\PSoC6/CapSense_Processing.c **** *   This API calculates the difference between the baseline and raw counts.
1130:Generated_Source\PSoC6/CapSense_Processing.c **** *   If the difference is positive (raw > baseline), and higher than the widget
1131:Generated_Source\PSoC6/CapSense_Processing.c **** *   noise threshold, it is saved into the data structure for further processing.
1132:Generated_Source\PSoC6/CapSense_Processing.c **** *   Otherwise the difference is set to zero. The final difference value is saved
1133:Generated_Source\PSoC6/CapSense_Processing.c **** *   with the subtracted noise threshold value.
1134:Generated_Source\PSoC6/CapSense_Processing.c **** *
1135:Generated_Source\PSoC6/CapSense_Processing.c **** *   If the multi-frequency scan algorithm is enabled, the difference is calculated
1136:Generated_Source\PSoC6/CapSense_Processing.c **** *   for the three sets of data available for each sensor. Then
1137:Generated_Source\PSoC6/CapSense_Processing.c **** *   the median filter selects the final difference value.
1138:Generated_Source\PSoC6/CapSense_Processing.c **** *
1139:Generated_Source\PSoC6/CapSense_Processing.c **** * \param ptrRamWdgt The pointer to the RAR Widget Object.
1140:Generated_Source\PSoC6/CapSense_Processing.c **** * \param curSnsPtr  The pointer to the sensor object in RAM.
1141:Generated_Source\PSoC6/CapSense_Processing.c **** *
1142:Generated_Source\PSoC6/CapSense_Processing.c **** *******************************************************************************/
1143:Generated_Source\PSoC6/CapSense_Processing.c **** void CapSense_DpUpdateDifferences(
1144:Generated_Source\PSoC6/CapSense_Processing.c ****                         CapSense_RAM_WD_BASE_STRUCT *ptrRamWdgt,
1145:Generated_Source\PSoC6/CapSense_Processing.c ****                         CapSense_RAM_SNS_STRUCT *curSnsPtr)
1146:Generated_Source\PSoC6/CapSense_Processing.c **** {
 232              		.loc 1 1146 0
 233              		.cfi_startproc
 234              		@ args = 0, pretend = 0, frame = 0
 235              		@ frame_needed = 0, uses_anonymous_args = 0
 236              		@ link register save eliminated.
 237              	.LVL30:
 238 0000 30B4     		push	{r4, r5}
 239              		.cfi_def_cfa_offset 8
 240              		.cfi_offset 4, -8
 241              		.cfi_offset 5, -4
 242              	.LVL31:
1147:Generated_Source\PSoC6/CapSense_Processing.c ****     register int32 diffValue = 0;
1148:Generated_Source\PSoC6/CapSense_Processing.c **** 
1149:Generated_Source\PSoC6/CapSense_Processing.c ****     #if (0u != CapSense_MULTI_FREQ_SCAN_EN)
1150:Generated_Source\PSoC6/CapSense_Processing.c ****         register int32 diffValue_0 = 0;
1151:Generated_Source\PSoC6/CapSense_Processing.c ****         register int32 diffValue_2 = 0;
1152:Generated_Source\PSoC6/CapSense_Processing.c ****     #endif /* #if (0u != CapSense_MULTI_FREQ_SCAN_EN) */
1153:Generated_Source\PSoC6/CapSense_Processing.c **** 
1154:Generated_Source\PSoC6/CapSense_Processing.c ****     /* Calculate difference */
1155:Generated_Source\PSoC6/CapSense_Processing.c ****     diffValue = (int32)curSnsPtr->raw[0u] - (int32)curSnsPtr->bsln[0u];
 243              		.loc 1 1155 0
 244 0002 0B88     		ldrh	r3, [r1]
 245 0004 4A88     		ldrh	r2, [r1, #2]
 246 0006 9C1A     		subs	r4, r3, r2
 247              	.LVL32:
1156:Generated_Source\PSoC6/CapSense_Processing.c **** 
1157:Generated_Source\PSoC6/CapSense_Processing.c ****     #if (0u != CapSense_MULTI_FREQ_SCAN_EN)
1158:Generated_Source\PSoC6/CapSense_Processing.c ****         diffValue_0 = (int32)curSnsPtr->raw[1u] - (int32)curSnsPtr->bsln[1u];
1159:Generated_Source\PSoC6/CapSense_Processing.c ****         diffValue_2 = (int32)curSnsPtr->raw[2u] - (int32)curSnsPtr->bsln[2u];
1160:Generated_Source\PSoC6/CapSense_Processing.c **** 
1161:Generated_Source\PSoC6/CapSense_Processing.c ****         /* Find median and put it into [0u] element */
1162:Generated_Source\PSoC6/CapSense_Processing.c ****         if (diffValue_0 > diffValue)
1163:Generated_Source\PSoC6/CapSense_Processing.c ****         {
1164:Generated_Source\PSoC6/CapSense_Processing.c ****             register int32 swapv = diffValue_0;
1165:Generated_Source\PSoC6/CapSense_Processing.c ****             diffValue_0 = diffValue;
1166:Generated_Source\PSoC6/CapSense_Processing.c ****             diffValue = swapv;
1167:Generated_Source\PSoC6/CapSense_Processing.c ****         }
ARM GAS  C:\Users\Mahrukh\AppData\Local\Temp\ccgflWoc.s 			page 26


1168:Generated_Source\PSoC6/CapSense_Processing.c **** 
1169:Generated_Source\PSoC6/CapSense_Processing.c ****         if (diffValue > diffValue_2)
1170:Generated_Source\PSoC6/CapSense_Processing.c ****         {
1171:Generated_Source\PSoC6/CapSense_Processing.c ****             register int32 swapv = diffValue;
1172:Generated_Source\PSoC6/CapSense_Processing.c ****             diffValue = diffValue_2;
1173:Generated_Source\PSoC6/CapSense_Processing.c ****             diffValue_2 = swapv;
1174:Generated_Source\PSoC6/CapSense_Processing.c ****         }
1175:Generated_Source\PSoC6/CapSense_Processing.c **** 
1176:Generated_Source\PSoC6/CapSense_Processing.c ****         if (diffValue_0 > diffValue)
1177:Generated_Source\PSoC6/CapSense_Processing.c ****         {
1178:Generated_Source\PSoC6/CapSense_Processing.c ****             register int32 swapv = diffValue_0;
1179:Generated_Source\PSoC6/CapSense_Processing.c ****             diffValue_0 = diffValue;
1180:Generated_Source\PSoC6/CapSense_Processing.c ****             diffValue = swapv;
1181:Generated_Source\PSoC6/CapSense_Processing.c ****         }
1182:Generated_Source\PSoC6/CapSense_Processing.c ****     #endif /* #if (0u != CapSense_MULTI_FREQ_SCAN_EN) */
1183:Generated_Source\PSoC6/CapSense_Processing.c **** 
1184:Generated_Source\PSoC6/CapSense_Processing.c ****     curSnsPtr->diff = 0u;
 248              		.loc 1 1184 0
 249 0008 0025     		movs	r5, #0
 250 000a CD80     		strh	r5, [r1, #6]	@ movhi
1185:Generated_Source\PSoC6/CapSense_Processing.c **** 
1186:Generated_Source\PSoC6/CapSense_Processing.c ****     if (diffValue > (int32)ptrRamWdgt->noiseTh)
 251              		.loc 1 1186 0
 252 000c 0079     		ldrb	r0, [r0, #4]	@ zero_extendqisi2
 253              	.LVL33:
 254 000e 8442     		cmp	r4, r0
 255 0010 00DD     		ble	.L19
1187:Generated_Source\PSoC6/CapSense_Processing.c ****     {
1188:Generated_Source\PSoC6/CapSense_Processing.c ****         curSnsPtr->diff = (CapSense_THRESHOLD_TYPE) diffValue;
 256              		.loc 1 1188 0
 257 0012 CC80     		strh	r4, [r1, #6]	@ movhi
 258              	.L19:
1189:Generated_Source\PSoC6/CapSense_Processing.c ****     }
1190:Generated_Source\PSoC6/CapSense_Processing.c **** }
 259              		.loc 1 1190 0
 260 0014 30BC     		pop	{r4, r5}
 261              		.cfi_restore 5
 262              		.cfi_restore 4
 263              		.cfi_def_cfa_offset 0
 264              	.LVL34:
 265 0016 7047     		bx	lr
 266              		.cfi_endproc
 267              	.LFE141:
 268              		.size	CapSense_DpUpdateDifferences, .-CapSense_DpUpdateDifferences
 269              		.section	.text.CapSense_DpProcessCsxWidgetRawCounts,"ax",%progbits
 270              		.align	2
 271              		.global	CapSense_DpProcessCsxWidgetRawCounts
 272              		.thumb
 273              		.thumb_func
 274              		.type	CapSense_DpProcessCsxWidgetRawCounts, %function
 275              	CapSense_DpProcessCsxWidgetRawCounts:
 276              	.LFB134:
 555:Generated_Source\PSoC6/CapSense_Processing.c ****     uint32 result = CY_RET_SUCCESS;
 277              		.loc 1 555 0
 278              		.cfi_startproc
 279              		@ args = 0, pretend = 0, frame = 0
 280              		@ frame_needed = 0, uses_anonymous_args = 0
ARM GAS  C:\Users\Mahrukh\AppData\Local\Temp\ccgflWoc.s 			page 27


 281              	.LVL35:
 282 0000 2DE9F041 		push	{r4, r5, r6, r7, r8, lr}
 283              		.cfi_def_cfa_offset 24
 284              		.cfi_offset 4, -24
 285              		.cfi_offset 5, -20
 286              		.cfi_offset 6, -16
 287              		.cfi_offset 7, -12
 288              		.cfi_offset 8, -8
 289              		.cfi_offset 14, -4
 290              	.LVL36:
 568:Generated_Source\PSoC6/CapSense_Processing.c ****     snsCount = ptrFlashWdgt->totalNumSns;
 291              		.loc 1 568 0
 292 0004 8468     		ldr	r4, [r0, #8]
 293              	.LVL37:
 569:Generated_Source\PSoC6/CapSense_Processing.c ****     ptrRamWdgt = (CapSense_RAM_WD_BASE_STRUCT *)ptrFlashWdgt->ptr2WdgtRam;
 294              		.loc 1 569 0
 295 0006 038B     		ldrh	r3, [r0, #24]
 296              	.LVL38:
 570:Generated_Source\PSoC6/CapSense_Processing.c ****     widgetType = ptrFlashWdgt->wdgtType;
 297              		.loc 1 570 0
 298 0008 4568     		ldr	r5, [r0, #4]
 299              	.LVL39:
 571:Generated_Source\PSoC6/CapSense_Processing.c **** 
 300              		.loc 1 571 0
 301 000a 90F81A80 		ldrb	r8, [r0, #26]	@ zero_extendqisi2
 302              	.LVL40:
 556:Generated_Source\PSoC6/CapSense_Processing.c ****     uint32 widgetType;
 303              		.loc 1 556 0
 304 000e 0027     		movs	r7, #0
 581:Generated_Source\PSoC6/CapSense_Processing.c ****     {
 305              		.loc 1 581 0
 306 0010 0BE0     		b	.L23
 307              	.LVL41:
 308              	.L24:
 590:Generated_Source\PSoC6/CapSense_Processing.c **** 
 309              		.loc 1 590 0
 310 0012 4246     		mov	r2, r8
 311 0014 2146     		mov	r1, r4
 312 0016 2846     		mov	r0, r5
 313 0018 FFF7FEFF 		bl	CapSense_FtUpdateBaseline
 314              	.LVL42:
 315 001c 0746     		mov	r7, r0
 316              	.LVL43:
 599:Generated_Source\PSoC6/CapSense_Processing.c **** 
 317              		.loc 1 599 0
 318 001e 2146     		mov	r1, r4
 319 0020 2846     		mov	r0, r5
 320              	.LVL44:
 321 0022 FFF7FEFF 		bl	CapSense_DpUpdateDifferences
 322              	.LVL45:
 602:Generated_Source\PSoC6/CapSense_Processing.c ****         
 323              		.loc 1 602 0
 324 0026 0A34     		adds	r4, r4, #10
 325              	.LVL46:
 581:Generated_Source\PSoC6/CapSense_Processing.c ****     {
 326              		.loc 1 581 0
 327 0028 3346     		mov	r3, r6
ARM GAS  C:\Users\Mahrukh\AppData\Local\Temp\ccgflWoc.s 			page 28


 328              	.LVL47:
 329              	.L23:
 330 002a 5E1E     		subs	r6, r3, #1
 331              	.LVL48:
 332 002c 002B     		cmp	r3, #0
 333 002e F0D1     		bne	.L24
 609:Generated_Source\PSoC6/CapSense_Processing.c **** 
 334              		.loc 1 609 0
 335 0030 3846     		mov	r0, r7
 336 0032 BDE8F081 		pop	{r4, r5, r6, r7, r8, pc}
 337              		.cfi_endproc
 338              	.LFE134:
 339              		.size	CapSense_DpProcessCsxWidgetRawCounts, .-CapSense_DpProcessCsxWidgetRawCounts
 340 0036 00BF     		.section	.text.CapSense_DpProcessCsxSensorRawCountsExt,"ax",%progbits
 341              		.align	2
 342              		.global	CapSense_DpProcessCsxSensorRawCountsExt
 343              		.thumb
 344              		.thumb_func
 345              		.type	CapSense_DpProcessCsxSensorRawCountsExt, %function
 346              	CapSense_DpProcessCsxSensorRawCountsExt:
 347              	.LFB135:
 647:Generated_Source\PSoC6/CapSense_Processing.c ****     uint32  result = CY_RET_SUCCESS;
 348              		.loc 1 647 0
 349              		.cfi_startproc
 350              		@ args = 0, pretend = 0, frame = 0
 351              		@ frame_needed = 0, uses_anonymous_args = 0
 352              	.LVL49:
 353 0000 F8B5     		push	{r3, r4, r5, r6, r7, lr}
 354              		.cfi_def_cfa_offset 24
 355              		.cfi_offset 3, -24
 356              		.cfi_offset 4, -20
 357              		.cfi_offset 5, -16
 358              		.cfi_offset 6, -12
 359              		.cfi_offset 7, -8
 360              		.cfi_offset 14, -4
 361 0002 0F46     		mov	r7, r1
 362 0004 1C46     		mov	r4, r3
 363              	.LVL50:
 652:Generated_Source\PSoC6/CapSense_Processing.c ****     ptrRamWdgt = (CapSense_RAM_WD_BASE_STRUCT *)ptrFlashWdgt->ptr2WdgtRam;
 364              		.loc 1 652 0
 365 0006 827E     		ldrb	r2, [r0, #26]	@ zero_extendqisi2
 366              	.LVL51:
 653:Generated_Source\PSoC6/CapSense_Processing.c **** 
 367              		.loc 1 653 0
 368 0008 4668     		ldr	r6, [r0, #4]
 369              	.LVL52:
 667:Generated_Source\PSoC6/CapSense_Processing.c ****     {
 370              		.loc 1 667 0
 371 000a 13F0020F 		tst	r3, #2
 372 000e 04D0     		beq	.L29
 669:Generated_Source\PSoC6/CapSense_Processing.c ****     }
 373              		.loc 1 669 0
 374 0010 3046     		mov	r0, r6
 375              	.LVL53:
 376 0012 FFF7FEFF 		bl	CapSense_FtUpdateBaseline
 377              	.LVL54:
 378 0016 0546     		mov	r5, r0
ARM GAS  C:\Users\Mahrukh\AppData\Local\Temp\ccgflWoc.s 			page 29


 379              	.LVL55:
 380 0018 00E0     		b	.L27
 381              	.LVL56:
 382              	.L29:
 648:Generated_Source\PSoC6/CapSense_Processing.c ****     uint32  widgetType;
 383              		.loc 1 648 0
 384 001a 0025     		movs	r5, #0
 385              	.LVL57:
 386              	.L27:
 672:Generated_Source\PSoC6/CapSense_Processing.c ****     {
 387              		.loc 1 672 0
 388 001c 14F0040F 		tst	r4, #4
 389 0020 03D0     		beq	.L28
 674:Generated_Source\PSoC6/CapSense_Processing.c ****     }
 390              		.loc 1 674 0
 391 0022 3946     		mov	r1, r7
 392 0024 3046     		mov	r0, r6
 393 0026 FFF7FEFF 		bl	CapSense_DpUpdateDifferences
 394              	.LVL58:
 395              	.L28:
 677:Generated_Source\PSoC6/CapSense_Processing.c **** 
 396              		.loc 1 677 0
 397 002a 2846     		mov	r0, r5
 398 002c F8BD     		pop	{r3, r4, r5, r6, r7, pc}
 399              		.cfi_endproc
 400              	.LFE135:
 401              		.size	CapSense_DpProcessCsxSensorRawCountsExt, .-CapSense_DpProcessCsxSensorRawCountsExt
 402 002e 00BF     		.section	.text.CapSense_DpProcessCsdWidgetRawCounts,"ax",%progbits
 403              		.align	2
 404              		.global	CapSense_DpProcessCsdWidgetRawCounts
 405              		.thumb
 406              		.thumb_func
 407              		.type	CapSense_DpProcessCsdWidgetRawCounts, %function
 408              	CapSense_DpProcessCsdWidgetRawCounts:
 409              	.LFB137:
 786:Generated_Source\PSoC6/CapSense_Processing.c ****     uint32  result = CY_RET_SUCCESS;
 410              		.loc 1 786 0
 411              		.cfi_startproc
 412              		@ args = 0, pretend = 0, frame = 0
 413              		@ frame_needed = 0, uses_anonymous_args = 0
 414              	.LVL59:
 415 0000 2DE9F047 		push	{r4, r5, r6, r7, r8, r9, r10, lr}
 416              		.cfi_def_cfa_offset 32
 417              		.cfi_offset 4, -32
 418              		.cfi_offset 5, -28
 419              		.cfi_offset 6, -24
 420              		.cfi_offset 7, -20
 421              		.cfi_offset 8, -16
 422              		.cfi_offset 9, -12
 423              		.cfi_offset 10, -8
 424              		.cfi_offset 14, -4
 425 0004 8046     		mov	r8, r0
 426              	.LVL60:
 816:Generated_Source\PSoC6/CapSense_Processing.c ****     ptrRamWdgt = (CapSense_RAM_WD_BASE_STRUCT *)ptrFlashWdgt->ptr2WdgtRam;
 427              		.loc 1 816 0
 428 0006 8468     		ldr	r4, [r0, #8]
 429              	.LVL61:
ARM GAS  C:\Users\Mahrukh\AppData\Local\Temp\ccgflWoc.s 			page 30


 817:Generated_Source\PSoC6/CapSense_Processing.c ****     widgetType = ptrFlashWdgt->wdgtType;
 430              		.loc 1 817 0
 431 0008 4768     		ldr	r7, [r0, #4]
 432              	.LVL62:
 818:Generated_Source\PSoC6/CapSense_Processing.c **** 
 433              		.loc 1 818 0
 434 000a 90F81AA0 		ldrb	r10, [r0, #26]	@ zero_extendqisi2
 435              	.LVL63:
 821:Generated_Source\PSoC6/CapSense_Processing.c ****     #endif /* #if (0u != (CapSense_CSD_AUTOTUNE & CapSense_CSD_SS_TH_EN)) */
 436              		.loc 1 821 0
 437 000e 466A     		ldr	r6, [r0, #36]
 438              	.LVL64:
 825:Generated_Source\PSoC6/CapSense_Processing.c ****     {
 439              		.loc 1 825 0
 440 0010 0025     		movs	r5, #0
 787:Generated_Source\PSoC6/CapSense_Processing.c **** 
 441              		.loc 1 787 0
 442 0012 A946     		mov	r9, r5
 825:Generated_Source\PSoC6/CapSense_Processing.c ****     {
 443              		.loc 1 825 0
 444 0014 16E0     		b	.L32
 445              	.LVL65:
 446              	.L33:
 837:Generated_Source\PSoC6/CapSense_Processing.c ****             CapSense_DpUpdateThresholds(ptrRamWdgt, ptrNoiseEnvelope, snsId);
 447              		.loc 1 837 0 discriminator 3
 448 0016 3246     		mov	r2, r6
 449 0018 398A     		ldrh	r1, [r7, #16]
 450 001a 2088     		ldrh	r0, [r4]
 451 001c FFF7FEFF 		bl	SmartSense_RunNoiseEnvelope
 452              	.LVL66:
 838:Generated_Source\PSoC6/CapSense_Processing.c **** 
 453              		.loc 1 838 0 discriminator 3
 454 0020 2A46     		mov	r2, r5
 455 0022 3146     		mov	r1, r6
 456 0024 3846     		mov	r0, r7
 457 0026 FFF7FEFF 		bl	CapSense_DpUpdateThresholds
 458              	.LVL67:
 855:Generated_Source\PSoC6/CapSense_Processing.c ****         #endif /* (0u != (CapSense_CSD_AUTOTUNE & CapSense_CSD_SS_TH_EN)) */
 459              		.loc 1 855 0 discriminator 3
 460 002a 0C36     		adds	r6, r6, #12
 461              	.LVL68:
 865:Generated_Source\PSoC6/CapSense_Processing.c ****         #endif /* (CapSense_ENABLE == CapSense_TST_BSLN_DUPLICATION_EN) */
 462              		.loc 1 865 0 discriminator 3
 463 002c 5246     		mov	r2, r10
 464 002e 2146     		mov	r1, r4
 465 0030 3846     		mov	r0, r7
 466 0032 FFF7FEFF 		bl	CapSense_FtUpdateBaseline
 467              	.LVL69:
 468 0036 8146     		mov	r9, r0
 469              	.LVL70:
 868:Generated_Source\PSoC6/CapSense_Processing.c **** 
 470              		.loc 1 868 0 discriminator 3
 471 0038 2146     		mov	r1, r4
 472 003a 3846     		mov	r0, r7
 473              	.LVL71:
 474 003c FFF7FEFF 		bl	CapSense_DpUpdateDifferences
 475              	.LVL72:
ARM GAS  C:\Users\Mahrukh\AppData\Local\Temp\ccgflWoc.s 			page 31


 871:Generated_Source\PSoC6/CapSense_Processing.c **** 
 476              		.loc 1 871 0 discriminator 3
 477 0040 0A34     		adds	r4, r4, #10
 478              	.LVL73:
 825:Generated_Source\PSoC6/CapSense_Processing.c ****     {
 479              		.loc 1 825 0 discriminator 3
 480 0042 0135     		adds	r5, r5, #1
 481              	.LVL74:
 482              	.L32:
 825:Generated_Source\PSoC6/CapSense_Processing.c ****     {
 483              		.loc 1 825 0 is_stmt 0 discriminator 1
 484 0044 B8F81830 		ldrh	r3, [r8, #24]
 485 0048 9D42     		cmp	r5, r3
 486 004a E4D3     		bcc	.L33
 879:Generated_Source\PSoC6/CapSense_Processing.c **** 
 487              		.loc 1 879 0 is_stmt 1
 488 004c 4846     		mov	r0, r9
 489 004e BDE8F087 		pop	{r4, r5, r6, r7, r8, r9, r10, pc}
 490              		.cfi_endproc
 491              	.LFE137:
 492              		.size	CapSense_DpProcessCsdWidgetRawCounts, .-CapSense_DpProcessCsdWidgetRawCounts
 493 0052 00BF     		.section	.text.CapSense_DpProcessCsdSensorRawCountsExt,"ax",%progbits
 494              		.align	2
 495              		.global	CapSense_DpProcessCsdSensorRawCountsExt
 496              		.thumb
 497              		.thumb_func
 498              		.type	CapSense_DpProcessCsdSensorRawCountsExt, %function
 499              	CapSense_DpProcessCsdSensorRawCountsExt:
 500              	.LFB138:
 920:Generated_Source\PSoC6/CapSense_Processing.c ****     uint32 result = CY_RET_SUCCESS;
 501              		.loc 1 920 0
 502              		.cfi_startproc
 503              		@ args = 0, pretend = 0, frame = 0
 504              		@ frame_needed = 0, uses_anonymous_args = 0
 505              	.LVL75:
 506 0000 2DE9F041 		push	{r4, r5, r6, r7, r8, lr}
 507              		.cfi_def_cfa_offset 24
 508              		.cfi_offset 4, -24
 509              		.cfi_offset 5, -20
 510              		.cfi_offset 6, -16
 511              		.cfi_offset 7, -12
 512              		.cfi_offset 8, -8
 513              		.cfi_offset 14, -4
 514 0004 0F46     		mov	r7, r1
 515 0006 1C46     		mov	r4, r3
 516              	.LVL76:
 932:Generated_Source\PSoC6/CapSense_Processing.c ****     #endif /* (0u != (CapSense_CSD_AUTOTUNE & CapSense_CSD_SS_TH_EN)) */
 517              		.loc 1 932 0
 518 0008 466A     		ldr	r6, [r0, #36]
 519              	.LVL77:
 935:Generated_Source\PSoC6/CapSense_Processing.c ****     ptrRamWdgt = (CapSense_RAM_WD_BASE_STRUCT *)ptrFlashWdgt->ptr2WdgtRam;
 520              		.loc 1 935 0
 521 000a 90F81A80 		ldrb	r8, [r0, #26]	@ zero_extendqisi2
 522              	.LVL78:
 936:Generated_Source\PSoC6/CapSense_Processing.c **** 
 523              		.loc 1 936 0
 524 000e 4568     		ldr	r5, [r0, #4]
ARM GAS  C:\Users\Mahrukh\AppData\Local\Temp\ccgflWoc.s 			page 32


 525              	.LVL79:
 951:Generated_Source\PSoC6/CapSense_Processing.c ****         {
 526              		.loc 1 951 0
 527 0010 13F0080F 		tst	r3, #8
 528 0014 04D0     		beq	.L36
 953:Generated_Source\PSoC6/CapSense_Processing.c ****         }
 529              		.loc 1 953 0
 530 0016 3246     		mov	r2, r6
 531              	.LVL80:
 532 0018 298A     		ldrh	r1, [r5, #16]
 533              	.LVL81:
 534 001a 3888     		ldrh	r0, [r7]
 535              	.LVL82:
 536 001c FFF7FEFF 		bl	SmartSense_RunNoiseEnvelope
 537              	.LVL83:
 538              	.L36:
 956:Generated_Source\PSoC6/CapSense_Processing.c ****         {
 539              		.loc 1 956 0
 540 0020 14F0100F 		tst	r4, #16
 541 0024 04D0     		beq	.L37
 958:Generated_Source\PSoC6/CapSense_Processing.c **** 
 542              		.loc 1 958 0
 543 0026 0022     		movs	r2, #0
 544              	.LVL84:
 545 0028 3146     		mov	r1, r6
 546 002a 2846     		mov	r0, r5
 547 002c FFF7FEFF 		bl	CapSense_DpUpdateThresholds
 548              	.LVL85:
 549              	.L37:
 976:Generated_Source\PSoC6/CapSense_Processing.c ****     {
 550              		.loc 1 976 0
 551 0030 14F0020F 		tst	r4, #2
 552 0034 06D0     		beq	.L40
 978:Generated_Source\PSoC6/CapSense_Processing.c ****     }
 553              		.loc 1 978 0
 554 0036 4246     		mov	r2, r8
 555              	.LVL86:
 556 0038 3946     		mov	r1, r7
 557 003a 2846     		mov	r0, r5
 558 003c FFF7FEFF 		bl	CapSense_FtUpdateBaseline
 559              	.LVL87:
 560 0040 0646     		mov	r6, r0
 561              	.LVL88:
 562 0042 00E0     		b	.L38
 563              	.LVL89:
 564              	.L40:
 921:Generated_Source\PSoC6/CapSense_Processing.c ****     uint32  widgetType;
 565              		.loc 1 921 0
 566 0044 0026     		movs	r6, #0
 567              	.LVL90:
 568              	.L38:
 981:Generated_Source\PSoC6/CapSense_Processing.c ****     {
 569              		.loc 1 981 0
 570 0046 14F0040F 		tst	r4, #4
 571 004a 03D0     		beq	.L39
 983:Generated_Source\PSoC6/CapSense_Processing.c ****     }
 572              		.loc 1 983 0
ARM GAS  C:\Users\Mahrukh\AppData\Local\Temp\ccgflWoc.s 			page 33


 573 004c 3946     		mov	r1, r7
 574 004e 2846     		mov	r0, r5
 575 0050 FFF7FEFF 		bl	CapSense_DpUpdateDifferences
 576              	.LVL91:
 577              	.L39:
 986:Generated_Source\PSoC6/CapSense_Processing.c **** 
 578              		.loc 1 986 0
 579 0054 3046     		mov	r0, r6
 580 0056 BDE8F081 		pop	{r4, r5, r6, r7, r8, pc}
 581              		.cfi_endproc
 582              	.LFE138:
 583              		.size	CapSense_DpProcessCsdSensorRawCountsExt, .-CapSense_DpProcessCsdSensorRawCountsExt
 584 005a 00BF     		.section	.text.CapSense_DpProcessButton,"ax",%progbits
 585              		.align	2
 586              		.global	CapSense_DpProcessButton
 587              		.thumb
 588              		.thumb_func
 589              		.type	CapSense_DpProcessButton, %function
 590              	CapSense_DpProcessButton:
 591              	.LFB142:
1191:Generated_Source\PSoC6/CapSense_Processing.c **** 
1192:Generated_Source\PSoC6/CapSense_Processing.c **** 
1193:Generated_Source\PSoC6/CapSense_Processing.c **** #if ((0u != CapSense_BUTTON_WIDGET_EN) || (0u != CapSense_CSX_MATRIX_WIDGET_EN))
1194:Generated_Source\PSoC6/CapSense_Processing.c **** /*******************************************************************************
1195:Generated_Source\PSoC6/CapSense_Processing.c **** * Function Name: CapSense_DpProcessButton
1196:Generated_Source\PSoC6/CapSense_Processing.c **** ****************************************************************************//**
1197:Generated_Source\PSoC6/CapSense_Processing.c **** *
1198:Generated_Source\PSoC6/CapSense_Processing.c **** * \brief
1199:Generated_Source\PSoC6/CapSense_Processing.c **** *   Processes the status of the Button widget.
1200:Generated_Source\PSoC6/CapSense_Processing.c **** *
1201:Generated_Source\PSoC6/CapSense_Processing.c **** * \details
1202:Generated_Source\PSoC6/CapSense_Processing.c **** *   This API processes the status of the CSD/CSX Button widget and
1203:Generated_Source\PSoC6/CapSense_Processing.c **** *   CSX Matrix Button widget. It applies the hysteresis and de-bounce algorithm
1204:Generated_Source\PSoC6/CapSense_Processing.c **** *   to each sensor difference value. This API is expected to be called
1205:Generated_Source\PSoC6/CapSense_Processing.c **** *   after each new widget scan. If it is called multiple times for the same
1206:Generated_Source\PSoC6/CapSense_Processing.c **** *   scan data, the de-bounce algorithm will not work properly.
1207:Generated_Source\PSoC6/CapSense_Processing.c **** *
1208:Generated_Source\PSoC6/CapSense_Processing.c **** *   This API does not update any Data Structure registers
1209:Generated_Source\PSoC6/CapSense_Processing.c **** *   except the de-bounce counters.
1210:Generated_Source\PSoC6/CapSense_Processing.c **** *
1211:Generated_Source\PSoC6/CapSense_Processing.c **** * \param currStatus   The current status of the widget sensors.
1212:Generated_Source\PSoC6/CapSense_Processing.c **** * \param ptrFlashWdgt The pointer to the Flash Widget Object.
1213:Generated_Source\PSoC6/CapSense_Processing.c **** *
1214:Generated_Source\PSoC6/CapSense_Processing.c **** * \return Returns the status of the widget's sensors. Bit #0 - corresponds to Sensor #0.
1215:Generated_Source\PSoC6/CapSense_Processing.c **** *
1216:Generated_Source\PSoC6/CapSense_Processing.c **** *******************************************************************************/
1217:Generated_Source\PSoC6/CapSense_Processing.c **** uint32 CapSense_DpProcessButton(uint32 currStatus, CapSense_FLASH_WD_STRUCT const *ptrFlashWdgt)
1218:Generated_Source\PSoC6/CapSense_Processing.c **** {
 592              		.loc 1 1218 0
 593              		.cfi_startproc
 594              		@ args = 0, pretend = 0, frame = 0
 595              		@ frame_needed = 0, uses_anonymous_args = 0
 596              	.LVL92:
 597 0000 F0B5     		push	{r4, r5, r6, r7, lr}
 598              		.cfi_def_cfa_offset 20
 599              		.cfi_offset 4, -20
 600              		.cfi_offset 5, -16
ARM GAS  C:\Users\Mahrukh\AppData\Local\Temp\ccgflWoc.s 			page 34


 601              		.cfi_offset 6, -12
 602              		.cfi_offset 7, -8
 603              		.cfi_offset 14, -4
1219:Generated_Source\PSoC6/CapSense_Processing.c ****     uint32 snsCnt;
1220:Generated_Source\PSoC6/CapSense_Processing.c ****     uint32 snsMask;
1221:Generated_Source\PSoC6/CapSense_Processing.c ****     uint32 newStatus;
1222:Generated_Source\PSoC6/CapSense_Processing.c ****     uint32 touchTh;
1223:Generated_Source\PSoC6/CapSense_Processing.c ****     CapSense_RAM_SNS_STRUCT *ptrSnsTmp;
1224:Generated_Source\PSoC6/CapSense_Processing.c ****     CapSense_RAM_WD_BASE_STRUCT *ptrRamWdgt;
1225:Generated_Source\PSoC6/CapSense_Processing.c ****     uint8 * ptrDebounceCnt;
1226:Generated_Source\PSoC6/CapSense_Processing.c **** 
1227:Generated_Source\PSoC6/CapSense_Processing.c ****     snsCnt = ptrFlashWdgt->totalNumSns;
 604              		.loc 1 1227 0
 605 0002 0C8B     		ldrh	r4, [r1, #24]
 606              	.LVL93:
1228:Generated_Source\PSoC6/CapSense_Processing.c ****     ptrSnsTmp = ptrFlashWdgt->ptr2SnsRam;
 607              		.loc 1 1228 0
 608 0004 8D68     		ldr	r5, [r1, #8]
 609              	.LVL94:
1229:Generated_Source\PSoC6/CapSense_Processing.c ****     ptrRamWdgt = (CapSense_RAM_WD_BASE_STRUCT *)ptrFlashWdgt->ptr2WdgtRam;
 610              		.loc 1 1229 0
 611 0006 4F68     		ldr	r7, [r1, #4]
 612              	.LVL95:
1230:Generated_Source\PSoC6/CapSense_Processing.c ****     ptrDebounceCnt = ptrFlashWdgt->ptr2DebounceArr;
 613              		.loc 1 1230 0
 614 0008 0A69     		ldr	r2, [r1, #16]
 615              	.LVL96:
1231:Generated_Source\PSoC6/CapSense_Processing.c **** 
1232:Generated_Source\PSoC6/CapSense_Processing.c ****     /* Go through all widget's sensors */
1233:Generated_Source\PSoC6/CapSense_Processing.c ****     snsMask = 1Lu;
 616              		.loc 1 1233 0
 617 000a 0123     		movs	r3, #1
1234:Generated_Source\PSoC6/CapSense_Processing.c ****     for (; snsCnt-- > 0u; )
 618              		.loc 1 1234 0
 619 000c 24E0     		b	.L43
 620              	.LVL97:
 621              	.L51:
1235:Generated_Source\PSoC6/CapSense_Processing.c ****     {
1236:Generated_Source\PSoC6/CapSense_Processing.c ****         /* Calculate touch threshold taking into account hysteresis
1237:Generated_Source\PSoC6/CapSense_Processing.c ****            and current sensor state. */
1238:Generated_Source\PSoC6/CapSense_Processing.c ****         touchTh = (0u == (currStatus & snsMask)) ?
1239:Generated_Source\PSoC6/CapSense_Processing.c ****                   ((uint32)ptrRamWdgt->fingerTh + ptrRamWdgt->hysteresis) :
 622              		.loc 1 1239 0
 623 000e 10EA0304 		ands	r4, r0, r3
 624 0012 03D1     		bne	.L44
 625              		.loc 1 1239 0 is_stmt 0 discriminator 1
 626 0014 7E88     		ldrh	r6, [r7, #2]
 627 0016 B979     		ldrb	r1, [r7, #6]	@ zero_extendqisi2
 628 0018 3144     		add	r1, r1, r6
 629 001a 02E0     		b	.L45
 630              	.L44:
1240:Generated_Source\PSoC6/CapSense_Processing.c ****                   ((uint32)ptrRamWdgt->fingerTh - ptrRamWdgt->hysteresis);
 631              		.loc 1 1240 0 is_stmt 1 discriminator 2
 632 001c 7988     		ldrh	r1, [r7, #2]
 633 001e BE79     		ldrb	r6, [r7, #6]	@ zero_extendqisi2
1239:Generated_Source\PSoC6/CapSense_Processing.c ****                   ((uint32)ptrRamWdgt->fingerTh - ptrRamWdgt->hysteresis);
 634              		.loc 1 1239 0 discriminator 2
ARM GAS  C:\Users\Mahrukh\AppData\Local\Temp\ccgflWoc.s 			page 35


 635 0020 891B     		subs	r1, r1, r6
 636              	.L45:
 637              	.LVL98:
1241:Generated_Source\PSoC6/CapSense_Processing.c **** 
1242:Generated_Source\PSoC6/CapSense_Processing.c ****         /* Determine new potential sensor state */
1243:Generated_Source\PSoC6/CapSense_Processing.c ****         newStatus = (ptrSnsTmp->diff > touchTh) ? snsMask : 0u;
 638              		.loc 1 1243 0
 639 0022 EE88     		ldrh	r6, [r5, #6]
 640 0024 B142     		cmp	r1, r6
 641 0026 01D3     		bcc	.L52
 642 0028 0021     		movs	r1, #0
 643              	.LVL99:
 644 002a 00E0     		b	.L46
 645              	.LVL100:
 646              	.L52:
 647 002c 1946     		mov	r1, r3
 648              	.LVL101:
 649              	.L46:
1244:Generated_Source\PSoC6/CapSense_Processing.c **** 
1245:Generated_Source\PSoC6/CapSense_Processing.c ****         /* Sensor state changed ? */
1246:Generated_Source\PSoC6/CapSense_Processing.c ****         if (newStatus != (currStatus & snsMask))
 650              		.loc 1 1246 0 discriminator 4
 651 002e A142     		cmp	r1, r4
 652 0030 02D0     		beq	.L47
1247:Generated_Source\PSoC6/CapSense_Processing.c ****         {
1248:Generated_Source\PSoC6/CapSense_Processing.c ****             /* Decrement de-bounce counter */
1249:Generated_Source\PSoC6/CapSense_Processing.c ****             (*ptrDebounceCnt)--;
 653              		.loc 1 1249 0
 654 0032 1678     		ldrb	r6, [r2]	@ zero_extendqisi2
 655 0034 013E     		subs	r6, r6, #1
 656 0036 1670     		strb	r6, [r2]
 657              	.L47:
1250:Generated_Source\PSoC6/CapSense_Processing.c ****         }
1251:Generated_Source\PSoC6/CapSense_Processing.c **** 
1252:Generated_Source\PSoC6/CapSense_Processing.c ****         /*
1253:Generated_Source\PSoC6/CapSense_Processing.c ****         *  This piece of code has two objectives:
1254:Generated_Source\PSoC6/CapSense_Processing.c ****         *  1. Reset de-bounce counter if the sensor state did not change.
1255:Generated_Source\PSoC6/CapSense_Processing.c ****         *     (It is possible that during previous processing cycles sensor
1256:Generated_Source\PSoC6/CapSense_Processing.c ****         *     was active and de-bounce counter was decremented.)
1257:Generated_Source\PSoC6/CapSense_Processing.c ****         *  2. Set new sensor state after successful de-bounce.
1258:Generated_Source\PSoC6/CapSense_Processing.c ****         */
1259:Generated_Source\PSoC6/CapSense_Processing.c ****         if ((newStatus == (currStatus & snsMask)) || (0u == (*ptrDebounceCnt)))
 658              		.loc 1 1259 0
 659 0038 A142     		cmp	r1, r4
 660 003a 01D0     		beq	.L48
 661              		.loc 1 1259 0 is_stmt 0 discriminator 1
 662 003c 1478     		ldrb	r4, [r2]	@ zero_extendqisi2
 663 003e 3CB9     		cbnz	r4, .L49
 664              	.L48:
1260:Generated_Source\PSoC6/CapSense_Processing.c ****         {
1261:Generated_Source\PSoC6/CapSense_Processing.c ****             /* Set new sensor status */
1262:Generated_Source\PSoC6/CapSense_Processing.c ****             currStatus &= ~snsMask;
 665              		.loc 1 1262 0 is_stmt 1
 666 0040 20EA0300 		bic	r0, r0, r3
 667              	.LVL102:
1263:Generated_Source\PSoC6/CapSense_Processing.c ****             currStatus |= newStatus;
 668              		.loc 1 1263 0
ARM GAS  C:\Users\Mahrukh\AppData\Local\Temp\ccgflWoc.s 			page 36


 669 0044 0843     		orrs	r0, r0, r1
 670              	.LVL103:
1264:Generated_Source\PSoC6/CapSense_Processing.c **** 
1265:Generated_Source\PSoC6/CapSense_Processing.c ****             /* Reset de-bounce counter */
1266:Generated_Source\PSoC6/CapSense_Processing.c ****             #if (0u != CapSense_OFF_DEBOUNCE_EN)
1267:Generated_Source\PSoC6/CapSense_Processing.c ****                 *ptrDebounceCnt = (0Lu == newStatus) ? ptrRamWdgt->onDebounce : ptrRamWdgt->offDebo
1268:Generated_Source\PSoC6/CapSense_Processing.c ****             #else
1269:Generated_Source\PSoC6/CapSense_Processing.c ****                 *ptrDebounceCnt = (0Lu == newStatus) ? ptrRamWdgt->onDebounce : DEFAULT_OFF_DEBOUNC
 671              		.loc 1 1269 0
 672 0046 09B9     		cbnz	r1, .L53
 673              		.loc 1 1269 0 is_stmt 0 discriminator 1
 674 0048 F979     		ldrb	r1, [r7, #7]	@ zero_extendqisi2
 675              	.LVL104:
 676 004a 00E0     		b	.L50
 677              	.LVL105:
 678              	.L53:
 679              		.loc 1 1269 0
 680 004c 0121     		movs	r1, #1
 681              	.LVL106:
 682              	.L50:
 683              		.loc 1 1269 0 discriminator 4
 684 004e 1170     		strb	r1, [r2]
 685              	.L49:
1270:Generated_Source\PSoC6/CapSense_Processing.c ****             #endif /* #if (0u != CapSense_OFF_DEBOUNCE_EN) */
1271:Generated_Source\PSoC6/CapSense_Processing.c ****         }
1272:Generated_Source\PSoC6/CapSense_Processing.c **** 
1273:Generated_Source\PSoC6/CapSense_Processing.c ****         /* Move mask to the next sensor */
1274:Generated_Source\PSoC6/CapSense_Processing.c ****         snsMask <<= 1u;
 686              		.loc 1 1274 0 is_stmt 1
 687 0050 5B00     		lsls	r3, r3, #1
 688              	.LVL107:
1275:Generated_Source\PSoC6/CapSense_Processing.c **** 
1276:Generated_Source\PSoC6/CapSense_Processing.c ****         ptrSnsTmp++;
 689              		.loc 1 1276 0
 690 0052 0A35     		adds	r5, r5, #10
 691              	.LVL108:
1277:Generated_Source\PSoC6/CapSense_Processing.c ****         ptrDebounceCnt++;
 692              		.loc 1 1277 0
 693 0054 0132     		adds	r2, r2, #1
 694              	.LVL109:
1234:Generated_Source\PSoC6/CapSense_Processing.c ****     {
 695              		.loc 1 1234 0
 696 0056 7446     		mov	r4, lr
 697              	.LVL110:
 698              	.L43:
 699 0058 04F1FF3E 		add	lr, r4, #-1
 700              	.LVL111:
 701 005c 002C     		cmp	r4, #0
 702 005e D6D1     		bne	.L51
1278:Generated_Source\PSoC6/CapSense_Processing.c ****     }
1279:Generated_Source\PSoC6/CapSense_Processing.c **** 
1280:Generated_Source\PSoC6/CapSense_Processing.c ****     return currStatus;
1281:Generated_Source\PSoC6/CapSense_Processing.c **** }
 703              		.loc 1 1281 0
 704 0060 F0BD     		pop	{r4, r5, r6, r7, pc}
 705              		.cfi_endproc
 706              	.LFE142:
ARM GAS  C:\Users\Mahrukh\AppData\Local\Temp\ccgflWoc.s 			page 37


 707              		.size	CapSense_DpProcessButton, .-CapSense_DpProcessButton
 708 0062 00BF     		.section	.text.CapSense_DpProcessCsxWidgetStatus,"ax",%progbits
 709              		.align	2
 710              		.global	CapSense_DpProcessCsxWidgetStatus
 711              		.thumb
 712              		.thumb_func
 713              		.type	CapSense_DpProcessCsxWidgetStatus, %function
 714              	CapSense_DpProcessCsxWidgetStatus:
 715              	.LFB136:
 706:Generated_Source\PSoC6/CapSense_Processing.c ****     uint32 sensorStatus;
 716              		.loc 1 706 0
 717              		.cfi_startproc
 718              		@ args = 0, pretend = 0, frame = 0
 719              		@ frame_needed = 0, uses_anonymous_args = 0
 720              	.LVL112:
 721 0000 38B5     		push	{r3, r4, r5, lr}
 722              		.cfi_def_cfa_offset 16
 723              		.cfi_offset 3, -16
 724              		.cfi_offset 4, -12
 725              		.cfi_offset 5, -8
 726              		.cfi_offset 14, -4
 727 0002 0446     		mov	r4, r0
 712:Generated_Source\PSoC6/CapSense_Processing.c ****     sensorStatus = CapSense_dsRam.snsStatus[widgetId];
 728              		.loc 1 712 0
 729 0004 8A7E     		ldrb	r2, [r1, #26]	@ zero_extendqisi2
 730              	.LVL113:
 713:Generated_Source\PSoC6/CapSense_Processing.c **** 
 731              		.loc 1 713 0
 732 0006 154B     		ldr	r3, .L63
 733 0008 0344     		add	r3, r3, r0
 734 000a 1D7E     		ldrb	r5, [r3, #24]	@ zero_extendqisi2
 735              	.LVL114:
 715:Generated_Source\PSoC6/CapSense_Processing.c ****     {
 736              		.loc 1 715 0
 737 000c 012A     		cmp	r2, #1
 738 000e 04D1     		bne	.L61
 719:Generated_Source\PSoC6/CapSense_Processing.c ****             break;
 739              		.loc 1 719 0
 740 0010 2846     		mov	r0, r5
 741              	.LVL115:
 742 0012 FFF7FEFF 		bl	CapSense_DpProcessButton
 743              	.LVL116:
 744 0016 0546     		mov	r5, r0
 745              	.LVL117:
 720:Generated_Source\PSoC6/CapSense_Processing.c ****     #endif /* #if (0u != CapSense_BUTTON_WIDGET_EN) */
 746              		.loc 1 720 0
 747 0018 04E0     		b	.L58
 748              	.LVL118:
 749              	.L61:
 736:Generated_Source\PSoC6/CapSense_Processing.c ****         break;
 750              		.loc 1 736 0 discriminator 1
 751 001a 4FF43871 		mov	r1, #736
 752              	.LVL119:
 753 001e 1048     		ldr	r0, .L63+4
 754              	.LVL120:
 755 0020 FFF7FEFF 		bl	Cy_SysLib_AssertFailed
 756              	.LVL121:
ARM GAS  C:\Users\Mahrukh\AppData\Local\Temp\ccgflWoc.s 			page 38


 757              	.L58:
 741:Generated_Source\PSoC6/CapSense_Processing.c **** 
 758              		.loc 1 741 0
 759 0024 0D4B     		ldr	r3, .L63
 760 0026 2344     		add	r3, r3, r4
 761 0028 1D76     		strb	r5, [r3, #24]
 744:Generated_Source\PSoC6/CapSense_Processing.c ****     wdStatusMask = CapSense_GET_WDGT_STATUS_MASK(widgetId);
 762              		.loc 1 744 0
 763 002a 6209     		lsrs	r2, r4, #5
 764              	.LVL122:
 745:Generated_Source\PSoC6/CapSense_Processing.c **** 
 765              		.loc 1 745 0
 766 002c 04F01F04 		and	r4, r4, #31
 767              	.LVL123:
 768 0030 0123     		movs	r3, #1
 769 0032 03FA04F4 		lsl	r4, r3, r4
 770              	.LVL124:
 748:Generated_Source\PSoC6/CapSense_Processing.c ****     {
 771              		.loc 1 748 0
 772 0036 45B9     		cbnz	r5, .L59
 750:Generated_Source\PSoC6/CapSense_Processing.c ****     }
 773              		.loc 1 750 0
 774 0038 0432     		adds	r2, r2, #4
 775              	.LVL125:
 776 003a 084B     		ldr	r3, .L63
 777 003c 03EB8202 		add	r2, r3, r2, lsl #2
 778              	.LVL126:
 779 0040 5368     		ldr	r3, [r2, #4]
 780 0042 23EA0404 		bic	r4, r3, r4
 781              	.LVL127:
 782 0046 5460     		str	r4, [r2, #4]
 783 0048 38BD     		pop	{r3, r4, r5, pc}
 784              	.LVL128:
 785              	.L59:
 754:Generated_Source\PSoC6/CapSense_Processing.c ****     }
 786              		.loc 1 754 0
 787 004a 0432     		adds	r2, r2, #4
 788              	.LVL129:
 789 004c 034B     		ldr	r3, .L63
 790 004e 03EB8202 		add	r2, r3, r2, lsl #2
 791              	.LVL130:
 792 0052 5368     		ldr	r3, [r2, #4]
 793 0054 1C43     		orrs	r4, r4, r3
 794              	.LVL131:
 795 0056 5460     		str	r4, [r2, #4]
 796 0058 38BD     		pop	{r3, r4, r5, pc}
 797              	.LVL132:
 798              	.L64:
 799 005a 00BF     		.align	2
 800              	.L63:
 801 005c 00000000 		.word	CapSense_dsRam
 802 0060 00000000 		.word	.LC0
 803              		.cfi_endproc
 804              	.LFE136:
 805              		.size	CapSense_DpProcessCsxWidgetStatus, .-CapSense_DpProcessCsxWidgetStatus
 806              		.section	.text.CapSense_DpProcessSlider,"ax",%progbits
 807              		.align	2
ARM GAS  C:\Users\Mahrukh\AppData\Local\Temp\ccgflWoc.s 			page 39


 808              		.global	CapSense_DpProcessSlider
 809              		.thumb
 810              		.thumb_func
 811              		.type	CapSense_DpProcessSlider, %function
 812              	CapSense_DpProcessSlider:
 813              	.LFB143:
1282:Generated_Source\PSoC6/CapSense_Processing.c **** #endif /* #if ((0u != CapSense_BUTTON_WIDGET_EN) || (0u != CapSense_CSX_MATRIX_WIDGET_EN)) */
1283:Generated_Source\PSoC6/CapSense_Processing.c **** 
1284:Generated_Source\PSoC6/CapSense_Processing.c **** 
1285:Generated_Source\PSoC6/CapSense_Processing.c **** #if (0u != CapSense_PROXIMITY_WIDGET_EN)
1286:Generated_Source\PSoC6/CapSense_Processing.c **** /*******************************************************************************
1287:Generated_Source\PSoC6/CapSense_Processing.c **** * Function Name: CapSense_DpProcessProximity
1288:Generated_Source\PSoC6/CapSense_Processing.c **** ****************************************************************************//**
1289:Generated_Source\PSoC6/CapSense_Processing.c **** *
1290:Generated_Source\PSoC6/CapSense_Processing.c **** * \brief
1291:Generated_Source\PSoC6/CapSense_Processing.c **** *   Processes the status of the Proximity widget.
1292:Generated_Source\PSoC6/CapSense_Processing.c **** *
1293:Generated_Source\PSoC6/CapSense_Processing.c **** * \details
1294:Generated_Source\PSoC6/CapSense_Processing.c **** *   This API processes the status of the CSD Proximity widget. It applies the
1295:Generated_Source\PSoC6/CapSense_Processing.c **** *   hysteresis and debounce algorithm to each sensor difference value.
1296:Generated_Source\PSoC6/CapSense_Processing.c **** *   The proximity and touch events are considered independently so debounce and
1297:Generated_Source\PSoC6/CapSense_Processing.c **** *   hysteresis are also applied independently.
1298:Generated_Source\PSoC6/CapSense_Processing.c **** *
1299:Generated_Source\PSoC6/CapSense_Processing.c **** *   This API is expected to be called after each new widget scan. If it is
1300:Generated_Source\PSoC6/CapSense_Processing.c **** *   called multiple times for the same scan data the debounce algorithm
1301:Generated_Source\PSoC6/CapSense_Processing.c **** *   will not work properly.
1302:Generated_Source\PSoC6/CapSense_Processing.c **** *
1303:Generated_Source\PSoC6/CapSense_Processing.c **** *   This API does not update any Data Structure registers
1304:Generated_Source\PSoC6/CapSense_Processing.c **** *   except the debounce counters.
1305:Generated_Source\PSoC6/CapSense_Processing.c **** *
1306:Generated_Source\PSoC6/CapSense_Processing.c **** * \param currStatus   The value with the current widget status.
1307:Generated_Source\PSoC6/CapSense_Processing.c **** * \param ptrFlashWdgt The pointer to the Flash Widget Object.
1308:Generated_Source\PSoC6/CapSense_Processing.c **** *
1309:Generated_Source\PSoC6/CapSense_Processing.c **** * \return
1310:Generated_Source\PSoC6/CapSense_Processing.c **** *  Returns the status of the proximity sensors. Each sensor is represented by two bits
1311:Generated_Source\PSoC6/CapSense_Processing.c **** *  that can take the following values:
1312:Generated_Source\PSoC6/CapSense_Processing.c **** *   - 00b not active
1313:Generated_Source\PSoC6/CapSense_Processing.c **** *   - 01b proximity is detected (signal is above finger threshold)
1314:Generated_Source\PSoC6/CapSense_Processing.c **** *   - 11b finger touch is detected (signal is above the touch threshold)
1315:Generated_Source\PSoC6/CapSense_Processing.c **** *
1316:Generated_Source\PSoC6/CapSense_Processing.c **** *******************************************************************************/
1317:Generated_Source\PSoC6/CapSense_Processing.c **** uint32 CapSense_DpProcessProximity(uint32 currStatus, CapSense_FLASH_WD_STRUCT const *ptrFlashWdgt)
1318:Generated_Source\PSoC6/CapSense_Processing.c **** {
1319:Generated_Source\PSoC6/CapSense_Processing.c ****     uint32 currTh;
1320:Generated_Source\PSoC6/CapSense_Processing.c ****     uint32 snsCnt;
1321:Generated_Source\PSoC6/CapSense_Processing.c ****     uint32 snsMask;
1322:Generated_Source\PSoC6/CapSense_Processing.c ****     uint32 newStatus;
1323:Generated_Source\PSoC6/CapSense_Processing.c ****     uint32 difference;
1324:Generated_Source\PSoC6/CapSense_Processing.c **** 
1325:Generated_Source\PSoC6/CapSense_Processing.c ****     uint8 *ptrDebounceCnt;
1326:Generated_Source\PSoC6/CapSense_Processing.c ****     CapSense_RAM_SNS_STRUCT *ptrSnsTmp;
1327:Generated_Source\PSoC6/CapSense_Processing.c ****     CapSense_RAM_WD_PROXIMITY_STRUCT *ptrRamWdgt;
1328:Generated_Source\PSoC6/CapSense_Processing.c **** 
1329:Generated_Source\PSoC6/CapSense_Processing.c ****     /* Mask for proximity status bits. (All odd bits.) */
1330:Generated_Source\PSoC6/CapSense_Processing.c ****     const uint32 proxMask = UINT32_ODD_BITS_CONST;
1331:Generated_Source\PSoC6/CapSense_Processing.c **** 
1332:Generated_Source\PSoC6/CapSense_Processing.c ****     ptrSnsTmp = ptrFlashWdgt->ptr2SnsRam;
ARM GAS  C:\Users\Mahrukh\AppData\Local\Temp\ccgflWoc.s 			page 40


1333:Generated_Source\PSoC6/CapSense_Processing.c ****     ptrRamWdgt = (CapSense_RAM_WD_PROXIMITY_STRUCT *)ptrFlashWdgt->ptr2WdgtRam;
1334:Generated_Source\PSoC6/CapSense_Processing.c ****     ptrDebounceCnt = ptrFlashWdgt->ptr2DebounceArr;
1335:Generated_Source\PSoC6/CapSense_Processing.c **** 
1336:Generated_Source\PSoC6/CapSense_Processing.c ****     /* Get number of sensors and multiply it by 2 - proximity and touch statuses per sensor. */
1337:Generated_Source\PSoC6/CapSense_Processing.c ****     snsCnt = (uint32)ptrFlashWdgt->totalNumSns << 1u;
1338:Generated_Source\PSoC6/CapSense_Processing.c **** 
1339:Generated_Source\PSoC6/CapSense_Processing.c ****     /* Go through all sensor's status bits */
1340:Generated_Source\PSoC6/CapSense_Processing.c ****     snsMask = 1Lu;
1341:Generated_Source\PSoC6/CapSense_Processing.c ****     for (; snsCnt-- > 0u;)
1342:Generated_Source\PSoC6/CapSense_Processing.c ****     {
1343:Generated_Source\PSoC6/CapSense_Processing.c ****         difference = ptrSnsTmp->diff;
1344:Generated_Source\PSoC6/CapSense_Processing.c **** 
1345:Generated_Source\PSoC6/CapSense_Processing.c ****         /* Determine current event (proximity - odd; touch - even) and get appropriate threshold. *
1346:Generated_Source\PSoC6/CapSense_Processing.c ****         currTh = ptrRamWdgt->fingerTh;
1347:Generated_Source\PSoC6/CapSense_Processing.c **** 
1348:Generated_Source\PSoC6/CapSense_Processing.c ****         if (0u == (snsMask & proxMask))
1349:Generated_Source\PSoC6/CapSense_Processing.c ****         {
1350:Generated_Source\PSoC6/CapSense_Processing.c ****             currTh = ptrRamWdgt->proxTouchTh;
1351:Generated_Source\PSoC6/CapSense_Processing.c ****             ptrSnsTmp++;
1352:Generated_Source\PSoC6/CapSense_Processing.c ****         }
1353:Generated_Source\PSoC6/CapSense_Processing.c **** 
1354:Generated_Source\PSoC6/CapSense_Processing.c ****         /* Calculate finger threshold applying hysteresis based on current sensor state. */
1355:Generated_Source\PSoC6/CapSense_Processing.c ****         currTh = (0u == (currStatus & snsMask)) ? (currTh + ptrRamWdgt->hysteresis) : (currTh - ptr
1356:Generated_Source\PSoC6/CapSense_Processing.c **** 
1357:Generated_Source\PSoC6/CapSense_Processing.c ****         /* Determine new potential sensor state before de-bounce */
1358:Generated_Source\PSoC6/CapSense_Processing.c ****         newStatus = (difference > currTh) ? snsMask : 0Lu;
1359:Generated_Source\PSoC6/CapSense_Processing.c **** 
1360:Generated_Source\PSoC6/CapSense_Processing.c ****         /* Sensor state changed ? */
1361:Generated_Source\PSoC6/CapSense_Processing.c ****         if (newStatus != (currStatus & snsMask))
1362:Generated_Source\PSoC6/CapSense_Processing.c ****         {
1363:Generated_Source\PSoC6/CapSense_Processing.c ****             /* Decrement de-bounce counter */
1364:Generated_Source\PSoC6/CapSense_Processing.c ****             (*ptrDebounceCnt)--;
1365:Generated_Source\PSoC6/CapSense_Processing.c ****         }
1366:Generated_Source\PSoC6/CapSense_Processing.c **** 
1367:Generated_Source\PSoC6/CapSense_Processing.c ****         /*
1368:Generated_Source\PSoC6/CapSense_Processing.c ****         *  This piece of code has two objectives:
1369:Generated_Source\PSoC6/CapSense_Processing.c ****         *  1. Reset de-bounce counter if new sensor state has not changed.
1370:Generated_Source\PSoC6/CapSense_Processing.c ****         *     (It is possible that during previous processing cycles the sensor
1371:Generated_Source\PSoC6/CapSense_Processing.c ****         *     state was different which caused de-bounce counter change.)
1372:Generated_Source\PSoC6/CapSense_Processing.c ****         *  2. Set new sensor state after successful de-bounce.
1373:Generated_Source\PSoC6/CapSense_Processing.c ****         */
1374:Generated_Source\PSoC6/CapSense_Processing.c ****         if ((newStatus == (currStatus & snsMask)) || (0u == (*ptrDebounceCnt)))
1375:Generated_Source\PSoC6/CapSense_Processing.c ****         {
1376:Generated_Source\PSoC6/CapSense_Processing.c ****             /* Set new sensor status */
1377:Generated_Source\PSoC6/CapSense_Processing.c ****             currStatus &= ~snsMask;
1378:Generated_Source\PSoC6/CapSense_Processing.c ****             currStatus |= newStatus;
1379:Generated_Source\PSoC6/CapSense_Processing.c **** 
1380:Generated_Source\PSoC6/CapSense_Processing.c ****             /* Reset de-bounce counter */
1381:Generated_Source\PSoC6/CapSense_Processing.c ****             #if (0u != CapSense_OFF_DEBOUNCE_EN)
1382:Generated_Source\PSoC6/CapSense_Processing.c ****                 *ptrDebounceCnt = (0Lu == newStatus) ? ptrRamWdgt->onDebounce : ptrRamWdgt->offDebo
1383:Generated_Source\PSoC6/CapSense_Processing.c ****             #else
1384:Generated_Source\PSoC6/CapSense_Processing.c ****                 *ptrDebounceCnt = (0Lu == newStatus) ? ptrRamWdgt->onDebounce : DEFAULT_OFF_DEBOUNC
1385:Generated_Source\PSoC6/CapSense_Processing.c ****             #endif /* #if (0u != CapSense_OFF_DEBOUNCE_EN) */
1386:Generated_Source\PSoC6/CapSense_Processing.c ****         }
1387:Generated_Source\PSoC6/CapSense_Processing.c **** 
1388:Generated_Source\PSoC6/CapSense_Processing.c ****         ptrDebounceCnt++;
1389:Generated_Source\PSoC6/CapSense_Processing.c **** 
ARM GAS  C:\Users\Mahrukh\AppData\Local\Temp\ccgflWoc.s 			page 41


1390:Generated_Source\PSoC6/CapSense_Processing.c ****         /* Move sensor mask to the next sensor */
1391:Generated_Source\PSoC6/CapSense_Processing.c ****         snsMask <<= 1u;
1392:Generated_Source\PSoC6/CapSense_Processing.c ****     }
1393:Generated_Source\PSoC6/CapSense_Processing.c **** 
1394:Generated_Source\PSoC6/CapSense_Processing.c ****     return currStatus;
1395:Generated_Source\PSoC6/CapSense_Processing.c **** }
1396:Generated_Source\PSoC6/CapSense_Processing.c **** #endif /* #if (0u != CapSense_PROXIMITY_WIDGET_EN) */
1397:Generated_Source\PSoC6/CapSense_Processing.c **** 
1398:Generated_Source\PSoC6/CapSense_Processing.c **** 
1399:Generated_Source\PSoC6/CapSense_Processing.c **** #if (0u != CapSense_SLIDER_WIDGET_EN)
1400:Generated_Source\PSoC6/CapSense_Processing.c **** /*******************************************************************************
1401:Generated_Source\PSoC6/CapSense_Processing.c **** * Function Name: CapSense_DpProcessSlider
1402:Generated_Source\PSoC6/CapSense_Processing.c **** ****************************************************************************//**
1403:Generated_Source\PSoC6/CapSense_Processing.c **** *
1404:Generated_Source\PSoC6/CapSense_Processing.c **** * \brief
1405:Generated_Source\PSoC6/CapSense_Processing.c **** *   Processes the status of the Linear/Radial Slider widget.
1406:Generated_Source\PSoC6/CapSense_Processing.c **** *   The process involves running the Linear/Radial Centroid algorithm.
1407:Generated_Source\PSoC6/CapSense_Processing.c **** *
1408:Generated_Source\PSoC6/CapSense_Processing.c **** * \details
1409:Generated_Source\PSoC6/CapSense_Processing.c **** *   This API processes the status of the CSD Slider widget (Linear and Radial).
1410:Generated_Source\PSoC6/CapSense_Processing.c **** *   It applies the hysteresis and de-bounce algorithm to the widget ignoring
1411:Generated_Source\PSoC6/CapSense_Processing.c **** *   the individual states of the sensors.
1412:Generated_Source\PSoC6/CapSense_Processing.c **** *
1413:Generated_Source\PSoC6/CapSense_Processing.c **** *   This API is expected to be called after each new widget scan. If it is
1414:Generated_Source\PSoC6/CapSense_Processing.c **** *   called multiple times for the same scan data, the debounce algorithm
1415:Generated_Source\PSoC6/CapSense_Processing.c **** *   will not work properly.
1416:Generated_Source\PSoC6/CapSense_Processing.c **** *
1417:Generated_Source\PSoC6/CapSense_Processing.c **** *   Slider widgets do not support the ON to OFF debounce.
1418:Generated_Source\PSoC6/CapSense_Processing.c **** *
1419:Generated_Source\PSoC6/CapSense_Processing.c **** *   This API does not update any Data Structure registers
1420:Generated_Source\PSoC6/CapSense_Processing.c **** *   except the debounce counters.
1421:Generated_Source\PSoC6/CapSense_Processing.c **** *
1422:Generated_Source\PSoC6/CapSense_Processing.c **** * \param currStatus   The current sensor status of the Slider widget.
1423:Generated_Source\PSoC6/CapSense_Processing.c **** * \param ptrFlashWdgt The pointer to the Flash Widget Object.
1424:Generated_Source\PSoC6/CapSense_Processing.c **** *
1425:Generated_Source\PSoC6/CapSense_Processing.c **** * \return Returns the status of the widget's sensors. Bit #0 - corresponds to Sensor #0.
1426:Generated_Source\PSoC6/CapSense_Processing.c **** *
1427:Generated_Source\PSoC6/CapSense_Processing.c **** *******************************************************************************/
1428:Generated_Source\PSoC6/CapSense_Processing.c **** uint32 CapSense_DpProcessSlider(uint32 currStatus, CapSense_FLASH_WD_STRUCT const *ptrFlashWdgt)
1429:Generated_Source\PSoC6/CapSense_Processing.c **** {
 814              		.loc 1 1429 0
 815              		.cfi_startproc
 816              		@ args = 0, pretend = 0, frame = 8
 817              		@ frame_needed = 0, uses_anonymous_args = 0
 818              	.LVL133:
 819 0000 2DE9F04F 		push	{r4, r5, r6, r7, r8, r9, r10, fp, lr}
 820              		.cfi_def_cfa_offset 36
 821              		.cfi_offset 4, -36
 822              		.cfi_offset 5, -32
 823              		.cfi_offset 6, -28
 824              		.cfi_offset 7, -24
 825              		.cfi_offset 8, -20
 826              		.cfi_offset 9, -16
 827              		.cfi_offset 10, -12
 828              		.cfi_offset 11, -8
 829              		.cfi_offset 14, -4
 830 0004 83B0     		sub	sp, sp, #12
ARM GAS  C:\Users\Mahrukh\AppData\Local\Temp\ccgflWoc.s 			page 42


 831              		.cfi_def_cfa_offset 48
 832 0006 8846     		mov	r8, r1
 833              	.LVL134:
1430:Generated_Source\PSoC6/CapSense_Processing.c ****     uint32 snsCnt;
1431:Generated_Source\PSoC6/CapSense_Processing.c ****     uint32 snsMask;
1432:Generated_Source\PSoC6/CapSense_Processing.c ****     uint32 touchTh;
1433:Generated_Source\PSoC6/CapSense_Processing.c ****     uint32 newStatus = 0Lu;
1434:Generated_Source\PSoC6/CapSense_Processing.c ****     uint8 * ptrDebounceCnt;
1435:Generated_Source\PSoC6/CapSense_Processing.c ****     CapSense_RAM_SNS_STRUCT *ptrSnsTmp;
1436:Generated_Source\PSoC6/CapSense_Processing.c ****     CapSense_RAM_WD_SLIDER_STRUCT *ptrRamWdgt;
1437:Generated_Source\PSoC6/CapSense_Processing.c **** 
1438:Generated_Source\PSoC6/CapSense_Processing.c ****     #if (0u != CapSense_POSITION_FILTER_EN)
1439:Generated_Source\PSoC6/CapSense_Processing.c ****         CapSense_SLIDER_POS_HISTORY_STRUCT *ptrHistory;
1440:Generated_Source\PSoC6/CapSense_Processing.c ****     #endif /* #if (0u != CapSense_POSITION_FILTER_EN) */
1441:Generated_Source\PSoC6/CapSense_Processing.c **** 
1442:Generated_Source\PSoC6/CapSense_Processing.c ****     uint32 touchIdx;
1443:Generated_Source\PSoC6/CapSense_Processing.c ****     uint32 touchCnt = 0Lu;
1444:Generated_Source\PSoC6/CapSense_Processing.c ****     uint16 newPos[CapSense_NUM_CENTROIDS];
1445:Generated_Source\PSoC6/CapSense_Processing.c **** 
1446:Generated_Source\PSoC6/CapSense_Processing.c ****     snsCnt = ptrFlashWdgt->totalNumSns;
 834              		.loc 1 1446 0
 835 0008 0B8B     		ldrh	r3, [r1, #24]
 836              	.LVL135:
1447:Generated_Source\PSoC6/CapSense_Processing.c ****     ptrSnsTmp = ptrFlashWdgt->ptr2SnsRam;
 837              		.loc 1 1447 0
 838 000a 8A68     		ldr	r2, [r1, #8]
 839              	.LVL136:
1448:Generated_Source\PSoC6/CapSense_Processing.c ****     ptrRamWdgt = (CapSense_RAM_WD_SLIDER_STRUCT *)ptrFlashWdgt->ptr2WdgtRam;
 840              		.loc 1 1448 0
 841 000c 4F68     		ldr	r7, [r1, #4]
 842              	.LVL137:
1449:Generated_Source\PSoC6/CapSense_Processing.c ****     ptrDebounceCnt = ptrFlashWdgt->ptr2DebounceArr;
 843              		.loc 1 1449 0
 844 000e D1F810E0 		ldr	lr, [r1, #16]
 845              	.LVL138:
1450:Generated_Source\PSoC6/CapSense_Processing.c **** 
1451:Generated_Source\PSoC6/CapSense_Processing.c ****     #if (0u != CapSense_POSITION_FILTER_EN)
1452:Generated_Source\PSoC6/CapSense_Processing.c ****         ptrHistory = ptrFlashWdgt->ptr2PosHistory;
 846              		.loc 1 1452 0
 847 0012 8E6A     		ldr	r6, [r1, #40]
 848              	.LVL139:
1453:Generated_Source\PSoC6/CapSense_Processing.c ****     #endif /* #if (0u != CapSense_POSITION_FILTER_EN) */
1454:Generated_Source\PSoC6/CapSense_Processing.c **** 
1455:Generated_Source\PSoC6/CapSense_Processing.c ****     /* Calculate touch threshold based on current slider state */
1456:Generated_Source\PSoC6/CapSense_Processing.c ****     touchTh = (0Lu == currStatus ) ?
1457:Generated_Source\PSoC6/CapSense_Processing.c ****               ((uint32)ptrRamWdgt->fingerTh + ptrRamWdgt->hysteresis) :
 849              		.loc 1 1457 0
 850 0014 8446     		mov	ip, r0
 851 0016 18B9     		cbnz	r0, .L66
 852              		.loc 1 1457 0 is_stmt 0 discriminator 1
 853 0018 7C88     		ldrh	r4, [r7, #2]
 854 001a B979     		ldrb	r1, [r7, #6]	@ zero_extendqisi2
 855              	.LVL140:
 856 001c 0C44     		add	r4, r4, r1
 857 001e 02E0     		b	.L67
 858              	.LVL141:
 859              	.L66:
ARM GAS  C:\Users\Mahrukh\AppData\Local\Temp\ccgflWoc.s 			page 43


1458:Generated_Source\PSoC6/CapSense_Processing.c ****               ((uint32)ptrRamWdgt->fingerTh - ptrRamWdgt->hysteresis);
 860              		.loc 1 1458 0 is_stmt 1 discriminator 2
 861 0020 7988     		ldrh	r1, [r7, #2]
 862              	.LVL142:
 863 0022 BC79     		ldrb	r4, [r7, #6]	@ zero_extendqisi2
1457:Generated_Source\PSoC6/CapSense_Processing.c ****               ((uint32)ptrRamWdgt->fingerTh - ptrRamWdgt->hysteresis);
 864              		.loc 1 1457 0 discriminator 2
 865 0024 0C1B     		subs	r4, r1, r4
 866              	.L67:
 867              	.LVL143:
1433:Generated_Source\PSoC6/CapSense_Processing.c ****     uint8 * ptrDebounceCnt;
 868              		.loc 1 1433 0
 869 0026 0025     		movs	r5, #0
1459:Generated_Source\PSoC6/CapSense_Processing.c **** 
1460:Generated_Source\PSoC6/CapSense_Processing.c ****     /* Go through all widget's sensors */
1461:Generated_Source\PSoC6/CapSense_Processing.c ****     snsMask = 1Lu;
 870              		.loc 1 1461 0
 871 0028 0121     		movs	r1, #1
1462:Generated_Source\PSoC6/CapSense_Processing.c ****     for (; snsCnt-- > 0Lu; )
 872              		.loc 1 1462 0
 873 002a 09E0     		b	.L68
 874              	.LVL144:
 875              	.L70:
1463:Generated_Source\PSoC6/CapSense_Processing.c ****     {
1464:Generated_Source\PSoC6/CapSense_Processing.c ****         /* Determine new potential sensor state */
1465:Generated_Source\PSoC6/CapSense_Processing.c ****         newStatus |= (ptrSnsTmp->diff > touchTh) ? snsMask : 0Lu;
 876              		.loc 1 1465 0
 877 002c D388     		ldrh	r3, [r2, #6]
 878 002e 9C42     		cmp	r4, r3
 879 0030 01D3     		bcc	.L83
 880 0032 0023     		movs	r3, #0
 881 0034 00E0     		b	.L69
 882              	.L83:
 883 0036 0B46     		mov	r3, r1
 884              	.L69:
 885              		.loc 1 1465 0 is_stmt 0 discriminator 4
 886 0038 1D43     		orrs	r5, r5, r3
 887              	.LVL145:
1466:Generated_Source\PSoC6/CapSense_Processing.c ****         ptrSnsTmp++;
 888              		.loc 1 1466 0 is_stmt 1 discriminator 4
 889 003a 0A32     		adds	r2, r2, #10
 890              	.LVL146:
1467:Generated_Source\PSoC6/CapSense_Processing.c **** 
1468:Generated_Source\PSoC6/CapSense_Processing.c ****         snsMask <<= 1u;
 891              		.loc 1 1468 0 discriminator 4
 892 003c 4900     		lsls	r1, r1, #1
 893              	.LVL147:
1462:Generated_Source\PSoC6/CapSense_Processing.c ****     {
 894              		.loc 1 1462 0 discriminator 4
 895 003e 0346     		mov	r3, r0
 896              	.LVL148:
 897              	.L68:
1462:Generated_Source\PSoC6/CapSense_Processing.c ****     {
 898              		.loc 1 1462 0 is_stmt 0
 899 0040 581E     		subs	r0, r3, #1
 900              	.LVL149:
 901 0042 002B     		cmp	r3, #0
ARM GAS  C:\Users\Mahrukh\AppData\Local\Temp\ccgflWoc.s 			page 44


 902 0044 F2D1     		bne	.L70
1469:Generated_Source\PSoC6/CapSense_Processing.c ****     }
1470:Generated_Source\PSoC6/CapSense_Processing.c **** 
1471:Generated_Source\PSoC6/CapSense_Processing.c ****     /* If widget is active, check whether debounce is needed */
1472:Generated_Source\PSoC6/CapSense_Processing.c ****     if (0Lu != newStatus)
 903              		.loc 1 1472 0 is_stmt 1
 904 0046 55B1     		cbz	r5, .L71
1473:Generated_Source\PSoC6/CapSense_Processing.c ****     {
1474:Generated_Source\PSoC6/CapSense_Processing.c ****         if (0u < (*ptrDebounceCnt))
 905              		.loc 1 1474 0
 906 0048 9EF80030 		ldrb	r3, [lr]	@ zero_extendqisi2
 907 004c 13B1     		cbz	r3, .L72
1475:Generated_Source\PSoC6/CapSense_Processing.c ****         {
1476:Generated_Source\PSoC6/CapSense_Processing.c ****             /* Decrement debounce counter */
1477:Generated_Source\PSoC6/CapSense_Processing.c ****             (*ptrDebounceCnt)--;
 908              		.loc 1 1477 0
 909 004e 013B     		subs	r3, r3, #1
 910 0050 8EF80030 		strb	r3, [lr]
 911              	.L72:
1478:Generated_Source\PSoC6/CapSense_Processing.c ****         }
1479:Generated_Source\PSoC6/CapSense_Processing.c **** 
1480:Generated_Source\PSoC6/CapSense_Processing.c ****         if (0u == (*ptrDebounceCnt))
 912              		.loc 1 1480 0
 913 0054 9EF80030 		ldrb	r3, [lr]	@ zero_extendqisi2
 914 0058 23B1     		cbz	r3, .L73
 915 005a 6546     		mov	r5, ip
 916              	.LVL150:
 917 005c 02E0     		b	.L73
 918              	.LVL151:
 919              	.L71:
1481:Generated_Source\PSoC6/CapSense_Processing.c ****         {
1482:Generated_Source\PSoC6/CapSense_Processing.c ****             /* Update slider sensor state when debounce completes */
1483:Generated_Source\PSoC6/CapSense_Processing.c ****             currStatus = newStatus;
1484:Generated_Source\PSoC6/CapSense_Processing.c ****         }
1485:Generated_Source\PSoC6/CapSense_Processing.c ****     }
1486:Generated_Source\PSoC6/CapSense_Processing.c ****     else
1487:Generated_Source\PSoC6/CapSense_Processing.c ****     {
1488:Generated_Source\PSoC6/CapSense_Processing.c ****         /* Reset debounce counter */
1489:Generated_Source\PSoC6/CapSense_Processing.c ****         *ptrDebounceCnt = ptrRamWdgt->onDebounce;
 920              		.loc 1 1489 0
 921 005e FB79     		ldrb	r3, [r7, #7]	@ zero_extendqisi2
 922 0060 8EF80030 		strb	r3, [lr]
 923              	.LVL152:
 924              	.L73:
1490:Generated_Source\PSoC6/CapSense_Processing.c **** 
1491:Generated_Source\PSoC6/CapSense_Processing.c ****         /* Clear slider sensor state */
1492:Generated_Source\PSoC6/CapSense_Processing.c ****         currStatus = 0Lu;
1493:Generated_Source\PSoC6/CapSense_Processing.c ****     }
1494:Generated_Source\PSoC6/CapSense_Processing.c **** 
1495:Generated_Source\PSoC6/CapSense_Processing.c ****     /* Centroid processing */
1496:Generated_Source\PSoC6/CapSense_Processing.c ****     /* If there are active sensors after debounce run the centroid algorithm */
1497:Generated_Source\PSoC6/CapSense_Processing.c ****     if (0u != currStatus)
 925              		.loc 1 1497 0
 926 0064 002D     		cmp	r5, #0
 927 0066 4AD0     		beq	.L84
1498:Generated_Source\PSoC6/CapSense_Processing.c ****     {
1499:Generated_Source\PSoC6/CapSense_Processing.c ****         /* Centroid always uses the lowest finger threshold (minus hysteresis)
ARM GAS  C:\Users\Mahrukh\AppData\Local\Temp\ccgflWoc.s 			page 45


1500:Generated_Source\PSoC6/CapSense_Processing.c ****          * to produce same results for first and all consecutive invocations */
1501:Generated_Source\PSoC6/CapSense_Processing.c ****         touchTh = (uint32)ptrRamWdgt->fingerTh - ptrRamWdgt->hysteresis;
 928              		.loc 1 1501 0
 929 0068 7A88     		ldrh	r2, [r7, #2]
 930              	.LVL153:
 931 006a BB79     		ldrb	r3, [r7, #6]	@ zero_extendqisi2
 932              	.LVL154:
1502:Generated_Source\PSoC6/CapSense_Processing.c ****         snsCnt = ptrFlashWdgt->totalNumSns;
 933              		.loc 1 1502 0
 934 006c B8F81890 		ldrh	r9, [r8, #24]
 935              	.LVL155:
1503:Generated_Source\PSoC6/CapSense_Processing.c **** 
1504:Generated_Source\PSoC6/CapSense_Processing.c ****         #if (0u != CapSense_TOTAL_DIPLEXED_SLIDERS)
1505:Generated_Source\PSoC6/CapSense_Processing.c ****             if ((0u != (ptrFlashWdgt->staticConfig & CapSense_DIPLEXING_MASK)))
1506:Generated_Source\PSoC6/CapSense_Processing.c ****             {
1507:Generated_Source\PSoC6/CapSense_Processing.c ****                 /* Run local maximum search for duplexed slider */
1508:Generated_Source\PSoC6/CapSense_Processing.c ****                 touchCnt = CapSense_DpFindLocalMaxDiplex(
1509:Generated_Source\PSoC6/CapSense_Processing.c ****                                 ptrFlashWdgt->ptr2SnsRam, snsCnt, ptrFlashWdgt->ptr2DiplexTable, to
1510:Generated_Source\PSoC6/CapSense_Processing.c **** 
1511:Generated_Source\PSoC6/CapSense_Processing.c ****                 /* Centroid calculation API requires double sensor count for the diplexed sliders. 
1512:Generated_Source\PSoC6/CapSense_Processing.c ****                 snsCnt *= 2u;
1513:Generated_Source\PSoC6/CapSense_Processing.c ****             }
1514:Generated_Source\PSoC6/CapSense_Processing.c ****             else
1515:Generated_Source\PSoC6/CapSense_Processing.c ****             {
1516:Generated_Source\PSoC6/CapSense_Processing.c ****                 /* Run local maximum search for NON-duplexed slider */
1517:Generated_Source\PSoC6/CapSense_Processing.c ****                 #if (CapSense_ENABLE == CapSense_4PTS_LOCAL_MAX_EN)
1518:Generated_Source\PSoC6/CapSense_Processing.c ****                     touchCnt = CapSense_DpFindLocalMaxSd4pts(ptrFlashWdgt, ptrFlashWdgt->ptr2SnsRam
1519:Generated_Source\PSoC6/CapSense_Processing.c ****                 #else
1520:Generated_Source\PSoC6/CapSense_Processing.c ****                     touchCnt = CapSense_DpFindLocalMaxSd(ptrFlashWdgt->ptr2SnsRam, snsCnt, touchTh)
1521:Generated_Source\PSoC6/CapSense_Processing.c ****                 #endif
1522:Generated_Source\PSoC6/CapSense_Processing.c ****             }
1523:Generated_Source\PSoC6/CapSense_Processing.c ****         #else
1524:Generated_Source\PSoC6/CapSense_Processing.c ****             /* Run local maximum search for NON-duplexed slider */
1525:Generated_Source\PSoC6/CapSense_Processing.c ****             #if (CapSense_ENABLE == CapSense_4PTS_LOCAL_MAX_EN)
1526:Generated_Source\PSoC6/CapSense_Processing.c ****                 touchCnt = CapSense_DpFindLocalMaxSd4pts(ptrFlashWdgt, ptrFlashWdgt->ptr2SnsRam, sn
1527:Generated_Source\PSoC6/CapSense_Processing.c ****             #else
1528:Generated_Source\PSoC6/CapSense_Processing.c ****                 touchCnt = CapSense_DpFindLocalMaxSd(ptrFlashWdgt->ptr2SnsRam, snsCnt, touchTh);
 936              		.loc 1 1528 0
 937 0070 D21A     		subs	r2, r2, r3
 938              	.LVL156:
 939 0072 4946     		mov	r1, r9
 940              	.LVL157:
 941 0074 D8F80800 		ldr	r0, [r8, #8]
 942 0078 FFF7FEFF 		bl	CapSense_DpFindLocalMaxSd
 943              	.LVL158:
1529:Generated_Source\PSoC6/CapSense_Processing.c ****             #endif
1530:Generated_Source\PSoC6/CapSense_Processing.c ****         #endif /* #if (0u != CapSense_TOTAL_DIPLEXED_SLIDERS) */
1531:Generated_Source\PSoC6/CapSense_Processing.c **** 
1532:Generated_Source\PSoC6/CapSense_Processing.c ****         /* If at least one touch is detected */
1533:Generated_Source\PSoC6/CapSense_Processing.c ****         if (0u != touchCnt)
 944              		.loc 1 1533 0
 945 007c 0446     		mov	r4, r0
 946 007e 0028     		cmp	r0, #0
 947 0080 4DD0     		beq	.L80
1534:Generated_Source\PSoC6/CapSense_Processing.c ****         {
1535:Generated_Source\PSoC6/CapSense_Processing.c ****             /* Determine slider type and calculate new position(s) */
1536:Generated_Source\PSoC6/CapSense_Processing.c ****             #if (0u != CapSense_TOTAL_LINEAR_SLIDERS)
ARM GAS  C:\Users\Mahrukh\AppData\Local\Temp\ccgflWoc.s 			page 46


1537:Generated_Source\PSoC6/CapSense_Processing.c ****                 if ((CapSense_WD_TYPE_ENUM)ptrFlashWdgt->wdgtType == CapSense_WD_LINEAR_SLIDER_E)
 948              		.loc 1 1537 0
 949 0082 98F81A30 		ldrb	r3, [r8, #26]	@ zero_extendqisi2
 950 0086 022B     		cmp	r3, #2
 951 0088 49D1     		bne	.L80
1538:Generated_Source\PSoC6/CapSense_Processing.c ****                 {
1539:Generated_Source\PSoC6/CapSense_Processing.c ****                     #if (CapSense_ENABLE == CapSense_SLIDER_MULT_METHOD)
1540:Generated_Source\PSoC6/CapSense_Processing.c ****                         touchCnt = CapSense_DpCalcLinearCentroid(newPos, (uint32)ptrFlashWdgt->xCen
1541:Generated_Source\PSoC6/CapSense_Processing.c ****                                     snsCnt, (uint32)(ptrFlashWdgt->xCentroidMultiplier >> 1));
1542:Generated_Source\PSoC6/CapSense_Processing.c ****                     #else
1543:Generated_Source\PSoC6/CapSense_Processing.c ****                         touchCnt = CapSense_DpCalcLinearCentroid(
 952              		.loc 1 1543 0
 953 008a 0023     		movs	r3, #0
 954 008c 4A46     		mov	r2, r9
 955 008e D8F82010 		ldr	r1, [r8, #32]
 956 0092 01A8     		add	r0, sp, #4
 957              	.LVL159:
 958 0094 FFF7FEFF 		bl	CapSense_DpCalcLinearCentroid
 959              	.LVL160:
 960 0098 0446     		mov	r4, r0
 961              	.LVL161:
 962              	.LBB8:
 963              	.LBB9:
1544:Generated_Source\PSoC6/CapSense_Processing.c ****                                         newPos, (uint32)ptrFlashWdgt->xCentroidMultiplier, snsCnt, 
1545:Generated_Source\PSoC6/CapSense_Processing.c ****                     #endif
1546:Generated_Source\PSoC6/CapSense_Processing.c ****                     DpUpdateLinSlider(newPos, touchCnt, ptrFlashWdgt, ptrRamWdgt);
1547:Generated_Source\PSoC6/CapSense_Processing.c ****                 }
1548:Generated_Source\PSoC6/CapSense_Processing.c ****             #endif /* #if (0u != CapSense_TOTAL_LINEAR_SLIDERS) */
1549:Generated_Source\PSoC6/CapSense_Processing.c **** 
1550:Generated_Source\PSoC6/CapSense_Processing.c ****             #if (0u != CapSense_TOTAL_RADIAL_SLIDERS)
1551:Generated_Source\PSoC6/CapSense_Processing.c ****                 if ((CapSense_WD_TYPE_ENUM)ptrFlashWdgt->wdgtType == CapSense_WD_RADIAL_SLIDER_E)
1552:Generated_Source\PSoC6/CapSense_Processing.c ****                 {
1553:Generated_Source\PSoC6/CapSense_Processing.c ****                     touchCnt = CapSense_DpCalcRadialCentroid(
1554:Generated_Source\PSoC6/CapSense_Processing.c ****                                     newPos, (uint32)ptrFlashWdgt->xCentroidMultiplier, snsCnt);
1555:Generated_Source\PSoC6/CapSense_Processing.c ****                     DpUpdateRadSlider(newPos, touchCnt, ptrFlashWdgt, ptrRamWdgt);
1556:Generated_Source\PSoC6/CapSense_Processing.c ****                 }
1557:Generated_Source\PSoC6/CapSense_Processing.c ****             #endif /* #if (0u != CapSense_TOTAL_RADIAL_SLIDERS) */
1558:Generated_Source\PSoC6/CapSense_Processing.c ****         }
1559:Generated_Source\PSoC6/CapSense_Processing.c ****     }
1560:Generated_Source\PSoC6/CapSense_Processing.c **** 
1561:Generated_Source\PSoC6/CapSense_Processing.c ****     /* Clear not active position data slots */
1562:Generated_Source\PSoC6/CapSense_Processing.c ****     for (touchIdx = touchCnt; touchIdx < CapSense_NUM_CENTROIDS; touchIdx++)
1563:Generated_Source\PSoC6/CapSense_Processing.c ****     {
1564:Generated_Source\PSoC6/CapSense_Processing.c ****         ptrRamWdgt->position[touchIdx] = CapSense_SLIDER_POS_NONE;
1565:Generated_Source\PSoC6/CapSense_Processing.c **** 
1566:Generated_Source\PSoC6/CapSense_Processing.c ****         #if (0u != CapSense_POSITION_FILTER_EN)
1567:Generated_Source\PSoC6/CapSense_Processing.c ****             if (NULL != ptrHistory)
1568:Generated_Source\PSoC6/CapSense_Processing.c ****             {
1569:Generated_Source\PSoC6/CapSense_Processing.c ****                 CapSense_InitPosFiltersSd(&ptrHistory[touchIdx], CapSense_SLIDER_POS_NONE);
1570:Generated_Source\PSoC6/CapSense_Processing.c ****             }
1571:Generated_Source\PSoC6/CapSense_Processing.c ****         #endif /* #if (0u != CapSense_POSITION_FILTER_EN) */
1572:Generated_Source\PSoC6/CapSense_Processing.c ****     }
1573:Generated_Source\PSoC6/CapSense_Processing.c **** 
1574:Generated_Source\PSoC6/CapSense_Processing.c ****     return currStatus;
1575:Generated_Source\PSoC6/CapSense_Processing.c **** }
1576:Generated_Source\PSoC6/CapSense_Processing.c **** #endif /* #if (0u != CapSense_SLIDER_WIDGET_EN) */
1577:Generated_Source\PSoC6/CapSense_Processing.c **** 
ARM GAS  C:\Users\Mahrukh\AppData\Local\Temp\ccgflWoc.s 			page 47


1578:Generated_Source\PSoC6/CapSense_Processing.c **** #if (0u != CapSense_TOTAL_LINEAR_SLIDERS)
1579:Generated_Source\PSoC6/CapSense_Processing.c **** /*******************************************************************************
1580:Generated_Source\PSoC6/CapSense_Processing.c **** * Function Name: DpUpdateLinSlider
1581:Generated_Source\PSoC6/CapSense_Processing.c **** ****************************************************************************//**
1582:Generated_Source\PSoC6/CapSense_Processing.c **** *
1583:Generated_Source\PSoC6/CapSense_Processing.c **** * \brief
1584:Generated_Source\PSoC6/CapSense_Processing.c **** *   Updates the touch status of the Linear Slider widget.
1585:Generated_Source\PSoC6/CapSense_Processing.c **** *
1586:Generated_Source\PSoC6/CapSense_Processing.c **** * \details
1587:Generated_Source\PSoC6/CapSense_Processing.c **** *   This function updates the position data of the Linear Slider
1588:Generated_Source\PSoC6/CapSense_Processing.c **** *   in the Data Structure. Also, this function runs position filters for the
1589:Generated_Source\PSoC6/CapSense_Processing.c **** *   position data if any enabled.
1590:Generated_Source\PSoC6/CapSense_Processing.c **** *
1591:Generated_Source\PSoC6/CapSense_Processing.c **** * \param newPos       The pointer to the array with the new finger position coordinates.
1592:Generated_Source\PSoC6/CapSense_Processing.c **** * \param numTouches   The number of the coordinates in the newPos array.
1593:Generated_Source\PSoC6/CapSense_Processing.c **** * \param ptrFlashWdgt The pointer to the Flash Widget Object.
1594:Generated_Source\PSoC6/CapSense_Processing.c **** * \param ptrRamWdgt   The pointer to the RAM Widget Object.
1595:Generated_Source\PSoC6/CapSense_Processing.c **** *
1596:Generated_Source\PSoC6/CapSense_Processing.c **** *******************************************************************************/
1597:Generated_Source\PSoC6/CapSense_Processing.c **** __STATIC_INLINE void DpUpdateLinSlider(
1598:Generated_Source\PSoC6/CapSense_Processing.c ****                         const uint16 newPos[],
1599:Generated_Source\PSoC6/CapSense_Processing.c ****                         uint32 numTouches,
1600:Generated_Source\PSoC6/CapSense_Processing.c ****                         CapSense_FLASH_WD_STRUCT const *ptrFlashWdgt,
1601:Generated_Source\PSoC6/CapSense_Processing.c ****                         CapSense_RAM_WD_SLIDER_STRUCT *ptrRamWdgt)
1602:Generated_Source\PSoC6/CapSense_Processing.c **** {
1603:Generated_Source\PSoC6/CapSense_Processing.c ****     uint32 touchIdx;
1604:Generated_Source\PSoC6/CapSense_Processing.c **** 
1605:Generated_Source\PSoC6/CapSense_Processing.c ****     #if (0u != CapSense_POS_AVERAGE_FILTER_EN)
1606:Generated_Source\PSoC6/CapSense_Processing.c ****         uint16 tempPosition;
1607:Generated_Source\PSoC6/CapSense_Processing.c ****     #endif /* (0u != CapSense_POS_AVERAGE_FILTER_EN) */
1608:Generated_Source\PSoC6/CapSense_Processing.c **** 
1609:Generated_Source\PSoC6/CapSense_Processing.c ****     #if (0u == CapSense_POSITION_FILTER_EN)
1610:Generated_Source\PSoC6/CapSense_Processing.c ****         /* This parameter is unused in such configurations */
1611:Generated_Source\PSoC6/CapSense_Processing.c ****         (void)ptrFlashWdgt;
1612:Generated_Source\PSoC6/CapSense_Processing.c ****     #else
1613:Generated_Source\PSoC6/CapSense_Processing.c ****         uint16 filteredPosition;
1614:Generated_Source\PSoC6/CapSense_Processing.c ****         /* Get bitmask with the enabled filters */
1615:Generated_Source\PSoC6/CapSense_Processing.c ****         uint32 filterConfig = (uint32)ptrFlashWdgt->staticConfig;
 964              		.loc 1 1615 0
 965 009a D8F814A0 		ldr	r10, [r8, #20]
 966              	.LVL162:
1616:Generated_Source\PSoC6/CapSense_Processing.c ****         /* Get pointer to the position filter history */
1617:Generated_Source\PSoC6/CapSense_Processing.c ****         CapSense_SLIDER_POS_HISTORY_STRUCT *ptrHistory = ptrFlashWdgt->ptr2PosHistory;
 967              		.loc 1 1617 0
 968 009e D8F82890 		ldr	r9, [r8, #40]
 969              	.LVL163:
1618:Generated_Source\PSoC6/CapSense_Processing.c ****     #endif /* #if (0u == CapSense_POSITION_FILTER_EN) */
1619:Generated_Source\PSoC6/CapSense_Processing.c **** 
1620:Generated_Source\PSoC6/CapSense_Processing.c ****     #if (0u != CapSense_POS_ADAPTIVE_IIR_FILTER_EN)
1621:Generated_Source\PSoC6/CapSense_Processing.c ****         ADAPTIVE_FILTER_CONTEXT_STRUCT contextAIIR;
1622:Generated_Source\PSoC6/CapSense_Processing.c ****         uint16 emptyPosition = 0;
1623:Generated_Source\PSoC6/CapSense_Processing.c ****     #endif /* (0u != CapSense_POS_ADAPTIVE_IIR_FILTER_EN) */
1624:Generated_Source\PSoC6/CapSense_Processing.c **** 
1625:Generated_Source\PSoC6/CapSense_Processing.c ****     /* Run Filter and update the position registers with the filtered data */
1626:Generated_Source\PSoC6/CapSense_Processing.c ****     for (touchIdx = 0u; touchIdx < numTouches; touchIdx++)
 970              		.loc 1 1626 0
 971 00a2 4FF00008 		mov	r8, #0
ARM GAS  C:\Users\Mahrukh\AppData\Local\Temp\ccgflWoc.s 			page 48


 972              	.LVL164:
 973 00a6 27E0     		b	.L75
 974              	.LVL165:
 975              	.L79:
1627:Generated_Source\PSoC6/CapSense_Processing.c ****     {
1628:Generated_Source\PSoC6/CapSense_Processing.c ****         #if (0u == CapSense_POSITION_FILTER_EN)
1629:Generated_Source\PSoC6/CapSense_Processing.c ****             /* If filters are not enabled just copy the position data */
1630:Generated_Source\PSoC6/CapSense_Processing.c ****             ptrRamWdgt->position[touchIdx] = newPos[touchIdx];
1631:Generated_Source\PSoC6/CapSense_Processing.c ****         #else
1632:Generated_Source\PSoC6/CapSense_Processing.c ****             filteredPosition = newPos[touchIdx];
 976              		.loc 1 1632 0
 977 00a8 01AB     		add	r3, sp, #4
 978              	.LVL166:
 979 00aa 33F818B0 		ldrh	fp, [r3, r8, lsl #1]
 980              	.LVL167:
1633:Generated_Source\PSoC6/CapSense_Processing.c **** 
1634:Generated_Source\PSoC6/CapSense_Processing.c ****             /* If there were no touch initialize the current position with new position data */
1635:Generated_Source\PSoC6/CapSense_Processing.c ****             if (ptrRamWdgt->position[touchIdx] == CapSense_SLIDER_POS_NONE)
 981              		.loc 1 1635 0
 982 00ae 08F10803 		add	r3, r8, #8
 983              	.LVL168:
 984 00b2 07EB4303 		add	r3, r7, r3, lsl #1
 985 00b6 9A88     		ldrh	r2, [r3, #4]
 986 00b8 4FF6FF73 		movw	r3, #65535
 987 00bc 9A42     		cmp	r2, r3
 988 00be 04D1     		bne	.L76
1636:Generated_Source\PSoC6/CapSense_Processing.c ****             {
1637:Generated_Source\PSoC6/CapSense_Processing.c ****                 CapSense_InitPosFiltersSd(ptrHistory, filteredPosition);
 989              		.loc 1 1637 0
 990 00c0 5946     		mov	r1, fp
 991 00c2 4846     		mov	r0, r9
 992 00c4 FFF7FEFF 		bl	CapSense_InitPosFiltersSd
 993              	.LVL169:
 994 00c8 09E0     		b	.L77
 995              	.L76:
1638:Generated_Source\PSoC6/CapSense_Processing.c ****             }
1639:Generated_Source\PSoC6/CapSense_Processing.c ****             else
1640:Generated_Source\PSoC6/CapSense_Processing.c ****             {
1641:Generated_Source\PSoC6/CapSense_Processing.c ****                 #if (0u != CapSense_POS_MEDIAN_FILTER_EN)
1642:Generated_Source\PSoC6/CapSense_Processing.c ****                     if (0u != (filterConfig & CapSense_POS_MEDIAN_FILTER_MASK))
1643:Generated_Source\PSoC6/CapSense_Processing.c ****                     {
1644:Generated_Source\PSoC6/CapSense_Processing.c ****                         filteredPosition = (uint16)CapSense_FtMedian((uint32)ptrHistory->posMedianZ
1645:Generated_Source\PSoC6/CapSense_Processing.c ****                                             (uint32)ptrHistory->posMedianZ1, (uint32)newPos[touchId
1646:Generated_Source\PSoC6/CapSense_Processing.c ****                         ptrHistory->posMedianZ2 = ptrHistory->posMedianZ1;
1647:Generated_Source\PSoC6/CapSense_Processing.c ****                         ptrHistory->posMedianZ1 = newPos[touchIdx];
1648:Generated_Source\PSoC6/CapSense_Processing.c ****                     }
1649:Generated_Source\PSoC6/CapSense_Processing.c ****                 #endif /* #if (0u != CapSense_POS_MEDIAN_FILTER_EN) */
1650:Generated_Source\PSoC6/CapSense_Processing.c **** 
1651:Generated_Source\PSoC6/CapSense_Processing.c ****                 #if (0u != CapSense_POS_IIR_FILTER_EN)
1652:Generated_Source\PSoC6/CapSense_Processing.c ****                     if (0u != (filterConfig & CapSense_POS_IIR_FILTER_MASK))
1653:Generated_Source\PSoC6/CapSense_Processing.c ****                     {
1654:Generated_Source\PSoC6/CapSense_Processing.c ****                         filteredPosition = (uint16)CapSense_FtIIR1stOrder((uint32)filteredPosition,
1655:Generated_Source\PSoC6/CapSense_Processing.c ****                                             (uint32)ptrFlashWdgt->iirFilterCoeff, 0uL);
1656:Generated_Source\PSoC6/CapSense_Processing.c ****                         ptrHistory->posIIR = filteredPosition;
1657:Generated_Source\PSoC6/CapSense_Processing.c ****                     }
1658:Generated_Source\PSoC6/CapSense_Processing.c ****                 #endif /* #if (0u != CapSense_POS_IIR_FILTER_EN) */
1659:Generated_Source\PSoC6/CapSense_Processing.c **** 
ARM GAS  C:\Users\Mahrukh\AppData\Local\Temp\ccgflWoc.s 			page 49


1660:Generated_Source\PSoC6/CapSense_Processing.c ****                 #if (0u != CapSense_POS_ADAPTIVE_IIR_FILTER_EN)
1661:Generated_Source\PSoC6/CapSense_Processing.c ****                     if (0u != (filterConfig & CapSense_AIIR_FILTER_MASK))
1662:Generated_Source\PSoC6/CapSense_Processing.c ****                     {
1663:Generated_Source\PSoC6/CapSense_Processing.c ****                         contextAIIR.previousX = ptrHistory->posAIIR;
1664:Generated_Source\PSoC6/CapSense_Processing.c ****                         contextAIIR.previousY = emptyPosition;
1665:Generated_Source\PSoC6/CapSense_Processing.c ****                         contextAIIR.coefficient = ptrHistory->posAIIRCoeff;
1666:Generated_Source\PSoC6/CapSense_Processing.c ****                         AdaptiveFilter_Run(&ptrRamWdgt->aiirConfig, &contextAIIR, &filteredPosition
1667:Generated_Source\PSoC6/CapSense_Processing.c ****                         ptrHistory->posAIIR = contextAIIR.previousX;
1668:Generated_Source\PSoC6/CapSense_Processing.c ****                         ptrHistory->posAIIRCoeff = contextAIIR.coefficient;
1669:Generated_Source\PSoC6/CapSense_Processing.c ****                     }
1670:Generated_Source\PSoC6/CapSense_Processing.c ****                 #endif /* (0u != CapSense_POS_ADAPTIVE_IIR_FILTER_EN) */
1671:Generated_Source\PSoC6/CapSense_Processing.c **** 
1672:Generated_Source\PSoC6/CapSense_Processing.c ****                 #if (0u != CapSense_POS_AVERAGE_FILTER_EN)
1673:Generated_Source\PSoC6/CapSense_Processing.c ****                     if (0u != (filterConfig & CapSense_POS_AVERAGE_FILTER_MASK))
 996              		.loc 1 1673 0
 997 00ca 1AF0400F 		tst	r10, #64
 998 00ce 06D0     		beq	.L77
 999              	.LVL170:
1674:Generated_Source\PSoC6/CapSense_Processing.c ****                     {
1675:Generated_Source\PSoC6/CapSense_Processing.c ****                         tempPosition = filteredPosition;
1676:Generated_Source\PSoC6/CapSense_Processing.c ****                         filteredPosition = (uint16)(filteredPosition + ptrHistory->posAverage) >> 1
 1000              		.loc 1 1676 0
 1001 00d0 B9F80030 		ldrh	r3, [r9]
 1002 00d4 5B44     		add	r3, r3, fp
 1003              	.LVL171:
1677:Generated_Source\PSoC6/CapSense_Processing.c ****                         ptrHistory->posAverage = tempPosition;
 1004              		.loc 1 1677 0
 1005 00d6 A9F800B0 		strh	fp, [r9]	@ movhi
1676:Generated_Source\PSoC6/CapSense_Processing.c ****                         ptrHistory->posAverage = tempPosition;
 1006              		.loc 1 1676 0
 1007 00da C3F34E0B 		ubfx	fp, r3, #1, #15
 1008              	.LVL172:
 1009              	.L77:
1678:Generated_Source\PSoC6/CapSense_Processing.c ****                     }
1679:Generated_Source\PSoC6/CapSense_Processing.c ****                 #endif /* #if (0u != CapSense_POS_AVERAGE_FILTER_EN) */
1680:Generated_Source\PSoC6/CapSense_Processing.c **** 
1681:Generated_Source\PSoC6/CapSense_Processing.c ****                 #if (0u != CapSense_POS_JITTER_FILTER_EN)
1682:Generated_Source\PSoC6/CapSense_Processing.c ****                     if (0u != (filterConfig & CapSense_POS_JITTER_FILTER_MASK))
1683:Generated_Source\PSoC6/CapSense_Processing.c ****                     {
1684:Generated_Source\PSoC6/CapSense_Processing.c ****                         filteredPosition = (uint16)CapSense_FtJitter((uint32)filteredPosition, (uin
1685:Generated_Source\PSoC6/CapSense_Processing.c ****                         ptrHistory->posJitter = filteredPosition;
1686:Generated_Source\PSoC6/CapSense_Processing.c ****                     }
1687:Generated_Source\PSoC6/CapSense_Processing.c ****                 #endif /* #if (0u != CapSense_POS_JITTER_FILTER_EN) */
1688:Generated_Source\PSoC6/CapSense_Processing.c ****             }
1689:Generated_Source\PSoC6/CapSense_Processing.c **** 
1690:Generated_Source\PSoC6/CapSense_Processing.c ****             /* Update position data */
1691:Generated_Source\PSoC6/CapSense_Processing.c ****             ptrRamWdgt->position[touchIdx] = filteredPosition;
 1010              		.loc 1 1691 0
 1011 00de 08F10803 		add	r3, r8, #8
 1012 00e2 07EB4303 		add	r3, r7, r3, lsl #1
 1013 00e6 A3F804B0 		strh	fp, [r3, #4]	@ movhi
1692:Generated_Source\PSoC6/CapSense_Processing.c **** 
1693:Generated_Source\PSoC6/CapSense_Processing.c ****             ptrHistory = (NULL != ptrHistory) ? (ptrHistory + 1) : NULL;
 1014              		.loc 1 1693 0
 1015 00ea B9F1000F 		cmp	r9, #0
 1016 00ee 01D0     		beq	.L78
 1017 00f0 09F10209 		add	r9, r9, #2
ARM GAS  C:\Users\Mahrukh\AppData\Local\Temp\ccgflWoc.s 			page 50


 1018              	.LVL173:
 1019              	.L78:
1626:Generated_Source\PSoC6/CapSense_Processing.c ****     {
 1020              		.loc 1 1626 0
 1021 00f4 08F10108 		add	r8, r8, #1
 1022              	.LVL174:
 1023              	.L75:
 1024 00f8 4445     		cmp	r4, r8
 1025 00fa D5D8     		bhi	.L79
 1026 00fc 0FE0     		b	.L80
 1027              	.LVL175:
 1028              	.L84:
 1029              	.LBE9:
 1030              	.LBE8:
1443:Generated_Source\PSoC6/CapSense_Processing.c ****     uint16 newPos[CapSense_NUM_CENTROIDS];
 1031              		.loc 1 1443 0
 1032 00fe 0024     		movs	r4, #0
 1033              	.LVL176:
 1034 0100 0DE0     		b	.L80
 1035              	.LVL177:
 1036              	.L82:
1564:Generated_Source\PSoC6/CapSense_Processing.c **** 
 1037              		.loc 1 1564 0
 1038 0102 04F10803 		add	r3, r4, #8
 1039 0106 07EB4303 		add	r3, r7, r3, lsl #1
 1040 010a 4FF6FF72 		movw	r2, #65535
 1041 010e 9A80     		strh	r2, [r3, #4]	@ movhi
1567:Generated_Source\PSoC6/CapSense_Processing.c ****             {
 1042              		.loc 1 1567 0
 1043 0110 26B1     		cbz	r6, .L81
1569:Generated_Source\PSoC6/CapSense_Processing.c ****             }
 1044              		.loc 1 1569 0
 1045 0112 1146     		mov	r1, r2
 1046 0114 06EB4400 		add	r0, r6, r4, lsl #1
 1047 0118 FFF7FEFF 		bl	CapSense_InitPosFiltersSd
 1048              	.LVL178:
 1049              	.L81:
1562:Generated_Source\PSoC6/CapSense_Processing.c ****     {
 1050              		.loc 1 1562 0 discriminator 2
 1051 011c 0134     		adds	r4, r4, #1
 1052              	.LVL179:
 1053              	.L80:
1562:Generated_Source\PSoC6/CapSense_Processing.c ****     {
 1054              		.loc 1 1562 0 is_stmt 0 discriminator 1
 1055 011e 002C     		cmp	r4, #0
 1056 0120 EFD0     		beq	.L82
1575:Generated_Source\PSoC6/CapSense_Processing.c **** #endif /* #if (0u != CapSense_SLIDER_WIDGET_EN) */
 1057              		.loc 1 1575 0 is_stmt 1
 1058 0122 2846     		mov	r0, r5
 1059 0124 03B0     		add	sp, sp, #12
 1060              		.cfi_def_cfa_offset 36
 1061              		@ sp needed
 1062 0126 BDE8F08F 		pop	{r4, r5, r6, r7, r8, r9, r10, fp, pc}
 1063              		.cfi_endproc
 1064              	.LFE143:
 1065              		.size	CapSense_DpProcessSlider, .-CapSense_DpProcessSlider
 1066 012a 00BF     		.section	.text.CapSense_DpProcessCsdWidgetStatus,"ax",%progbits
ARM GAS  C:\Users\Mahrukh\AppData\Local\Temp\ccgflWoc.s 			page 51


 1067              		.align	2
 1068              		.global	CapSense_DpProcessCsdWidgetStatus
 1069              		.thumb
 1070              		.thumb_func
 1071              		.type	CapSense_DpProcessCsdWidgetStatus, %function
 1072              	CapSense_DpProcessCsdWidgetStatus:
 1073              	.LFB139:
1016:Generated_Source\PSoC6/CapSense_Processing.c ****     uint32 sensorStatus;
 1074              		.loc 1 1016 0
 1075              		.cfi_startproc
 1076              		@ args = 0, pretend = 0, frame = 0
 1077              		@ frame_needed = 0, uses_anonymous_args = 0
 1078              	.LVL180:
 1079 0000 38B5     		push	{r3, r4, r5, lr}
 1080              		.cfi_def_cfa_offset 16
 1081              		.cfi_offset 3, -16
 1082              		.cfi_offset 4, -12
 1083              		.cfi_offset 5, -8
 1084              		.cfi_offset 14, -4
 1085 0002 0446     		mov	r4, r0
1022:Generated_Source\PSoC6/CapSense_Processing.c ****     sensorStatus = CapSense_dsRam.snsStatus[widgetId];
 1086              		.loc 1 1022 0
 1087 0004 8A7E     		ldrb	r2, [r1, #26]	@ zero_extendqisi2
 1088              	.LVL181:
1023:Generated_Source\PSoC6/CapSense_Processing.c **** 
 1089              		.loc 1 1023 0
 1090 0006 194B     		ldr	r3, .L95
 1091 0008 0344     		add	r3, r3, r0
 1092 000a 1D7E     		ldrb	r5, [r3, #24]	@ zero_extendqisi2
 1093              	.LVL182:
1025:Generated_Source\PSoC6/CapSense_Processing.c ****     {
 1094              		.loc 1 1025 0
 1095 000c 012A     		cmp	r2, #1
 1096 000e 03D0     		beq	.L88
 1097 0010 62B1     		cbz	r2, .L87
 1098 0012 032A     		cmp	r2, #3
 1099 0014 05D9     		bls	.L93
 1100 0016 09E0     		b	.L87
 1101              	.L88:
1029:Generated_Source\PSoC6/CapSense_Processing.c ****             break;
 1102              		.loc 1 1029 0
 1103 0018 2846     		mov	r0, r5
 1104              	.LVL183:
 1105 001a FFF7FEFF 		bl	CapSense_DpProcessButton
 1106              	.LVL184:
 1107 001e 0546     		mov	r5, r0
 1108              	.LVL185:
1030:Generated_Source\PSoC6/CapSense_Processing.c ****     #endif /* #if (0u != CapSense_BUTTON_WIDGET_EN) */
 1109              		.loc 1 1030 0
 1110 0020 09E0     		b	.L90
 1111              	.LVL186:
 1112              	.L93:
1036:Generated_Source\PSoC6/CapSense_Processing.c ****             break;
 1113              		.loc 1 1036 0
 1114 0022 2846     		mov	r0, r5
 1115              	.LVL187:
 1116 0024 FFF7FEFF 		bl	CapSense_DpProcessSlider
ARM GAS  C:\Users\Mahrukh\AppData\Local\Temp\ccgflWoc.s 			page 52


 1117              	.LVL188:
 1118 0028 0546     		mov	r5, r0
 1119              	.LVL189:
1037:Generated_Source\PSoC6/CapSense_Processing.c ****     #endif /* #if (0u != CapSense_SLIDER_WIDGET_EN) */
 1120              		.loc 1 1037 0
 1121 002a 04E0     		b	.L90
 1122              	.LVL190:
 1123              	.L87:
1062:Generated_Source\PSoC6/CapSense_Processing.c ****         break;
 1124              		.loc 1 1062 0 discriminator 1
 1125 002c 40F22641 		movw	r1, #1062
 1126              	.LVL191:
 1127 0030 0F48     		ldr	r0, .L95+4
 1128              	.LVL192:
 1129 0032 FFF7FEFF 		bl	Cy_SysLib_AssertFailed
 1130              	.LVL193:
 1131              	.L90:
1066:Generated_Source\PSoC6/CapSense_Processing.c **** 
 1132              		.loc 1 1066 0
 1133 0036 0D4B     		ldr	r3, .L95
 1134 0038 2344     		add	r3, r3, r4
 1135 003a 1D76     		strb	r5, [r3, #24]
1069:Generated_Source\PSoC6/CapSense_Processing.c ****     wdStatusMask = CapSense_GET_WDGT_STATUS_MASK(widgetId);
 1136              		.loc 1 1069 0
 1137 003c 6209     		lsrs	r2, r4, #5
 1138              	.LVL194:
1070:Generated_Source\PSoC6/CapSense_Processing.c **** 
 1139              		.loc 1 1070 0
 1140 003e 04F01F04 		and	r4, r4, #31
 1141              	.LVL195:
 1142 0042 0123     		movs	r3, #1
 1143 0044 03FA04F4 		lsl	r4, r3, r4
 1144              	.LVL196:
1073:Generated_Source\PSoC6/CapSense_Processing.c ****     {
 1145              		.loc 1 1073 0
 1146 0048 45B9     		cbnz	r5, .L91
1075:Generated_Source\PSoC6/CapSense_Processing.c ****     }
 1147              		.loc 1 1075 0
 1148 004a 0432     		adds	r2, r2, #4
 1149              	.LVL197:
 1150 004c 074B     		ldr	r3, .L95
 1151 004e 03EB8202 		add	r2, r3, r2, lsl #2
 1152              	.LVL198:
 1153 0052 5368     		ldr	r3, [r2, #4]
 1154 0054 23EA0404 		bic	r4, r3, r4
 1155              	.LVL199:
 1156 0058 5460     		str	r4, [r2, #4]
 1157 005a 38BD     		pop	{r3, r4, r5, pc}
 1158              	.LVL200:
 1159              	.L91:
1079:Generated_Source\PSoC6/CapSense_Processing.c ****     }
 1160              		.loc 1 1079 0
 1161 005c 0432     		adds	r2, r2, #4
 1162              	.LVL201:
 1163 005e 034B     		ldr	r3, .L95
 1164 0060 03EB8202 		add	r2, r3, r2, lsl #2
 1165              	.LVL202:
ARM GAS  C:\Users\Mahrukh\AppData\Local\Temp\ccgflWoc.s 			page 53


 1166 0064 5368     		ldr	r3, [r2, #4]
 1167 0066 1C43     		orrs	r4, r4, r3
 1168              	.LVL203:
 1169 0068 5460     		str	r4, [r2, #4]
 1170 006a 38BD     		pop	{r3, r4, r5, pc}
 1171              	.LVL204:
 1172              	.L96:
 1173              		.align	2
 1174              	.L95:
 1175 006c 00000000 		.word	CapSense_dsRam
 1176 0070 00000000 		.word	.LC0
 1177              		.cfi_endproc
 1178              	.LFE139:
 1179              		.size	CapSense_DpProcessCsdWidgetStatus, .-CapSense_DpProcessCsdWidgetStatus
 1180              		.section	.rodata.str1.4,"aMS",%progbits,1
 1181              		.align	2
 1182              	.LC0:
 1183 0000 47656E65 		.ascii	"Generated_Source\\PSoC6\\CapSense_Processing.c\000"
 1183      72617465 
 1183      645F536F 
 1183      75726365 
 1183      5C50536F 
 1184              		.text
 1185              	.Letext0:
 1186              		.file 2 "c:\\program files (x86)\\cypress\\psoc creator\\4.4\\psoc creator\\import\\gnu\\arm\\5.4.
 1187              		.file 3 "c:\\program files (x86)\\cypress\\psoc creator\\4.4\\psoc creator\\import\\gnu\\arm\\5.4.
 1188              		.file 4 "c:\\program files (x86)\\cypress\\psoc creator\\4.4\\psoc creator\\import\\gnu\\arm\\5.4.
 1189              		.file 5 "Generated_Source\\PSoC6\\pdl\\drivers/peripheral/syslib/cy_syslib.h"
 1190              		.file 6 "Generated_Source\\PSoC6\\CapSense_Configuration.h"
 1191              		.file 7 "Generated_Source\\PSoC6\\CapSense_SmartSense_LL.h"
 1192              		.file 8 "Generated_Source\\PSoC6\\CapSense_TMG.h"
 1193              		.file 9 "Generated_Source\\PSoC6\\CapSense_Structure.h"
 1194              		.file 10 ".\\CMSIS\\Core\\Include/core_cm4.h"
 1195              		.file 11 "Generated_Source\\PSoC6\\CapSense_Centroid_LL.h"
 1196              		.file 12 "c:\\program files (x86)\\cypress\\psoc creator\\4.4\\psoc creator\\import\\gnu\\arm\\5.4
 1197              		.file 13 "Generated_Source\\PSoC6\\CapSense_Filter.h"
 1198              		.section	.debug_info,"",%progbits
 1199              	.Ldebug_info0:
 1200 0000 6C160000 		.4byte	0x166c
 1201 0004 0400     		.2byte	0x4
 1202 0006 00000000 		.4byte	.Ldebug_abbrev0
 1203 000a 04       		.byte	0x4
 1204 000b 01       		.uleb128 0x1
 1205 000c 3F030000 		.4byte	.LASF256
 1206 0010 0C       		.byte	0xc
 1207 0011 1B050000 		.4byte	.LASF257
 1208 0015 A90E0000 		.4byte	.LASF258
 1209 0019 00000000 		.4byte	.Ldebug_ranges0+0
 1210 001d 00000000 		.4byte	0
 1211 0021 00000000 		.4byte	.Ldebug_line0
 1212 0025 02       		.uleb128 0x2
 1213 0026 01       		.byte	0x1
 1214 0027 06       		.byte	0x6
 1215 0028 420F0000 		.4byte	.LASF0
 1216 002c 03       		.uleb128 0x3
 1217 002d BB0C0000 		.4byte	.LASF3
 1218 0031 02       		.byte	0x2
ARM GAS  C:\Users\Mahrukh\AppData\Local\Temp\ccgflWoc.s 			page 54


 1219 0032 1D       		.byte	0x1d
 1220 0033 37000000 		.4byte	0x37
 1221 0037 02       		.uleb128 0x2
 1222 0038 01       		.byte	0x1
 1223 0039 08       		.byte	0x8
 1224 003a 120E0000 		.4byte	.LASF1
 1225 003e 02       		.uleb128 0x2
 1226 003f 02       		.byte	0x2
 1227 0040 05       		.byte	0x5
 1228 0041 B70B0000 		.4byte	.LASF2
 1229 0045 03       		.uleb128 0x3
 1230 0046 2D060000 		.4byte	.LASF4
 1231 004a 02       		.byte	0x2
 1232 004b 2B       		.byte	0x2b
 1233 004c 50000000 		.4byte	0x50
 1234 0050 02       		.uleb128 0x2
 1235 0051 02       		.byte	0x2
 1236 0052 07       		.byte	0x7
 1237 0053 780F0000 		.4byte	.LASF5
 1238 0057 03       		.uleb128 0x3
 1239 0058 6F020000 		.4byte	.LASF6
 1240 005c 02       		.byte	0x2
 1241 005d 3F       		.byte	0x3f
 1242 005e 62000000 		.4byte	0x62
 1243 0062 02       		.uleb128 0x2
 1244 0063 04       		.byte	0x4
 1245 0064 05       		.byte	0x5
 1246 0065 FF0B0000 		.4byte	.LASF7
 1247 0069 03       		.uleb128 0x3
 1248 006a 2D0E0000 		.4byte	.LASF8
 1249 006e 02       		.byte	0x2
 1250 006f 41       		.byte	0x41
 1251 0070 74000000 		.4byte	0x74
 1252 0074 02       		.uleb128 0x2
 1253 0075 04       		.byte	0x4
 1254 0076 07       		.byte	0x7
 1255 0077 440D0000 		.4byte	.LASF9
 1256 007b 02       		.uleb128 0x2
 1257 007c 08       		.byte	0x8
 1258 007d 05       		.byte	0x5
 1259 007e 53090000 		.4byte	.LASF10
 1260 0082 02       		.uleb128 0x2
 1261 0083 08       		.byte	0x8
 1262 0084 07       		.byte	0x7
 1263 0085 BE050000 		.4byte	.LASF11
 1264 0089 04       		.uleb128 0x4
 1265 008a 04       		.byte	0x4
 1266 008b 05       		.byte	0x5
 1267 008c 696E7400 		.ascii	"int\000"
 1268 0090 02       		.uleb128 0x2
 1269 0091 04       		.byte	0x4
 1270 0092 07       		.byte	0x7
 1271 0093 DF010000 		.4byte	.LASF12
 1272 0097 03       		.uleb128 0x3
 1273 0098 A2080000 		.4byte	.LASF13
 1274 009c 03       		.byte	0x3
 1275 009d 18       		.byte	0x18
ARM GAS  C:\Users\Mahrukh\AppData\Local\Temp\ccgflWoc.s 			page 55


 1276 009e 2C000000 		.4byte	0x2c
 1277 00a2 03       		.uleb128 0x3
 1278 00a3 090E0000 		.4byte	.LASF14
 1279 00a7 03       		.byte	0x3
 1280 00a8 24       		.byte	0x24
 1281 00a9 45000000 		.4byte	0x45
 1282 00ad 03       		.uleb128 0x3
 1283 00ae A1020000 		.4byte	.LASF15
 1284 00b2 03       		.byte	0x3
 1285 00b3 2C       		.byte	0x2c
 1286 00b4 57000000 		.4byte	0x57
 1287 00b8 03       		.uleb128 0x3
 1288 00b9 D3040000 		.4byte	.LASF16
 1289 00bd 03       		.byte	0x3
 1290 00be 30       		.byte	0x30
 1291 00bf 69000000 		.4byte	0x69
 1292 00c3 03       		.uleb128 0x3
 1293 00c4 CC060000 		.4byte	.LASF17
 1294 00c8 04       		.byte	0x4
 1295 00c9 D8       		.byte	0xd8
 1296 00ca 90000000 		.4byte	0x90
 1297 00ce 02       		.uleb128 0x2
 1298 00cf 08       		.byte	0x8
 1299 00d0 04       		.byte	0x4
 1300 00d1 F60A0000 		.4byte	.LASF18
 1301 00d5 02       		.uleb128 0x2
 1302 00d6 04       		.byte	0x4
 1303 00d7 07       		.byte	0x7
 1304 00d8 3B0D0000 		.4byte	.LASF19
 1305 00dc 05       		.uleb128 0x5
 1306 00dd 97000000 		.4byte	0x97
 1307 00e1 05       		.uleb128 0x5
 1308 00e2 A2000000 		.4byte	0xa2
 1309 00e6 06       		.uleb128 0x6
 1310 00e7 470C0000 		.4byte	.LASF20
 1311 00eb 05       		.byte	0x5
 1312 00ec F601     		.2byte	0x1f6
 1313 00ee F2000000 		.4byte	0xf2
 1314 00f2 02       		.uleb128 0x2
 1315 00f3 01       		.byte	0x1
 1316 00f4 08       		.byte	0x8
 1317 00f5 0D080000 		.4byte	.LASF21
 1318 00f9 02       		.uleb128 0x2
 1319 00fa 04       		.byte	0x4
 1320 00fb 04       		.byte	0x4
 1321 00fc 0F050000 		.4byte	.LASF22
 1322 0100 02       		.uleb128 0x2
 1323 0101 08       		.byte	0x8
 1324 0102 04       		.byte	0x4
 1325 0103 EB0F0000 		.4byte	.LASF23
 1326 0107 06       		.uleb128 0x6
 1327 0108 E50F0000 		.4byte	.LASF24
 1328 010c 05       		.byte	0x5
 1329 010d EA03     		.2byte	0x3ea
 1330 010f 97000000 		.4byte	0x97
 1331 0113 06       		.uleb128 0x6
 1332 0114 7F080000 		.4byte	.LASF25
ARM GAS  C:\Users\Mahrukh\AppData\Local\Temp\ccgflWoc.s 			page 56


 1333 0118 05       		.byte	0x5
 1334 0119 EB03     		.2byte	0x3eb
 1335 011b A2000000 		.4byte	0xa2
 1336 011f 06       		.uleb128 0x6
 1337 0120 4B0A0000 		.4byte	.LASF26
 1338 0124 05       		.byte	0x5
 1339 0125 EC03     		.2byte	0x3ec
 1340 0127 B8000000 		.4byte	0xb8
 1341 012b 06       		.uleb128 0x6
 1342 012c 15050000 		.4byte	.LASF27
 1343 0130 05       		.byte	0x5
 1344 0131 EF03     		.2byte	0x3ef
 1345 0133 AD000000 		.4byte	0xad
 1346 0137 07       		.uleb128 0x7
 1347 0138 04       		.byte	0x4
 1348 0139 03       		.uleb128 0x3
 1349 013a 890E0000 		.4byte	.LASF28
 1350 013e 06       		.byte	0x6
 1351 013f F2       		.byte	0xf2
 1352 0140 13010000 		.4byte	0x113
 1353 0144 03       		.uleb128 0x3
 1354 0145 B1080000 		.4byte	.LASF29
 1355 0149 06       		.byte	0x6
 1356 014a F6       		.byte	0xf6
 1357 014b 07010000 		.4byte	0x107
 1358 014f 08       		.uleb128 0x8
 1359 0150 0C       		.byte	0xc
 1360 0151 07       		.byte	0x7
 1361 0152 6E       		.byte	0x6e
 1362 0153 AC010000 		.4byte	0x1ac
 1363 0157 09       		.uleb128 0x9
 1364 0158 1A100000 		.4byte	.LASF30
 1365 015c 07       		.byte	0x7
 1366 015d 73       		.byte	0x73
 1367 015e 13010000 		.4byte	0x113
 1368 0162 00       		.byte	0
 1369 0163 09       		.uleb128 0x9
 1370 0164 21100000 		.4byte	.LASF31
 1371 0168 07       		.byte	0x7
 1372 0169 77       		.byte	0x77
 1373 016a 13010000 		.4byte	0x113
 1374 016e 02       		.byte	0x2
 1375 016f 09       		.uleb128 0x9
 1376 0170 28100000 		.4byte	.LASF32
 1377 0174 07       		.byte	0x7
 1378 0175 7B       		.byte	0x7b
 1379 0176 13010000 		.4byte	0x113
 1380 017a 04       		.byte	0x4
 1381 017b 09       		.uleb128 0x9
 1382 017c 2F100000 		.4byte	.LASF33
 1383 0180 07       		.byte	0x7
 1384 0181 7F       		.byte	0x7f
 1385 0182 13010000 		.4byte	0x113
 1386 0186 06       		.byte	0x6
 1387 0187 09       		.uleb128 0x9
 1388 0188 36100000 		.4byte	.LASF34
 1389 018c 07       		.byte	0x7
ARM GAS  C:\Users\Mahrukh\AppData\Local\Temp\ccgflWoc.s 			page 57


 1390 018d 83       		.byte	0x83
 1391 018e 13010000 		.4byte	0x113
 1392 0192 08       		.byte	0x8
 1393 0193 09       		.uleb128 0x9
 1394 0194 3D100000 		.4byte	.LASF35
 1395 0198 07       		.byte	0x7
 1396 0199 87       		.byte	0x87
 1397 019a 07010000 		.4byte	0x107
 1398 019e 0A       		.byte	0xa
 1399 019f 09       		.uleb128 0x9
 1400 01a0 44100000 		.4byte	.LASF36
 1401 01a4 07       		.byte	0x7
 1402 01a5 8B       		.byte	0x8b
 1403 01a6 07010000 		.4byte	0x107
 1404 01aa 0B       		.byte	0xb
 1405 01ab 00       		.byte	0
 1406 01ac 03       		.uleb128 0x3
 1407 01ad E0070000 		.4byte	.LASF37
 1408 01b1 07       		.byte	0x7
 1409 01b2 8C       		.byte	0x8c
 1410 01b3 4F010000 		.4byte	0x14f
 1411 01b7 08       		.uleb128 0x8
 1412 01b8 06       		.byte	0x6
 1413 01b9 07       		.byte	0x7
 1414 01ba 94       		.byte	0x94
 1415 01bb F0010000 		.4byte	0x1f0
 1416 01bf 09       		.uleb128 0x9
 1417 01c0 A80C0000 		.4byte	.LASF38
 1418 01c4 07       		.byte	0x7
 1419 01c5 99       		.byte	0x99
 1420 01c6 13010000 		.4byte	0x113
 1421 01ca 00       		.byte	0
 1422 01cb 09       		.uleb128 0x9
 1423 01cc 05080000 		.4byte	.LASF39
 1424 01d0 07       		.byte	0x7
 1425 01d1 9E       		.byte	0x9e
 1426 01d2 07010000 		.4byte	0x107
 1427 01d6 02       		.byte	0x2
 1428 01d7 09       		.uleb128 0x9
 1429 01d8 CF090000 		.4byte	.LASF40
 1430 01dc 07       		.byte	0x7
 1431 01dd A3       		.byte	0xa3
 1432 01de 07010000 		.4byte	0x107
 1433 01e2 03       		.byte	0x3
 1434 01e3 09       		.uleb128 0x9
 1435 01e4 F6060000 		.4byte	.LASF41
 1436 01e8 07       		.byte	0x7
 1437 01e9 A8       		.byte	0xa8
 1438 01ea 07010000 		.4byte	0x107
 1439 01ee 04       		.byte	0x4
 1440 01ef 00       		.byte	0
 1441 01f0 03       		.uleb128 0x3
 1442 01f1 150C0000 		.4byte	.LASF42
 1443 01f5 07       		.byte	0x7
 1444 01f6 A9       		.byte	0xa9
 1445 01f7 B7010000 		.4byte	0x1b7
 1446 01fb 08       		.uleb128 0x8
ARM GAS  C:\Users\Mahrukh\AppData\Local\Temp\ccgflWoc.s 			page 58


 1447 01fc 56       		.byte	0x56
 1448 01fd 08       		.byte	0x8
 1449 01fe 21       		.byte	0x21
 1450 01ff 98050000 		.4byte	0x598
 1451 0203 09       		.uleb128 0x9
 1452 0204 3C0A0000 		.4byte	.LASF43
 1453 0208 08       		.byte	0x8
 1454 0209 26       		.byte	0x26
 1455 020a DC000000 		.4byte	0xdc
 1456 020e 00       		.byte	0
 1457 020f 09       		.uleb128 0x9
 1458 0210 8C000000 		.4byte	.LASF44
 1459 0214 08       		.byte	0x8
 1460 0215 2D       		.byte	0x2d
 1461 0216 DC000000 		.4byte	0xdc
 1462 021a 01       		.byte	0x1
 1463 021b 09       		.uleb128 0x9
 1464 021c 9F000000 		.4byte	.LASF45
 1465 0220 08       		.byte	0x8
 1466 0221 33       		.byte	0x33
 1467 0222 DC000000 		.4byte	0xdc
 1468 0226 02       		.byte	0x2
 1469 0227 09       		.uleb128 0x9
 1470 0228 7F040000 		.4byte	.LASF46
 1471 022c 08       		.byte	0x8
 1472 022d 39       		.byte	0x39
 1473 022e DC000000 		.4byte	0xdc
 1474 0232 03       		.byte	0x3
 1475 0233 09       		.uleb128 0x9
 1476 0234 93040000 		.4byte	.LASF47
 1477 0238 08       		.byte	0x8
 1478 0239 3F       		.byte	0x3f
 1479 023a DC000000 		.4byte	0xdc
 1480 023e 04       		.byte	0x4
 1481 023f 09       		.uleb128 0x9
 1482 0240 62000000 		.4byte	.LASF48
 1483 0244 08       		.byte	0x8
 1484 0245 45       		.byte	0x45
 1485 0246 DC000000 		.4byte	0xdc
 1486 024a 05       		.byte	0x5
 1487 024b 09       		.uleb128 0x9
 1488 024c 77000000 		.4byte	.LASF49
 1489 0250 08       		.byte	0x8
 1490 0251 4B       		.byte	0x4b
 1491 0252 DC000000 		.4byte	0xdc
 1492 0256 06       		.byte	0x6
 1493 0257 09       		.uleb128 0x9
 1494 0258 5E0D0000 		.4byte	.LASF50
 1495 025c 08       		.byte	0x8
 1496 025d 51       		.byte	0x51
 1497 025e DC000000 		.4byte	0xdc
 1498 0262 07       		.byte	0x7
 1499 0263 09       		.uleb128 0x9
 1500 0264 83100000 		.4byte	.LASF51
 1501 0268 08       		.byte	0x8
 1502 0269 57       		.byte	0x57
 1503 026a DC000000 		.4byte	0xdc
ARM GAS  C:\Users\Mahrukh\AppData\Local\Temp\ccgflWoc.s 			page 59


 1504 026e 08       		.byte	0x8
 1505 026f 09       		.uleb128 0x9
 1506 0270 77010000 		.4byte	.LASF52
 1507 0274 08       		.byte	0x8
 1508 0275 5D       		.byte	0x5d
 1509 0276 DC000000 		.4byte	0xdc
 1510 027a 09       		.byte	0x9
 1511 027b 09       		.uleb128 0x9
 1512 027c D3020000 		.4byte	.LASF53
 1513 0280 08       		.byte	0x8
 1514 0281 63       		.byte	0x63
 1515 0282 DC000000 		.4byte	0xdc
 1516 0286 0A       		.byte	0xa
 1517 0287 09       		.uleb128 0x9
 1518 0288 C90F0000 		.4byte	.LASF54
 1519 028c 08       		.byte	0x8
 1520 028d 69       		.byte	0x69
 1521 028e DC000000 		.4byte	0xdc
 1522 0292 0B       		.byte	0xb
 1523 0293 09       		.uleb128 0x9
 1524 0294 97100000 		.4byte	.LASF55
 1525 0298 08       		.byte	0x8
 1526 0299 6F       		.byte	0x6f
 1527 029a DC000000 		.4byte	0xdc
 1528 029e 0C       		.byte	0xc
 1529 029f 09       		.uleb128 0x9
 1530 02a0 8B010000 		.4byte	.LASF56
 1531 02a4 08       		.byte	0x8
 1532 02a5 75       		.byte	0x75
 1533 02a6 DC000000 		.4byte	0xdc
 1534 02aa 0D       		.byte	0xd
 1535 02ab 09       		.uleb128 0x9
 1536 02ac E7020000 		.4byte	.LASF57
 1537 02b0 08       		.byte	0x8
 1538 02b1 7B       		.byte	0x7b
 1539 02b2 DC000000 		.4byte	0xdc
 1540 02b6 0E       		.byte	0xe
 1541 02b7 09       		.uleb128 0x9
 1542 02b8 580B0000 		.4byte	.LASF58
 1543 02bc 08       		.byte	0x8
 1544 02bd 83       		.byte	0x83
 1545 02be DC000000 		.4byte	0xdc
 1546 02c2 0F       		.byte	0xf
 1547 02c3 09       		.uleb128 0x9
 1548 02c4 45020000 		.4byte	.LASF59
 1549 02c8 08       		.byte	0x8
 1550 02c9 8B       		.byte	0x8b
 1551 02ca DC000000 		.4byte	0xdc
 1552 02ce 10       		.byte	0x10
 1553 02cf 09       		.uleb128 0x9
 1554 02d0 53020000 		.4byte	.LASF60
 1555 02d4 08       		.byte	0x8
 1556 02d5 93       		.byte	0x93
 1557 02d6 DC000000 		.4byte	0xdc
 1558 02da 11       		.byte	0x11
 1559 02db 09       		.uleb128 0x9
 1560 02dc 61020000 		.4byte	.LASF61
ARM GAS  C:\Users\Mahrukh\AppData\Local\Temp\ccgflWoc.s 			page 60


 1561 02e0 08       		.byte	0x8
 1562 02e1 9B       		.byte	0x9b
 1563 02e2 DC000000 		.4byte	0xdc
 1564 02e6 12       		.byte	0x12
 1565 02e7 09       		.uleb128 0x9
 1566 02e8 09090000 		.4byte	.LASF62
 1567 02ec 08       		.byte	0x8
 1568 02ed A2       		.byte	0xa2
 1569 02ee DC000000 		.4byte	0xdc
 1570 02f2 13       		.byte	0x13
 1571 02f3 09       		.uleb128 0x9
 1572 02f4 79020000 		.4byte	.LASF63
 1573 02f8 08       		.byte	0x8
 1574 02f9 A8       		.byte	0xa8
 1575 02fa DC000000 		.4byte	0xdc
 1576 02fe 14       		.byte	0x14
 1577 02ff 09       		.uleb128 0x9
 1578 0300 A9020000 		.4byte	.LASF64
 1579 0304 08       		.byte	0x8
 1580 0305 AE       		.byte	0xae
 1581 0306 DC000000 		.4byte	0xdc
 1582 030a 15       		.byte	0x15
 1583 030b 09       		.uleb128 0x9
 1584 030c 5E050000 		.4byte	.LASF65
 1585 0310 08       		.byte	0x8
 1586 0311 B4       		.byte	0xb4
 1587 0312 DC000000 		.4byte	0xdc
 1588 0316 16       		.byte	0x16
 1589 0317 09       		.uleb128 0x9
 1590 0318 66060000 		.4byte	.LASF66
 1591 031c 08       		.byte	0x8
 1592 031d BA       		.byte	0xba
 1593 031e DC000000 		.4byte	0xdc
 1594 0322 17       		.byte	0x17
 1595 0323 09       		.uleb128 0x9
 1596 0324 8D020000 		.4byte	.LASF67
 1597 0328 08       		.byte	0x8
 1598 0329 C0       		.byte	0xc0
 1599 032a DC000000 		.4byte	0xdc
 1600 032e 18       		.byte	0x18
 1601 032f 09       		.uleb128 0x9
 1602 0330 1A040000 		.4byte	.LASF68
 1603 0334 08       		.byte	0x8
 1604 0335 C6       		.byte	0xc6
 1605 0336 DC000000 		.4byte	0xdc
 1606 033a 19       		.byte	0x19
 1607 033b 09       		.uleb128 0x9
 1608 033c 72050000 		.4byte	.LASF69
 1609 0340 08       		.byte	0x8
 1610 0341 CC       		.byte	0xcc
 1611 0342 DC000000 		.4byte	0xdc
 1612 0346 1A       		.byte	0x1a
 1613 0347 09       		.uleb128 0x9
 1614 0348 7A060000 		.4byte	.LASF70
 1615 034c 08       		.byte	0x8
 1616 034d D2       		.byte	0xd2
 1617 034e DC000000 		.4byte	0xdc
ARM GAS  C:\Users\Mahrukh\AppData\Local\Temp\ccgflWoc.s 			page 61


 1618 0352 1B       		.byte	0x1b
 1619 0353 09       		.uleb128 0x9
 1620 0354 7F0B0000 		.4byte	.LASF71
 1621 0358 08       		.byte	0x8
 1622 0359 DA       		.byte	0xda
 1623 035a DC000000 		.4byte	0xdc
 1624 035e 1C       		.byte	0x1c
 1625 035f 09       		.uleb128 0x9
 1626 0360 8D0B0000 		.4byte	.LASF72
 1627 0364 08       		.byte	0x8
 1628 0365 E2       		.byte	0xe2
 1629 0366 DC000000 		.4byte	0xdc
 1630 036a 1D       		.byte	0x1d
 1631 036b 09       		.uleb128 0x9
 1632 036c 9B0B0000 		.4byte	.LASF73
 1633 0370 08       		.byte	0x8
 1634 0371 EA       		.byte	0xea
 1635 0372 DC000000 		.4byte	0xdc
 1636 0376 1E       		.byte	0x1e
 1637 0377 09       		.uleb128 0x9
 1638 0378 A90B0000 		.4byte	.LASF74
 1639 037c 08       		.byte	0x8
 1640 037d F2       		.byte	0xf2
 1641 037e DC000000 		.4byte	0xdc
 1642 0382 1F       		.byte	0x1f
 1643 0383 09       		.uleb128 0x9
 1644 0384 F2030000 		.4byte	.LASF75
 1645 0388 08       		.byte	0x8
 1646 0389 F9       		.byte	0xf9
 1647 038a DC000000 		.4byte	0xdc
 1648 038e 20       		.byte	0x20
 1649 038f 0A       		.uleb128 0xa
 1650 0390 87070000 		.4byte	.LASF76
 1651 0394 08       		.byte	0x8
 1652 0395 0001     		.2byte	0x100
 1653 0397 DC000000 		.4byte	0xdc
 1654 039b 21       		.byte	0x21
 1655 039c 0A       		.uleb128 0xa
 1656 039d B2070000 		.4byte	.LASF77
 1657 03a1 08       		.byte	0x8
 1658 03a2 0701     		.2byte	0x107
 1659 03a4 DC000000 		.4byte	0xdc
 1660 03a8 22       		.byte	0x22
 1661 03a9 0A       		.uleb128 0xa
 1662 03aa C9070000 		.4byte	.LASF78
 1663 03ae 08       		.byte	0x8
 1664 03af 0E01     		.2byte	0x10e
 1665 03b1 DC000000 		.4byte	0xdc
 1666 03b5 23       		.byte	0x23
 1667 03b6 0A       		.uleb128 0xa
 1668 03b7 FC000000 		.4byte	.LASF79
 1669 03bb 08       		.byte	0x8
 1670 03bc 1501     		.2byte	0x115
 1671 03be DC000000 		.4byte	0xdc
 1672 03c2 24       		.byte	0x24
 1673 03c3 0A       		.uleb128 0xa
 1674 03c4 49010000 		.4byte	.LASF80
ARM GAS  C:\Users\Mahrukh\AppData\Local\Temp\ccgflWoc.s 			page 62


 1675 03c8 08       		.byte	0x8
 1676 03c9 1C01     		.2byte	0x11c
 1677 03cb DC000000 		.4byte	0xdc
 1678 03cf 25       		.byte	0x25
 1679 03d0 0A       		.uleb128 0xa
 1680 03d1 60010000 		.4byte	.LASF81
 1681 03d5 08       		.byte	0x8
 1682 03d6 2301     		.2byte	0x123
 1683 03d8 DC000000 		.4byte	0xdc
 1684 03dc 26       		.byte	0x26
 1685 03dd 0A       		.uleb128 0xa
 1686 03de D5050000 		.4byte	.LASF82
 1687 03e2 08       		.byte	0x8
 1688 03e3 2A01     		.2byte	0x12a
 1689 03e5 DC000000 		.4byte	0xdc
 1690 03e9 27       		.byte	0x27
 1691 03ea 0A       		.uleb128 0xa
 1692 03eb 4E0F0000 		.4byte	.LASF83
 1693 03ef 08       		.byte	0x8
 1694 03f0 3101     		.2byte	0x131
 1695 03f2 DC000000 		.4byte	0xdc
 1696 03f6 28       		.byte	0x28
 1697 03f7 0A       		.uleb128 0xa
 1698 03f8 660F0000 		.4byte	.LASF84
 1699 03fc 08       		.byte	0x8
 1700 03fd 3701     		.2byte	0x137
 1701 03ff DC000000 		.4byte	0xdc
 1702 0403 29       		.byte	0x29
 1703 0404 0A       		.uleb128 0xa
 1704 0405 E5080000 		.4byte	.LASF85
 1705 0409 08       		.byte	0x8
 1706 040a 3D01     		.2byte	0x13d
 1707 040c DC000000 		.4byte	0xdc
 1708 0410 2A       		.byte	0x2a
 1709 0411 0A       		.uleb128 0xa
 1710 0412 3D090000 		.4byte	.LASF86
 1711 0416 08       		.byte	0x8
 1712 0417 4401     		.2byte	0x144
 1713 0419 DC000000 		.4byte	0xdc
 1714 041d 2B       		.byte	0x2b
 1715 041e 0A       		.uleb128 0xa
 1716 041f 23090000 		.4byte	.LASF87
 1717 0423 08       		.byte	0x8
 1718 0424 4A01     		.2byte	0x14a
 1719 0426 DC000000 		.4byte	0xdc
 1720 042a 2C       		.byte	0x2c
 1721 042b 0A       		.uleb128 0xa
 1722 042c CD0A0000 		.4byte	.LASF88
 1723 0430 08       		.byte	0x8
 1724 0431 5001     		.2byte	0x150
 1725 0433 DC000000 		.4byte	0xdc
 1726 0437 2D       		.byte	0x2d
 1727 0438 0A       		.uleb128 0xa
 1728 0439 AD0F0000 		.4byte	.LASF89
 1729 043d 08       		.byte	0x8
 1730 043e 5701     		.2byte	0x157
 1731 0440 DC000000 		.4byte	0xdc
ARM GAS  C:\Users\Mahrukh\AppData\Local\Temp\ccgflWoc.s 			page 63


 1732 0444 2E       		.byte	0x2e
 1733 0445 0A       		.uleb128 0xa
 1734 0446 DC040000 		.4byte	.LASF90
 1735 044a 08       		.byte	0x8
 1736 044b 5F01     		.2byte	0x15f
 1737 044d DC000000 		.4byte	0xdc
 1738 0451 2F       		.byte	0x2f
 1739 0452 0A       		.uleb128 0xa
 1740 0453 F20F0000 		.4byte	.LASF91
 1741 0457 08       		.byte	0x8
 1742 0458 6801     		.2byte	0x168
 1743 045a DC000000 		.4byte	0xdc
 1744 045e 30       		.byte	0x30
 1745 045f 0A       		.uleb128 0xa
 1746 0460 75070000 		.4byte	.LASF92
 1747 0464 08       		.byte	0x8
 1748 0465 6E01     		.2byte	0x16e
 1749 0467 DC000000 		.4byte	0xdc
 1750 046b 31       		.byte	0x31
 1751 046c 0A       		.uleb128 0xa
 1752 046d 63040000 		.4byte	.LASF93
 1753 0471 08       		.byte	0x8
 1754 0472 7401     		.2byte	0x174
 1755 0474 DC000000 		.4byte	0xdc
 1756 0478 32       		.byte	0x32
 1757 0479 0A       		.uleb128 0xa
 1758 047a E3090000 		.4byte	.LASF94
 1759 047e 08       		.byte	0x8
 1760 047f 7A01     		.2byte	0x17a
 1761 0481 DC000000 		.4byte	0xdc
 1762 0485 33       		.byte	0x33
 1763 0486 0A       		.uleb128 0xa
 1764 0487 F0090000 		.4byte	.LASF95
 1765 048b 08       		.byte	0x8
 1766 048c 8001     		.2byte	0x180
 1767 048e DC000000 		.4byte	0xdc
 1768 0492 34       		.byte	0x34
 1769 0493 0A       		.uleb128 0xa
 1770 0494 C1010000 		.4byte	.LASF96
 1771 0498 08       		.byte	0x8
 1772 0499 8601     		.2byte	0x186
 1773 049b E1000000 		.4byte	0xe1
 1774 049f 36       		.byte	0x36
 1775 04a0 0A       		.uleb128 0xa
 1776 04a1 820D0000 		.4byte	.LASF97
 1777 04a5 08       		.byte	0x8
 1778 04a6 8B01     		.2byte	0x18b
 1779 04a8 E1000000 		.4byte	0xe1
 1780 04ac 38       		.byte	0x38
 1781 04ad 0A       		.uleb128 0xa
 1782 04ae 8E0D0000 		.4byte	.LASF98
 1783 04b2 08       		.byte	0x8
 1784 04b3 9001     		.2byte	0x190
 1785 04b5 E1000000 		.4byte	0xe1
 1786 04b9 3A       		.byte	0x3a
 1787 04ba 0A       		.uleb128 0xa
 1788 04bb FF040000 		.4byte	.LASF99
ARM GAS  C:\Users\Mahrukh\AppData\Local\Temp\ccgflWoc.s 			page 64


 1789 04bf 08       		.byte	0x8
 1790 04c0 9501     		.2byte	0x195
 1791 04c2 E1000000 		.4byte	0xe1
 1792 04c6 3C       		.byte	0x3c
 1793 04c7 0A       		.uleb128 0xa
 1794 04c8 00000000 		.4byte	.LASF100
 1795 04cc 08       		.byte	0x8
 1796 04cd 9A01     		.2byte	0x19a
 1797 04cf E1000000 		.4byte	0xe1
 1798 04d3 3E       		.byte	0x3e
 1799 04d4 0A       		.uleb128 0xa
 1800 04d5 FB020000 		.4byte	.LASF101
 1801 04d9 08       		.byte	0x8
 1802 04da A001     		.2byte	0x1a0
 1803 04dc E1000000 		.4byte	0xe1
 1804 04e0 40       		.byte	0x40
 1805 04e1 0A       		.uleb128 0xa
 1806 04e2 3C0B0000 		.4byte	.LASF102
 1807 04e6 08       		.byte	0x8
 1808 04e7 A801     		.2byte	0x1a8
 1809 04e9 E1000000 		.4byte	0xe1
 1810 04ed 42       		.byte	0x42
 1811 04ee 0A       		.uleb128 0xa
 1812 04ef F70D0000 		.4byte	.LASF103
 1813 04f3 08       		.byte	0x8
 1814 04f4 AF01     		.2byte	0x1af
 1815 04f6 E1000000 		.4byte	0xe1
 1816 04fa 44       		.byte	0x44
 1817 04fb 0A       		.uleb128 0xa
 1818 04fc DD060000 		.4byte	.LASF104
 1819 0500 08       		.byte	0x8
 1820 0501 B701     		.2byte	0x1b7
 1821 0503 E1000000 		.4byte	0xe1
 1822 0507 46       		.byte	0x46
 1823 0508 0A       		.uleb128 0xa
 1824 0509 650E0000 		.4byte	.LASF105
 1825 050d 08       		.byte	0x8
 1826 050e BD01     		.2byte	0x1bd
 1827 0510 E1000000 		.4byte	0xe1
 1828 0514 48       		.byte	0x48
 1829 0515 0A       		.uleb128 0xa
 1830 0516 52070000 		.4byte	.LASF106
 1831 051a 08       		.byte	0x8
 1832 051b C301     		.2byte	0x1c3
 1833 051d E1000000 		.4byte	0xe1
 1834 0521 4A       		.byte	0x4a
 1835 0522 0A       		.uleb128 0xa
 1836 0523 75040000 		.4byte	.LASF107
 1837 0527 08       		.byte	0x8
 1838 0528 CC01     		.2byte	0x1cc
 1839 052a DC000000 		.4byte	0xdc
 1840 052e 4C       		.byte	0x4c
 1841 052f 0A       		.uleb128 0xa
 1842 0530 900A0000 		.4byte	.LASF108
 1843 0534 08       		.byte	0x8
 1844 0535 D101     		.2byte	0x1d1
 1845 0537 DC000000 		.4byte	0xdc
ARM GAS  C:\Users\Mahrukh\AppData\Local\Temp\ccgflWoc.s 			page 65


 1846 053b 4D       		.byte	0x4d
 1847 053c 0A       		.uleb128 0xa
 1848 053d C30A0000 		.4byte	.LASF109
 1849 0541 08       		.byte	0x8
 1850 0542 D601     		.2byte	0x1d6
 1851 0544 DC000000 		.4byte	0xdc
 1852 0548 4E       		.byte	0x4e
 1853 0549 0A       		.uleb128 0xa
 1854 054a BD020000 		.4byte	.LASF110
 1855 054e 08       		.byte	0x8
 1856 054f DB01     		.2byte	0x1db
 1857 0551 DC000000 		.4byte	0xdc
 1858 0555 4F       		.byte	0x4f
 1859 0556 0A       		.uleb128 0xa
 1860 0557 2E040000 		.4byte	.LASF111
 1861 055b 08       		.byte	0x8
 1862 055c E001     		.2byte	0x1e0
 1863 055e DC000000 		.4byte	0xdc
 1864 0562 50       		.byte	0x50
 1865 0563 0A       		.uleb128 0xa
 1866 0564 C50C0000 		.4byte	.LASF112
 1867 0568 08       		.byte	0x8
 1868 0569 E501     		.2byte	0x1e5
 1869 056b DC000000 		.4byte	0xdc
 1870 056f 51       		.byte	0x51
 1871 0570 0A       		.uleb128 0xa
 1872 0571 B10C0000 		.4byte	.LASF113
 1873 0575 08       		.byte	0x8
 1874 0576 EA01     		.2byte	0x1ea
 1875 0578 DC000000 		.4byte	0xdc
 1876 057c 52       		.byte	0x52
 1877 057d 0A       		.uleb128 0xa
 1878 057e 57080000 		.4byte	.LASF114
 1879 0582 08       		.byte	0x8
 1880 0583 EF01     		.2byte	0x1ef
 1881 0585 DC000000 		.4byte	0xdc
 1882 0589 53       		.byte	0x53
 1883 058a 0A       		.uleb128 0xa
 1884 058b D3060000 		.4byte	.LASF115
 1885 058f 08       		.byte	0x8
 1886 0590 F401     		.2byte	0x1f4
 1887 0592 DC000000 		.4byte	0xdc
 1888 0596 54       		.byte	0x54
 1889 0597 00       		.byte	0
 1890 0598 06       		.uleb128 0x6
 1891 0599 200D0000 		.4byte	.LASF116
 1892 059d 08       		.byte	0x8
 1893 059e F501     		.2byte	0x1f5
 1894 05a0 FB010000 		.4byte	0x1fb
 1895 05a4 0B       		.uleb128 0xb
 1896 05a5 01       		.byte	0x1
 1897 05a6 37000000 		.4byte	0x37
 1898 05aa 09       		.byte	0x9
 1899 05ab 61       		.byte	0x61
 1900 05ac D5050000 		.4byte	0x5d5
 1901 05b0 0C       		.uleb128 0xc
 1902 05b1 640C0000 		.4byte	.LASF117
ARM GAS  C:\Users\Mahrukh\AppData\Local\Temp\ccgflWoc.s 			page 66


 1903 05b5 01       		.byte	0x1
 1904 05b6 0C       		.uleb128 0xc
 1905 05b7 740A0000 		.4byte	.LASF118
 1906 05bb 02       		.byte	0x2
 1907 05bc 0C       		.uleb128 0xc
 1908 05bd 01070000 		.4byte	.LASF119
 1909 05c1 03       		.byte	0x3
 1910 05c2 0C       		.uleb128 0xc
 1911 05c3 E7050000 		.4byte	.LASF120
 1912 05c7 04       		.byte	0x4
 1913 05c8 0C       		.uleb128 0xc
 1914 05c9 03040000 		.4byte	.LASF121
 1915 05cd 05       		.byte	0x5
 1916 05ce 0C       		.uleb128 0xc
 1917 05cf 22000000 		.4byte	.LASF122
 1918 05d3 06       		.byte	0x6
 1919 05d4 00       		.byte	0
 1920 05d5 03       		.uleb128 0x3
 1921 05d6 190A0000 		.4byte	.LASF123
 1922 05da 09       		.byte	0x9
 1923 05db 68       		.byte	0x68
 1924 05dc A4050000 		.4byte	0x5a4
 1925 05e0 08       		.uleb128 0x8
 1926 05e1 14       		.byte	0x14
 1927 05e2 09       		.byte	0x9
 1928 05e3 8C       		.byte	0x8c
 1929 05e4 85060000 		.4byte	0x685
 1930 05e8 09       		.uleb128 0x9
 1931 05e9 97080000 		.4byte	.LASF124
 1932 05ed 09       		.byte	0x9
 1933 05ee 92       		.byte	0x92
 1934 05ef 13010000 		.4byte	0x113
 1935 05f3 00       		.byte	0
 1936 05f4 09       		.uleb128 0x9
 1937 05f5 A80C0000 		.4byte	.LASF38
 1938 05f9 09       		.byte	0x9
 1939 05fa 97       		.byte	0x97
 1940 05fb 39010000 		.4byte	0x139
 1941 05ff 02       		.byte	0x2
 1942 0600 09       		.uleb128 0x9
 1943 0601 05080000 		.4byte	.LASF39
 1944 0605 09       		.byte	0x9
 1945 0606 9C       		.byte	0x9c
 1946 0607 07010000 		.4byte	0x107
 1947 060b 04       		.byte	0x4
 1948 060c 09       		.uleb128 0x9
 1949 060d CF090000 		.4byte	.LASF40
 1950 0611 09       		.byte	0x9
 1951 0612 A1       		.byte	0xa1
 1952 0613 07010000 		.4byte	0x107
 1953 0617 05       		.byte	0x5
 1954 0618 09       		.uleb128 0x9
 1955 0619 F6060000 		.4byte	.LASF41
 1956 061d 09       		.byte	0x9
 1957 061e A6       		.byte	0xa6
 1958 061f 07010000 		.4byte	0x107
 1959 0623 06       		.byte	0x6
ARM GAS  C:\Users\Mahrukh\AppData\Local\Temp\ccgflWoc.s 			page 67


 1960 0624 09       		.uleb128 0x9
 1961 0625 69090000 		.4byte	.LASF125
 1962 0629 09       		.byte	0x9
 1963 062a AB       		.byte	0xab
 1964 062b 07010000 		.4byte	0x107
 1965 062f 07       		.byte	0x7
 1966 0630 09       		.uleb128 0x9
 1967 0631 6A070000 		.4byte	.LASF126
 1968 0635 09       		.byte	0x9
 1969 0636 B2       		.byte	0xb2
 1970 0637 44010000 		.4byte	0x144
 1971 063b 08       		.byte	0x8
 1972 063c 09       		.uleb128 0x9
 1973 063d 560D0000 		.4byte	.LASF127
 1974 0641 09       		.byte	0x9
 1975 0642 BA       		.byte	0xba
 1976 0643 85060000 		.4byte	0x685
 1977 0647 09       		.byte	0x9
 1978 0648 09       		.uleb128 0x9
 1979 0649 0B0F0000 		.4byte	.LASF128
 1980 064d 09       		.byte	0x9
 1981 064e C3       		.byte	0xc3
 1982 064f 13010000 		.4byte	0x113
 1983 0653 0A       		.byte	0xa
 1984 0654 09       		.uleb128 0x9
 1985 0655 660B0000 		.4byte	.LASF129
 1986 0659 09       		.byte	0x9
 1987 065a C8       		.byte	0xc8
 1988 065b 07010000 		.4byte	0x107
 1989 065f 0C       		.byte	0xc
 1990 0660 09       		.uleb128 0x9
 1991 0661 E20C0000 		.4byte	.LASF130
 1992 0665 09       		.byte	0x9
 1993 0666 CF       		.byte	0xcf
 1994 0667 13010000 		.4byte	0x113
 1995 066b 0E       		.byte	0xe
 1996 066c 09       		.uleb128 0x9
 1997 066d EF060000 		.4byte	.LASF131
 1998 0671 09       		.byte	0x9
 1999 0672 D4       		.byte	0xd4
 2000 0673 13010000 		.4byte	0x113
 2001 0677 10       		.byte	0x10
 2002 0678 09       		.uleb128 0x9
 2003 0679 410A0000 		.4byte	.LASF132
 2004 067d 09       		.byte	0x9
 2005 067e D9       		.byte	0xd9
 2006 067f 07010000 		.4byte	0x107
 2007 0683 12       		.byte	0x12
 2008 0684 00       		.byte	0
 2009 0685 0D       		.uleb128 0xd
 2010 0686 07010000 		.4byte	0x107
 2011 068a 95060000 		.4byte	0x695
 2012 068e 0E       		.uleb128 0xe
 2013 068f D5000000 		.4byte	0xd5
 2014 0693 00       		.byte	0
 2015 0694 00       		.byte	0
 2016 0695 03       		.uleb128 0x3
ARM GAS  C:\Users\Mahrukh\AppData\Local\Temp\ccgflWoc.s 			page 68


 2017 0696 FD090000 		.4byte	.LASF133
 2018 069a 09       		.byte	0x9
 2019 069b DA       		.byte	0xda
 2020 069c E0050000 		.4byte	0x5e0
 2021 06a0 08       		.uleb128 0x8
 2022 06a1 14       		.byte	0x14
 2023 06a2 09       		.byte	0x9
 2024 06a3 DF       		.byte	0xdf
 2025 06a4 4C070000 		.4byte	0x74c
 2026 06a8 09       		.uleb128 0x9
 2027 06a9 97080000 		.4byte	.LASF124
 2028 06ad 09       		.byte	0x9
 2029 06ae E5       		.byte	0xe5
 2030 06af 13010000 		.4byte	0x113
 2031 06b3 00       		.byte	0
 2032 06b4 09       		.uleb128 0x9
 2033 06b5 A80C0000 		.4byte	.LASF38
 2034 06b9 09       		.byte	0x9
 2035 06ba EA       		.byte	0xea
 2036 06bb 39010000 		.4byte	0x139
 2037 06bf 02       		.byte	0x2
 2038 06c0 09       		.uleb128 0x9
 2039 06c1 05080000 		.4byte	.LASF39
 2040 06c5 09       		.byte	0x9
 2041 06c6 EF       		.byte	0xef
 2042 06c7 07010000 		.4byte	0x107
 2043 06cb 04       		.byte	0x4
 2044 06cc 09       		.uleb128 0x9
 2045 06cd CF090000 		.4byte	.LASF40
 2046 06d1 09       		.byte	0x9
 2047 06d2 F4       		.byte	0xf4
 2048 06d3 07010000 		.4byte	0x107
 2049 06d7 05       		.byte	0x5
 2050 06d8 09       		.uleb128 0x9
 2051 06d9 F6060000 		.4byte	.LASF41
 2052 06dd 09       		.byte	0x9
 2053 06de F9       		.byte	0xf9
 2054 06df 07010000 		.4byte	0x107
 2055 06e3 06       		.byte	0x6
 2056 06e4 09       		.uleb128 0x9
 2057 06e5 69090000 		.4byte	.LASF125
 2058 06e9 09       		.byte	0x9
 2059 06ea FE       		.byte	0xfe
 2060 06eb 07010000 		.4byte	0x107
 2061 06ef 07       		.byte	0x7
 2062 06f0 0A       		.uleb128 0xa
 2063 06f1 6A070000 		.4byte	.LASF126
 2064 06f5 09       		.byte	0x9
 2065 06f6 0501     		.2byte	0x105
 2066 06f8 44010000 		.4byte	0x144
 2067 06fc 08       		.byte	0x8
 2068 06fd 0A       		.uleb128 0xa
 2069 06fe 560D0000 		.4byte	.LASF127
 2070 0702 09       		.byte	0x9
 2071 0703 0D01     		.2byte	0x10d
 2072 0705 85060000 		.4byte	0x685
 2073 0709 09       		.byte	0x9
ARM GAS  C:\Users\Mahrukh\AppData\Local\Temp\ccgflWoc.s 			page 69


 2074 070a 0A       		.uleb128 0xa
 2075 070b 0B0F0000 		.4byte	.LASF128
 2076 070f 09       		.byte	0x9
 2077 0710 1601     		.2byte	0x116
 2078 0712 13010000 		.4byte	0x113
 2079 0716 0A       		.byte	0xa
 2080 0717 0A       		.uleb128 0xa
 2081 0718 660B0000 		.4byte	.LASF129
 2082 071c 09       		.byte	0x9
 2083 071d 1B01     		.2byte	0x11b
 2084 071f 07010000 		.4byte	0x107
 2085 0723 0C       		.byte	0xc
 2086 0724 0A       		.uleb128 0xa
 2087 0725 E20C0000 		.4byte	.LASF130
 2088 0729 09       		.byte	0x9
 2089 072a 2201     		.2byte	0x122
 2090 072c 13010000 		.4byte	0x113
 2091 0730 0E       		.byte	0xe
 2092 0731 0A       		.uleb128 0xa
 2093 0732 EF060000 		.4byte	.LASF131
 2094 0736 09       		.byte	0x9
 2095 0737 2701     		.2byte	0x127
 2096 0739 13010000 		.4byte	0x113
 2097 073d 10       		.byte	0x10
 2098 073e 0A       		.uleb128 0xa
 2099 073f 410A0000 		.4byte	.LASF132
 2100 0743 09       		.byte	0x9
 2101 0744 2C01     		.2byte	0x12c
 2102 0746 07010000 		.4byte	0x107
 2103 074a 12       		.byte	0x12
 2104 074b 00       		.byte	0
 2105 074c 06       		.uleb128 0x6
 2106 074d CE0D0000 		.4byte	.LASF134
 2107 0751 09       		.byte	0x9
 2108 0752 2D01     		.2byte	0x12d
 2109 0754 A0060000 		.4byte	0x6a0
 2110 0758 0F       		.uleb128 0xf
 2111 0759 16       		.byte	0x16
 2112 075a 09       		.byte	0x9
 2113 075b 3201     		.2byte	0x132
 2114 075d 18080000 		.4byte	0x818
 2115 0761 0A       		.uleb128 0xa
 2116 0762 97080000 		.4byte	.LASF124
 2117 0766 09       		.byte	0x9
 2118 0767 3801     		.2byte	0x138
 2119 0769 13010000 		.4byte	0x113
 2120 076d 00       		.byte	0
 2121 076e 0A       		.uleb128 0xa
 2122 076f A80C0000 		.4byte	.LASF38
 2123 0773 09       		.byte	0x9
 2124 0774 3D01     		.2byte	0x13d
 2125 0776 39010000 		.4byte	0x139
 2126 077a 02       		.byte	0x2
 2127 077b 0A       		.uleb128 0xa
 2128 077c 05080000 		.4byte	.LASF39
 2129 0780 09       		.byte	0x9
 2130 0781 4201     		.2byte	0x142
ARM GAS  C:\Users\Mahrukh\AppData\Local\Temp\ccgflWoc.s 			page 70


 2131 0783 07010000 		.4byte	0x107
 2132 0787 04       		.byte	0x4
 2133 0788 0A       		.uleb128 0xa
 2134 0789 CF090000 		.4byte	.LASF40
 2135 078d 09       		.byte	0x9
 2136 078e 4701     		.2byte	0x147
 2137 0790 07010000 		.4byte	0x107
 2138 0794 05       		.byte	0x5
 2139 0795 0A       		.uleb128 0xa
 2140 0796 F6060000 		.4byte	.LASF41
 2141 079a 09       		.byte	0x9
 2142 079b 4C01     		.2byte	0x14c
 2143 079d 07010000 		.4byte	0x107
 2144 07a1 06       		.byte	0x6
 2145 07a2 0A       		.uleb128 0xa
 2146 07a3 69090000 		.4byte	.LASF125
 2147 07a7 09       		.byte	0x9
 2148 07a8 5101     		.2byte	0x151
 2149 07aa 07010000 		.4byte	0x107
 2150 07ae 07       		.byte	0x7
 2151 07af 0A       		.uleb128 0xa
 2152 07b0 6A070000 		.4byte	.LASF126
 2153 07b4 09       		.byte	0x9
 2154 07b5 5801     		.2byte	0x158
 2155 07b7 44010000 		.4byte	0x144
 2156 07bb 08       		.byte	0x8
 2157 07bc 0A       		.uleb128 0xa
 2158 07bd 560D0000 		.4byte	.LASF127
 2159 07c1 09       		.byte	0x9
 2160 07c2 6001     		.2byte	0x160
 2161 07c4 85060000 		.4byte	0x685
 2162 07c8 09       		.byte	0x9
 2163 07c9 0A       		.uleb128 0xa
 2164 07ca 0B0F0000 		.4byte	.LASF128
 2165 07ce 09       		.byte	0x9
 2166 07cf 6901     		.2byte	0x169
 2167 07d1 13010000 		.4byte	0x113
 2168 07d5 0A       		.byte	0xa
 2169 07d6 0A       		.uleb128 0xa
 2170 07d7 660B0000 		.4byte	.LASF129
 2171 07db 09       		.byte	0x9
 2172 07dc 6E01     		.2byte	0x16e
 2173 07de 07010000 		.4byte	0x107
 2174 07e2 0C       		.byte	0xc
 2175 07e3 0A       		.uleb128 0xa
 2176 07e4 E20C0000 		.4byte	.LASF130
 2177 07e8 09       		.byte	0x9
 2178 07e9 7501     		.2byte	0x175
 2179 07eb 13010000 		.4byte	0x113
 2180 07ef 0E       		.byte	0xe
 2181 07f0 0A       		.uleb128 0xa
 2182 07f1 EF060000 		.4byte	.LASF131
 2183 07f5 09       		.byte	0x9
 2184 07f6 7A01     		.2byte	0x17a
 2185 07f8 13010000 		.4byte	0x113
 2186 07fc 10       		.byte	0x10
 2187 07fd 0A       		.uleb128 0xa
ARM GAS  C:\Users\Mahrukh\AppData\Local\Temp\ccgflWoc.s 			page 71


 2188 07fe 410A0000 		.4byte	.LASF132
 2189 0802 09       		.byte	0x9
 2190 0803 7F01     		.2byte	0x17f
 2191 0805 07010000 		.4byte	0x107
 2192 0809 12       		.byte	0x12
 2193 080a 0A       		.uleb128 0xa
 2194 080b 5D100000 		.4byte	.LASF135
 2195 080f 09       		.byte	0x9
 2196 0810 8401     		.2byte	0x184
 2197 0812 18080000 		.4byte	0x818
 2198 0816 14       		.byte	0x14
 2199 0817 00       		.byte	0
 2200 0818 0D       		.uleb128 0xd
 2201 0819 13010000 		.4byte	0x113
 2202 081d 28080000 		.4byte	0x828
 2203 0821 0E       		.uleb128 0xe
 2204 0822 D5000000 		.4byte	0xd5
 2205 0826 00       		.byte	0
 2206 0827 00       		.byte	0
 2207 0828 06       		.uleb128 0x6
 2208 0829 020D0000 		.4byte	.LASF136
 2209 082d 09       		.byte	0x9
 2210 082e 8501     		.2byte	0x185
 2211 0830 58070000 		.4byte	0x758
 2212 0834 0F       		.uleb128 0xf
 2213 0835 3E       		.byte	0x3e
 2214 0836 09       		.byte	0x9
 2215 0837 8B01     		.2byte	0x18b
 2216 0839 65080000 		.4byte	0x865
 2217 083d 0A       		.uleb128 0xa
 2218 083e 4E0C0000 		.4byte	.LASF137
 2219 0842 09       		.byte	0x9
 2220 0843 9001     		.2byte	0x190
 2221 0845 4C070000 		.4byte	0x74c
 2222 0849 00       		.byte	0
 2223 084a 0A       		.uleb128 0xa
 2224 084b 560C0000 		.4byte	.LASF138
 2225 084f 09       		.byte	0x9
 2226 0850 9501     		.2byte	0x195
 2227 0852 4C070000 		.4byte	0x74c
 2228 0856 14       		.byte	0x14
 2229 0857 0A       		.uleb128 0xa
 2230 0858 E80E0000 		.4byte	.LASF139
 2231 085c 09       		.byte	0x9
 2232 085d 9A01     		.2byte	0x19a
 2233 085f 28080000 		.4byte	0x828
 2234 0863 28       		.byte	0x28
 2235 0864 00       		.byte	0
 2236 0865 06       		.uleb128 0x6
 2237 0866 B2000000 		.4byte	.LASF140
 2238 086a 09       		.byte	0x9
 2239 086b 9B01     		.2byte	0x19b
 2240 086d 34080000 		.4byte	0x834
 2241 0871 0F       		.uleb128 0xf
 2242 0872 0A       		.byte	0xa
 2243 0873 09       		.byte	0x9
 2244 0874 A101     		.2byte	0x1a1
ARM GAS  C:\Users\Mahrukh\AppData\Local\Temp\ccgflWoc.s 			page 72


 2245 0876 C9080000 		.4byte	0x8c9
 2246 087a 10       		.uleb128 0x10
 2247 087b 72617700 		.ascii	"raw\000"
 2248 087f 09       		.byte	0x9
 2249 0880 A601     		.2byte	0x1a6
 2250 0882 18080000 		.4byte	0x818
 2251 0886 00       		.byte	0
 2252 0887 0A       		.uleb128 0xa
 2253 0888 F0040000 		.4byte	.LASF141
 2254 088c 09       		.byte	0x9
 2255 088d AB01     		.2byte	0x1ab
 2256 088f 18080000 		.4byte	0x818
 2257 0893 02       		.byte	0x2
 2258 0894 0A       		.uleb128 0xa
 2259 0895 B70D0000 		.4byte	.LASF142
 2260 0899 09       		.byte	0x9
 2261 089a B101     		.2byte	0x1b1
 2262 089c 85060000 		.4byte	0x685
 2263 08a0 04       		.byte	0x4
 2264 08a1 0A       		.uleb128 0xa
 2265 08a2 420C0000 		.4byte	.LASF143
 2266 08a6 09       		.byte	0x9
 2267 08a7 B601     		.2byte	0x1b6
 2268 08a9 39010000 		.4byte	0x139
 2269 08ad 06       		.byte	0x6
 2270 08ae 0A       		.uleb128 0xa
 2271 08af 01100000 		.4byte	.LASF144
 2272 08b3 09       		.byte	0x9
 2273 08b4 BB01     		.2byte	0x1bb
 2274 08b6 C9080000 		.4byte	0x8c9
 2275 08ba 08       		.byte	0x8
 2276 08bb 0A       		.uleb128 0xa
 2277 08bc 1A090000 		.4byte	.LASF145
 2278 08c0 09       		.byte	0x9
 2279 08c1 C101     		.2byte	0x1c1
 2280 08c3 85060000 		.4byte	0x685
 2281 08c7 09       		.byte	0x9
 2282 08c8 00       		.byte	0
 2283 08c9 0D       		.uleb128 0xd
 2284 08ca 44010000 		.4byte	0x144
 2285 08ce D9080000 		.4byte	0x8d9
 2286 08d2 0E       		.uleb128 0xe
 2287 08d3 D5000000 		.4byte	0xd5
 2288 08d7 00       		.byte	0
 2289 08d8 00       		.byte	0
 2290 08d9 06       		.uleb128 0x6
 2291 08da A7060000 		.4byte	.LASF146
 2292 08de 09       		.byte	0x9
 2293 08df C201     		.2byte	0x1c2
 2294 08e1 71080000 		.4byte	0x871
 2295 08e5 0F       		.uleb128 0xf
 2296 08e6 46       		.byte	0x46
 2297 08e7 09       		.byte	0x9
 2298 08e8 C801     		.2byte	0x1c8
 2299 08ea 16090000 		.4byte	0x916
 2300 08ee 0A       		.uleb128 0xa
 2301 08ef 4E0C0000 		.4byte	.LASF137
ARM GAS  C:\Users\Mahrukh\AppData\Local\Temp\ccgflWoc.s 			page 73


 2302 08f3 09       		.byte	0x9
 2303 08f4 CD01     		.2byte	0x1cd
 2304 08f6 16090000 		.4byte	0x916
 2305 08fa 00       		.byte	0
 2306 08fb 0A       		.uleb128 0xa
 2307 08fc 560C0000 		.4byte	.LASF138
 2308 0900 09       		.byte	0x9
 2309 0901 D201     		.2byte	0x1d2
 2310 0903 16090000 		.4byte	0x916
 2311 0907 0A       		.byte	0xa
 2312 0908 0A       		.uleb128 0xa
 2313 0909 E80E0000 		.4byte	.LASF139
 2314 090d 09       		.byte	0x9
 2315 090e D701     		.2byte	0x1d7
 2316 0910 26090000 		.4byte	0x926
 2317 0914 14       		.byte	0x14
 2318 0915 00       		.byte	0
 2319 0916 0D       		.uleb128 0xd
 2320 0917 D9080000 		.4byte	0x8d9
 2321 091b 26090000 		.4byte	0x926
 2322 091f 0E       		.uleb128 0xe
 2323 0920 D5000000 		.4byte	0xd5
 2324 0924 00       		.byte	0
 2325 0925 00       		.byte	0
 2326 0926 0D       		.uleb128 0xd
 2327 0927 D9080000 		.4byte	0x8d9
 2328 092b 36090000 		.4byte	0x936
 2329 092f 0E       		.uleb128 0xe
 2330 0930 D5000000 		.4byte	0xd5
 2331 0934 04       		.byte	0x4
 2332 0935 00       		.byte	0
 2333 0936 06       		.uleb128 0x6
 2334 0937 66100000 		.4byte	.LASF147
 2335 093b 09       		.byte	0x9
 2336 093c D801     		.2byte	0x1d8
 2337 093e E5080000 		.4byte	0x8e5
 2338 0942 11       		.uleb128 0x11
 2339 0943 0C01     		.2byte	0x10c
 2340 0945 09       		.byte	0x9
 2341 0946 DE01     		.2byte	0x1de
 2342 0948 630A0000 		.4byte	0xa63
 2343 094c 0A       		.uleb128 0xa
 2344 094d 280B0000 		.4byte	.LASF148
 2345 0951 09       		.byte	0x9
 2346 0952 E601     		.2byte	0x1e6
 2347 0954 13010000 		.4byte	0x113
 2348 0958 00       		.byte	0
 2349 0959 0A       		.uleb128 0xa
 2350 095a 4B100000 		.4byte	.LASF149
 2351 095e 09       		.byte	0x9
 2352 095f EB01     		.2byte	0x1eb
 2353 0961 13010000 		.4byte	0x113
 2354 0965 02       		.byte	0x2
 2355 0966 0A       		.uleb128 0xa
 2356 0967 3D020000 		.4byte	.LASF150
 2357 096b 09       		.byte	0x9
 2358 096c F001     		.2byte	0x1f0
ARM GAS  C:\Users\Mahrukh\AppData\Local\Temp\ccgflWoc.s 			page 74


 2359 096e 13010000 		.4byte	0x113
 2360 0972 04       		.byte	0x4
 2361 0973 0A       		.uleb128 0xa
 2362 0974 AE0D0000 		.4byte	.LASF151
 2363 0978 09       		.byte	0x9
 2364 0979 F601     		.2byte	0x1f6
 2365 097b 13010000 		.4byte	0x113
 2366 097f 06       		.byte	0x6
 2367 0980 0A       		.uleb128 0xa
 2368 0981 14020000 		.4byte	.LASF152
 2369 0985 09       		.byte	0x9
 2370 0986 FB01     		.2byte	0x1fb
 2371 0988 13010000 		.4byte	0x113
 2372 098c 08       		.byte	0x8
 2373 098d 0A       		.uleb128 0xa
 2374 098e AA080000 		.4byte	.LASF153
 2375 0992 09       		.byte	0x9
 2376 0993 0002     		.2byte	0x200
 2377 0995 630A0000 		.4byte	0xa63
 2378 0999 0C       		.byte	0xc
 2379 099a 0A       		.uleb128 0xa
 2380 099b F70C0000 		.4byte	.LASF154
 2381 099f 09       		.byte	0x9
 2382 09a0 0602     		.2byte	0x206
 2383 09a2 680A0000 		.4byte	0xa68
 2384 09a6 10       		.byte	0x10
 2385 09a7 0A       		.uleb128 0xa
 2386 09a8 EC0C0000 		.4byte	.LASF155
 2387 09ac 09       		.byte	0x9
 2388 09ad 0C02     		.2byte	0x20c
 2389 09af 680A0000 		.4byte	0xa68
 2390 09b3 14       		.byte	0x14
 2391 09b4 0A       		.uleb128 0xa
 2392 09b5 4E0B0000 		.4byte	.LASF156
 2393 09b9 09       		.byte	0x9
 2394 09ba 1E02     		.2byte	0x21e
 2395 09bc 780A0000 		.4byte	0xa78
 2396 09c0 18       		.byte	0x18
 2397 09c1 0A       		.uleb128 0xa
 2398 09c2 D8090000 		.4byte	.LASF157
 2399 09c6 09       		.byte	0x9
 2400 09c7 2302     		.2byte	0x223
 2401 09c9 13010000 		.4byte	0x113
 2402 09cd 1C       		.byte	0x1c
 2403 09ce 0A       		.uleb128 0xa
 2404 09cf 9D060000 		.4byte	.LASF158
 2405 09d3 09       		.byte	0x9
 2406 09d4 2802     		.2byte	0x228
 2407 09d6 07010000 		.4byte	0x107
 2408 09da 1E       		.byte	0x1e
 2409 09db 0A       		.uleb128 0xa
 2410 09dc 5B0E0000 		.4byte	.LASF159
 2411 09e0 09       		.byte	0x9
 2412 09e1 2D02     		.2byte	0x22d
 2413 09e3 07010000 		.4byte	0x107
 2414 09e7 1F       		.byte	0x1f
 2415 09e8 0A       		.uleb128 0xa
ARM GAS  C:\Users\Mahrukh\AppData\Local\Temp\ccgflWoc.s 			page 75


 2416 09e9 7E090000 		.4byte	.LASF160
 2417 09ed 09       		.byte	0x9
 2418 09ee 3202     		.2byte	0x232
 2419 09f0 65080000 		.4byte	0x865
 2420 09f4 20       		.byte	0x20
 2421 09f5 0A       		.uleb128 0xa
 2422 09f6 91050000 		.4byte	.LASF161
 2423 09fa 09       		.byte	0x9
 2424 09fb 3702     		.2byte	0x237
 2425 09fd 36090000 		.4byte	0x936
 2426 0a01 5E       		.byte	0x5e
 2427 0a02 0A       		.uleb128 0xa
 2428 0a03 450E0000 		.4byte	.LASF162
 2429 0a07 09       		.byte	0x9
 2430 0a08 3C02     		.2byte	0x23c
 2431 0a0a 98050000 		.4byte	0x598
 2432 0a0e A4       		.byte	0xa4
 2433 0a0f 0A       		.uleb128 0xa
 2434 0a10 C1040000 		.4byte	.LASF163
 2435 0a14 09       		.byte	0x9
 2436 0a15 4102     		.2byte	0x241
 2437 0a17 1F010000 		.4byte	0x11f
 2438 0a1b FC       		.byte	0xfc
 2439 0a1c 12       		.uleb128 0x12
 2440 0a1d 010F0000 		.4byte	.LASF164
 2441 0a21 09       		.byte	0x9
 2442 0a22 4602     		.2byte	0x246
 2443 0a24 1F010000 		.4byte	0x11f
 2444 0a28 0001     		.2byte	0x100
 2445 0a2a 12       		.uleb128 0x12
 2446 0a2b 1F010000 		.4byte	.LASF165
 2447 0a2f 09       		.byte	0x9
 2448 0a30 4B02     		.2byte	0x24b
 2449 0a32 07010000 		.4byte	0x107
 2450 0a36 0401     		.2byte	0x104
 2451 0a38 12       		.uleb128 0x12
 2452 0a39 0E060000 		.4byte	.LASF166
 2453 0a3d 09       		.byte	0x9
 2454 0a3e 5002     		.2byte	0x250
 2455 0a40 07010000 		.4byte	0x107
 2456 0a44 0501     		.2byte	0x105
 2457 0a46 12       		.uleb128 0x12
 2458 0a47 150B0000 		.4byte	.LASF167
 2459 0a4b 09       		.byte	0x9
 2460 0a4c 5502     		.2byte	0x255
 2461 0a4e 13010000 		.4byte	0x113
 2462 0a52 0601     		.2byte	0x106
 2463 0a54 12       		.uleb128 0x12
 2464 0a55 B8090000 		.4byte	.LASF168
 2465 0a59 09       		.byte	0x9
 2466 0a5a 5A02     		.2byte	0x25a
 2467 0a5c 18080000 		.4byte	0x818
 2468 0a60 0801     		.2byte	0x108
 2469 0a62 00       		.byte	0
 2470 0a63 05       		.uleb128 0x5
 2471 0a64 1F010000 		.4byte	0x11f
 2472 0a68 0D       		.uleb128 0xd
ARM GAS  C:\Users\Mahrukh\AppData\Local\Temp\ccgflWoc.s 			page 76


 2473 0a69 1F010000 		.4byte	0x11f
 2474 0a6d 780A0000 		.4byte	0xa78
 2475 0a71 0E       		.uleb128 0xe
 2476 0a72 D5000000 		.4byte	0xd5
 2477 0a76 00       		.byte	0
 2478 0a77 00       		.byte	0
 2479 0a78 0D       		.uleb128 0xd
 2480 0a79 07010000 		.4byte	0x107
 2481 0a7d 880A0000 		.4byte	0xa88
 2482 0a81 0E       		.uleb128 0xe
 2483 0a82 D5000000 		.4byte	0xd5
 2484 0a86 02       		.byte	0x2
 2485 0a87 00       		.byte	0
 2486 0a88 06       		.uleb128 0x6
 2487 0a89 C10B0000 		.4byte	.LASF169
 2488 0a8d 09       		.byte	0x9
 2489 0a8e 5B02     		.2byte	0x25b
 2490 0a90 42090000 		.4byte	0x942
 2491 0a94 0F       		.uleb128 0xf
 2492 0a95 30       		.byte	0x30
 2493 0a96 09       		.byte	0x9
 2494 0a97 9902     		.2byte	0x299
 2495 0a99 6E0B0000 		.4byte	0xb6e
 2496 0a9d 0A       		.uleb128 0xa
 2497 0a9e BC0F0000 		.4byte	.LASF170
 2498 0aa2 09       		.byte	0x9
 2499 0aa3 A202     		.2byte	0x2a2
 2500 0aa5 6E0B0000 		.4byte	0xb6e
 2501 0aa9 00       		.byte	0
 2502 0aaa 0A       		.uleb128 0xa
 2503 0aab 7D0E0000 		.4byte	.LASF171
 2504 0aaf 09       		.byte	0x9
 2505 0ab0 A902     		.2byte	0x2a9
 2506 0ab2 37010000 		.4byte	0x137
 2507 0ab6 04       		.byte	0x4
 2508 0ab7 0A       		.uleb128 0xa
 2509 0ab8 310B0000 		.4byte	.LASF172
 2510 0abc 09       		.byte	0x9
 2511 0abd AF02     		.2byte	0x2af
 2512 0abf 750B0000 		.4byte	0xb75
 2513 0ac3 08       		.byte	0x8
 2514 0ac4 0A       		.uleb128 0xa
 2515 0ac5 640A0000 		.4byte	.LASF173
 2516 0ac9 09       		.byte	0x9
 2517 0aca B402     		.2byte	0x2b4
 2518 0acc 37010000 		.4byte	0x137
 2519 0ad0 0C       		.byte	0xc
 2520 0ad1 0A       		.uleb128 0xa
 2521 0ad2 720D0000 		.4byte	.LASF174
 2522 0ad6 09       		.byte	0x9
 2523 0ad7 BB02     		.2byte	0x2bb
 2524 0ad9 7B0B0000 		.4byte	0xb7b
 2525 0add 10       		.byte	0x10
 2526 0ade 0A       		.uleb128 0xa
 2527 0adf 4E0E0000 		.4byte	.LASF175
 2528 0ae3 09       		.byte	0x9
 2529 0ae4 C002     		.2byte	0x2c0
ARM GAS  C:\Users\Mahrukh\AppData\Local\Temp\ccgflWoc.s 			page 77


 2530 0ae6 1F010000 		.4byte	0x11f
 2531 0aea 14       		.byte	0x14
 2532 0aeb 0A       		.uleb128 0xa
 2533 0aec A6070000 		.4byte	.LASF176
 2534 0af0 09       		.byte	0x9
 2535 0af1 C702     		.2byte	0x2c7
 2536 0af3 13010000 		.4byte	0x113
 2537 0af7 18       		.byte	0x18
 2538 0af8 0A       		.uleb128 0xa
 2539 0af9 38060000 		.4byte	.LASF177
 2540 0afd 09       		.byte	0x9
 2541 0afe D202     		.2byte	0x2d2
 2542 0b00 07010000 		.4byte	0x107
 2543 0b04 1A       		.byte	0x1a
 2544 0b05 0A       		.uleb128 0xa
 2545 0b06 31090000 		.4byte	.LASF178
 2546 0b0a 09       		.byte	0x9
 2547 0b0b D702     		.2byte	0x2d7
 2548 0b0d 07010000 		.4byte	0x107
 2549 0b11 1B       		.byte	0x1b
 2550 0b12 0A       		.uleb128 0xa
 2551 0b13 61090000 		.4byte	.LASF179
 2552 0b17 09       		.byte	0x9
 2553 0b18 DF02     		.2byte	0x2df
 2554 0b1a 07010000 		.4byte	0x107
 2555 0b1e 1C       		.byte	0x1c
 2556 0b1f 0A       		.uleb128 0xa
 2557 0b20 A10E0000 		.4byte	.LASF180
 2558 0b24 09       		.byte	0x9
 2559 0b25 E602     		.2byte	0x2e6
 2560 0b27 07010000 		.4byte	0x107
 2561 0b2b 1D       		.byte	0x1d
 2562 0b2c 0A       		.uleb128 0xa
 2563 0b2d 730B0000 		.4byte	.LASF181
 2564 0b31 09       		.byte	0x9
 2565 0b32 EC02     		.2byte	0x2ec
 2566 0b34 13010000 		.4byte	0x113
 2567 0b38 1E       		.byte	0x1e
 2568 0b39 0A       		.uleb128 0xa
 2569 0b3a 9A0D0000 		.4byte	.LASF182
 2570 0b3e 09       		.byte	0x9
 2571 0b3f F602     		.2byte	0x2f6
 2572 0b41 1F010000 		.4byte	0x11f
 2573 0b45 20       		.byte	0x20
 2574 0b46 0A       		.uleb128 0xa
 2575 0b47 1E060000 		.4byte	.LASF183
 2576 0b4b 09       		.byte	0x9
 2577 0b4c FE02     		.2byte	0x2fe
 2578 0b4e 810B0000 		.4byte	0xb81
 2579 0b52 24       		.byte	0x24
 2580 0b53 0A       		.uleb128 0xa
 2581 0b54 BF0D0000 		.4byte	.LASF184
 2582 0b58 09       		.byte	0x9
 2583 0b59 0303     		.2byte	0x303
 2584 0b5b 37010000 		.4byte	0x137
 2585 0b5f 28       		.byte	0x28
 2586 0b60 0A       		.uleb128 0xa
ARM GAS  C:\Users\Mahrukh\AppData\Local\Temp\ccgflWoc.s 			page 78


 2587 0b61 38040000 		.4byte	.LASF185
 2588 0b65 09       		.byte	0x9
 2589 0b66 0803     		.2byte	0x308
 2590 0b68 07010000 		.4byte	0x107
 2591 0b6c 2C       		.byte	0x2c
 2592 0b6d 00       		.byte	0
 2593 0b6e 13       		.uleb128 0x13
 2594 0b6f 04       		.byte	0x4
 2595 0b70 740B0000 		.4byte	0xb74
 2596 0b74 14       		.uleb128 0x14
 2597 0b75 13       		.uleb128 0x13
 2598 0b76 04       		.byte	0x4
 2599 0b77 D9080000 		.4byte	0x8d9
 2600 0b7b 13       		.uleb128 0x13
 2601 0b7c 04       		.byte	0x4
 2602 0b7d 07010000 		.4byte	0x107
 2603 0b81 13       		.uleb128 0x13
 2604 0b82 04       		.byte	0x4
 2605 0b83 AC010000 		.4byte	0x1ac
 2606 0b87 06       		.uleb128 0x6
 2607 0b88 39070000 		.4byte	.LASF186
 2608 0b8c 09       		.byte	0x9
 2609 0b8d 0903     		.2byte	0x309
 2610 0b8f 940A0000 		.4byte	0xa94
 2611 0b93 0F       		.uleb128 0xf
 2612 0b94 90       		.byte	0x90
 2613 0b95 09       		.byte	0x9
 2614 0b96 0F03     		.2byte	0x30f
 2615 0b98 AA0B0000 		.4byte	0xbaa
 2616 0b9c 0A       		.uleb128 0xa
 2617 0b9d AB100000 		.4byte	.LASF187
 2618 0ba1 09       		.byte	0x9
 2619 0ba2 1403     		.2byte	0x314
 2620 0ba4 AA0B0000 		.4byte	0xbaa
 2621 0ba8 00       		.byte	0
 2622 0ba9 00       		.byte	0
 2623 0baa 0D       		.uleb128 0xd
 2624 0bab 870B0000 		.4byte	0xb87
 2625 0baf BA0B0000 		.4byte	0xbba
 2626 0bb3 0E       		.uleb128 0xe
 2627 0bb4 D5000000 		.4byte	0xd5
 2628 0bb8 02       		.byte	0x2
 2629 0bb9 00       		.byte	0
 2630 0bba 06       		.uleb128 0x6
 2631 0bbb 87090000 		.4byte	.LASF188
 2632 0bbf 09       		.byte	0x9
 2633 0bc0 1503     		.2byte	0x315
 2634 0bc2 930B0000 		.4byte	0xb93
 2635 0bc6 0F       		.uleb128 0xf
 2636 0bc7 02       		.byte	0x2
 2637 0bc8 09       		.byte	0x9
 2638 0bc9 4A03     		.2byte	0x34a
 2639 0bcb DD0B0000 		.4byte	0xbdd
 2640 0bcf 0A       		.uleb128 0xa
 2641 0bd0 DD0F0000 		.4byte	.LASF189
 2642 0bd4 09       		.byte	0x9
 2643 0bd5 4C03     		.2byte	0x34c
ARM GAS  C:\Users\Mahrukh\AppData\Local\Temp\ccgflWoc.s 			page 79


 2644 0bd7 13010000 		.4byte	0x113
 2645 0bdb 00       		.byte	0
 2646 0bdc 00       		.byte	0
 2647 0bdd 06       		.uleb128 0x6
 2648 0bde 790C0000 		.4byte	.LASF190
 2649 0be2 09       		.byte	0x9
 2650 0be3 4D03     		.2byte	0x34d
 2651 0be5 C60B0000 		.4byte	0xbc6
 2652 0be9 0F       		.uleb128 0xf
 2653 0bea 02       		.byte	0x2
 2654 0beb 09       		.byte	0x9
 2655 0bec 5203     		.2byte	0x352
 2656 0bee 000C0000 		.4byte	0xc00
 2657 0bf2 0A       		.uleb128 0xa
 2658 0bf3 8E060000 		.4byte	.LASF191
 2659 0bf7 09       		.byte	0x9
 2660 0bf8 5703     		.2byte	0x357
 2661 0bfa 000C0000 		.4byte	0xc00
 2662 0bfe 00       		.byte	0
 2663 0bff 00       		.byte	0
 2664 0c00 0D       		.uleb128 0xd
 2665 0c01 DD0B0000 		.4byte	0xbdd
 2666 0c05 100C0000 		.4byte	0xc10
 2667 0c09 0E       		.uleb128 0xe
 2668 0c0a D5000000 		.4byte	0xd5
 2669 0c0e 00       		.byte	0
 2670 0c0f 00       		.byte	0
 2671 0c10 06       		.uleb128 0x6
 2672 0c11 D50B0000 		.4byte	.LASF192
 2673 0c15 09       		.byte	0x9
 2674 0c16 5803     		.2byte	0x358
 2675 0c18 E90B0000 		.4byte	0xbe9
 2676 0c1c 15       		.uleb128 0x15
 2677 0c1d 04       		.byte	0x4
 2678 0c1e 09       		.byte	0x9
 2679 0c1f 5D03     		.2byte	0x35d
 2680 0c21 3E0C0000 		.4byte	0xc3e
 2681 0c25 16       		.uleb128 0x16
 2682 0c26 70747200 		.ascii	"ptr\000"
 2683 0c2a 09       		.byte	0x9
 2684 0c2b 6203     		.2byte	0x362
 2685 0c2d 37010000 		.4byte	0x137
 2686 0c31 17       		.uleb128 0x17
 2687 0c32 03060000 		.4byte	.LASF193
 2688 0c36 09       		.byte	0x9
 2689 0c37 6703     		.2byte	0x367
 2690 0c39 3E0C0000 		.4byte	0xc3e
 2691 0c3d 00       		.byte	0
 2692 0c3e 13       		.uleb128 0x13
 2693 0c3f 04       		.byte	0x4
 2694 0c40 100C0000 		.4byte	0xc10
 2695 0c44 06       		.uleb128 0x6
 2696 0c45 1D070000 		.4byte	.LASF194
 2697 0c49 09       		.byte	0x9
 2698 0c4a 6803     		.2byte	0x368
 2699 0c4c 1C0C0000 		.4byte	0xc1c
 2700 0c50 0F       		.uleb128 0xf
ARM GAS  C:\Users\Mahrukh\AppData\Local\Temp\ccgflWoc.s 			page 80


 2701 0c51 02       		.byte	0x2
 2702 0c52 09       		.byte	0x9
 2703 0c53 6C03     		.2byte	0x36c
 2704 0c55 670C0000 		.4byte	0xc67
 2705 0c59 0A       		.uleb128 0xa
 2706 0c5a CE000000 		.4byte	.LASF195
 2707 0c5e 09       		.byte	0x9
 2708 0c5f 7C03     		.2byte	0x37c
 2709 0c61 13010000 		.4byte	0x113
 2710 0c65 00       		.byte	0
 2711 0c66 00       		.byte	0
 2712 0c67 06       		.uleb128 0x6
 2713 0c68 1C030000 		.4byte	.LASF196
 2714 0c6c 09       		.byte	0x9
 2715 0c6d 8603     		.2byte	0x386
 2716 0c6f 500C0000 		.4byte	0xc50
 2717 0c73 18       		.uleb128 0x18
 2718 0c74 120F0000 		.4byte	.LASF234
 2719 0c78 01       		.byte	0x1
 2720 0c79 3B01     		.2byte	0x13b
 2721 0c7b 03       		.byte	0x3
 2722 0c7c B10C0000 		.4byte	0xcb1
 2723 0c80 19       		.uleb128 0x19
 2724 0c81 380E0000 		.4byte	.LASF202
 2725 0c85 01       		.byte	0x1
 2726 0c86 3B01     		.2byte	0x13b
 2727 0c88 B10C0000 		.4byte	0xcb1
 2728 0c8c 1A       		.uleb128 0x1a
 2729 0c8d 69647800 		.ascii	"idx\000"
 2730 0c91 01       		.byte	0x1
 2731 0c92 3D01     		.2byte	0x13d
 2732 0c94 1F010000 		.4byte	0x11f
 2733 0c98 1B       		.uleb128 0x1b
 2734 0c99 9D090000 		.4byte	.LASF197
 2735 0c9d 01       		.byte	0x1
 2736 0c9e 3E01     		.2byte	0x13e
 2737 0ca0 BC0C0000 		.4byte	0xcbc
 2738 0ca4 1B       		.uleb128 0x1b
 2739 0ca5 DB0A0000 		.4byte	.LASF198
 2740 0ca9 01       		.byte	0x1
 2741 0caa 4101     		.2byte	0x141
 2742 0cac C20C0000 		.4byte	0xcc2
 2743 0cb0 00       		.byte	0
 2744 0cb1 13       		.uleb128 0x13
 2745 0cb2 04       		.byte	0x4
 2746 0cb3 B70C0000 		.4byte	0xcb7
 2747 0cb7 1C       		.uleb128 0x1c
 2748 0cb8 870B0000 		.4byte	0xb87
 2749 0cbc 13       		.uleb128 0x13
 2750 0cbd 04       		.byte	0x4
 2751 0cbe 28080000 		.4byte	0x828
 2752 0cc2 13       		.uleb128 0x13
 2753 0cc3 04       		.byte	0x4
 2754 0cc4 670C0000 		.4byte	0xc67
 2755 0cc8 1D       		.uleb128 0x1d
 2756 0cc9 48050000 		.4byte	.LASF203
 2757 0ccd 01       		.byte	0x1
ARM GAS  C:\Users\Mahrukh\AppData\Local\Temp\ccgflWoc.s 			page 81


 2758 0cce 9101     		.2byte	0x191
 2759 0cd0 00000000 		.4byte	.LFB133
 2760 0cd4 90000000 		.4byte	.LFE133-.LFB133
 2761 0cd8 01       		.uleb128 0x1
 2762 0cd9 9C       		.byte	0x9c
 2763 0cda 7B0D0000 		.4byte	0xd7b
 2764 0cde 1E       		.uleb128 0x1e
 2765 0cdf 0E010000 		.4byte	.LASF199
 2766 0ce3 01       		.byte	0x1
 2767 0ce4 9301     		.2byte	0x193
 2768 0ce6 1F010000 		.4byte	0x11f
 2769 0cea 00000000 		.4byte	.LLST0
 2770 0cee 1E       		.uleb128 0x1e
 2771 0cef 0F100000 		.4byte	.LASF200
 2772 0cf3 01       		.byte	0x1
 2773 0cf4 9401     		.2byte	0x194
 2774 0cf6 D5050000 		.4byte	0x5d5
 2775 0cfa 40000000 		.4byte	.LLST1
 2776 0cfe 1E       		.uleb128 0x1e
 2777 0cff 020B0000 		.4byte	.LASF201
 2778 0d03 01       		.byte	0x1
 2779 0d04 9501     		.2byte	0x195
 2780 0d06 7B0D0000 		.4byte	0xd7b
 2781 0d0a 5E000000 		.4byte	.LLST2
 2782 0d0e 1E       		.uleb128 0x1e
 2783 0d0f 380E0000 		.4byte	.LASF202
 2784 0d13 01       		.byte	0x1
 2785 0d14 9601     		.2byte	0x196
 2786 0d16 B10C0000 		.4byte	0xcb1
 2787 0d1a 71000000 		.4byte	.LLST3
 2788 0d1e 1F       		.uleb128 0x1f
 2789 0d1f 730C0000 		.4byte	0xc73
 2790 0d23 54000000 		.4byte	.LBB4
 2791 0d27 28000000 		.4byte	.LBE4-.LBB4
 2792 0d2b 01       		.byte	0x1
 2793 0d2c DB01     		.2byte	0x1db
 2794 0d2e 710D0000 		.4byte	0xd71
 2795 0d32 20       		.uleb128 0x20
 2796 0d33 800C0000 		.4byte	0xc80
 2797 0d37 84000000 		.4byte	.LLST4
 2798 0d3b 21       		.uleb128 0x21
 2799 0d3c 54000000 		.4byte	.LBB5
 2800 0d40 28000000 		.4byte	.LBE5-.LBB5
 2801 0d44 22       		.uleb128 0x22
 2802 0d45 8C0C0000 		.4byte	0xc8c
 2803 0d49 97000000 		.4byte	.LLST5
 2804 0d4d 22       		.uleb128 0x22
 2805 0d4e 980C0000 		.4byte	0xc98
 2806 0d52 B6000000 		.4byte	.LLST6
 2807 0d56 22       		.uleb128 0x22
 2808 0d57 A40C0000 		.4byte	0xca4
 2809 0d5b C9000000 		.4byte	.LLST7
 2810 0d5f 23       		.uleb128 0x23
 2811 0d60 76000000 		.4byte	.LVL17
 2812 0d64 16160000 		.4byte	0x1616
 2813 0d68 24       		.uleb128 0x24
 2814 0d69 01       		.uleb128 0x1
ARM GAS  C:\Users\Mahrukh\AppData\Local\Temp\ccgflWoc.s 			page 82


 2815 0d6a 51       		.byte	0x51
 2816 0d6b 02       		.uleb128 0x2
 2817 0d6c 09       		.byte	0x9
 2818 0d6d FF       		.byte	0xff
 2819 0d6e 00       		.byte	0
 2820 0d6f 00       		.byte	0
 2821 0d70 00       		.byte	0
 2822 0d71 25       		.uleb128 0x25
 2823 0d72 4A000000 		.4byte	.LVL8
 2824 0d76 21160000 		.4byte	0x1621
 2825 0d7a 00       		.byte	0
 2826 0d7b 13       		.uleb128 0x13
 2827 0d7c 04       		.byte	0x4
 2828 0d7d 95060000 		.4byte	0x695
 2829 0d81 1D       		.uleb128 0x1d
 2830 0d82 D9000000 		.4byte	.LASF204
 2831 0d86 01       		.byte	0x1
 2832 0d87 4E04     		.2byte	0x44e
 2833 0d89 00000000 		.4byte	.LFB140
 2834 0d8d 34000000 		.4byte	.LFE140-.LFB140
 2835 0d91 01       		.uleb128 0x1
 2836 0d92 9C       		.byte	0x9c
 2837 0d93 050E0000 		.4byte	0xe05
 2838 0d97 26       		.uleb128 0x26
 2839 0d98 020B0000 		.4byte	.LASF201
 2840 0d9c 01       		.byte	0x1
 2841 0d9d 4E04     		.2byte	0x44e
 2842 0d9f 7B0D0000 		.4byte	0xd7b
 2843 0da3 E8000000 		.4byte	.LLST8
 2844 0da7 26       		.uleb128 0x26
 2845 0da8 11000000 		.4byte	.LASF205
 2846 0dac 01       		.byte	0x1
 2847 0dad 4F04     		.2byte	0x44f
 2848 0daf 810B0000 		.4byte	0xb81
 2849 0db3 06010000 		.4byte	.LLST9
 2850 0db7 26       		.uleb128 0x26
 2851 0db8 74090000 		.4byte	.LASF206
 2852 0dbc 01       		.byte	0x1
 2853 0dbd 5004     		.2byte	0x450
 2854 0dbf 1F010000 		.4byte	0x11f
 2855 0dc3 32010000 		.4byte	.LLST10
 2856 0dc7 27       		.uleb128 0x27
 2857 0dc8 86050000 		.4byte	.LASF207
 2858 0dcc 01       		.byte	0x1
 2859 0dcd 5204     		.2byte	0x452
 2860 0dcf F0010000 		.4byte	0x1f0
 2861 0dd3 02       		.uleb128 0x2
 2862 0dd4 91       		.byte	0x91
 2863 0dd5 70       		.sleb128 -16
 2864 0dd6 1E       		.uleb128 0x1e
 2865 0dd7 D1010000 		.4byte	.LASF208
 2866 0ddb 01       		.byte	0x1
 2867 0ddc 5304     		.2byte	0x453
 2868 0dde 050E0000 		.4byte	0xe05
 2869 0de2 5E010000 		.4byte	.LLST11
 2870 0de6 23       		.uleb128 0x23
 2871 0de7 18000000 		.4byte	.LVL28
ARM GAS  C:\Users\Mahrukh\AppData\Local\Temp\ccgflWoc.s 			page 83


 2872 0deb 2C160000 		.4byte	0x162c
 2873 0def 24       		.uleb128 0x24
 2874 0df0 01       		.uleb128 0x1
 2875 0df1 50       		.byte	0x50
 2876 0df2 03       		.uleb128 0x3
 2877 0df3 F3       		.byte	0xf3
 2878 0df4 01       		.uleb128 0x1
 2879 0df5 51       		.byte	0x51
 2880 0df6 24       		.uleb128 0x24
 2881 0df7 01       		.uleb128 0x1
 2882 0df8 51       		.byte	0x51
 2883 0df9 02       		.uleb128 0x2
 2884 0dfa 91       		.byte	0x91
 2885 0dfb 70       		.sleb128 -16
 2886 0dfc 24       		.uleb128 0x24
 2887 0dfd 01       		.uleb128 0x1
 2888 0dfe 53       		.byte	0x53
 2889 0dff 03       		.uleb128 0x3
 2890 0e00 F3       		.byte	0xf3
 2891 0e01 01       		.uleb128 0x1
 2892 0e02 52       		.byte	0x52
 2893 0e03 00       		.byte	0
 2894 0e04 00       		.byte	0
 2895 0e05 13       		.uleb128 0x13
 2896 0e06 04       		.byte	0x4
 2897 0e07 F0010000 		.4byte	0x1f0
 2898 0e0b 1D       		.uleb128 0x1d
 2899 0e0c 20020000 		.4byte	.LASF209
 2900 0e10 01       		.byte	0x1
 2901 0e11 7704     		.2byte	0x477
 2902 0e13 00000000 		.4byte	.LFB141
 2903 0e17 18000000 		.4byte	.LFE141-.LFB141
 2904 0e1b 01       		.uleb128 0x1
 2905 0e1c 9C       		.byte	0x9c
 2906 0e1d 500E0000 		.4byte	0xe50
 2907 0e21 26       		.uleb128 0x26
 2908 0e22 020B0000 		.4byte	.LASF201
 2909 0e26 01       		.byte	0x1
 2910 0e27 7804     		.2byte	0x478
 2911 0e29 7B0D0000 		.4byte	0xd7b
 2912 0e2d 7E010000 		.4byte	.LLST12
 2913 0e31 28       		.uleb128 0x28
 2914 0e32 12030000 		.4byte	.LASF210
 2915 0e36 01       		.byte	0x1
 2916 0e37 7904     		.2byte	0x479
 2917 0e39 750B0000 		.4byte	0xb75
 2918 0e3d 01       		.uleb128 0x1
 2919 0e3e 51       		.byte	0x51
 2920 0e3f 1E       		.uleb128 0x1e
 2921 0e40 C9020000 		.4byte	.LASF211
 2922 0e44 01       		.byte	0x1
 2923 0e45 7B04     		.2byte	0x47b
 2924 0e47 2B010000 		.4byte	0x12b
 2925 0e4b 9F010000 		.4byte	.LLST13
 2926 0e4f 00       		.byte	0
 2927 0e50 29       		.uleb128 0x29
 2928 0e51 41060000 		.4byte	.LASF215
ARM GAS  C:\Users\Mahrukh\AppData\Local\Temp\ccgflWoc.s 			page 84


 2929 0e55 01       		.byte	0x1
 2930 0e56 2A02     		.2byte	0x22a
 2931 0e58 1F010000 		.4byte	0x11f
 2932 0e5c 00000000 		.4byte	.LFB134
 2933 0e60 36000000 		.4byte	.LFE134-.LFB134
 2934 0e64 01       		.uleb128 0x1
 2935 0e65 9C       		.byte	0x9c
 2936 0e66 FB0E0000 		.4byte	0xefb
 2937 0e6a 26       		.uleb128 0x26
 2938 0e6b 380E0000 		.4byte	.LASF202
 2939 0e6f 01       		.byte	0x1
 2940 0e70 2A02     		.2byte	0x22a
 2941 0e72 B10C0000 		.4byte	0xcb1
 2942 0e76 CE010000 		.4byte	.LLST14
 2943 0e7a 1E       		.uleb128 0x1e
 2944 0e7b 99050000 		.4byte	.LASF212
 2945 0e7f 01       		.byte	0x1
 2946 0e80 2C02     		.2byte	0x22c
 2947 0e82 1F010000 		.4byte	0x11f
 2948 0e86 EF010000 		.4byte	.LLST15
 2949 0e8a 27       		.uleb128 0x27
 2950 0e8b 0F100000 		.4byte	.LASF200
 2951 0e8f 01       		.byte	0x1
 2952 0e90 2D02     		.2byte	0x22d
 2953 0e92 1F010000 		.4byte	0x11f
 2954 0e96 01       		.uleb128 0x1
 2955 0e97 58       		.byte	0x58
 2956 0e98 1E       		.uleb128 0x1e
 2957 0e99 E60A0000 		.4byte	.LASF213
 2958 0e9d 01       		.byte	0x1
 2959 0e9e 2E02     		.2byte	0x22e
 2960 0ea0 1F010000 		.4byte	0x11f
 2961 0ea4 24020000 		.4byte	.LLST16
 2962 0ea8 27       		.uleb128 0x27
 2963 0ea9 9E0C0000 		.4byte	.LASF214
 2964 0ead 01       		.byte	0x1
 2965 0eae 2F02     		.2byte	0x22f
 2966 0eb0 750B0000 		.4byte	0xb75
 2967 0eb4 01       		.uleb128 0x1
 2968 0eb5 54       		.byte	0x54
 2969 0eb6 27       		.uleb128 0x27
 2970 0eb7 020B0000 		.4byte	.LASF201
 2971 0ebb 01       		.byte	0x1
 2972 0ebc 3002     		.2byte	0x230
 2973 0ebe 7B0D0000 		.4byte	0xd7b
 2974 0ec2 01       		.uleb128 0x1
 2975 0ec3 55       		.byte	0x55
 2976 0ec4 2A       		.uleb128 0x2a
 2977 0ec5 1C000000 		.4byte	.LVL42
 2978 0ec9 37160000 		.4byte	0x1637
 2979 0ecd E40E0000 		.4byte	0xee4
 2980 0ed1 24       		.uleb128 0x24
 2981 0ed2 01       		.uleb128 0x1
 2982 0ed3 50       		.byte	0x50
 2983 0ed4 02       		.uleb128 0x2
 2984 0ed5 75       		.byte	0x75
 2985 0ed6 00       		.sleb128 0
ARM GAS  C:\Users\Mahrukh\AppData\Local\Temp\ccgflWoc.s 			page 85


 2986 0ed7 24       		.uleb128 0x24
 2987 0ed8 01       		.uleb128 0x1
 2988 0ed9 51       		.byte	0x51
 2989 0eda 02       		.uleb128 0x2
 2990 0edb 74       		.byte	0x74
 2991 0edc 00       		.sleb128 0
 2992 0edd 24       		.uleb128 0x24
 2993 0ede 01       		.uleb128 0x1
 2994 0edf 52       		.byte	0x52
 2995 0ee0 02       		.uleb128 0x2
 2996 0ee1 78       		.byte	0x78
 2997 0ee2 00       		.sleb128 0
 2998 0ee3 00       		.byte	0
 2999 0ee4 23       		.uleb128 0x23
 3000 0ee5 26000000 		.4byte	.LVL45
 3001 0ee9 0B0E0000 		.4byte	0xe0b
 3002 0eed 24       		.uleb128 0x24
 3003 0eee 01       		.uleb128 0x1
 3004 0eef 50       		.byte	0x50
 3005 0ef0 02       		.uleb128 0x2
 3006 0ef1 75       		.byte	0x75
 3007 0ef2 00       		.sleb128 0
 3008 0ef3 24       		.uleb128 0x24
 3009 0ef4 01       		.uleb128 0x1
 3010 0ef5 51       		.byte	0x51
 3011 0ef6 02       		.uleb128 0x2
 3012 0ef7 74       		.byte	0x74
 3013 0ef8 00       		.sleb128 0
 3014 0ef9 00       		.byte	0
 3015 0efa 00       		.byte	0
 3016 0efb 29       		.uleb128 0x29
 3017 0efc EC010000 		.4byte	.LASF216
 3018 0f00 01       		.byte	0x1
 3019 0f01 8202     		.2byte	0x282
 3020 0f03 1F010000 		.4byte	0x11f
 3021 0f07 00000000 		.4byte	.LFB135
 3022 0f0b 2E000000 		.4byte	.LFE135-.LFB135
 3023 0f0f 01       		.uleb128 0x1
 3024 0f10 9C       		.byte	0x9c
 3025 0f11 B40F0000 		.4byte	0xfb4
 3026 0f15 26       		.uleb128 0x26
 3027 0f16 380E0000 		.4byte	.LASF202
 3028 0f1a 01       		.byte	0x1
 3029 0f1b 8302     		.2byte	0x283
 3030 0f1d B10C0000 		.4byte	0xcb1
 3031 0f21 58020000 		.4byte	.LLST17
 3032 0f25 26       		.uleb128 0x26
 3033 0f26 12030000 		.4byte	.LASF210
 3034 0f2a 01       		.byte	0x1
 3035 0f2b 8402     		.2byte	0x284
 3036 0f2d 750B0000 		.4byte	0xb75
 3037 0f31 92020000 		.4byte	.LLST18
 3038 0f35 26       		.uleb128 0x26
 3039 0f36 15010000 		.4byte	.LASF217
 3040 0f3a 01       		.byte	0x1
 3041 0f3b 8502     		.2byte	0x285
 3042 0f3d 440C0000 		.4byte	0xc44
ARM GAS  C:\Users\Mahrukh\AppData\Local\Temp\ccgflWoc.s 			page 86


 3043 0f41 C6020000 		.4byte	.LLST19
 3044 0f45 26       		.uleb128 0x26
 3045 0f46 0D030000 		.4byte	.LASF218
 3046 0f4a 01       		.byte	0x1
 3047 0f4b 8602     		.2byte	0x286
 3048 0f4d 1F010000 		.4byte	0x11f
 3049 0f51 D9020000 		.4byte	.LLST20
 3050 0f55 1E       		.uleb128 0x1e
 3051 0f56 99050000 		.4byte	.LASF212
 3052 0f5a 01       		.byte	0x1
 3053 0f5b 8802     		.2byte	0x288
 3054 0f5d 1F010000 		.4byte	0x11f
 3055 0f61 0D030000 		.4byte	.LLST21
 3056 0f65 1E       		.uleb128 0x1e
 3057 0f66 0F100000 		.4byte	.LASF200
 3058 0f6a 01       		.byte	0x1
 3059 0f6b 8902     		.2byte	0x289
 3060 0f6d 1F010000 		.4byte	0x11f
 3061 0f71 43030000 		.4byte	.LLST22
 3062 0f75 27       		.uleb128 0x27
 3063 0f76 020B0000 		.4byte	.LASF201
 3064 0f7a 01       		.byte	0x1
 3065 0f7b 8A02     		.2byte	0x28a
 3066 0f7d 7B0D0000 		.4byte	0xd7b
 3067 0f81 01       		.uleb128 0x1
 3068 0f82 56       		.byte	0x56
 3069 0f83 2A       		.uleb128 0x2a
 3070 0f84 16000000 		.4byte	.LVL54
 3071 0f88 37160000 		.4byte	0x1637
 3072 0f8c 9D0F0000 		.4byte	0xf9d
 3073 0f90 24       		.uleb128 0x24
 3074 0f91 01       		.uleb128 0x1
 3075 0f92 50       		.byte	0x50
 3076 0f93 02       		.uleb128 0x2
 3077 0f94 76       		.byte	0x76
 3078 0f95 00       		.sleb128 0
 3079 0f96 24       		.uleb128 0x24
 3080 0f97 01       		.uleb128 0x1
 3081 0f98 51       		.byte	0x51
 3082 0f99 02       		.uleb128 0x2
 3083 0f9a 77       		.byte	0x77
 3084 0f9b 00       		.sleb128 0
 3085 0f9c 00       		.byte	0
 3086 0f9d 23       		.uleb128 0x23
 3087 0f9e 2A000000 		.4byte	.LVL58
 3088 0fa2 0B0E0000 		.4byte	0xe0b
 3089 0fa6 24       		.uleb128 0x24
 3090 0fa7 01       		.uleb128 0x1
 3091 0fa8 50       		.byte	0x50
 3092 0fa9 02       		.uleb128 0x2
 3093 0faa 76       		.byte	0x76
 3094 0fab 00       		.sleb128 0
 3095 0fac 24       		.uleb128 0x24
 3096 0fad 01       		.uleb128 0x1
 3097 0fae 51       		.byte	0x51
 3098 0faf 02       		.uleb128 0x2
 3099 0fb0 77       		.byte	0x77
ARM GAS  C:\Users\Mahrukh\AppData\Local\Temp\ccgflWoc.s 			page 87


 3100 0fb1 00       		.sleb128 0
 3101 0fb2 00       		.byte	0
 3102 0fb3 00       		.byte	0
 3103 0fb4 29       		.uleb128 0x29
 3104 0fb5 29080000 		.4byte	.LASF219
 3105 0fb9 01       		.byte	0x1
 3106 0fba 1103     		.2byte	0x311
 3107 0fbc 1F010000 		.4byte	0x11f
 3108 0fc0 00000000 		.4byte	.LFB137
 3109 0fc4 52000000 		.4byte	.LFE137-.LFB137
 3110 0fc8 01       		.uleb128 0x1
 3111 0fc9 9C       		.byte	0x9c
 3112 0fca A1100000 		.4byte	0x10a1
 3113 0fce 26       		.uleb128 0x26
 3114 0fcf 380E0000 		.4byte	.LASF202
 3115 0fd3 01       		.byte	0x1
 3116 0fd4 1103     		.2byte	0x311
 3117 0fd6 B10C0000 		.4byte	0xcb1
 3118 0fda 61030000 		.4byte	.LLST23
 3119 0fde 1E       		.uleb128 0x1e
 3120 0fdf 99050000 		.4byte	.LASF212
 3121 0fe3 01       		.byte	0x1
 3122 0fe4 1303     		.2byte	0x313
 3123 0fe6 1F010000 		.4byte	0x11f
 3124 0fea 7F030000 		.4byte	.LLST24
 3125 0fee 27       		.uleb128 0x27
 3126 0fef 0F100000 		.4byte	.LASF200
 3127 0ff3 01       		.byte	0x1
 3128 0ff4 1903     		.2byte	0x319
 3129 0ff6 1F010000 		.4byte	0x11f
 3130 0ffa 01       		.uleb128 0x1
 3131 0ffb 5A       		.byte	0x5a
 3132 0ffc 1E       		.uleb128 0x1e
 3133 0ffd 5E0C0000 		.4byte	.LASF220
 3134 1001 01       		.byte	0x1
 3135 1002 1A03     		.2byte	0x31a
 3136 1004 1F010000 		.4byte	0x11f
 3137 1008 B4030000 		.4byte	.LLST25
 3138 100c 27       		.uleb128 0x27
 3139 100d 9E0C0000 		.4byte	.LASF214
 3140 1011 01       		.byte	0x1
 3141 1012 1B03     		.2byte	0x31b
 3142 1014 750B0000 		.4byte	0xb75
 3143 1018 01       		.uleb128 0x1
 3144 1019 54       		.byte	0x54
 3145 101a 27       		.uleb128 0x27
 3146 101b 020B0000 		.4byte	.LASF201
 3147 101f 01       		.byte	0x1
 3148 1020 1C03     		.2byte	0x31c
 3149 1022 7B0D0000 		.4byte	0xd7b
 3150 1026 01       		.uleb128 0x1
 3151 1027 57       		.byte	0x57
 3152 1028 27       		.uleb128 0x27
 3153 1029 11000000 		.4byte	.LASF205
 3154 102d 01       		.byte	0x1
 3155 102e 2003     		.2byte	0x320
 3156 1030 810B0000 		.4byte	0xb81
ARM GAS  C:\Users\Mahrukh\AppData\Local\Temp\ccgflWoc.s 			page 88


 3157 1034 01       		.uleb128 0x1
 3158 1035 56       		.byte	0x56
 3159 1036 2A       		.uleb128 0x2a
 3160 1037 20000000 		.4byte	.LVL66
 3161 103b 42160000 		.4byte	0x1642
 3162 103f 4A100000 		.4byte	0x104a
 3163 1043 24       		.uleb128 0x24
 3164 1044 01       		.uleb128 0x1
 3165 1045 52       		.byte	0x52
 3166 1046 02       		.uleb128 0x2
 3167 1047 76       		.byte	0x76
 3168 1048 00       		.sleb128 0
 3169 1049 00       		.byte	0
 3170 104a 2A       		.uleb128 0x2a
 3171 104b 2A000000 		.4byte	.LVL67
 3172 104f 810D0000 		.4byte	0xd81
 3173 1053 6A100000 		.4byte	0x106a
 3174 1057 24       		.uleb128 0x24
 3175 1058 01       		.uleb128 0x1
 3176 1059 50       		.byte	0x50
 3177 105a 02       		.uleb128 0x2
 3178 105b 77       		.byte	0x77
 3179 105c 00       		.sleb128 0
 3180 105d 24       		.uleb128 0x24
 3181 105e 01       		.uleb128 0x1
 3182 105f 51       		.byte	0x51
 3183 1060 02       		.uleb128 0x2
 3184 1061 76       		.byte	0x76
 3185 1062 00       		.sleb128 0
 3186 1063 24       		.uleb128 0x24
 3187 1064 01       		.uleb128 0x1
 3188 1065 52       		.byte	0x52
 3189 1066 02       		.uleb128 0x2
 3190 1067 75       		.byte	0x75
 3191 1068 00       		.sleb128 0
 3192 1069 00       		.byte	0
 3193 106a 2A       		.uleb128 0x2a
 3194 106b 36000000 		.4byte	.LVL69
 3195 106f 37160000 		.4byte	0x1637
 3196 1073 8A100000 		.4byte	0x108a
 3197 1077 24       		.uleb128 0x24
 3198 1078 01       		.uleb128 0x1
 3199 1079 50       		.byte	0x50
 3200 107a 02       		.uleb128 0x2
 3201 107b 77       		.byte	0x77
 3202 107c 00       		.sleb128 0
 3203 107d 24       		.uleb128 0x24
 3204 107e 01       		.uleb128 0x1
 3205 107f 51       		.byte	0x51
 3206 1080 02       		.uleb128 0x2
 3207 1081 74       		.byte	0x74
 3208 1082 00       		.sleb128 0
 3209 1083 24       		.uleb128 0x24
 3210 1084 01       		.uleb128 0x1
 3211 1085 52       		.byte	0x52
 3212 1086 02       		.uleb128 0x2
 3213 1087 7A       		.byte	0x7a
ARM GAS  C:\Users\Mahrukh\AppData\Local\Temp\ccgflWoc.s 			page 89


 3214 1088 00       		.sleb128 0
 3215 1089 00       		.byte	0
 3216 108a 23       		.uleb128 0x23
 3217 108b 40000000 		.4byte	.LVL72
 3218 108f 0B0E0000 		.4byte	0xe0b
 3219 1093 24       		.uleb128 0x24
 3220 1094 01       		.uleb128 0x1
 3221 1095 50       		.byte	0x50
 3222 1096 02       		.uleb128 0x2
 3223 1097 77       		.byte	0x77
 3224 1098 00       		.sleb128 0
 3225 1099 24       		.uleb128 0x24
 3226 109a 01       		.uleb128 0x1
 3227 109b 51       		.byte	0x51
 3228 109c 02       		.uleb128 0x2
 3229 109d 74       		.byte	0x74
 3230 109e 00       		.sleb128 0
 3231 109f 00       		.byte	0
 3232 10a0 00       		.byte	0
 3233 10a1 29       		.uleb128 0x29
 3234 10a2 3A000000 		.4byte	.LASF221
 3235 10a6 01       		.byte	0x1
 3236 10a7 9303     		.2byte	0x393
 3237 10a9 1F010000 		.4byte	0x11f
 3238 10ad 00000000 		.4byte	.LFB138
 3239 10b1 5A000000 		.4byte	.LFE138-.LFB138
 3240 10b5 01       		.uleb128 0x1
 3241 10b6 9C       		.byte	0x9c
 3242 10b7 A1110000 		.4byte	0x11a1
 3243 10bb 26       		.uleb128 0x26
 3244 10bc 380E0000 		.4byte	.LASF202
 3245 10c0 01       		.byte	0x1
 3246 10c1 9403     		.2byte	0x394
 3247 10c3 B10C0000 		.4byte	0xcb1
 3248 10c7 D3030000 		.4byte	.LLST26
 3249 10cb 26       		.uleb128 0x26
 3250 10cc 12030000 		.4byte	.LASF210
 3251 10d0 01       		.byte	0x1
 3252 10d1 9503     		.2byte	0x395
 3253 10d3 750B0000 		.4byte	0xb75
 3254 10d7 F4030000 		.4byte	.LLST27
 3255 10db 26       		.uleb128 0x26
 3256 10dc 15010000 		.4byte	.LASF217
 3257 10e0 01       		.byte	0x1
 3258 10e1 9603     		.2byte	0x396
 3259 10e3 440C0000 		.4byte	0xc44
 3260 10e7 12040000 		.4byte	.LLST28
 3261 10eb 26       		.uleb128 0x26
 3262 10ec 0D030000 		.4byte	.LASF218
 3263 10f0 01       		.byte	0x1
 3264 10f1 9703     		.2byte	0x397
 3265 10f3 1F010000 		.4byte	0x11f
 3266 10f7 51040000 		.4byte	.LLST29
 3267 10fb 1E       		.uleb128 0x1e
 3268 10fc 99050000 		.4byte	.LASF212
 3269 1100 01       		.byte	0x1
 3270 1101 9903     		.2byte	0x399
ARM GAS  C:\Users\Mahrukh\AppData\Local\Temp\ccgflWoc.s 			page 90


 3271 1103 1F010000 		.4byte	0x11f
 3272 1107 6F040000 		.4byte	.LLST30
 3273 110b 27       		.uleb128 0x27
 3274 110c 0F100000 		.4byte	.LASF200
 3275 1110 01       		.byte	0x1
 3276 1111 9A03     		.2byte	0x39a
 3277 1113 1F010000 		.4byte	0x11f
 3278 1117 01       		.uleb128 0x1
 3279 1118 58       		.byte	0x58
 3280 1119 27       		.uleb128 0x27
 3281 111a 020B0000 		.4byte	.LASF201
 3282 111e 01       		.byte	0x1
 3283 111f 9B03     		.2byte	0x39b
 3284 1121 7B0D0000 		.4byte	0xd7b
 3285 1125 01       		.uleb128 0x1
 3286 1126 55       		.byte	0x55
 3287 1127 1E       		.uleb128 0x1e
 3288 1128 11000000 		.4byte	.LASF205
 3289 112c 01       		.byte	0x1
 3290 112d 9E03     		.2byte	0x39e
 3291 112f 810B0000 		.4byte	0xb81
 3292 1133 A5040000 		.4byte	.LLST31
 3293 1137 2A       		.uleb128 0x2a
 3294 1138 20000000 		.4byte	.LVL83
 3295 113c 42160000 		.4byte	0x1642
 3296 1140 4B110000 		.4byte	0x114b
 3297 1144 24       		.uleb128 0x24
 3298 1145 01       		.uleb128 0x1
 3299 1146 52       		.byte	0x52
 3300 1147 02       		.uleb128 0x2
 3301 1148 76       		.byte	0x76
 3302 1149 00       		.sleb128 0
 3303 114a 00       		.byte	0
 3304 114b 2A       		.uleb128 0x2a
 3305 114c 30000000 		.4byte	.LVL85
 3306 1150 810D0000 		.4byte	0xd81
 3307 1154 6A110000 		.4byte	0x116a
 3308 1158 24       		.uleb128 0x24
 3309 1159 01       		.uleb128 0x1
 3310 115a 50       		.byte	0x50
 3311 115b 02       		.uleb128 0x2
 3312 115c 75       		.byte	0x75
 3313 115d 00       		.sleb128 0
 3314 115e 24       		.uleb128 0x24
 3315 115f 01       		.uleb128 0x1
 3316 1160 51       		.byte	0x51
 3317 1161 02       		.uleb128 0x2
 3318 1162 76       		.byte	0x76
 3319 1163 00       		.sleb128 0
 3320 1164 24       		.uleb128 0x24
 3321 1165 01       		.uleb128 0x1
 3322 1166 52       		.byte	0x52
 3323 1167 01       		.uleb128 0x1
 3324 1168 30       		.byte	0x30
 3325 1169 00       		.byte	0
 3326 116a 2A       		.uleb128 0x2a
 3327 116b 40000000 		.4byte	.LVL87
ARM GAS  C:\Users\Mahrukh\AppData\Local\Temp\ccgflWoc.s 			page 91


 3328 116f 37160000 		.4byte	0x1637
 3329 1173 8A110000 		.4byte	0x118a
 3330 1177 24       		.uleb128 0x24
 3331 1178 01       		.uleb128 0x1
 3332 1179 50       		.byte	0x50
 3333 117a 02       		.uleb128 0x2
 3334 117b 75       		.byte	0x75
 3335 117c 00       		.sleb128 0
 3336 117d 24       		.uleb128 0x24
 3337 117e 01       		.uleb128 0x1
 3338 117f 51       		.byte	0x51
 3339 1180 02       		.uleb128 0x2
 3340 1181 77       		.byte	0x77
 3341 1182 00       		.sleb128 0
 3342 1183 24       		.uleb128 0x24
 3343 1184 01       		.uleb128 0x1
 3344 1185 52       		.byte	0x52
 3345 1186 02       		.uleb128 0x2
 3346 1187 78       		.byte	0x78
 3347 1188 00       		.sleb128 0
 3348 1189 00       		.byte	0
 3349 118a 23       		.uleb128 0x23
 3350 118b 54000000 		.4byte	.LVL91
 3351 118f 0B0E0000 		.4byte	0xe0b
 3352 1193 24       		.uleb128 0x24
 3353 1194 01       		.uleb128 0x1
 3354 1195 50       		.byte	0x50
 3355 1196 02       		.uleb128 0x2
 3356 1197 75       		.byte	0x75
 3357 1198 00       		.sleb128 0
 3358 1199 24       		.uleb128 0x24
 3359 119a 01       		.uleb128 0x1
 3360 119b 51       		.byte	0x51
 3361 119c 02       		.uleb128 0x2
 3362 119d 77       		.byte	0x77
 3363 119e 00       		.sleb128 0
 3364 119f 00       		.byte	0
 3365 11a0 00       		.byte	0
 3366 11a1 29       		.uleb128 0x29
 3367 11a2 CC080000 		.4byte	.LASF222
 3368 11a6 01       		.byte	0x1
 3369 11a7 C104     		.2byte	0x4c1
 3370 11a9 1F010000 		.4byte	0x11f
 3371 11ad 00000000 		.4byte	.LFB142
 3372 11b1 62000000 		.4byte	.LFE142-.LFB142
 3373 11b5 01       		.uleb128 0x1
 3374 11b6 9C       		.byte	0x9c
 3375 11b7 46120000 		.4byte	0x1246
 3376 11bb 26       		.uleb128 0x26
 3377 11bc F60E0000 		.4byte	.LASF223
 3378 11c0 01       		.byte	0x1
 3379 11c1 C104     		.2byte	0x4c1
 3380 11c3 1F010000 		.4byte	0x11f
 3381 11c7 C3040000 		.4byte	.LLST32
 3382 11cb 26       		.uleb128 0x26
 3383 11cc 380E0000 		.4byte	.LASF202
 3384 11d0 01       		.byte	0x1
ARM GAS  C:\Users\Mahrukh\AppData\Local\Temp\ccgflWoc.s 			page 92


 3385 11d1 C104     		.2byte	0x4c1
 3386 11d3 B10C0000 		.4byte	0xcb1
 3387 11d7 E1040000 		.4byte	.LLST33
 3388 11db 1E       		.uleb128 0x1e
 3389 11dc F5000000 		.4byte	.LASF224
 3390 11e0 01       		.byte	0x1
 3391 11e1 C304     		.2byte	0x4c3
 3392 11e3 1F010000 		.4byte	0x11f
 3393 11e7 02050000 		.4byte	.LLST34
 3394 11eb 1E       		.uleb128 0x1e
 3395 11ec 0D0B0000 		.4byte	.LASF225
 3396 11f0 01       		.byte	0x1
 3397 11f1 C404     		.2byte	0x4c4
 3398 11f3 1F010000 		.4byte	0x11f
 3399 11f7 36050000 		.4byte	.LLST35
 3400 11fb 1E       		.uleb128 0x1e
 3401 11fc F5040000 		.4byte	.LASF226
 3402 1200 01       		.byte	0x1
 3403 1201 C504     		.2byte	0x4c5
 3404 1203 1F010000 		.4byte	0x11f
 3405 1207 55050000 		.4byte	.LLST36
 3406 120b 1E       		.uleb128 0x1e
 3407 120c 9E070000 		.4byte	.LASF227
 3408 1210 01       		.byte	0x1
 3409 1211 C604     		.2byte	0x4c6
 3410 1213 1F010000 		.4byte	0x11f
 3411 1217 73050000 		.4byte	.LLST37
 3412 121b 27       		.uleb128 0x27
 3413 121c 9E0C0000 		.4byte	.LASF214
 3414 1220 01       		.byte	0x1
 3415 1221 C704     		.2byte	0x4c7
 3416 1223 750B0000 		.4byte	0xb75
 3417 1227 01       		.uleb128 0x1
 3418 1228 55       		.byte	0x55
 3419 1229 27       		.uleb128 0x27
 3420 122a 020B0000 		.4byte	.LASF201
 3421 122e 01       		.byte	0x1
 3422 122f C804     		.2byte	0x4c8
 3423 1231 7B0D0000 		.4byte	0xd7b
 3424 1235 01       		.uleb128 0x1
 3425 1236 57       		.byte	0x57
 3426 1237 27       		.uleb128 0x27
 3427 1238 FA080000 		.4byte	.LASF228
 3428 123c 01       		.byte	0x1
 3429 123d C904     		.2byte	0x4c9
 3430 123f 7B0B0000 		.4byte	0xb7b
 3431 1243 01       		.uleb128 0x1
 3432 1244 52       		.byte	0x52
 3433 1245 00       		.byte	0
 3434 1246 1D       		.uleb128 0x1d
 3435 1247 8B0F0000 		.4byte	.LASF229
 3436 124b 01       		.byte	0x1
 3437 124c C102     		.2byte	0x2c1
 3438 124e 00000000 		.4byte	.LFB136
 3439 1252 64000000 		.4byte	.LFE136-.LFB136
 3440 1256 01       		.uleb128 0x1
 3441 1257 9C       		.byte	0x9c
ARM GAS  C:\Users\Mahrukh\AppData\Local\Temp\ccgflWoc.s 			page 93


 3442 1258 F2120000 		.4byte	0x12f2
 3443 125c 26       		.uleb128 0x26
 3444 125d 54100000 		.4byte	.LASF230
 3445 1261 01       		.byte	0x1
 3446 1262 C102     		.2byte	0x2c1
 3447 1264 1F010000 		.4byte	0x11f
 3448 1268 91050000 		.4byte	.LLST38
 3449 126c 26       		.uleb128 0x26
 3450 126d 380E0000 		.4byte	.LASF202
 3451 1271 01       		.byte	0x1
 3452 1272 C102     		.2byte	0x2c1
 3453 1274 B10C0000 		.4byte	0xcb1
 3454 1278 D3050000 		.4byte	.LLST39
 3455 127c 1E       		.uleb128 0x1e
 3456 127d 2F0A0000 		.4byte	.LASF231
 3457 1281 01       		.byte	0x1
 3458 1282 C302     		.2byte	0x2c3
 3459 1284 1F010000 		.4byte	0x11f
 3460 1288 0D060000 		.4byte	.LLST40
 3461 128c 1E       		.uleb128 0x1e
 3462 128d 9C0A0000 		.4byte	.LASF232
 3463 1291 01       		.byte	0x1
 3464 1292 C402     		.2byte	0x2c4
 3465 1294 1F010000 		.4byte	0x11f
 3466 1298 36060000 		.4byte	.LLST41
 3467 129c 1E       		.uleb128 0x1e
 3468 129d 200E0000 		.4byte	.LASF233
 3469 12a1 01       		.byte	0x1
 3470 12a2 C502     		.2byte	0x2c5
 3471 12a4 1F010000 		.4byte	0x11f
 3472 12a8 8E060000 		.4byte	.LLST42
 3473 12ac 1E       		.uleb128 0x1e
 3474 12ad 0F100000 		.4byte	.LASF200
 3475 12b1 01       		.byte	0x1
 3476 12b2 C602     		.2byte	0x2c6
 3477 12b4 D5050000 		.4byte	0x5d5
 3478 12b8 D0060000 		.4byte	.LLST43
 3479 12bc 2A       		.uleb128 0x2a
 3480 12bd 16000000 		.4byte	.LVL116
 3481 12c1 A1110000 		.4byte	0x11a1
 3482 12c5 D7120000 		.4byte	0x12d7
 3483 12c9 24       		.uleb128 0x24
 3484 12ca 01       		.uleb128 0x1
 3485 12cb 50       		.byte	0x50
 3486 12cc 02       		.uleb128 0x2
 3487 12cd 75       		.byte	0x75
 3488 12ce 00       		.sleb128 0
 3489 12cf 24       		.uleb128 0x24
 3490 12d0 01       		.uleb128 0x1
 3491 12d1 51       		.byte	0x51
 3492 12d2 03       		.uleb128 0x3
 3493 12d3 F3       		.byte	0xf3
 3494 12d4 01       		.uleb128 0x1
 3495 12d5 51       		.byte	0x51
 3496 12d6 00       		.byte	0
 3497 12d7 23       		.uleb128 0x23
 3498 12d8 24000000 		.4byte	.LVL121
ARM GAS  C:\Users\Mahrukh\AppData\Local\Temp\ccgflWoc.s 			page 94


 3499 12dc 4D160000 		.4byte	0x164d
 3500 12e0 24       		.uleb128 0x24
 3501 12e1 01       		.uleb128 0x1
 3502 12e2 50       		.byte	0x50
 3503 12e3 05       		.uleb128 0x5
 3504 12e4 03       		.byte	0x3
 3505 12e5 00000000 		.4byte	.LC0
 3506 12e9 24       		.uleb128 0x24
 3507 12ea 01       		.uleb128 0x1
 3508 12eb 51       		.byte	0x51
 3509 12ec 03       		.uleb128 0x3
 3510 12ed 0A       		.byte	0xa
 3511 12ee E002     		.2byte	0x2e0
 3512 12f0 00       		.byte	0
 3513 12f1 00       		.byte	0
 3514 12f2 18       		.uleb128 0x18
 3515 12f3 520A0000 		.4byte	.LASF235
 3516 12f7 01       		.byte	0x1
 3517 12f8 3D06     		.2byte	0x63d
 3518 12fa 03       		.byte	0x3
 3519 12fb 6C130000 		.4byte	0x136c
 3520 12ff 19       		.uleb128 0x19
 3521 1300 EF0A0000 		.4byte	.LASF236
 3522 1304 01       		.byte	0x1
 3523 1305 3E06     		.2byte	0x63e
 3524 1307 6C130000 		.4byte	0x136c
 3525 130b 19       		.uleb128 0x19
 3526 130c EC0D0000 		.4byte	.LASF237
 3527 1310 01       		.byte	0x1
 3528 1311 3F06     		.2byte	0x63f
 3529 1313 1F010000 		.4byte	0x11f
 3530 1317 19       		.uleb128 0x19
 3531 1318 380E0000 		.4byte	.LASF202
 3532 131c 01       		.byte	0x1
 3533 131d 4006     		.2byte	0x640
 3534 131f B10C0000 		.4byte	0xcb1
 3535 1323 19       		.uleb128 0x19
 3536 1324 020B0000 		.4byte	.LASF201
 3537 1328 01       		.byte	0x1
 3538 1329 4106     		.2byte	0x641
 3539 132b BC0C0000 		.4byte	0xcbc
 3540 132f 1B       		.uleb128 0x1b
 3541 1330 4E080000 		.4byte	.LASF238
 3542 1334 01       		.byte	0x1
 3543 1335 4306     		.2byte	0x643
 3544 1337 1F010000 		.4byte	0x11f
 3545 133b 1B       		.uleb128 0x1b
 3546 133c BF060000 		.4byte	.LASF239
 3547 1340 01       		.byte	0x1
 3548 1341 4606     		.2byte	0x646
 3549 1343 13010000 		.4byte	0x113
 3550 1347 1B       		.uleb128 0x1b
 3551 1348 86080000 		.4byte	.LASF240
 3552 134c 01       		.byte	0x1
 3553 134d 4D06     		.2byte	0x64d
 3554 134f 13010000 		.4byte	0x113
 3555 1353 1B       		.uleb128 0x1b
ARM GAS  C:\Users\Mahrukh\AppData\Local\Temp\ccgflWoc.s 			page 95


 3556 1354 F20B0000 		.4byte	.LASF241
 3557 1358 01       		.byte	0x1
 3558 1359 4F06     		.2byte	0x64f
 3559 135b 1F010000 		.4byte	0x11f
 3560 135f 1B       		.uleb128 0x1b
 3561 1360 DB0A0000 		.4byte	.LASF198
 3562 1364 01       		.byte	0x1
 3563 1365 5106     		.2byte	0x651
 3564 1367 C20C0000 		.4byte	0xcc2
 3565 136b 00       		.byte	0
 3566 136c 13       		.uleb128 0x13
 3567 136d 04       		.byte	0x4
 3568 136e 72130000 		.4byte	0x1372
 3569 1372 1C       		.uleb128 0x1c
 3570 1373 13010000 		.4byte	0x113
 3571 1377 29       		.uleb128 0x29
 3572 1378 AA0A0000 		.4byte	.LASF242
 3573 137c 01       		.byte	0x1
 3574 137d 9405     		.2byte	0x594
 3575 137f 1F010000 		.4byte	0x11f
 3576 1383 00000000 		.4byte	.LFB143
 3577 1387 2A010000 		.4byte	.LFE143-.LFB143
 3578 138b 01       		.uleb128 0x1
 3579 138c 9C       		.byte	0x9c
 3580 138d 2F150000 		.4byte	0x152f
 3581 1391 26       		.uleb128 0x26
 3582 1392 F60E0000 		.4byte	.LASF223
 3583 1396 01       		.byte	0x1
 3584 1397 9405     		.2byte	0x594
 3585 1399 1F010000 		.4byte	0x11f
 3586 139d EE060000 		.4byte	.LLST44
 3587 13a1 26       		.uleb128 0x26
 3588 13a2 380E0000 		.4byte	.LASF202
 3589 13a6 01       		.byte	0x1
 3590 13a7 9405     		.2byte	0x594
 3591 13a9 B10C0000 		.4byte	0xcb1
 3592 13ad 17070000 		.4byte	.LLST45
 3593 13b1 1E       		.uleb128 0x1e
 3594 13b2 F5000000 		.4byte	.LASF224
 3595 13b6 01       		.byte	0x1
 3596 13b7 9605     		.2byte	0x596
 3597 13b9 1F010000 		.4byte	0x11f
 3598 13bd 72070000 		.4byte	.LLST46
 3599 13c1 1E       		.uleb128 0x1e
 3600 13c2 0D0B0000 		.4byte	.LASF225
 3601 13c6 01       		.byte	0x1
 3602 13c7 9705     		.2byte	0x597
 3603 13c9 1F010000 		.4byte	0x11f
 3604 13cd BC070000 		.4byte	.LLST47
 3605 13d1 1E       		.uleb128 0x1e
 3606 13d2 9E070000 		.4byte	.LASF227
 3607 13d6 01       		.byte	0x1
 3608 13d7 9805     		.2byte	0x598
 3609 13d9 1F010000 		.4byte	0x11f
 3610 13dd E6070000 		.4byte	.LLST48
 3611 13e1 1E       		.uleb128 0x1e
 3612 13e2 F5040000 		.4byte	.LASF226
ARM GAS  C:\Users\Mahrukh\AppData\Local\Temp\ccgflWoc.s 			page 96


 3613 13e6 01       		.byte	0x1
 3614 13e7 9905     		.2byte	0x599
 3615 13e9 1F010000 		.4byte	0x11f
 3616 13ed 1F080000 		.4byte	.LLST49
 3617 13f1 1E       		.uleb128 0x1e
 3618 13f2 FA080000 		.4byte	.LASF228
 3619 13f6 01       		.byte	0x1
 3620 13f7 9A05     		.2byte	0x59a
 3621 13f9 7B0B0000 		.4byte	0xb7b
 3622 13fd 49080000 		.4byte	.LLST50
 3623 1401 1E       		.uleb128 0x1e
 3624 1402 9E0C0000 		.4byte	.LASF214
 3625 1406 01       		.byte	0x1
 3626 1407 9B05     		.2byte	0x59b
 3627 1409 750B0000 		.4byte	0xb75
 3628 140d 67080000 		.4byte	.LLST51
 3629 1411 27       		.uleb128 0x27
 3630 1412 020B0000 		.4byte	.LASF201
 3631 1416 01       		.byte	0x1
 3632 1417 9C05     		.2byte	0x59c
 3633 1419 BC0C0000 		.4byte	0xcbc
 3634 141d 01       		.uleb128 0x1
 3635 141e 57       		.byte	0x57
 3636 141f 27       		.uleb128 0x27
 3637 1420 DB0A0000 		.4byte	.LASF198
 3638 1424 01       		.byte	0x1
 3639 1425 9F05     		.2byte	0x59f
 3640 1427 C20C0000 		.4byte	0xcc2
 3641 142b 01       		.uleb128 0x1
 3642 142c 56       		.byte	0x56
 3643 142d 27       		.uleb128 0x27
 3644 142e 4E080000 		.4byte	.LASF238
 3645 1432 01       		.byte	0x1
 3646 1433 A205     		.2byte	0x5a2
 3647 1435 1F010000 		.4byte	0x11f
 3648 1439 01       		.uleb128 0x1
 3649 143a 54       		.byte	0x54
 3650 143b 1E       		.uleb128 0x1e
 3651 143c 390C0000 		.4byte	.LASF243
 3652 1440 01       		.byte	0x1
 3653 1441 A305     		.2byte	0x5a3
 3654 1443 1F010000 		.4byte	0x11f
 3655 1447 85080000 		.4byte	.LLST52
 3656 144b 27       		.uleb128 0x27
 3657 144c EF0A0000 		.4byte	.LASF236
 3658 1450 01       		.byte	0x1
 3659 1451 A405     		.2byte	0x5a4
 3660 1453 18080000 		.4byte	0x818
 3661 1457 02       		.uleb128 0x2
 3662 1458 91       		.byte	0x91
 3663 1459 54       		.sleb128 -44
 3664 145a 1F       		.uleb128 0x1f
 3665 145b F2120000 		.4byte	0x12f2
 3666 145f 9A000000 		.4byte	.LBB8
 3667 1463 64000000 		.4byte	.LBE8-.LBB8
 3668 1467 01       		.byte	0x1
 3669 1468 0A06     		.2byte	0x60a
ARM GAS  C:\Users\Mahrukh\AppData\Local\Temp\ccgflWoc.s 			page 97


 3670 146a E0140000 		.4byte	0x14e0
 3671 146e 20       		.uleb128 0x20
 3672 146f 23130000 		.4byte	0x1323
 3673 1473 D1080000 		.4byte	.LLST53
 3674 1477 20       		.uleb128 0x20
 3675 1478 17130000 		.4byte	0x1317
 3676 147c E4080000 		.4byte	.LLST54
 3677 1480 20       		.uleb128 0x20
 3678 1481 0B130000 		.4byte	0x130b
 3679 1485 05090000 		.4byte	.LLST55
 3680 1489 20       		.uleb128 0x20
 3681 148a FF120000 		.4byte	0x12ff
 3682 148e 23090000 		.4byte	.LLST56
 3683 1492 21       		.uleb128 0x21
 3684 1493 9A000000 		.4byte	.LBB9
 3685 1497 64000000 		.4byte	.LBE9-.LBB9
 3686 149b 22       		.uleb128 0x22
 3687 149c 2F130000 		.4byte	0x132f
 3688 14a0 50090000 		.4byte	.LLST57
 3689 14a4 22       		.uleb128 0x22
 3690 14a5 3B130000 		.4byte	0x133b
 3691 14a9 6F090000 		.4byte	.LLST58
 3692 14ad 22       		.uleb128 0x22
 3693 14ae 47130000 		.4byte	0x1347
 3694 14b2 82090000 		.4byte	.LLST59
 3695 14b6 22       		.uleb128 0x22
 3696 14b7 53130000 		.4byte	0x1353
 3697 14bb B3090000 		.4byte	.LLST60
 3698 14bf 22       		.uleb128 0x22
 3699 14c0 5F130000 		.4byte	0x135f
 3700 14c4 C6090000 		.4byte	.LLST61
 3701 14c8 23       		.uleb128 0x23
 3702 14c9 C8000000 		.4byte	.LVL169
 3703 14cd 16160000 		.4byte	0x1616
 3704 14d1 24       		.uleb128 0x24
 3705 14d2 01       		.uleb128 0x1
 3706 14d3 50       		.byte	0x50
 3707 14d4 02       		.uleb128 0x2
 3708 14d5 79       		.byte	0x79
 3709 14d6 00       		.sleb128 0
 3710 14d7 24       		.uleb128 0x24
 3711 14d8 01       		.uleb128 0x1
 3712 14d9 51       		.byte	0x51
 3713 14da 02       		.uleb128 0x2
 3714 14db 7B       		.byte	0x7b
 3715 14dc 00       		.sleb128 0
 3716 14dd 00       		.byte	0
 3717 14de 00       		.byte	0
 3718 14df 00       		.byte	0
 3719 14e0 2A       		.uleb128 0x2a
 3720 14e1 7C000000 		.4byte	.LVL158
 3721 14e5 59160000 		.4byte	0x1659
 3722 14e9 F4140000 		.4byte	0x14f4
 3723 14ed 24       		.uleb128 0x24
 3724 14ee 01       		.uleb128 0x1
 3725 14ef 51       		.byte	0x51
 3726 14f0 02       		.uleb128 0x2
ARM GAS  C:\Users\Mahrukh\AppData\Local\Temp\ccgflWoc.s 			page 98


 3727 14f1 79       		.byte	0x79
 3728 14f2 00       		.sleb128 0
 3729 14f3 00       		.byte	0
 3730 14f4 2A       		.uleb128 0x2a
 3731 14f5 98000000 		.4byte	.LVL160
 3732 14f9 64160000 		.4byte	0x1664
 3733 14fd 13150000 		.4byte	0x1513
 3734 1501 24       		.uleb128 0x24
 3735 1502 01       		.uleb128 0x1
 3736 1503 50       		.byte	0x50
 3737 1504 02       		.uleb128 0x2
 3738 1505 91       		.byte	0x91
 3739 1506 54       		.sleb128 -44
 3740 1507 24       		.uleb128 0x24
 3741 1508 01       		.uleb128 0x1
 3742 1509 52       		.byte	0x52
 3743 150a 02       		.uleb128 0x2
 3744 150b 79       		.byte	0x79
 3745 150c 00       		.sleb128 0
 3746 150d 24       		.uleb128 0x24
 3747 150e 01       		.uleb128 0x1
 3748 150f 53       		.byte	0x53
 3749 1510 01       		.uleb128 0x1
 3750 1511 30       		.byte	0x30
 3751 1512 00       		.byte	0
 3752 1513 23       		.uleb128 0x23
 3753 1514 1C010000 		.4byte	.LVL178
 3754 1518 16160000 		.4byte	0x1616
 3755 151c 24       		.uleb128 0x24
 3756 151d 01       		.uleb128 0x1
 3757 151e 50       		.byte	0x50
 3758 151f 07       		.uleb128 0x7
 3759 1520 74       		.byte	0x74
 3760 1521 00       		.sleb128 0
 3761 1522 31       		.byte	0x31
 3762 1523 24       		.byte	0x24
 3763 1524 76       		.byte	0x76
 3764 1525 00       		.sleb128 0
 3765 1526 22       		.byte	0x22
 3766 1527 24       		.uleb128 0x24
 3767 1528 01       		.uleb128 0x1
 3768 1529 51       		.byte	0x51
 3769 152a 02       		.uleb128 0x2
 3770 152b 09       		.byte	0x9
 3771 152c FF       		.byte	0xff
 3772 152d 00       		.byte	0
 3773 152e 00       		.byte	0
 3774 152f 1D       		.uleb128 0x1d
 3775 1530 9F010000 		.4byte	.LASF244
 3776 1534 01       		.byte	0x1
 3777 1535 F703     		.2byte	0x3f7
 3778 1537 00000000 		.4byte	.LFB139
 3779 153b 74000000 		.4byte	.LFE139-.LFB139
 3780 153f 01       		.uleb128 0x1
 3781 1540 9C       		.byte	0x9c
 3782 1541 E8150000 		.4byte	0x15e8
 3783 1545 26       		.uleb128 0x26
ARM GAS  C:\Users\Mahrukh\AppData\Local\Temp\ccgflWoc.s 			page 99


 3784 1546 54100000 		.4byte	.LASF230
 3785 154a 01       		.byte	0x1
 3786 154b F703     		.2byte	0x3f7
 3787 154d 1F010000 		.4byte	0x11f
 3788 1551 D9090000 		.4byte	.LLST62
 3789 1555 26       		.uleb128 0x26
 3790 1556 380E0000 		.4byte	.LASF202
 3791 155a 01       		.byte	0x1
 3792 155b F703     		.2byte	0x3f7
 3793 155d B10C0000 		.4byte	0xcb1
 3794 1561 310A0000 		.4byte	.LLST63
 3795 1565 1E       		.uleb128 0x1e
 3796 1566 2F0A0000 		.4byte	.LASF231
 3797 156a 01       		.byte	0x1
 3798 156b F903     		.2byte	0x3f9
 3799 156d 1F010000 		.4byte	0x11f
 3800 1571 840A0000 		.4byte	.LLST64
 3801 1575 1E       		.uleb128 0x1e
 3802 1576 9C0A0000 		.4byte	.LASF232
 3803 157a 01       		.byte	0x1
 3804 157b FA03     		.2byte	0x3fa
 3805 157d 1F010000 		.4byte	0x11f
 3806 1581 C30A0000 		.4byte	.LLST65
 3807 1585 1E       		.uleb128 0x1e
 3808 1586 200E0000 		.4byte	.LASF233
 3809 158a 01       		.byte	0x1
 3810 158b FB03     		.2byte	0x3fb
 3811 158d 1F010000 		.4byte	0x11f
 3812 1591 1B0B0000 		.4byte	.LLST66
 3813 1595 1E       		.uleb128 0x1e
 3814 1596 0F100000 		.4byte	.LASF200
 3815 159a 01       		.byte	0x1
 3816 159b FC03     		.2byte	0x3fc
 3817 159d D5050000 		.4byte	0x5d5
 3818 15a1 5D0B0000 		.4byte	.LLST67
 3819 15a5 2A       		.uleb128 0x2a
 3820 15a6 1E000000 		.4byte	.LVL184
 3821 15aa A1110000 		.4byte	0x11a1
 3822 15ae B9150000 		.4byte	0x15b9
 3823 15b2 24       		.uleb128 0x24
 3824 15b3 01       		.uleb128 0x1
 3825 15b4 50       		.byte	0x50
 3826 15b5 02       		.uleb128 0x2
 3827 15b6 75       		.byte	0x75
 3828 15b7 00       		.sleb128 0
 3829 15b8 00       		.byte	0
 3830 15b9 2A       		.uleb128 0x2a
 3831 15ba 28000000 		.4byte	.LVL188
 3832 15be 77130000 		.4byte	0x1377
 3833 15c2 CD150000 		.4byte	0x15cd
 3834 15c6 24       		.uleb128 0x24
 3835 15c7 01       		.uleb128 0x1
 3836 15c8 50       		.byte	0x50
 3837 15c9 02       		.uleb128 0x2
 3838 15ca 75       		.byte	0x75
 3839 15cb 00       		.sleb128 0
 3840 15cc 00       		.byte	0
ARM GAS  C:\Users\Mahrukh\AppData\Local\Temp\ccgflWoc.s 			page 100


 3841 15cd 23       		.uleb128 0x23
 3842 15ce 36000000 		.4byte	.LVL193
 3843 15d2 4D160000 		.4byte	0x164d
 3844 15d6 24       		.uleb128 0x24
 3845 15d7 01       		.uleb128 0x1
 3846 15d8 50       		.byte	0x50
 3847 15d9 05       		.uleb128 0x5
 3848 15da 03       		.byte	0x3
 3849 15db 00000000 		.4byte	.LC0
 3850 15df 24       		.uleb128 0x24
 3851 15e0 01       		.uleb128 0x1
 3852 15e1 51       		.byte	0x51
 3853 15e2 03       		.uleb128 0x3
 3854 15e3 0A       		.byte	0xa
 3855 15e4 2604     		.2byte	0x426
 3856 15e6 00       		.byte	0
 3857 15e7 00       		.byte	0
 3858 15e8 2B       		.uleb128 0x2b
 3859 15e9 080C0000 		.4byte	.LASF245
 3860 15ed 0A       		.byte	0xa
 3861 15ee 0108     		.2byte	0x801
 3862 15f0 F4150000 		.4byte	0x15f4
 3863 15f4 05       		.uleb128 0x5
 3864 15f5 AD000000 		.4byte	0xad
 3865 15f9 2B       		.uleb128 0x2b
 3866 15fa A9090000 		.4byte	.LASF246
 3867 15fe 09       		.byte	0x9
 3868 15ff A204     		.2byte	0x4a2
 3869 1601 880A0000 		.4byte	0xa88
 3870 1605 2B       		.uleb128 0x2b
 3871 1606 D10C0000 		.4byte	.LASF247
 3872 160a 09       		.byte	0x9
 3873 160b A304     		.2byte	0x4a3
 3874 160d 11160000 		.4byte	0x1611
 3875 1611 1C       		.uleb128 0x1c
 3876 1612 BA0B0000 		.4byte	0xbba
 3877 1616 2C       		.uleb128 0x2c
 3878 1617 280F0000 		.4byte	.LASF248
 3879 161b 280F0000 		.4byte	.LASF248
 3880 161f 0B       		.byte	0xb
 3881 1620 6C       		.byte	0x6c
 3882 1621 2C       		.uleb128 0x2c
 3883 1622 C8090000 		.4byte	.LASF249
 3884 1626 C8090000 		.4byte	.LASF249
 3885 162a 0C       		.byte	0xc
 3886 162b 19       		.byte	0x19
 3887 162c 2C       		.uleb128 0x2c
 3888 162d 47040000 		.4byte	.LASF250
 3889 1631 47040000 		.4byte	.LASF250
 3890 1635 07       		.byte	0x7
 3891 1636 B3       		.byte	0xb3
 3892 1637 2C       		.uleb128 0x2c
 3893 1638 A7040000 		.4byte	.LASF251
 3894 163c A7040000 		.4byte	.LASF251
 3895 1640 0D       		.byte	0xd
 3896 1641 70       		.byte	0x70
 3897 1642 2C       		.uleb128 0x2c
ARM GAS  C:\Users\Mahrukh\AppData\Local\Temp\ccgflWoc.s 			page 101


 3898 1643 63080000 		.4byte	.LASF252
 3899 1647 63080000 		.4byte	.LASF252
 3900 164b 07       		.byte	0x7
 3901 164c BC       		.byte	0xbc
 3902 164d 2D       		.uleb128 0x2d
 3903 164e 12080000 		.4byte	.LASF253
 3904 1652 12080000 		.4byte	.LASF253
 3905 1656 05       		.byte	0x5
 3906 1657 9203     		.2byte	0x392
 3907 1659 2C       		.uleb128 0x2c
 3908 165a 2F010000 		.4byte	.LASF254
 3909 165e 2F010000 		.4byte	.LASF254
 3910 1662 0B       		.byte	0xb
 3911 1663 4E       		.byte	0x4e
 3912 1664 2C       		.uleb128 0x2c
 3913 1665 A0050000 		.4byte	.LASF255
 3914 1669 A0050000 		.4byte	.LASF255
 3915 166d 0B       		.byte	0xb
 3916 166e 5D       		.byte	0x5d
 3917 166f 00       		.byte	0
 3918              		.section	.debug_abbrev,"",%progbits
 3919              	.Ldebug_abbrev0:
 3920 0000 01       		.uleb128 0x1
 3921 0001 11       		.uleb128 0x11
 3922 0002 01       		.byte	0x1
 3923 0003 25       		.uleb128 0x25
 3924 0004 0E       		.uleb128 0xe
 3925 0005 13       		.uleb128 0x13
 3926 0006 0B       		.uleb128 0xb
 3927 0007 03       		.uleb128 0x3
 3928 0008 0E       		.uleb128 0xe
 3929 0009 1B       		.uleb128 0x1b
 3930 000a 0E       		.uleb128 0xe
 3931 000b 55       		.uleb128 0x55
 3932 000c 17       		.uleb128 0x17
 3933 000d 11       		.uleb128 0x11
 3934 000e 01       		.uleb128 0x1
 3935 000f 10       		.uleb128 0x10
 3936 0010 17       		.uleb128 0x17
 3937 0011 00       		.byte	0
 3938 0012 00       		.byte	0
 3939 0013 02       		.uleb128 0x2
 3940 0014 24       		.uleb128 0x24
 3941 0015 00       		.byte	0
 3942 0016 0B       		.uleb128 0xb
 3943 0017 0B       		.uleb128 0xb
 3944 0018 3E       		.uleb128 0x3e
 3945 0019 0B       		.uleb128 0xb
 3946 001a 03       		.uleb128 0x3
 3947 001b 0E       		.uleb128 0xe
 3948 001c 00       		.byte	0
 3949 001d 00       		.byte	0
 3950 001e 03       		.uleb128 0x3
 3951 001f 16       		.uleb128 0x16
 3952 0020 00       		.byte	0
 3953 0021 03       		.uleb128 0x3
 3954 0022 0E       		.uleb128 0xe
ARM GAS  C:\Users\Mahrukh\AppData\Local\Temp\ccgflWoc.s 			page 102


 3955 0023 3A       		.uleb128 0x3a
 3956 0024 0B       		.uleb128 0xb
 3957 0025 3B       		.uleb128 0x3b
 3958 0026 0B       		.uleb128 0xb
 3959 0027 49       		.uleb128 0x49
 3960 0028 13       		.uleb128 0x13
 3961 0029 00       		.byte	0
 3962 002a 00       		.byte	0
 3963 002b 04       		.uleb128 0x4
 3964 002c 24       		.uleb128 0x24
 3965 002d 00       		.byte	0
 3966 002e 0B       		.uleb128 0xb
 3967 002f 0B       		.uleb128 0xb
 3968 0030 3E       		.uleb128 0x3e
 3969 0031 0B       		.uleb128 0xb
 3970 0032 03       		.uleb128 0x3
 3971 0033 08       		.uleb128 0x8
 3972 0034 00       		.byte	0
 3973 0035 00       		.byte	0
 3974 0036 05       		.uleb128 0x5
 3975 0037 35       		.uleb128 0x35
 3976 0038 00       		.byte	0
 3977 0039 49       		.uleb128 0x49
 3978 003a 13       		.uleb128 0x13
 3979 003b 00       		.byte	0
 3980 003c 00       		.byte	0
 3981 003d 06       		.uleb128 0x6
 3982 003e 16       		.uleb128 0x16
 3983 003f 00       		.byte	0
 3984 0040 03       		.uleb128 0x3
 3985 0041 0E       		.uleb128 0xe
 3986 0042 3A       		.uleb128 0x3a
 3987 0043 0B       		.uleb128 0xb
 3988 0044 3B       		.uleb128 0x3b
 3989 0045 05       		.uleb128 0x5
 3990 0046 49       		.uleb128 0x49
 3991 0047 13       		.uleb128 0x13
 3992 0048 00       		.byte	0
 3993 0049 00       		.byte	0
 3994 004a 07       		.uleb128 0x7
 3995 004b 0F       		.uleb128 0xf
 3996 004c 00       		.byte	0
 3997 004d 0B       		.uleb128 0xb
 3998 004e 0B       		.uleb128 0xb
 3999 004f 00       		.byte	0
 4000 0050 00       		.byte	0
 4001 0051 08       		.uleb128 0x8
 4002 0052 13       		.uleb128 0x13
 4003 0053 01       		.byte	0x1
 4004 0054 0B       		.uleb128 0xb
 4005 0055 0B       		.uleb128 0xb
 4006 0056 3A       		.uleb128 0x3a
 4007 0057 0B       		.uleb128 0xb
 4008 0058 3B       		.uleb128 0x3b
 4009 0059 0B       		.uleb128 0xb
 4010 005a 01       		.uleb128 0x1
 4011 005b 13       		.uleb128 0x13
ARM GAS  C:\Users\Mahrukh\AppData\Local\Temp\ccgflWoc.s 			page 103


 4012 005c 00       		.byte	0
 4013 005d 00       		.byte	0
 4014 005e 09       		.uleb128 0x9
 4015 005f 0D       		.uleb128 0xd
 4016 0060 00       		.byte	0
 4017 0061 03       		.uleb128 0x3
 4018 0062 0E       		.uleb128 0xe
 4019 0063 3A       		.uleb128 0x3a
 4020 0064 0B       		.uleb128 0xb
 4021 0065 3B       		.uleb128 0x3b
 4022 0066 0B       		.uleb128 0xb
 4023 0067 49       		.uleb128 0x49
 4024 0068 13       		.uleb128 0x13
 4025 0069 38       		.uleb128 0x38
 4026 006a 0B       		.uleb128 0xb
 4027 006b 00       		.byte	0
 4028 006c 00       		.byte	0
 4029 006d 0A       		.uleb128 0xa
 4030 006e 0D       		.uleb128 0xd
 4031 006f 00       		.byte	0
 4032 0070 03       		.uleb128 0x3
 4033 0071 0E       		.uleb128 0xe
 4034 0072 3A       		.uleb128 0x3a
 4035 0073 0B       		.uleb128 0xb
 4036 0074 3B       		.uleb128 0x3b
 4037 0075 05       		.uleb128 0x5
 4038 0076 49       		.uleb128 0x49
 4039 0077 13       		.uleb128 0x13
 4040 0078 38       		.uleb128 0x38
 4041 0079 0B       		.uleb128 0xb
 4042 007a 00       		.byte	0
 4043 007b 00       		.byte	0
 4044 007c 0B       		.uleb128 0xb
 4045 007d 04       		.uleb128 0x4
 4046 007e 01       		.byte	0x1
 4047 007f 0B       		.uleb128 0xb
 4048 0080 0B       		.uleb128 0xb
 4049 0081 49       		.uleb128 0x49
 4050 0082 13       		.uleb128 0x13
 4051 0083 3A       		.uleb128 0x3a
 4052 0084 0B       		.uleb128 0xb
 4053 0085 3B       		.uleb128 0x3b
 4054 0086 0B       		.uleb128 0xb
 4055 0087 01       		.uleb128 0x1
 4056 0088 13       		.uleb128 0x13
 4057 0089 00       		.byte	0
 4058 008a 00       		.byte	0
 4059 008b 0C       		.uleb128 0xc
 4060 008c 28       		.uleb128 0x28
 4061 008d 00       		.byte	0
 4062 008e 03       		.uleb128 0x3
 4063 008f 0E       		.uleb128 0xe
 4064 0090 1C       		.uleb128 0x1c
 4065 0091 0B       		.uleb128 0xb
 4066 0092 00       		.byte	0
 4067 0093 00       		.byte	0
 4068 0094 0D       		.uleb128 0xd
ARM GAS  C:\Users\Mahrukh\AppData\Local\Temp\ccgflWoc.s 			page 104


 4069 0095 01       		.uleb128 0x1
 4070 0096 01       		.byte	0x1
 4071 0097 49       		.uleb128 0x49
 4072 0098 13       		.uleb128 0x13
 4073 0099 01       		.uleb128 0x1
 4074 009a 13       		.uleb128 0x13
 4075 009b 00       		.byte	0
 4076 009c 00       		.byte	0
 4077 009d 0E       		.uleb128 0xe
 4078 009e 21       		.uleb128 0x21
 4079 009f 00       		.byte	0
 4080 00a0 49       		.uleb128 0x49
 4081 00a1 13       		.uleb128 0x13
 4082 00a2 2F       		.uleb128 0x2f
 4083 00a3 0B       		.uleb128 0xb
 4084 00a4 00       		.byte	0
 4085 00a5 00       		.byte	0
 4086 00a6 0F       		.uleb128 0xf
 4087 00a7 13       		.uleb128 0x13
 4088 00a8 01       		.byte	0x1
 4089 00a9 0B       		.uleb128 0xb
 4090 00aa 0B       		.uleb128 0xb
 4091 00ab 3A       		.uleb128 0x3a
 4092 00ac 0B       		.uleb128 0xb
 4093 00ad 3B       		.uleb128 0x3b
 4094 00ae 05       		.uleb128 0x5
 4095 00af 01       		.uleb128 0x1
 4096 00b0 13       		.uleb128 0x13
 4097 00b1 00       		.byte	0
 4098 00b2 00       		.byte	0
 4099 00b3 10       		.uleb128 0x10
 4100 00b4 0D       		.uleb128 0xd
 4101 00b5 00       		.byte	0
 4102 00b6 03       		.uleb128 0x3
 4103 00b7 08       		.uleb128 0x8
 4104 00b8 3A       		.uleb128 0x3a
 4105 00b9 0B       		.uleb128 0xb
 4106 00ba 3B       		.uleb128 0x3b
 4107 00bb 05       		.uleb128 0x5
 4108 00bc 49       		.uleb128 0x49
 4109 00bd 13       		.uleb128 0x13
 4110 00be 38       		.uleb128 0x38
 4111 00bf 0B       		.uleb128 0xb
 4112 00c0 00       		.byte	0
 4113 00c1 00       		.byte	0
 4114 00c2 11       		.uleb128 0x11
 4115 00c3 13       		.uleb128 0x13
 4116 00c4 01       		.byte	0x1
 4117 00c5 0B       		.uleb128 0xb
 4118 00c6 05       		.uleb128 0x5
 4119 00c7 3A       		.uleb128 0x3a
 4120 00c8 0B       		.uleb128 0xb
 4121 00c9 3B       		.uleb128 0x3b
 4122 00ca 05       		.uleb128 0x5
 4123 00cb 01       		.uleb128 0x1
 4124 00cc 13       		.uleb128 0x13
 4125 00cd 00       		.byte	0
ARM GAS  C:\Users\Mahrukh\AppData\Local\Temp\ccgflWoc.s 			page 105


 4126 00ce 00       		.byte	0
 4127 00cf 12       		.uleb128 0x12
 4128 00d0 0D       		.uleb128 0xd
 4129 00d1 00       		.byte	0
 4130 00d2 03       		.uleb128 0x3
 4131 00d3 0E       		.uleb128 0xe
 4132 00d4 3A       		.uleb128 0x3a
 4133 00d5 0B       		.uleb128 0xb
 4134 00d6 3B       		.uleb128 0x3b
 4135 00d7 05       		.uleb128 0x5
 4136 00d8 49       		.uleb128 0x49
 4137 00d9 13       		.uleb128 0x13
 4138 00da 38       		.uleb128 0x38
 4139 00db 05       		.uleb128 0x5
 4140 00dc 00       		.byte	0
 4141 00dd 00       		.byte	0
 4142 00de 13       		.uleb128 0x13
 4143 00df 0F       		.uleb128 0xf
 4144 00e0 00       		.byte	0
 4145 00e1 0B       		.uleb128 0xb
 4146 00e2 0B       		.uleb128 0xb
 4147 00e3 49       		.uleb128 0x49
 4148 00e4 13       		.uleb128 0x13
 4149 00e5 00       		.byte	0
 4150 00e6 00       		.byte	0
 4151 00e7 14       		.uleb128 0x14
 4152 00e8 26       		.uleb128 0x26
 4153 00e9 00       		.byte	0
 4154 00ea 00       		.byte	0
 4155 00eb 00       		.byte	0
 4156 00ec 15       		.uleb128 0x15
 4157 00ed 17       		.uleb128 0x17
 4158 00ee 01       		.byte	0x1
 4159 00ef 0B       		.uleb128 0xb
 4160 00f0 0B       		.uleb128 0xb
 4161 00f1 3A       		.uleb128 0x3a
 4162 00f2 0B       		.uleb128 0xb
 4163 00f3 3B       		.uleb128 0x3b
 4164 00f4 05       		.uleb128 0x5
 4165 00f5 01       		.uleb128 0x1
 4166 00f6 13       		.uleb128 0x13
 4167 00f7 00       		.byte	0
 4168 00f8 00       		.byte	0
 4169 00f9 16       		.uleb128 0x16
 4170 00fa 0D       		.uleb128 0xd
 4171 00fb 00       		.byte	0
 4172 00fc 03       		.uleb128 0x3
 4173 00fd 08       		.uleb128 0x8
 4174 00fe 3A       		.uleb128 0x3a
 4175 00ff 0B       		.uleb128 0xb
 4176 0100 3B       		.uleb128 0x3b
 4177 0101 05       		.uleb128 0x5
 4178 0102 49       		.uleb128 0x49
 4179 0103 13       		.uleb128 0x13
 4180 0104 00       		.byte	0
 4181 0105 00       		.byte	0
 4182 0106 17       		.uleb128 0x17
ARM GAS  C:\Users\Mahrukh\AppData\Local\Temp\ccgflWoc.s 			page 106


 4183 0107 0D       		.uleb128 0xd
 4184 0108 00       		.byte	0
 4185 0109 03       		.uleb128 0x3
 4186 010a 0E       		.uleb128 0xe
 4187 010b 3A       		.uleb128 0x3a
 4188 010c 0B       		.uleb128 0xb
 4189 010d 3B       		.uleb128 0x3b
 4190 010e 05       		.uleb128 0x5
 4191 010f 49       		.uleb128 0x49
 4192 0110 13       		.uleb128 0x13
 4193 0111 00       		.byte	0
 4194 0112 00       		.byte	0
 4195 0113 18       		.uleb128 0x18
 4196 0114 2E       		.uleb128 0x2e
 4197 0115 01       		.byte	0x1
 4198 0116 03       		.uleb128 0x3
 4199 0117 0E       		.uleb128 0xe
 4200 0118 3A       		.uleb128 0x3a
 4201 0119 0B       		.uleb128 0xb
 4202 011a 3B       		.uleb128 0x3b
 4203 011b 05       		.uleb128 0x5
 4204 011c 27       		.uleb128 0x27
 4205 011d 19       		.uleb128 0x19
 4206 011e 20       		.uleb128 0x20
 4207 011f 0B       		.uleb128 0xb
 4208 0120 01       		.uleb128 0x1
 4209 0121 13       		.uleb128 0x13
 4210 0122 00       		.byte	0
 4211 0123 00       		.byte	0
 4212 0124 19       		.uleb128 0x19
 4213 0125 05       		.uleb128 0x5
 4214 0126 00       		.byte	0
 4215 0127 03       		.uleb128 0x3
 4216 0128 0E       		.uleb128 0xe
 4217 0129 3A       		.uleb128 0x3a
 4218 012a 0B       		.uleb128 0xb
 4219 012b 3B       		.uleb128 0x3b
 4220 012c 05       		.uleb128 0x5
 4221 012d 49       		.uleb128 0x49
 4222 012e 13       		.uleb128 0x13
 4223 012f 00       		.byte	0
 4224 0130 00       		.byte	0
 4225 0131 1A       		.uleb128 0x1a
 4226 0132 34       		.uleb128 0x34
 4227 0133 00       		.byte	0
 4228 0134 03       		.uleb128 0x3
 4229 0135 08       		.uleb128 0x8
 4230 0136 3A       		.uleb128 0x3a
 4231 0137 0B       		.uleb128 0xb
 4232 0138 3B       		.uleb128 0x3b
 4233 0139 05       		.uleb128 0x5
 4234 013a 49       		.uleb128 0x49
 4235 013b 13       		.uleb128 0x13
 4236 013c 00       		.byte	0
 4237 013d 00       		.byte	0
 4238 013e 1B       		.uleb128 0x1b
 4239 013f 34       		.uleb128 0x34
ARM GAS  C:\Users\Mahrukh\AppData\Local\Temp\ccgflWoc.s 			page 107


 4240 0140 00       		.byte	0
 4241 0141 03       		.uleb128 0x3
 4242 0142 0E       		.uleb128 0xe
 4243 0143 3A       		.uleb128 0x3a
 4244 0144 0B       		.uleb128 0xb
 4245 0145 3B       		.uleb128 0x3b
 4246 0146 05       		.uleb128 0x5
 4247 0147 49       		.uleb128 0x49
 4248 0148 13       		.uleb128 0x13
 4249 0149 00       		.byte	0
 4250 014a 00       		.byte	0
 4251 014b 1C       		.uleb128 0x1c
 4252 014c 26       		.uleb128 0x26
 4253 014d 00       		.byte	0
 4254 014e 49       		.uleb128 0x49
 4255 014f 13       		.uleb128 0x13
 4256 0150 00       		.byte	0
 4257 0151 00       		.byte	0
 4258 0152 1D       		.uleb128 0x1d
 4259 0153 2E       		.uleb128 0x2e
 4260 0154 01       		.byte	0x1
 4261 0155 3F       		.uleb128 0x3f
 4262 0156 19       		.uleb128 0x19
 4263 0157 03       		.uleb128 0x3
 4264 0158 0E       		.uleb128 0xe
 4265 0159 3A       		.uleb128 0x3a
 4266 015a 0B       		.uleb128 0xb
 4267 015b 3B       		.uleb128 0x3b
 4268 015c 05       		.uleb128 0x5
 4269 015d 27       		.uleb128 0x27
 4270 015e 19       		.uleb128 0x19
 4271 015f 11       		.uleb128 0x11
 4272 0160 01       		.uleb128 0x1
 4273 0161 12       		.uleb128 0x12
 4274 0162 06       		.uleb128 0x6
 4275 0163 40       		.uleb128 0x40
 4276 0164 18       		.uleb128 0x18
 4277 0165 9742     		.uleb128 0x2117
 4278 0167 19       		.uleb128 0x19
 4279 0168 01       		.uleb128 0x1
 4280 0169 13       		.uleb128 0x13
 4281 016a 00       		.byte	0
 4282 016b 00       		.byte	0
 4283 016c 1E       		.uleb128 0x1e
 4284 016d 34       		.uleb128 0x34
 4285 016e 00       		.byte	0
 4286 016f 03       		.uleb128 0x3
 4287 0170 0E       		.uleb128 0xe
 4288 0171 3A       		.uleb128 0x3a
 4289 0172 0B       		.uleb128 0xb
 4290 0173 3B       		.uleb128 0x3b
 4291 0174 05       		.uleb128 0x5
 4292 0175 49       		.uleb128 0x49
 4293 0176 13       		.uleb128 0x13
 4294 0177 02       		.uleb128 0x2
 4295 0178 17       		.uleb128 0x17
 4296 0179 00       		.byte	0
ARM GAS  C:\Users\Mahrukh\AppData\Local\Temp\ccgflWoc.s 			page 108


 4297 017a 00       		.byte	0
 4298 017b 1F       		.uleb128 0x1f
 4299 017c 1D       		.uleb128 0x1d
 4300 017d 01       		.byte	0x1
 4301 017e 31       		.uleb128 0x31
 4302 017f 13       		.uleb128 0x13
 4303 0180 11       		.uleb128 0x11
 4304 0181 01       		.uleb128 0x1
 4305 0182 12       		.uleb128 0x12
 4306 0183 06       		.uleb128 0x6
 4307 0184 58       		.uleb128 0x58
 4308 0185 0B       		.uleb128 0xb
 4309 0186 59       		.uleb128 0x59
 4310 0187 05       		.uleb128 0x5
 4311 0188 01       		.uleb128 0x1
 4312 0189 13       		.uleb128 0x13
 4313 018a 00       		.byte	0
 4314 018b 00       		.byte	0
 4315 018c 20       		.uleb128 0x20
 4316 018d 05       		.uleb128 0x5
 4317 018e 00       		.byte	0
 4318 018f 31       		.uleb128 0x31
 4319 0190 13       		.uleb128 0x13
 4320 0191 02       		.uleb128 0x2
 4321 0192 17       		.uleb128 0x17
 4322 0193 00       		.byte	0
 4323 0194 00       		.byte	0
 4324 0195 21       		.uleb128 0x21
 4325 0196 0B       		.uleb128 0xb
 4326 0197 01       		.byte	0x1
 4327 0198 11       		.uleb128 0x11
 4328 0199 01       		.uleb128 0x1
 4329 019a 12       		.uleb128 0x12
 4330 019b 06       		.uleb128 0x6
 4331 019c 00       		.byte	0
 4332 019d 00       		.byte	0
 4333 019e 22       		.uleb128 0x22
 4334 019f 34       		.uleb128 0x34
 4335 01a0 00       		.byte	0
 4336 01a1 31       		.uleb128 0x31
 4337 01a2 13       		.uleb128 0x13
 4338 01a3 02       		.uleb128 0x2
 4339 01a4 17       		.uleb128 0x17
 4340 01a5 00       		.byte	0
 4341 01a6 00       		.byte	0
 4342 01a7 23       		.uleb128 0x23
 4343 01a8 898201   		.uleb128 0x4109
 4344 01ab 01       		.byte	0x1
 4345 01ac 11       		.uleb128 0x11
 4346 01ad 01       		.uleb128 0x1
 4347 01ae 31       		.uleb128 0x31
 4348 01af 13       		.uleb128 0x13
 4349 01b0 00       		.byte	0
 4350 01b1 00       		.byte	0
 4351 01b2 24       		.uleb128 0x24
 4352 01b3 8A8201   		.uleb128 0x410a
 4353 01b6 00       		.byte	0
ARM GAS  C:\Users\Mahrukh\AppData\Local\Temp\ccgflWoc.s 			page 109


 4354 01b7 02       		.uleb128 0x2
 4355 01b8 18       		.uleb128 0x18
 4356 01b9 9142     		.uleb128 0x2111
 4357 01bb 18       		.uleb128 0x18
 4358 01bc 00       		.byte	0
 4359 01bd 00       		.byte	0
 4360 01be 25       		.uleb128 0x25
 4361 01bf 898201   		.uleb128 0x4109
 4362 01c2 00       		.byte	0
 4363 01c3 11       		.uleb128 0x11
 4364 01c4 01       		.uleb128 0x1
 4365 01c5 31       		.uleb128 0x31
 4366 01c6 13       		.uleb128 0x13
 4367 01c7 00       		.byte	0
 4368 01c8 00       		.byte	0
 4369 01c9 26       		.uleb128 0x26
 4370 01ca 05       		.uleb128 0x5
 4371 01cb 00       		.byte	0
 4372 01cc 03       		.uleb128 0x3
 4373 01cd 0E       		.uleb128 0xe
 4374 01ce 3A       		.uleb128 0x3a
 4375 01cf 0B       		.uleb128 0xb
 4376 01d0 3B       		.uleb128 0x3b
 4377 01d1 05       		.uleb128 0x5
 4378 01d2 49       		.uleb128 0x49
 4379 01d3 13       		.uleb128 0x13
 4380 01d4 02       		.uleb128 0x2
 4381 01d5 17       		.uleb128 0x17
 4382 01d6 00       		.byte	0
 4383 01d7 00       		.byte	0
 4384 01d8 27       		.uleb128 0x27
 4385 01d9 34       		.uleb128 0x34
 4386 01da 00       		.byte	0
 4387 01db 03       		.uleb128 0x3
 4388 01dc 0E       		.uleb128 0xe
 4389 01dd 3A       		.uleb128 0x3a
 4390 01de 0B       		.uleb128 0xb
 4391 01df 3B       		.uleb128 0x3b
 4392 01e0 05       		.uleb128 0x5
 4393 01e1 49       		.uleb128 0x49
 4394 01e2 13       		.uleb128 0x13
 4395 01e3 02       		.uleb128 0x2
 4396 01e4 18       		.uleb128 0x18
 4397 01e5 00       		.byte	0
 4398 01e6 00       		.byte	0
 4399 01e7 28       		.uleb128 0x28
 4400 01e8 05       		.uleb128 0x5
 4401 01e9 00       		.byte	0
 4402 01ea 03       		.uleb128 0x3
 4403 01eb 0E       		.uleb128 0xe
 4404 01ec 3A       		.uleb128 0x3a
 4405 01ed 0B       		.uleb128 0xb
 4406 01ee 3B       		.uleb128 0x3b
 4407 01ef 05       		.uleb128 0x5
 4408 01f0 49       		.uleb128 0x49
 4409 01f1 13       		.uleb128 0x13
 4410 01f2 02       		.uleb128 0x2
ARM GAS  C:\Users\Mahrukh\AppData\Local\Temp\ccgflWoc.s 			page 110


 4411 01f3 18       		.uleb128 0x18
 4412 01f4 00       		.byte	0
 4413 01f5 00       		.byte	0
 4414 01f6 29       		.uleb128 0x29
 4415 01f7 2E       		.uleb128 0x2e
 4416 01f8 01       		.byte	0x1
 4417 01f9 3F       		.uleb128 0x3f
 4418 01fa 19       		.uleb128 0x19
 4419 01fb 03       		.uleb128 0x3
 4420 01fc 0E       		.uleb128 0xe
 4421 01fd 3A       		.uleb128 0x3a
 4422 01fe 0B       		.uleb128 0xb
 4423 01ff 3B       		.uleb128 0x3b
 4424 0200 05       		.uleb128 0x5
 4425 0201 27       		.uleb128 0x27
 4426 0202 19       		.uleb128 0x19
 4427 0203 49       		.uleb128 0x49
 4428 0204 13       		.uleb128 0x13
 4429 0205 11       		.uleb128 0x11
 4430 0206 01       		.uleb128 0x1
 4431 0207 12       		.uleb128 0x12
 4432 0208 06       		.uleb128 0x6
 4433 0209 40       		.uleb128 0x40
 4434 020a 18       		.uleb128 0x18
 4435 020b 9742     		.uleb128 0x2117
 4436 020d 19       		.uleb128 0x19
 4437 020e 01       		.uleb128 0x1
 4438 020f 13       		.uleb128 0x13
 4439 0210 00       		.byte	0
 4440 0211 00       		.byte	0
 4441 0212 2A       		.uleb128 0x2a
 4442 0213 898201   		.uleb128 0x4109
 4443 0216 01       		.byte	0x1
 4444 0217 11       		.uleb128 0x11
 4445 0218 01       		.uleb128 0x1
 4446 0219 31       		.uleb128 0x31
 4447 021a 13       		.uleb128 0x13
 4448 021b 01       		.uleb128 0x1
 4449 021c 13       		.uleb128 0x13
 4450 021d 00       		.byte	0
 4451 021e 00       		.byte	0
 4452 021f 2B       		.uleb128 0x2b
 4453 0220 34       		.uleb128 0x34
 4454 0221 00       		.byte	0
 4455 0222 03       		.uleb128 0x3
 4456 0223 0E       		.uleb128 0xe
 4457 0224 3A       		.uleb128 0x3a
 4458 0225 0B       		.uleb128 0xb
 4459 0226 3B       		.uleb128 0x3b
 4460 0227 05       		.uleb128 0x5
 4461 0228 49       		.uleb128 0x49
 4462 0229 13       		.uleb128 0x13
 4463 022a 3F       		.uleb128 0x3f
 4464 022b 19       		.uleb128 0x19
 4465 022c 3C       		.uleb128 0x3c
 4466 022d 19       		.uleb128 0x19
 4467 022e 00       		.byte	0
ARM GAS  C:\Users\Mahrukh\AppData\Local\Temp\ccgflWoc.s 			page 111


 4468 022f 00       		.byte	0
 4469 0230 2C       		.uleb128 0x2c
 4470 0231 2E       		.uleb128 0x2e
 4471 0232 00       		.byte	0
 4472 0233 3F       		.uleb128 0x3f
 4473 0234 19       		.uleb128 0x19
 4474 0235 3C       		.uleb128 0x3c
 4475 0236 19       		.uleb128 0x19
 4476 0237 6E       		.uleb128 0x6e
 4477 0238 0E       		.uleb128 0xe
 4478 0239 03       		.uleb128 0x3
 4479 023a 0E       		.uleb128 0xe
 4480 023b 3A       		.uleb128 0x3a
 4481 023c 0B       		.uleb128 0xb
 4482 023d 3B       		.uleb128 0x3b
 4483 023e 0B       		.uleb128 0xb
 4484 023f 00       		.byte	0
 4485 0240 00       		.byte	0
 4486 0241 2D       		.uleb128 0x2d
 4487 0242 2E       		.uleb128 0x2e
 4488 0243 00       		.byte	0
 4489 0244 3F       		.uleb128 0x3f
 4490 0245 19       		.uleb128 0x19
 4491 0246 3C       		.uleb128 0x3c
 4492 0247 19       		.uleb128 0x19
 4493 0248 6E       		.uleb128 0x6e
 4494 0249 0E       		.uleb128 0xe
 4495 024a 03       		.uleb128 0x3
 4496 024b 0E       		.uleb128 0xe
 4497 024c 3A       		.uleb128 0x3a
 4498 024d 0B       		.uleb128 0xb
 4499 024e 3B       		.uleb128 0x3b
 4500 024f 05       		.uleb128 0x5
 4501 0250 00       		.byte	0
 4502 0251 00       		.byte	0
 4503 0252 00       		.byte	0
 4504              		.section	.debug_loc,"",%progbits
 4505              	.Ldebug_loc0:
 4506              	.LLST0:
 4507 0000 02000000 		.4byte	.LVL0
 4508 0004 06000000 		.4byte	.LVL1
 4509 0008 0200     		.2byte	0x2
 4510 000a 30       		.byte	0x30
 4511 000b 9F       		.byte	0x9f
 4512 000c 06000000 		.4byte	.LVL1
 4513 0010 24000000 		.4byte	.LVL3
 4514 0014 0100     		.2byte	0x1
 4515 0016 53       		.byte	0x53
 4516 0017 26000000 		.4byte	.LVL4
 4517 001b 80000000 		.4byte	.LVL21
 4518 001f 0100     		.2byte	0x1
 4519 0021 55       		.byte	0x55
 4520 0022 80000000 		.4byte	.LVL21
 4521 0026 82000000 		.4byte	.LVL22
 4522 002a 0100     		.2byte	0x1
 4523 002c 53       		.byte	0x53
 4524 002d 82000000 		.4byte	.LVL22
ARM GAS  C:\Users\Mahrukh\AppData\Local\Temp\ccgflWoc.s 			page 112


 4525 0031 88000000 		.4byte	.LVL23
 4526 0035 0100     		.2byte	0x1
 4527 0037 55       		.byte	0x55
 4528 0038 00000000 		.4byte	0
 4529 003c 00000000 		.4byte	0
 4530              	.LLST1:
 4531 0040 2A000000 		.4byte	.LVL6
 4532 0044 44000000 		.4byte	.LVL7
 4533 0048 0100     		.2byte	0x1
 4534 004a 52       		.byte	0x52
 4535 004b 4C000000 		.4byte	.LVL9
 4536 004f 52000000 		.4byte	.LVL10
 4537 0053 0100     		.2byte	0x1
 4538 0055 52       		.byte	0x52
 4539 0056 00000000 		.4byte	0
 4540 005a 00000000 		.4byte	0
 4541              	.LLST2:
 4542 005e 28000000 		.4byte	.LVL5
 4543 0062 58000000 		.4byte	.LVL13
 4544 0066 0100     		.2byte	0x1
 4545 0068 56       		.byte	0x56
 4546 0069 00000000 		.4byte	0
 4547 006d 00000000 		.4byte	0
 4548              	.LLST3:
 4549 0071 26000000 		.4byte	.LVL4
 4550 0075 88000000 		.4byte	.LVL23
 4551 0079 0100     		.2byte	0x1
 4552 007b 54       		.byte	0x54
 4553 007c 00000000 		.4byte	0
 4554 0080 00000000 		.4byte	0
 4555              	.LLST4:
 4556 0084 54000000 		.4byte	.LVL11
 4557 0088 7C000000 		.4byte	.LVL19
 4558 008c 0100     		.2byte	0x1
 4559 008e 54       		.byte	0x54
 4560 008f 00000000 		.4byte	0
 4561 0093 00000000 		.4byte	0
 4562              	.LLST5:
 4563 0097 56000000 		.4byte	.LVL12
 4564 009b 5A000000 		.4byte	.LVL14
 4565 009f 0200     		.2byte	0x2
 4566 00a1 30       		.byte	0x30
 4567 00a2 9F       		.byte	0x9f
 4568 00a3 5A000000 		.4byte	.LVL14
 4569 00a7 7C000000 		.4byte	.LVL19
 4570 00ab 0100     		.2byte	0x1
 4571 00ad 56       		.byte	0x56
 4572 00ae 00000000 		.4byte	0
 4573 00b2 00000000 		.4byte	0
 4574              	.LLST6:
 4575 00b6 56000000 		.4byte	.LVL12
 4576 00ba 7C000000 		.4byte	.LVL19
 4577 00be 0100     		.2byte	0x1
 4578 00c0 57       		.byte	0x57
 4579 00c1 00000000 		.4byte	0
 4580 00c5 00000000 		.4byte	0
 4581              	.LLST7:
ARM GAS  C:\Users\Mahrukh\AppData\Local\Temp\ccgflWoc.s 			page 113


 4582 00c9 6A000000 		.4byte	.LVL15
 4583 00cd 72000000 		.4byte	.LVL16
 4584 00d1 0100     		.2byte	0x1
 4585 00d3 50       		.byte	0x50
 4586 00d4 72000000 		.4byte	.LVL16
 4587 00d8 75000000 		.4byte	.LVL17-1
 4588 00dc 0200     		.2byte	0x2
 4589 00de 74       		.byte	0x74
 4590 00df 28       		.sleb128 40
 4591 00e0 00000000 		.4byte	0
 4592 00e4 00000000 		.4byte	0
 4593              	.LLST8:
 4594 00e8 00000000 		.4byte	.LVL24
 4595 00ec 08000000 		.4byte	.LVL25
 4596 00f0 0100     		.2byte	0x1
 4597 00f2 50       		.byte	0x50
 4598 00f3 08000000 		.4byte	.LVL25
 4599 00f7 34000000 		.4byte	.LFE140
 4600 00fb 0100     		.2byte	0x1
 4601 00fd 54       		.byte	0x54
 4602 00fe 00000000 		.4byte	0
 4603 0102 00000000 		.4byte	0
 4604              	.LLST9:
 4605 0106 00000000 		.4byte	.LVL24
 4606 010a 0C000000 		.4byte	.LVL26
 4607 010e 0100     		.2byte	0x1
 4608 0110 51       		.byte	0x51
 4609 0111 0C000000 		.4byte	.LVL26
 4610 0115 17000000 		.4byte	.LVL28-1
 4611 0119 0100     		.2byte	0x1
 4612 011b 50       		.byte	0x50
 4613 011c 17000000 		.4byte	.LVL28-1
 4614 0120 34000000 		.4byte	.LFE140
 4615 0124 0400     		.2byte	0x4
 4616 0126 F3       		.byte	0xf3
 4617 0127 01       		.uleb128 0x1
 4618 0128 51       		.byte	0x51
 4619 0129 9F       		.byte	0x9f
 4620 012a 00000000 		.4byte	0
 4621 012e 00000000 		.4byte	0
 4622              	.LLST10:
 4623 0132 00000000 		.4byte	.LVL24
 4624 0136 14000000 		.4byte	.LVL27
 4625 013a 0100     		.2byte	0x1
 4626 013c 52       		.byte	0x52
 4627 013d 14000000 		.4byte	.LVL27
 4628 0141 17000000 		.4byte	.LVL28-1
 4629 0145 0100     		.2byte	0x1
 4630 0147 53       		.byte	0x53
 4631 0148 17000000 		.4byte	.LVL28-1
 4632 014c 34000000 		.4byte	.LFE140
 4633 0150 0400     		.2byte	0x4
 4634 0152 F3       		.byte	0xf3
 4635 0153 01       		.uleb128 0x1
 4636 0154 52       		.byte	0x52
 4637 0155 9F       		.byte	0x9f
 4638 0156 00000000 		.4byte	0
ARM GAS  C:\Users\Mahrukh\AppData\Local\Temp\ccgflWoc.s 			page 114


 4639 015a 00000000 		.4byte	0
 4640              	.LLST11:
 4641 015e 08000000 		.4byte	.LVL25
 4642 0162 32000000 		.4byte	.LVL29
 4643 0166 0100     		.2byte	0x1
 4644 0168 5D       		.byte	0x5d
 4645 0169 32000000 		.4byte	.LVL29
 4646 016d 34000000 		.4byte	.LFE140
 4647 0171 0300     		.2byte	0x3
 4648 0173 91       		.byte	0x91
 4649 0174 70       		.sleb128 -16
 4650 0175 9F       		.byte	0x9f
 4651 0176 00000000 		.4byte	0
 4652 017a 00000000 		.4byte	0
 4653              	.LLST12:
 4654 017e 00000000 		.4byte	.LVL30
 4655 0182 0E000000 		.4byte	.LVL33
 4656 0186 0100     		.2byte	0x1
 4657 0188 50       		.byte	0x50
 4658 0189 0E000000 		.4byte	.LVL33
 4659 018d 18000000 		.4byte	.LFE141
 4660 0191 0400     		.2byte	0x4
 4661 0193 F3       		.byte	0xf3
 4662 0194 01       		.uleb128 0x1
 4663 0195 50       		.byte	0x50
 4664 0196 9F       		.byte	0x9f
 4665 0197 00000000 		.4byte	0
 4666 019b 00000000 		.4byte	0
 4667              	.LLST13:
 4668 019f 02000000 		.4byte	.LVL31
 4669 01a3 08000000 		.4byte	.LVL32
 4670 01a7 0200     		.2byte	0x2
 4671 01a9 30       		.byte	0x30
 4672 01aa 9F       		.byte	0x9f
 4673 01ab 08000000 		.4byte	.LVL32
 4674 01af 16000000 		.4byte	.LVL34
 4675 01b3 0100     		.2byte	0x1
 4676 01b5 54       		.byte	0x54
 4677 01b6 16000000 		.4byte	.LVL34
 4678 01ba 18000000 		.4byte	.LFE141
 4679 01be 0600     		.2byte	0x6
 4680 01c0 73       		.byte	0x73
 4681 01c1 00       		.sleb128 0
 4682 01c2 72       		.byte	0x72
 4683 01c3 00       		.sleb128 0
 4684 01c4 1C       		.byte	0x1c
 4685 01c5 9F       		.byte	0x9f
 4686 01c6 00000000 		.4byte	0
 4687 01ca 00000000 		.4byte	0
 4688              	.LLST14:
 4689 01ce 00000000 		.4byte	.LVL35
 4690 01d2 12000000 		.4byte	.LVL41
 4691 01d6 0100     		.2byte	0x1
 4692 01d8 50       		.byte	0x50
 4693 01d9 12000000 		.4byte	.LVL41
 4694 01dd 36000000 		.4byte	.LFE134
 4695 01e1 0400     		.2byte	0x4
ARM GAS  C:\Users\Mahrukh\AppData\Local\Temp\ccgflWoc.s 			page 115


 4696 01e3 F3       		.byte	0xf3
 4697 01e4 01       		.uleb128 0x1
 4698 01e5 50       		.byte	0x50
 4699 01e6 9F       		.byte	0x9f
 4700 01e7 00000000 		.4byte	0
 4701 01eb 00000000 		.4byte	0
 4702              	.LLST15:
 4703 01ef 04000000 		.4byte	.LVL36
 4704 01f3 12000000 		.4byte	.LVL41
 4705 01f7 0200     		.2byte	0x2
 4706 01f9 30       		.byte	0x30
 4707 01fa 9F       		.byte	0x9f
 4708 01fb 12000000 		.4byte	.LVL41
 4709 01ff 1E000000 		.4byte	.LVL43
 4710 0203 0100     		.2byte	0x1
 4711 0205 57       		.byte	0x57
 4712 0206 1E000000 		.4byte	.LVL43
 4713 020a 22000000 		.4byte	.LVL44
 4714 020e 0100     		.2byte	0x1
 4715 0210 50       		.byte	0x50
 4716 0211 22000000 		.4byte	.LVL44
 4717 0215 36000000 		.4byte	.LFE134
 4718 0219 0100     		.2byte	0x1
 4719 021b 57       		.byte	0x57
 4720 021c 00000000 		.4byte	0
 4721 0220 00000000 		.4byte	0
 4722              	.LLST16:
 4723 0224 08000000 		.4byte	.LVL38
 4724 0228 12000000 		.4byte	.LVL41
 4725 022c 0100     		.2byte	0x1
 4726 022e 53       		.byte	0x53
 4727 022f 12000000 		.4byte	.LVL41
 4728 0233 2A000000 		.4byte	.LVL47
 4729 0237 0100     		.2byte	0x1
 4730 0239 56       		.byte	0x56
 4731 023a 2A000000 		.4byte	.LVL47
 4732 023e 2C000000 		.4byte	.LVL48
 4733 0242 0100     		.2byte	0x1
 4734 0244 53       		.byte	0x53
 4735 0245 2C000000 		.4byte	.LVL48
 4736 0249 36000000 		.4byte	.LFE134
 4737 024d 0100     		.2byte	0x1
 4738 024f 56       		.byte	0x56
 4739 0250 00000000 		.4byte	0
 4740 0254 00000000 		.4byte	0
 4741              	.LLST17:
 4742 0258 00000000 		.4byte	.LVL49
 4743 025c 12000000 		.4byte	.LVL53
 4744 0260 0100     		.2byte	0x1
 4745 0262 50       		.byte	0x50
 4746 0263 12000000 		.4byte	.LVL53
 4747 0267 1A000000 		.4byte	.LVL56
 4748 026b 0400     		.2byte	0x4
 4749 026d F3       		.byte	0xf3
 4750 026e 01       		.uleb128 0x1
 4751 026f 50       		.byte	0x50
 4752 0270 9F       		.byte	0x9f
ARM GAS  C:\Users\Mahrukh\AppData\Local\Temp\ccgflWoc.s 			page 116


 4753 0271 1A000000 		.4byte	.LVL56
 4754 0275 1C000000 		.4byte	.LVL57
 4755 0279 0100     		.2byte	0x1
 4756 027b 50       		.byte	0x50
 4757 027c 1C000000 		.4byte	.LVL57
 4758 0280 2E000000 		.4byte	.LFE135
 4759 0284 0400     		.2byte	0x4
 4760 0286 F3       		.byte	0xf3
 4761 0287 01       		.uleb128 0x1
 4762 0288 50       		.byte	0x50
 4763 0289 9F       		.byte	0x9f
 4764 028a 00000000 		.4byte	0
 4765 028e 00000000 		.4byte	0
 4766              	.LLST18:
 4767 0292 00000000 		.4byte	.LVL49
 4768 0296 15000000 		.4byte	.LVL54-1
 4769 029a 0100     		.2byte	0x1
 4770 029c 51       		.byte	0x51
 4771 029d 15000000 		.4byte	.LVL54-1
 4772 02a1 1A000000 		.4byte	.LVL56
 4773 02a5 0100     		.2byte	0x1
 4774 02a7 57       		.byte	0x57
 4775 02a8 1A000000 		.4byte	.LVL56
 4776 02ac 1C000000 		.4byte	.LVL57
 4777 02b0 0100     		.2byte	0x1
 4778 02b2 51       		.byte	0x51
 4779 02b3 1C000000 		.4byte	.LVL57
 4780 02b7 2E000000 		.4byte	.LFE135
 4781 02bb 0100     		.2byte	0x1
 4782 02bd 57       		.byte	0x57
 4783 02be 00000000 		.4byte	0
 4784 02c2 00000000 		.4byte	0
 4785              	.LLST19:
 4786 02c6 00000000 		.4byte	.LVL49
 4787 02ca 08000000 		.4byte	.LVL51
 4788 02ce 0100     		.2byte	0x1
 4789 02d0 52       		.byte	0x52
 4790 02d1 00000000 		.4byte	0
 4791 02d5 00000000 		.4byte	0
 4792              	.LLST20:
 4793 02d9 00000000 		.4byte	.LVL49
 4794 02dd 15000000 		.4byte	.LVL54-1
 4795 02e1 0100     		.2byte	0x1
 4796 02e3 53       		.byte	0x53
 4797 02e4 15000000 		.4byte	.LVL54-1
 4798 02e8 1A000000 		.4byte	.LVL56
 4799 02ec 0100     		.2byte	0x1
 4800 02ee 54       		.byte	0x54
 4801 02ef 1A000000 		.4byte	.LVL56
 4802 02f3 1C000000 		.4byte	.LVL57
 4803 02f7 0100     		.2byte	0x1
 4804 02f9 53       		.byte	0x53
 4805 02fa 1C000000 		.4byte	.LVL57
 4806 02fe 2E000000 		.4byte	.LFE135
 4807 0302 0100     		.2byte	0x1
 4808 0304 54       		.byte	0x54
 4809 0305 00000000 		.4byte	0
ARM GAS  C:\Users\Mahrukh\AppData\Local\Temp\ccgflWoc.s 			page 117


 4810 0309 00000000 		.4byte	0
 4811              	.LLST21:
 4812 030d 06000000 		.4byte	.LVL50
 4813 0311 18000000 		.4byte	.LVL55
 4814 0315 0200     		.2byte	0x2
 4815 0317 30       		.byte	0x30
 4816 0318 9F       		.byte	0x9f
 4817 0319 18000000 		.4byte	.LVL55
 4818 031d 1A000000 		.4byte	.LVL56
 4819 0321 0100     		.2byte	0x1
 4820 0323 50       		.byte	0x50
 4821 0324 1A000000 		.4byte	.LVL56
 4822 0328 1C000000 		.4byte	.LVL57
 4823 032c 0200     		.2byte	0x2
 4824 032e 30       		.byte	0x30
 4825 032f 9F       		.byte	0x9f
 4826 0330 1C000000 		.4byte	.LVL57
 4827 0334 2E000000 		.4byte	.LFE135
 4828 0338 0100     		.2byte	0x1
 4829 033a 55       		.byte	0x55
 4830 033b 00000000 		.4byte	0
 4831 033f 00000000 		.4byte	0
 4832              	.LLST22:
 4833 0343 08000000 		.4byte	.LVL51
 4834 0347 15000000 		.4byte	.LVL54-1
 4835 034b 0100     		.2byte	0x1
 4836 034d 52       		.byte	0x52
 4837 034e 1A000000 		.4byte	.LVL56
 4838 0352 1C000000 		.4byte	.LVL57
 4839 0356 0100     		.2byte	0x1
 4840 0358 52       		.byte	0x52
 4841 0359 00000000 		.4byte	0
 4842 035d 00000000 		.4byte	0
 4843              	.LLST23:
 4844 0361 00000000 		.4byte	.LVL59
 4845 0365 16000000 		.4byte	.LVL65
 4846 0369 0100     		.2byte	0x1
 4847 036b 50       		.byte	0x50
 4848 036c 16000000 		.4byte	.LVL65
 4849 0370 52000000 		.4byte	.LFE137
 4850 0374 0100     		.2byte	0x1
 4851 0376 58       		.byte	0x58
 4852 0377 00000000 		.4byte	0
 4853 037b 00000000 		.4byte	0
 4854              	.LLST24:
 4855 037f 06000000 		.4byte	.LVL60
 4856 0383 16000000 		.4byte	.LVL65
 4857 0387 0200     		.2byte	0x2
 4858 0389 30       		.byte	0x30
 4859 038a 9F       		.byte	0x9f
 4860 038b 16000000 		.4byte	.LVL65
 4861 038f 38000000 		.4byte	.LVL70
 4862 0393 0100     		.2byte	0x1
 4863 0395 59       		.byte	0x59
 4864 0396 38000000 		.4byte	.LVL70
 4865 039a 3C000000 		.4byte	.LVL71
 4866 039e 0100     		.2byte	0x1
ARM GAS  C:\Users\Mahrukh\AppData\Local\Temp\ccgflWoc.s 			page 118


 4867 03a0 50       		.byte	0x50
 4868 03a1 3C000000 		.4byte	.LVL71
 4869 03a5 52000000 		.4byte	.LFE137
 4870 03a9 0100     		.2byte	0x1
 4871 03ab 59       		.byte	0x59
 4872 03ac 00000000 		.4byte	0
 4873 03b0 00000000 		.4byte	0
 4874              	.LLST25:
 4875 03b4 10000000 		.4byte	.LVL64
 4876 03b8 16000000 		.4byte	.LVL65
 4877 03bc 0200     		.2byte	0x2
 4878 03be 30       		.byte	0x30
 4879 03bf 9F       		.byte	0x9f
 4880 03c0 16000000 		.4byte	.LVL65
 4881 03c4 52000000 		.4byte	.LFE137
 4882 03c8 0100     		.2byte	0x1
 4883 03ca 55       		.byte	0x55
 4884 03cb 00000000 		.4byte	0
 4885 03cf 00000000 		.4byte	0
 4886              	.LLST26:
 4887 03d3 00000000 		.4byte	.LVL75
 4888 03d7 1C000000 		.4byte	.LVL82
 4889 03db 0100     		.2byte	0x1
 4890 03dd 50       		.byte	0x50
 4891 03de 1C000000 		.4byte	.LVL82
 4892 03e2 5A000000 		.4byte	.LFE138
 4893 03e6 0400     		.2byte	0x4
 4894 03e8 F3       		.byte	0xf3
 4895 03e9 01       		.uleb128 0x1
 4896 03ea 50       		.byte	0x50
 4897 03eb 9F       		.byte	0x9f
 4898 03ec 00000000 		.4byte	0
 4899 03f0 00000000 		.4byte	0
 4900              	.LLST27:
 4901 03f4 00000000 		.4byte	.LVL75
 4902 03f8 1A000000 		.4byte	.LVL81
 4903 03fc 0100     		.2byte	0x1
 4904 03fe 51       		.byte	0x51
 4905 03ff 1A000000 		.4byte	.LVL81
 4906 0403 5A000000 		.4byte	.LFE138
 4907 0407 0100     		.2byte	0x1
 4908 0409 57       		.byte	0x57
 4909 040a 00000000 		.4byte	0
 4910 040e 00000000 		.4byte	0
 4911              	.LLST28:
 4912 0412 00000000 		.4byte	.LVL75
 4913 0416 18000000 		.4byte	.LVL80
 4914 041a 0100     		.2byte	0x1
 4915 041c 52       		.byte	0x52
 4916 041d 20000000 		.4byte	.LVL83
 4917 0421 28000000 		.4byte	.LVL84
 4918 0425 0100     		.2byte	0x1
 4919 0427 52       		.byte	0x52
 4920 0428 30000000 		.4byte	.LVL85
 4921 042c 38000000 		.4byte	.LVL86
 4922 0430 0100     		.2byte	0x1
 4923 0432 52       		.byte	0x52
ARM GAS  C:\Users\Mahrukh\AppData\Local\Temp\ccgflWoc.s 			page 119


 4924 0433 44000000 		.4byte	.LVL89
 4925 0437 53000000 		.4byte	.LVL91-1
 4926 043b 0100     		.2byte	0x1
 4927 043d 52       		.byte	0x52
 4928 043e 54000000 		.4byte	.LVL91
 4929 0442 5A000000 		.4byte	.LFE138
 4930 0446 0100     		.2byte	0x1
 4931 0448 52       		.byte	0x52
 4932 0449 00000000 		.4byte	0
 4933 044d 00000000 		.4byte	0
 4934              	.LLST29:
 4935 0451 00000000 		.4byte	.LVL75
 4936 0455 1F000000 		.4byte	.LVL83-1
 4937 0459 0100     		.2byte	0x1
 4938 045b 53       		.byte	0x53
 4939 045c 1F000000 		.4byte	.LVL83-1
 4940 0460 5A000000 		.4byte	.LFE138
 4941 0464 0100     		.2byte	0x1
 4942 0466 54       		.byte	0x54
 4943 0467 00000000 		.4byte	0
 4944 046b 00000000 		.4byte	0
 4945              	.LLST30:
 4946 046f 08000000 		.4byte	.LVL76
 4947 0473 42000000 		.4byte	.LVL88
 4948 0477 0200     		.2byte	0x2
 4949 0479 30       		.byte	0x30
 4950 047a 9F       		.byte	0x9f
 4951 047b 42000000 		.4byte	.LVL88
 4952 047f 44000000 		.4byte	.LVL89
 4953 0483 0100     		.2byte	0x1
 4954 0485 50       		.byte	0x50
 4955 0486 44000000 		.4byte	.LVL89
 4956 048a 46000000 		.4byte	.LVL90
 4957 048e 0200     		.2byte	0x2
 4958 0490 30       		.byte	0x30
 4959 0491 9F       		.byte	0x9f
 4960 0492 46000000 		.4byte	.LVL90
 4961 0496 5A000000 		.4byte	.LFE138
 4962 049a 0100     		.2byte	0x1
 4963 049c 56       		.byte	0x56
 4964 049d 00000000 		.4byte	0
 4965 04a1 00000000 		.4byte	0
 4966              	.LLST31:
 4967 04a5 0A000000 		.4byte	.LVL77
 4968 04a9 42000000 		.4byte	.LVL88
 4969 04ad 0100     		.2byte	0x1
 4970 04af 56       		.byte	0x56
 4971 04b0 44000000 		.4byte	.LVL89
 4972 04b4 46000000 		.4byte	.LVL90
 4973 04b8 0100     		.2byte	0x1
 4974 04ba 56       		.byte	0x56
 4975 04bb 00000000 		.4byte	0
 4976 04bf 00000000 		.4byte	0
 4977              	.LLST32:
 4978 04c3 00000000 		.4byte	.LVL92
 4979 04c7 44000000 		.4byte	.LVL102
 4980 04cb 0100     		.2byte	0x1
ARM GAS  C:\Users\Mahrukh\AppData\Local\Temp\ccgflWoc.s 			page 120


 4981 04cd 50       		.byte	0x50
 4982 04ce 44000000 		.4byte	.LVL102
 4983 04d2 62000000 		.4byte	.LFE142
 4984 04d6 0100     		.2byte	0x1
 4985 04d8 50       		.byte	0x50
 4986 04d9 00000000 		.4byte	0
 4987 04dd 00000000 		.4byte	0
 4988              	.LLST33:
 4989 04e1 00000000 		.4byte	.LVL92
 4990 04e5 0E000000 		.4byte	.LVL97
 4991 04e9 0100     		.2byte	0x1
 4992 04eb 51       		.byte	0x51
 4993 04ec 0E000000 		.4byte	.LVL97
 4994 04f0 62000000 		.4byte	.LFE142
 4995 04f4 0400     		.2byte	0x4
 4996 04f6 F3       		.byte	0xf3
 4997 04f7 01       		.uleb128 0x1
 4998 04f8 51       		.byte	0x51
 4999 04f9 9F       		.byte	0x9f
 5000 04fa 00000000 		.4byte	0
 5001 04fe 00000000 		.4byte	0
 5002              	.LLST34:
 5003 0502 04000000 		.4byte	.LVL93
 5004 0506 0E000000 		.4byte	.LVL97
 5005 050a 0100     		.2byte	0x1
 5006 050c 54       		.byte	0x54
 5007 050d 0E000000 		.4byte	.LVL97
 5008 0511 58000000 		.4byte	.LVL110
 5009 0515 0100     		.2byte	0x1
 5010 0517 5E       		.byte	0x5e
 5011 0518 58000000 		.4byte	.LVL110
 5012 051c 5C000000 		.4byte	.LVL111
 5013 0520 0100     		.2byte	0x1
 5014 0522 54       		.byte	0x54
 5015 0523 5C000000 		.4byte	.LVL111
 5016 0527 62000000 		.4byte	.LFE142
 5017 052b 0100     		.2byte	0x1
 5018 052d 5E       		.byte	0x5e
 5019 052e 00000000 		.4byte	0
 5020 0532 00000000 		.4byte	0
 5021              	.LLST35:
 5022 0536 0A000000 		.4byte	.LVL96
 5023 053a 0E000000 		.4byte	.LVL97
 5024 053e 0200     		.2byte	0x2
 5025 0540 31       		.byte	0x31
 5026 0541 9F       		.byte	0x9f
 5027 0542 0E000000 		.4byte	.LVL97
 5028 0546 62000000 		.4byte	.LFE142
 5029 054a 0100     		.2byte	0x1
 5030 054c 53       		.byte	0x53
 5031 054d 00000000 		.4byte	0
 5032 0551 00000000 		.4byte	0
 5033              	.LLST36:
 5034 0555 2E000000 		.4byte	.LVL101
 5035 0559 4A000000 		.4byte	.LVL104
 5036 055d 0100     		.2byte	0x1
 5037 055f 51       		.byte	0x51
ARM GAS  C:\Users\Mahrukh\AppData\Local\Temp\ccgflWoc.s 			page 121


 5038 0560 4C000000 		.4byte	.LVL105
 5039 0564 4E000000 		.4byte	.LVL106
 5040 0568 0100     		.2byte	0x1
 5041 056a 51       		.byte	0x51
 5042 056b 00000000 		.4byte	0
 5043 056f 00000000 		.4byte	0
 5044              	.LLST37:
 5045 0573 22000000 		.4byte	.LVL98
 5046 0577 2A000000 		.4byte	.LVL99
 5047 057b 0100     		.2byte	0x1
 5048 057d 51       		.byte	0x51
 5049 057e 2C000000 		.4byte	.LVL100
 5050 0582 2E000000 		.4byte	.LVL101
 5051 0586 0100     		.2byte	0x1
 5052 0588 51       		.byte	0x51
 5053 0589 00000000 		.4byte	0
 5054 058d 00000000 		.4byte	0
 5055              	.LLST38:
 5056 0591 00000000 		.4byte	.LVL112
 5057 0595 12000000 		.4byte	.LVL115
 5058 0599 0100     		.2byte	0x1
 5059 059b 50       		.byte	0x50
 5060 059c 12000000 		.4byte	.LVL115
 5061 05a0 1A000000 		.4byte	.LVL118
 5062 05a4 0100     		.2byte	0x1
 5063 05a6 54       		.byte	0x54
 5064 05a7 1A000000 		.4byte	.LVL118
 5065 05ab 20000000 		.4byte	.LVL120
 5066 05af 0100     		.2byte	0x1
 5067 05b1 50       		.byte	0x50
 5068 05b2 20000000 		.4byte	.LVL120
 5069 05b6 30000000 		.4byte	.LVL123
 5070 05ba 0100     		.2byte	0x1
 5071 05bc 54       		.byte	0x54
 5072 05bd 30000000 		.4byte	.LVL123
 5073 05c1 64000000 		.4byte	.LFE136
 5074 05c5 0400     		.2byte	0x4
 5075 05c7 F3       		.byte	0xf3
 5076 05c8 01       		.uleb128 0x1
 5077 05c9 50       		.byte	0x50
 5078 05ca 9F       		.byte	0x9f
 5079 05cb 00000000 		.4byte	0
 5080 05cf 00000000 		.4byte	0
 5081              	.LLST39:
 5082 05d3 00000000 		.4byte	.LVL112
 5083 05d7 15000000 		.4byte	.LVL116-1
 5084 05db 0100     		.2byte	0x1
 5085 05dd 51       		.byte	0x51
 5086 05de 15000000 		.4byte	.LVL116-1
 5087 05e2 1A000000 		.4byte	.LVL118
 5088 05e6 0400     		.2byte	0x4
 5089 05e8 F3       		.byte	0xf3
 5090 05e9 01       		.uleb128 0x1
 5091 05ea 51       		.byte	0x51
 5092 05eb 9F       		.byte	0x9f
 5093 05ec 1A000000 		.4byte	.LVL118
 5094 05f0 1E000000 		.4byte	.LVL119
ARM GAS  C:\Users\Mahrukh\AppData\Local\Temp\ccgflWoc.s 			page 122


 5095 05f4 0100     		.2byte	0x1
 5096 05f6 51       		.byte	0x51
 5097 05f7 1E000000 		.4byte	.LVL119
 5098 05fb 64000000 		.4byte	.LFE136
 5099 05ff 0400     		.2byte	0x4
 5100 0601 F3       		.byte	0xf3
 5101 0602 01       		.uleb128 0x1
 5102 0603 51       		.byte	0x51
 5103 0604 9F       		.byte	0x9f
 5104 0605 00000000 		.4byte	0
 5105 0609 00000000 		.4byte	0
 5106              	.LLST40:
 5107 060d 0C000000 		.4byte	.LVL114
 5108 0611 18000000 		.4byte	.LVL117
 5109 0615 0100     		.2byte	0x1
 5110 0617 55       		.byte	0x55
 5111 0618 18000000 		.4byte	.LVL117
 5112 061c 1A000000 		.4byte	.LVL118
 5113 0620 0100     		.2byte	0x1
 5114 0622 50       		.byte	0x50
 5115 0623 1A000000 		.4byte	.LVL118
 5116 0627 5A000000 		.4byte	.LVL132
 5117 062b 0100     		.2byte	0x1
 5118 062d 55       		.byte	0x55
 5119 062e 00000000 		.4byte	0
 5120 0632 00000000 		.4byte	0
 5121              	.LLST41:
 5122 0636 2C000000 		.4byte	.LVL122
 5123 063a 3A000000 		.4byte	.LVL125
 5124 063e 0100     		.2byte	0x1
 5125 0640 52       		.byte	0x52
 5126 0641 3A000000 		.4byte	.LVL125
 5127 0645 40000000 		.4byte	.LVL126
 5128 0649 0300     		.2byte	0x3
 5129 064b 72       		.byte	0x72
 5130 064c 7C       		.sleb128 -4
 5131 064d 9F       		.byte	0x9f
 5132 064e 40000000 		.4byte	.LVL126
 5133 0652 4A000000 		.4byte	.LVL128
 5134 0656 0600     		.2byte	0x6
 5135 0658 F3       		.byte	0xf3
 5136 0659 01       		.uleb128 0x1
 5137 065a 50       		.byte	0x50
 5138 065b 35       		.byte	0x35
 5139 065c 25       		.byte	0x25
 5140 065d 9F       		.byte	0x9f
 5141 065e 4A000000 		.4byte	.LVL128
 5142 0662 4C000000 		.4byte	.LVL129
 5143 0666 0100     		.2byte	0x1
 5144 0668 52       		.byte	0x52
 5145 0669 4C000000 		.4byte	.LVL129
 5146 066d 52000000 		.4byte	.LVL130
 5147 0671 0300     		.2byte	0x3
 5148 0673 72       		.byte	0x72
 5149 0674 7C       		.sleb128 -4
 5150 0675 9F       		.byte	0x9f
 5151 0676 52000000 		.4byte	.LVL130
ARM GAS  C:\Users\Mahrukh\AppData\Local\Temp\ccgflWoc.s 			page 123


 5152 067a 64000000 		.4byte	.LFE136
 5153 067e 0600     		.2byte	0x6
 5154 0680 F3       		.byte	0xf3
 5155 0681 01       		.uleb128 0x1
 5156 0682 50       		.byte	0x50
 5157 0683 35       		.byte	0x35
 5158 0684 25       		.byte	0x25
 5159 0685 9F       		.byte	0x9f
 5160 0686 00000000 		.4byte	0
 5161 068a 00000000 		.4byte	0
 5162              	.LLST42:
 5163 068e 36000000 		.4byte	.LVL124
 5164 0692 46000000 		.4byte	.LVL127
 5165 0696 0100     		.2byte	0x1
 5166 0698 54       		.byte	0x54
 5167 0699 46000000 		.4byte	.LVL127
 5168 069d 4A000000 		.4byte	.LVL128
 5169 06a1 0800     		.2byte	0x8
 5170 06a3 31       		.byte	0x31
 5171 06a4 F3       		.byte	0xf3
 5172 06a5 01       		.uleb128 0x1
 5173 06a6 50       		.byte	0x50
 5174 06a7 4F       		.byte	0x4f
 5175 06a8 1A       		.byte	0x1a
 5176 06a9 24       		.byte	0x24
 5177 06aa 9F       		.byte	0x9f
 5178 06ab 4A000000 		.4byte	.LVL128
 5179 06af 56000000 		.4byte	.LVL131
 5180 06b3 0100     		.2byte	0x1
 5181 06b5 54       		.byte	0x54
 5182 06b6 56000000 		.4byte	.LVL131
 5183 06ba 64000000 		.4byte	.LFE136
 5184 06be 0800     		.2byte	0x8
 5185 06c0 31       		.byte	0x31
 5186 06c1 F3       		.byte	0xf3
 5187 06c2 01       		.uleb128 0x1
 5188 06c3 50       		.byte	0x50
 5189 06c4 4F       		.byte	0x4f
 5190 06c5 1A       		.byte	0x1a
 5191 06c6 24       		.byte	0x24
 5192 06c7 9F       		.byte	0x9f
 5193 06c8 00000000 		.4byte	0
 5194 06cc 00000000 		.4byte	0
 5195              	.LLST43:
 5196 06d0 06000000 		.4byte	.LVL113
 5197 06d4 15000000 		.4byte	.LVL116-1
 5198 06d8 0100     		.2byte	0x1
 5199 06da 52       		.byte	0x52
 5200 06db 1A000000 		.4byte	.LVL118
 5201 06df 23000000 		.4byte	.LVL121-1
 5202 06e3 0100     		.2byte	0x1
 5203 06e5 52       		.byte	0x52
 5204 06e6 00000000 		.4byte	0
 5205 06ea 00000000 		.4byte	0
 5206              	.LLST44:
 5207 06ee 00000000 		.4byte	.LVL133
 5208 06f2 2C000000 		.4byte	.LVL144
ARM GAS  C:\Users\Mahrukh\AppData\Local\Temp\ccgflWoc.s 			page 124


 5209 06f6 0100     		.2byte	0x1
 5210 06f8 50       		.byte	0x50
 5211 06f9 2C000000 		.4byte	.LVL144
 5212 06fd 64000000 		.4byte	.LVL152
 5213 0701 0100     		.2byte	0x1
 5214 0703 5C       		.byte	0x5c
 5215 0704 64000000 		.4byte	.LVL152
 5216 0708 2A010000 		.4byte	.LFE143
 5217 070c 0100     		.2byte	0x1
 5218 070e 55       		.byte	0x55
 5219 070f 00000000 		.4byte	0
 5220 0713 00000000 		.4byte	0
 5221              	.LLST45:
 5222 0717 00000000 		.4byte	.LVL133
 5223 071b 1C000000 		.4byte	.LVL140
 5224 071f 0100     		.2byte	0x1
 5225 0721 51       		.byte	0x51
 5226 0722 1C000000 		.4byte	.LVL140
 5227 0726 20000000 		.4byte	.LVL141
 5228 072a 0100     		.2byte	0x1
 5229 072c 58       		.byte	0x58
 5230 072d 20000000 		.4byte	.LVL141
 5231 0731 22000000 		.4byte	.LVL142
 5232 0735 0100     		.2byte	0x1
 5233 0737 51       		.byte	0x51
 5234 0738 22000000 		.4byte	.LVL142
 5235 073c A6000000 		.4byte	.LVL164
 5236 0740 0100     		.2byte	0x1
 5237 0742 58       		.byte	0x58
 5238 0743 A6000000 		.4byte	.LVL164
 5239 0747 FE000000 		.4byte	.LVL175
 5240 074b 0400     		.2byte	0x4
 5241 074d F3       		.byte	0xf3
 5242 074e 01       		.uleb128 0x1
 5243 074f 51       		.byte	0x51
 5244 0750 9F       		.byte	0x9f
 5245 0751 FE000000 		.4byte	.LVL175
 5246 0755 02010000 		.4byte	.LVL177
 5247 0759 0100     		.2byte	0x1
 5248 075b 58       		.byte	0x58
 5249 075c 02010000 		.4byte	.LVL177
 5250 0760 2A010000 		.4byte	.LFE143
 5251 0764 0400     		.2byte	0x4
 5252 0766 F3       		.byte	0xf3
 5253 0767 01       		.uleb128 0x1
 5254 0768 51       		.byte	0x51
 5255 0769 9F       		.byte	0x9f
 5256 076a 00000000 		.4byte	0
 5257 076e 00000000 		.4byte	0
 5258              	.LLST46:
 5259 0772 0A000000 		.4byte	.LVL135
 5260 0776 2C000000 		.4byte	.LVL144
 5261 077a 0100     		.2byte	0x1
 5262 077c 53       		.byte	0x53
 5263 077d 2C000000 		.4byte	.LVL144
 5264 0781 40000000 		.4byte	.LVL148
 5265 0785 0100     		.2byte	0x1
ARM GAS  C:\Users\Mahrukh\AppData\Local\Temp\ccgflWoc.s 			page 125


 5266 0787 50       		.byte	0x50
 5267 0788 40000000 		.4byte	.LVL148
 5268 078c 42000000 		.4byte	.LVL149
 5269 0790 0100     		.2byte	0x1
 5270 0792 53       		.byte	0x53
 5271 0793 42000000 		.4byte	.LVL149
 5272 0797 70000000 		.4byte	.LVL155
 5273 079b 0100     		.2byte	0x1
 5274 079d 50       		.byte	0x50
 5275 079e 70000000 		.4byte	.LVL155
 5276 07a2 A2000000 		.4byte	.LVL163
 5277 07a6 0100     		.2byte	0x1
 5278 07a8 59       		.byte	0x59
 5279 07a9 FE000000 		.4byte	.LVL175
 5280 07ad 02010000 		.4byte	.LVL177
 5281 07b1 0100     		.2byte	0x1
 5282 07b3 50       		.byte	0x50
 5283 07b4 00000000 		.4byte	0
 5284 07b8 00000000 		.4byte	0
 5285              	.LLST47:
 5286 07bc 26000000 		.4byte	.LVL143
 5287 07c0 2C000000 		.4byte	.LVL144
 5288 07c4 0200     		.2byte	0x2
 5289 07c6 31       		.byte	0x31
 5290 07c7 9F       		.byte	0x9f
 5291 07c8 2C000000 		.4byte	.LVL144
 5292 07cc 74000000 		.4byte	.LVL157
 5293 07d0 0100     		.2byte	0x1
 5294 07d2 51       		.byte	0x51
 5295 07d3 FE000000 		.4byte	.LVL175
 5296 07d7 02010000 		.4byte	.LVL177
 5297 07db 0100     		.2byte	0x1
 5298 07dd 51       		.byte	0x51
 5299 07de 00000000 		.4byte	0
 5300 07e2 00000000 		.4byte	0
 5301              	.LLST48:
 5302 07e6 26000000 		.4byte	.LVL143
 5303 07ea 6C000000 		.4byte	.LVL154
 5304 07ee 0100     		.2byte	0x1
 5305 07f0 54       		.byte	0x54
 5306 07f1 6C000000 		.4byte	.LVL154
 5307 07f5 72000000 		.4byte	.LVL156
 5308 07f9 0600     		.2byte	0x6
 5309 07fb 72       		.byte	0x72
 5310 07fc 00       		.sleb128 0
 5311 07fd 73       		.byte	0x73
 5312 07fe 00       		.sleb128 0
 5313 07ff 1C       		.byte	0x1c
 5314 0800 9F       		.byte	0x9f
 5315 0801 72000000 		.4byte	.LVL156
 5316 0805 7B000000 		.4byte	.LVL158-1
 5317 0809 0100     		.2byte	0x1
 5318 080b 52       		.byte	0x52
 5319 080c FE000000 		.4byte	.LVL175
 5320 0810 00010000 		.4byte	.LVL176
 5321 0814 0100     		.2byte	0x1
 5322 0816 54       		.byte	0x54
ARM GAS  C:\Users\Mahrukh\AppData\Local\Temp\ccgflWoc.s 			page 126


 5323 0817 00000000 		.4byte	0
 5324 081b 00000000 		.4byte	0
 5325              	.LLST49:
 5326 081f 08000000 		.4byte	.LVL134
 5327 0823 2C000000 		.4byte	.LVL144
 5328 0827 0200     		.2byte	0x2
 5329 0829 30       		.byte	0x30
 5330 082a 9F       		.byte	0x9f
 5331 082b 2C000000 		.4byte	.LVL144
 5332 082f 5C000000 		.4byte	.LVL150
 5333 0833 0100     		.2byte	0x1
 5334 0835 55       		.byte	0x55
 5335 0836 5E000000 		.4byte	.LVL151
 5336 083a 64000000 		.4byte	.LVL152
 5337 083e 0100     		.2byte	0x1
 5338 0840 55       		.byte	0x55
 5339 0841 00000000 		.4byte	0
 5340 0845 00000000 		.4byte	0
 5341              	.LLST50:
 5342 0849 12000000 		.4byte	.LVL138
 5343 084d 7B000000 		.4byte	.LVL158-1
 5344 0851 0100     		.2byte	0x1
 5345 0853 5E       		.byte	0x5e
 5346 0854 FE000000 		.4byte	.LVL175
 5347 0858 02010000 		.4byte	.LVL177
 5348 085c 0100     		.2byte	0x1
 5349 085e 5E       		.byte	0x5e
 5350 085f 00000000 		.4byte	0
 5351 0863 00000000 		.4byte	0
 5352              	.LLST51:
 5353 0867 0C000000 		.4byte	.LVL136
 5354 086b 6A000000 		.4byte	.LVL153
 5355 086f 0100     		.2byte	0x1
 5356 0871 52       		.byte	0x52
 5357 0872 FE000000 		.4byte	.LVL175
 5358 0876 02010000 		.4byte	.LVL177
 5359 087a 0100     		.2byte	0x1
 5360 087c 52       		.byte	0x52
 5361 087d 00000000 		.4byte	0
 5362 0881 00000000 		.4byte	0
 5363              	.LLST52:
 5364 0885 08000000 		.4byte	.LVL134
 5365 0889 7C000000 		.4byte	.LVL158
 5366 088d 0200     		.2byte	0x2
 5367 088f 30       		.byte	0x30
 5368 0890 9F       		.byte	0x9f
 5369 0891 7C000000 		.4byte	.LVL158
 5370 0895 94000000 		.4byte	.LVL159
 5371 0899 0100     		.2byte	0x1
 5372 089b 50       		.byte	0x50
 5373 089c 94000000 		.4byte	.LVL159
 5374 08a0 9A000000 		.4byte	.LVL161
 5375 08a4 0100     		.2byte	0x1
 5376 08a6 54       		.byte	0x54
 5377 08a7 9A000000 		.4byte	.LVL161
 5378 08ab A8000000 		.4byte	.LVL165
 5379 08af 0100     		.2byte	0x1
ARM GAS  C:\Users\Mahrukh\AppData\Local\Temp\ccgflWoc.s 			page 127


 5380 08b1 50       		.byte	0x50
 5381 08b2 A8000000 		.4byte	.LVL165
 5382 08b6 FE000000 		.4byte	.LVL175
 5383 08ba 0100     		.2byte	0x1
 5384 08bc 54       		.byte	0x54
 5385 08bd FE000000 		.4byte	.LVL175
 5386 08c1 02010000 		.4byte	.LVL177
 5387 08c5 0200     		.2byte	0x2
 5388 08c7 30       		.byte	0x30
 5389 08c8 9F       		.byte	0x9f
 5390 08c9 00000000 		.4byte	0
 5391 08cd 00000000 		.4byte	0
 5392              	.LLST53:
 5393 08d1 9A000000 		.4byte	.LVL161
 5394 08d5 FE000000 		.4byte	.LVL175
 5395 08d9 0100     		.2byte	0x1
 5396 08db 57       		.byte	0x57
 5397 08dc 00000000 		.4byte	0
 5398 08e0 00000000 		.4byte	0
 5399              	.LLST54:
 5400 08e4 9A000000 		.4byte	.LVL161
 5401 08e8 A6000000 		.4byte	.LVL164
 5402 08ec 0100     		.2byte	0x1
 5403 08ee 58       		.byte	0x58
 5404 08ef A6000000 		.4byte	.LVL164
 5405 08f3 FE000000 		.4byte	.LVL175
 5406 08f7 0400     		.2byte	0x4
 5407 08f9 F3       		.byte	0xf3
 5408 08fa 01       		.uleb128 0x1
 5409 08fb 51       		.byte	0x51
 5410 08fc 9F       		.byte	0x9f
 5411 08fd 00000000 		.4byte	0
 5412 0901 00000000 		.4byte	0
 5413              	.LLST55:
 5414 0905 9A000000 		.4byte	.LVL161
 5415 0909 A8000000 		.4byte	.LVL165
 5416 090d 0100     		.2byte	0x1
 5417 090f 50       		.byte	0x50
 5418 0910 A8000000 		.4byte	.LVL165
 5419 0914 FE000000 		.4byte	.LVL175
 5420 0918 0100     		.2byte	0x1
 5421 091a 54       		.byte	0x54
 5422 091b 00000000 		.4byte	0
 5423 091f 00000000 		.4byte	0
 5424              	.LLST56:
 5425 0923 9A000000 		.4byte	.LVL161
 5426 0927 AA000000 		.4byte	.LVL166
 5427 092b 0300     		.2byte	0x3
 5428 092d 91       		.byte	0x91
 5429 092e 54       		.sleb128 -44
 5430 092f 9F       		.byte	0x9f
 5431 0930 AA000000 		.4byte	.LVL166
 5432 0934 B2000000 		.4byte	.LVL168
 5433 0938 0100     		.2byte	0x1
 5434 093a 53       		.byte	0x53
 5435 093b B2000000 		.4byte	.LVL168
 5436 093f FE000000 		.4byte	.LVL175
ARM GAS  C:\Users\Mahrukh\AppData\Local\Temp\ccgflWoc.s 			page 128


 5437 0943 0300     		.2byte	0x3
 5438 0945 91       		.byte	0x91
 5439 0946 54       		.sleb128 -44
 5440 0947 9F       		.byte	0x9f
 5441 0948 00000000 		.4byte	0
 5442 094c 00000000 		.4byte	0
 5443              	.LLST57:
 5444 0950 A2000000 		.4byte	.LVL163
 5445 0954 A8000000 		.4byte	.LVL165
 5446 0958 0200     		.2byte	0x2
 5447 095a 30       		.byte	0x30
 5448 095b 9F       		.byte	0x9f
 5449 095c A8000000 		.4byte	.LVL165
 5450 0960 FE000000 		.4byte	.LVL175
 5451 0964 0100     		.2byte	0x1
 5452 0966 58       		.byte	0x58
 5453 0967 00000000 		.4byte	0
 5454 096b 00000000 		.4byte	0
 5455              	.LLST58:
 5456 096f D0000000 		.4byte	.LVL170
 5457 0973 DE000000 		.4byte	.LVL172
 5458 0977 0100     		.2byte	0x1
 5459 0979 5B       		.byte	0x5b
 5460 097a 00000000 		.4byte	0
 5461 097e 00000000 		.4byte	0
 5462              	.LLST59:
 5463 0982 AE000000 		.4byte	.LVL167
 5464 0986 D6000000 		.4byte	.LVL171
 5465 098a 0100     		.2byte	0x1
 5466 098c 5B       		.byte	0x5b
 5467 098d D6000000 		.4byte	.LVL171
 5468 0991 DE000000 		.4byte	.LVL172
 5469 0995 0900     		.2byte	0x9
 5470 0997 73       		.byte	0x73
 5471 0998 00       		.sleb128 0
 5472 0999 09       		.byte	0x9
 5473 099a F4       		.byte	0xf4
 5474 099b 24       		.byte	0x24
 5475 099c 09       		.byte	0x9
 5476 099d F5       		.byte	0xf5
 5477 099e 25       		.byte	0x25
 5478 099f 9F       		.byte	0x9f
 5479 09a0 DE000000 		.4byte	.LVL172
 5480 09a4 F8000000 		.4byte	.LVL174
 5481 09a8 0100     		.2byte	0x1
 5482 09aa 5B       		.byte	0x5b
 5483 09ab 00000000 		.4byte	0
 5484 09af 00000000 		.4byte	0
 5485              	.LLST60:
 5486 09b3 9E000000 		.4byte	.LVL162
 5487 09b7 FE000000 		.4byte	.LVL175
 5488 09bb 0100     		.2byte	0x1
 5489 09bd 5A       		.byte	0x5a
 5490 09be 00000000 		.4byte	0
 5491 09c2 00000000 		.4byte	0
 5492              	.LLST61:
 5493 09c6 A2000000 		.4byte	.LVL163
ARM GAS  C:\Users\Mahrukh\AppData\Local\Temp\ccgflWoc.s 			page 129


 5494 09ca FE000000 		.4byte	.LVL175
 5495 09ce 0100     		.2byte	0x1
 5496 09d0 59       		.byte	0x59
 5497 09d1 00000000 		.4byte	0
 5498 09d5 00000000 		.4byte	0
 5499              	.LLST62:
 5500 09d9 00000000 		.4byte	.LVL180
 5501 09dd 1A000000 		.4byte	.LVL183
 5502 09e1 0100     		.2byte	0x1
 5503 09e3 50       		.byte	0x50
 5504 09e4 1A000000 		.4byte	.LVL183
 5505 09e8 22000000 		.4byte	.LVL186
 5506 09ec 0100     		.2byte	0x1
 5507 09ee 54       		.byte	0x54
 5508 09ef 22000000 		.4byte	.LVL186
 5509 09f3 24000000 		.4byte	.LVL187
 5510 09f7 0100     		.2byte	0x1
 5511 09f9 50       		.byte	0x50
 5512 09fa 24000000 		.4byte	.LVL187
 5513 09fe 2C000000 		.4byte	.LVL190
 5514 0a02 0100     		.2byte	0x1
 5515 0a04 54       		.byte	0x54
 5516 0a05 2C000000 		.4byte	.LVL190
 5517 0a09 32000000 		.4byte	.LVL192
 5518 0a0d 0100     		.2byte	0x1
 5519 0a0f 50       		.byte	0x50
 5520 0a10 32000000 		.4byte	.LVL192
 5521 0a14 42000000 		.4byte	.LVL195
 5522 0a18 0100     		.2byte	0x1
 5523 0a1a 54       		.byte	0x54
 5524 0a1b 42000000 		.4byte	.LVL195
 5525 0a1f 74000000 		.4byte	.LFE139
 5526 0a23 0400     		.2byte	0x4
 5527 0a25 F3       		.byte	0xf3
 5528 0a26 01       		.uleb128 0x1
 5529 0a27 50       		.byte	0x50
 5530 0a28 9F       		.byte	0x9f
 5531 0a29 00000000 		.4byte	0
 5532 0a2d 00000000 		.4byte	0
 5533              	.LLST63:
 5534 0a31 00000000 		.4byte	.LVL180
 5535 0a35 1D000000 		.4byte	.LVL184-1
 5536 0a39 0100     		.2byte	0x1
 5537 0a3b 51       		.byte	0x51
 5538 0a3c 1D000000 		.4byte	.LVL184-1
 5539 0a40 22000000 		.4byte	.LVL186
 5540 0a44 0400     		.2byte	0x4
 5541 0a46 F3       		.byte	0xf3
 5542 0a47 01       		.uleb128 0x1
 5543 0a48 51       		.byte	0x51
 5544 0a49 9F       		.byte	0x9f
 5545 0a4a 22000000 		.4byte	.LVL186
 5546 0a4e 27000000 		.4byte	.LVL188-1
 5547 0a52 0100     		.2byte	0x1
 5548 0a54 51       		.byte	0x51
 5549 0a55 27000000 		.4byte	.LVL188-1
 5550 0a59 2C000000 		.4byte	.LVL190
ARM GAS  C:\Users\Mahrukh\AppData\Local\Temp\ccgflWoc.s 			page 130


 5551 0a5d 0400     		.2byte	0x4
 5552 0a5f F3       		.byte	0xf3
 5553 0a60 01       		.uleb128 0x1
 5554 0a61 51       		.byte	0x51
 5555 0a62 9F       		.byte	0x9f
 5556 0a63 2C000000 		.4byte	.LVL190
 5557 0a67 30000000 		.4byte	.LVL191
 5558 0a6b 0100     		.2byte	0x1
 5559 0a6d 51       		.byte	0x51
 5560 0a6e 30000000 		.4byte	.LVL191
 5561 0a72 74000000 		.4byte	.LFE139
 5562 0a76 0400     		.2byte	0x4
 5563 0a78 F3       		.byte	0xf3
 5564 0a79 01       		.uleb128 0x1
 5565 0a7a 51       		.byte	0x51
 5566 0a7b 9F       		.byte	0x9f
 5567 0a7c 00000000 		.4byte	0
 5568 0a80 00000000 		.4byte	0
 5569              	.LLST64:
 5570 0a84 0C000000 		.4byte	.LVL182
 5571 0a88 20000000 		.4byte	.LVL185
 5572 0a8c 0100     		.2byte	0x1
 5573 0a8e 55       		.byte	0x55
 5574 0a8f 20000000 		.4byte	.LVL185
 5575 0a93 22000000 		.4byte	.LVL186
 5576 0a97 0100     		.2byte	0x1
 5577 0a99 50       		.byte	0x50
 5578 0a9a 22000000 		.4byte	.LVL186
 5579 0a9e 2A000000 		.4byte	.LVL189
 5580 0aa2 0100     		.2byte	0x1
 5581 0aa4 55       		.byte	0x55
 5582 0aa5 2A000000 		.4byte	.LVL189
 5583 0aa9 2C000000 		.4byte	.LVL190
 5584 0aad 0100     		.2byte	0x1
 5585 0aaf 50       		.byte	0x50
 5586 0ab0 2C000000 		.4byte	.LVL190
 5587 0ab4 6C000000 		.4byte	.LVL204
 5588 0ab8 0100     		.2byte	0x1
 5589 0aba 55       		.byte	0x55
 5590 0abb 00000000 		.4byte	0
 5591 0abf 00000000 		.4byte	0
 5592              	.LLST65:
 5593 0ac3 3E000000 		.4byte	.LVL194
 5594 0ac7 4C000000 		.4byte	.LVL197
 5595 0acb 0100     		.2byte	0x1
 5596 0acd 52       		.byte	0x52
 5597 0ace 4C000000 		.4byte	.LVL197
 5598 0ad2 52000000 		.4byte	.LVL198
 5599 0ad6 0300     		.2byte	0x3
 5600 0ad8 72       		.byte	0x72
 5601 0ad9 7C       		.sleb128 -4
 5602 0ada 9F       		.byte	0x9f
 5603 0adb 52000000 		.4byte	.LVL198
 5604 0adf 5C000000 		.4byte	.LVL200
 5605 0ae3 0600     		.2byte	0x6
 5606 0ae5 F3       		.byte	0xf3
 5607 0ae6 01       		.uleb128 0x1
ARM GAS  C:\Users\Mahrukh\AppData\Local\Temp\ccgflWoc.s 			page 131


 5608 0ae7 50       		.byte	0x50
 5609 0ae8 35       		.byte	0x35
 5610 0ae9 25       		.byte	0x25
 5611 0aea 9F       		.byte	0x9f
 5612 0aeb 5C000000 		.4byte	.LVL200
 5613 0aef 5E000000 		.4byte	.LVL201
 5614 0af3 0100     		.2byte	0x1
 5615 0af5 52       		.byte	0x52
 5616 0af6 5E000000 		.4byte	.LVL201
 5617 0afa 64000000 		.4byte	.LVL202
 5618 0afe 0300     		.2byte	0x3
 5619 0b00 72       		.byte	0x72
 5620 0b01 7C       		.sleb128 -4
 5621 0b02 9F       		.byte	0x9f
 5622 0b03 64000000 		.4byte	.LVL202
 5623 0b07 74000000 		.4byte	.LFE139
 5624 0b0b 0600     		.2byte	0x6
 5625 0b0d F3       		.byte	0xf3
 5626 0b0e 01       		.uleb128 0x1
 5627 0b0f 50       		.byte	0x50
 5628 0b10 35       		.byte	0x35
 5629 0b11 25       		.byte	0x25
 5630 0b12 9F       		.byte	0x9f
 5631 0b13 00000000 		.4byte	0
 5632 0b17 00000000 		.4byte	0
 5633              	.LLST66:
 5634 0b1b 48000000 		.4byte	.LVL196
 5635 0b1f 58000000 		.4byte	.LVL199
 5636 0b23 0100     		.2byte	0x1
 5637 0b25 54       		.byte	0x54
 5638 0b26 58000000 		.4byte	.LVL199
 5639 0b2a 5C000000 		.4byte	.LVL200
 5640 0b2e 0800     		.2byte	0x8
 5641 0b30 31       		.byte	0x31
 5642 0b31 F3       		.byte	0xf3
 5643 0b32 01       		.uleb128 0x1
 5644 0b33 50       		.byte	0x50
 5645 0b34 4F       		.byte	0x4f
 5646 0b35 1A       		.byte	0x1a
 5647 0b36 24       		.byte	0x24
 5648 0b37 9F       		.byte	0x9f
 5649 0b38 5C000000 		.4byte	.LVL200
 5650 0b3c 68000000 		.4byte	.LVL203
 5651 0b40 0100     		.2byte	0x1
 5652 0b42 54       		.byte	0x54
 5653 0b43 68000000 		.4byte	.LVL203
 5654 0b47 74000000 		.4byte	.LFE139
 5655 0b4b 0800     		.2byte	0x8
 5656 0b4d 31       		.byte	0x31
 5657 0b4e F3       		.byte	0xf3
 5658 0b4f 01       		.uleb128 0x1
 5659 0b50 50       		.byte	0x50
 5660 0b51 4F       		.byte	0x4f
 5661 0b52 1A       		.byte	0x1a
 5662 0b53 24       		.byte	0x24
 5663 0b54 9F       		.byte	0x9f
 5664 0b55 00000000 		.4byte	0
ARM GAS  C:\Users\Mahrukh\AppData\Local\Temp\ccgflWoc.s 			page 132


 5665 0b59 00000000 		.4byte	0
 5666              	.LLST67:
 5667 0b5d 06000000 		.4byte	.LVL181
 5668 0b61 1D000000 		.4byte	.LVL184-1
 5669 0b65 0100     		.2byte	0x1
 5670 0b67 52       		.byte	0x52
 5671 0b68 22000000 		.4byte	.LVL186
 5672 0b6c 27000000 		.4byte	.LVL188-1
 5673 0b70 0100     		.2byte	0x1
 5674 0b72 52       		.byte	0x52
 5675 0b73 2C000000 		.4byte	.LVL190
 5676 0b77 35000000 		.4byte	.LVL193-1
 5677 0b7b 0100     		.2byte	0x1
 5678 0b7d 52       		.byte	0x52
 5679 0b7e 00000000 		.4byte	0
 5680 0b82 00000000 		.4byte	0
 5681              		.section	.debug_aranges,"",%progbits
 5682 0000 6C000000 		.4byte	0x6c
 5683 0004 0200     		.2byte	0x2
 5684 0006 00000000 		.4byte	.Ldebug_info0
 5685 000a 04       		.byte	0x4
 5686 000b 00       		.byte	0
 5687 000c 0000     		.2byte	0
 5688 000e 0000     		.2byte	0
 5689 0010 00000000 		.4byte	.LFB133
 5690 0014 90000000 		.4byte	.LFE133-.LFB133
 5691 0018 00000000 		.4byte	.LFB140
 5692 001c 34000000 		.4byte	.LFE140-.LFB140
 5693 0020 00000000 		.4byte	.LFB141
 5694 0024 18000000 		.4byte	.LFE141-.LFB141
 5695 0028 00000000 		.4byte	.LFB134
 5696 002c 36000000 		.4byte	.LFE134-.LFB134
 5697 0030 00000000 		.4byte	.LFB135
 5698 0034 2E000000 		.4byte	.LFE135-.LFB135
 5699 0038 00000000 		.4byte	.LFB137
 5700 003c 52000000 		.4byte	.LFE137-.LFB137
 5701 0040 00000000 		.4byte	.LFB138
 5702 0044 5A000000 		.4byte	.LFE138-.LFB138
 5703 0048 00000000 		.4byte	.LFB142
 5704 004c 62000000 		.4byte	.LFE142-.LFB142
 5705 0050 00000000 		.4byte	.LFB136
 5706 0054 64000000 		.4byte	.LFE136-.LFB136
 5707 0058 00000000 		.4byte	.LFB143
 5708 005c 2A010000 		.4byte	.LFE143-.LFB143
 5709 0060 00000000 		.4byte	.LFB139
 5710 0064 74000000 		.4byte	.LFE139-.LFB139
 5711 0068 00000000 		.4byte	0
 5712 006c 00000000 		.4byte	0
 5713              		.section	.debug_ranges,"",%progbits
 5714              	.Ldebug_ranges0:
 5715 0000 00000000 		.4byte	.LFB133
 5716 0004 90000000 		.4byte	.LFE133
 5717 0008 00000000 		.4byte	.LFB140
 5718 000c 34000000 		.4byte	.LFE140
 5719 0010 00000000 		.4byte	.LFB141
 5720 0014 18000000 		.4byte	.LFE141
 5721 0018 00000000 		.4byte	.LFB134
ARM GAS  C:\Users\Mahrukh\AppData\Local\Temp\ccgflWoc.s 			page 133


 5722 001c 36000000 		.4byte	.LFE134
 5723 0020 00000000 		.4byte	.LFB135
 5724 0024 2E000000 		.4byte	.LFE135
 5725 0028 00000000 		.4byte	.LFB137
 5726 002c 52000000 		.4byte	.LFE137
 5727 0030 00000000 		.4byte	.LFB138
 5728 0034 5A000000 		.4byte	.LFE138
 5729 0038 00000000 		.4byte	.LFB142
 5730 003c 62000000 		.4byte	.LFE142
 5731 0040 00000000 		.4byte	.LFB136
 5732 0044 64000000 		.4byte	.LFE136
 5733 0048 00000000 		.4byte	.LFB143
 5734 004c 2A010000 		.4byte	.LFE143
 5735 0050 00000000 		.4byte	.LFB139
 5736 0054 74000000 		.4byte	.LFE139
 5737 0058 00000000 		.4byte	0
 5738 005c 00000000 		.4byte	0
 5739              		.section	.debug_line,"",%progbits
 5740              	.Ldebug_line0:
 5741 0000 A6050000 		.section	.debug_str,"MS",%progbits,1
 5741      02002E03 
 5741      00000201 
 5741      FB0E0D00 
 5741      01010101 
 5742              	.LASF100:
 5743 0000 65646765 		.ascii	"edgeSwipeTimeout\000"
 5743      53776970 
 5743      6554696D 
 5743      656F7574 
 5743      00
 5744              	.LASF205:
 5745 0011 7074724E 		.ascii	"ptrNoiseEnvelope\000"
 5745      6F697365 
 5745      456E7665 
 5745      6C6F7065 
 5745      00
 5746              	.LASF122:
 5747 0022 43617053 		.ascii	"CapSense_WD_PROXIMITY_E\000"
 5747      656E7365 
 5747      5F57445F 
 5747      50524F58 
 5747      494D4954 
 5748              	.LASF221:
 5749 003a 43617053 		.ascii	"CapSense_DpProcessCsdSensorRawCountsExt\000"
 5749      656E7365 
 5749      5F447050 
 5749      726F6365 
 5749      73734373 
 5750              	.LASF48:
 5751 0062 666C6963 		.ascii	"flickActiveDistanceX\000"
 5751      6B416374 
 5751      69766544 
 5751      69737461 
 5751      6E636558 
 5752              	.LASF49:
 5753 0077 666C6963 		.ascii	"flickActiveDistanceY\000"
 5753      6B416374 
ARM GAS  C:\Users\Mahrukh\AppData\Local\Temp\ccgflWoc.s 			page 134


 5753      69766544 
 5753      69737461 
 5753      6E636559 
 5754              	.LASF44:
 5755 008c 70616E41 		.ascii	"panActiveDistanceX\000"
 5755      63746976 
 5755      65446973 
 5755      74616E63 
 5755      655800
 5756              	.LASF45:
 5757 009f 70616E41 		.ascii	"panActiveDistanceY\000"
 5757      63746976 
 5757      65446973 
 5757      74616E63 
 5757      655900
 5758              	.LASF140:
 5759 00b2 43617053 		.ascii	"CapSense_RAM_WD_LIST_STRUCT\000"
 5759      656E7365 
 5759      5F52414D 
 5759      5F57445F 
 5759      4C495354 
 5760              	.LASF195:
 5761 00ce 706F7341 		.ascii	"posAverage\000"
 5761      76657261 
 5761      676500
 5762              	.LASF204:
 5763 00d9 43617053 		.ascii	"CapSense_DpUpdateThresholds\000"
 5763      656E7365 
 5763      5F447055 
 5763      70646174 
 5763      65546872 
 5764              	.LASF224:
 5765 00f5 736E7343 		.ascii	"snsCnt\000"
 5765      6E7400
 5766              	.LASF79:
 5767 00fc 7374496E 		.ascii	"stInScrCountLevel\000"
 5767      53637243 
 5767      6F756E74 
 5767      4C657665 
 5767      6C00
 5768              	.LASF199:
 5769 010e 77646774 		.ascii	"wdgtId\000"
 5769      496400
 5770              	.LASF217:
 5771 0115 666C7472 		.ascii	"fltrHistV\000"
 5771      48697374 
 5771      5600
 5772              	.LASF165:
 5773 011f 736E7254 		.ascii	"snrTestWidgetId\000"
 5773      65737457 
 5773      69646765 
 5773      74496400 
 5774              	.LASF254:
 5775 012f 43617053 		.ascii	"CapSense_DpFindLocalMaxSd\000"
 5775      656E7365 
 5775      5F447046 
 5775      696E644C 
ARM GAS  C:\Users\Mahrukh\AppData\Local\Temp\ccgflWoc.s 			page 135


 5775      6F63616C 
 5776              	.LASF80:
 5777 0149 6474496E 		.ascii	"dtInScrActiveDistanceX\000"
 5777      53637241 
 5777      63746976 
 5777      65446973 
 5777      74616E63 
 5778              	.LASF81:
 5779 0160 6474496E 		.ascii	"dtInScrActiveDistanceY\000"
 5779      53637241 
 5779      63746976 
 5779      65446973 
 5779      74616E63 
 5780              	.LASF52:
 5781 0177 73745363 		.ascii	"stScrollThreshold3X\000"
 5781      726F6C6C 
 5781      54687265 
 5781      73686F6C 
 5781      64335800 
 5782              	.LASF56:
 5783 018b 73745363 		.ascii	"stScrollThreshold3Y\000"
 5783      726F6C6C 
 5783      54687265 
 5783      73686F6C 
 5783      64335900 
 5784              	.LASF244:
 5785 019f 43617053 		.ascii	"CapSense_DpProcessCsdWidgetStatus\000"
 5785      656E7365 
 5785      5F447050 
 5785      726F6365 
 5785      73734373 
 5786              	.LASF96:
 5787 01c1 73657474 		.ascii	"settlingTimeout\000"
 5787      6C696E67 
 5787      54696D65 
 5787      6F757400 
 5788              	.LASF208:
 5789 01d1 70747254 		.ascii	"ptrThresholds\000"
 5789      68726573 
 5789      686F6C64 
 5789      7300
 5790              	.LASF12:
 5791 01df 756E7369 		.ascii	"unsigned int\000"
 5791      676E6564 
 5791      20696E74 
 5791      00
 5792              	.LASF216:
 5793 01ec 43617053 		.ascii	"CapSense_DpProcessCsxSensorRawCountsExt\000"
 5793      656E7365 
 5793      5F447050 
 5793      726F6365 
 5793      73734373 
 5794              	.LASF152:
 5795 0214 7363616E 		.ascii	"scanCounter\000"
 5795      436F756E 
 5795      74657200 
 5796              	.LASF209:
ARM GAS  C:\Users\Mahrukh\AppData\Local\Temp\ccgflWoc.s 			page 136


 5797 0220 43617053 		.ascii	"CapSense_DpUpdateDifferences\000"
 5797      656E7365 
 5797      5F447055 
 5797      70646174 
 5797      65446966 
 5798              	.LASF150:
 5799 023d 6877436C 		.ascii	"hwClock\000"
 5799      6F636B00 
 5800              	.LASF59:
 5801 0245 73745363 		.ascii	"stScrollStep2\000"
 5801      726F6C6C 
 5801      53746570 
 5801      3200
 5802              	.LASF60:
 5803 0253 73745363 		.ascii	"stScrollStep3\000"
 5803      726F6C6C 
 5803      53746570 
 5803      3300
 5804              	.LASF61:
 5805 0261 73745363 		.ascii	"stScrollStep4\000"
 5805      726F6C6C 
 5805      53746570 
 5805      3400
 5806              	.LASF6:
 5807 026f 5F5F696E 		.ascii	"__int32_t\000"
 5807      7433325F 
 5807      7400
 5808              	.LASF63:
 5809 0279 64745363 		.ascii	"dtScrollThreshold1X\000"
 5809      726F6C6C 
 5809      54687265 
 5809      73686F6C 
 5809      64315800 
 5810              	.LASF67:
 5811 028d 64745363 		.ascii	"dtScrollThreshold1Y\000"
 5811      726F6C6C 
 5811      54687265 
 5811      73686F6C 
 5811      64315900 
 5812              	.LASF15:
 5813 02a1 696E7433 		.ascii	"int32_t\000"
 5813      325F7400 
 5814              	.LASF64:
 5815 02a9 64745363 		.ascii	"dtScrollThreshold2X\000"
 5815      726F6C6C 
 5815      54687265 
 5815      73686F6C 
 5815      64325800 
 5816              	.LASF110:
 5817 02bd 67726F75 		.ascii	"group2Start\000"
 5817      70325374 
 5817      61727400 
 5818              	.LASF211:
 5819 02c9 64696666 		.ascii	"diffValue\000"
 5819      56616C75 
 5819      6500
 5820              	.LASF53:
ARM GAS  C:\Users\Mahrukh\AppData\Local\Temp\ccgflWoc.s 			page 137


 5821 02d3 73745363 		.ascii	"stScrollThreshold4X\000"
 5821      726F6C6C 
 5821      54687265 
 5821      73686F6C 
 5821      64345800 
 5822              	.LASF57:
 5823 02e7 73745363 		.ascii	"stScrollThreshold4Y\000"
 5823      726F6C6C 
 5823      54687265 
 5823      73686F6C 
 5823      64345900 
 5824              	.LASF101:
 5825 02fb 4454436C 		.ascii	"DTClickTimeoutMax\000"
 5825      69636B54 
 5825      696D656F 
 5825      75744D61 
 5825      7800
 5826              	.LASF218:
 5827 030d 6D6F6465 		.ascii	"mode\000"
 5827      00
 5828              	.LASF210:
 5829 0312 63757253 		.ascii	"curSnsPtr\000"
 5829      6E735074 
 5829      7200
 5830              	.LASF196:
 5831 031c 43617053 		.ascii	"CapSense_SLIDER_POS_HISTORY_STRUCT\000"
 5831      656E7365 
 5831      5F534C49 
 5831      4445525F 
 5831      504F535F 
 5832              	.LASF256:
 5833 033f 474E5520 		.ascii	"GNU C11 5.4.1 20160609 (release) [ARM/embedded-5-br"
 5833      43313120 
 5833      352E342E 
 5833      31203230 
 5833      31363036 
 5834 0372 616E6368 		.ascii	"anch revision 237715] -mcpu=cortex-m4 -mfloat-abi=s"
 5834      20726576 
 5834      6973696F 
 5834      6E203233 
 5834      37373135 
 5835 03a5 6F667466 		.ascii	"oftfp -mfpu=fpv4-sp-d16 -mthumb -g -Og -ffunction-s"
 5835      70202D6D 
 5835      6670753D 
 5835      66707634 
 5835      2D73702D 
 5836 03d8 65637469 		.ascii	"ections -ffat-lto-objects\000"
 5836      6F6E7320 
 5836      2D666661 
 5836      742D6C74 
 5836      6F2D6F62 
 5837              	.LASF75:
 5838 03f2 64745363 		.ascii	"dtScrollDebounce\000"
 5838      726F6C6C 
 5838      4465626F 
 5838      756E6365 
 5838      00
ARM GAS  C:\Users\Mahrukh\AppData\Local\Temp\ccgflWoc.s 			page 138


 5839              	.LASF121:
 5840 0403 43617053 		.ascii	"CapSense_WD_TOUCHPAD_E\000"
 5840      656E7365 
 5840      5F57445F 
 5840      544F5543 
 5840      48504144 
 5841              	.LASF68:
 5842 041a 64745363 		.ascii	"dtScrollThreshold2Y\000"
 5842      726F6C6C 
 5842      54687265 
 5842      73686F6C 
 5842      64325900 
 5843              	.LASF111:
 5844 042e 67726F75 		.ascii	"group2End\000"
 5844      7032456E 
 5844      6400
 5845              	.LASF185:
 5846 0438 69697246 		.ascii	"iirFilterCoeff\000"
 5846      696C7465 
 5846      72436F65 
 5846      666600
 5847              	.LASF250:
 5848 0447 536D6172 		.ascii	"SmartSense_UpdateThresholds\000"
 5848      7453656E 
 5848      73655F55 
 5848      70646174 
 5848      65546872 
 5849              	.LASF93:
 5850 0463 646F7562 		.ascii	"doubleClickRadius\000"
 5850      6C65436C 
 5850      69636B52 
 5850      61646975 
 5850      7300
 5851              	.LASF107:
 5852 0475 67726F75 		.ascii	"groupMask\000"
 5852      704D6173 
 5852      6B00
 5853              	.LASF46:
 5854 047f 7A6F6F6D 		.ascii	"zoomActiveDistanceX\000"
 5854      41637469 
 5854      76654469 
 5854      7374616E 
 5854      63655800 
 5855              	.LASF47:
 5856 0493 7A6F6F6D 		.ascii	"zoomActiveDistanceY\000"
 5856      41637469 
 5856      76654469 
 5856      7374616E 
 5856      63655900 
 5857              	.LASF251:
 5858 04a7 43617053 		.ascii	"CapSense_FtUpdateBaseline\000"
 5858      656E7365 
 5858      5F467455 
 5858      70646174 
 5858      65426173 
 5859              	.LASF163:
 5860 04c1 74696D65 		.ascii	"timestampInterval\000"
ARM GAS  C:\Users\Mahrukh\AppData\Local\Temp\ccgflWoc.s 			page 139


 5860      7374616D 
 5860      70496E74 
 5860      65727661 
 5860      6C00
 5861              	.LASF16:
 5862 04d3 75696E74 		.ascii	"uint32_t\000"
 5862      33325F74 
 5862      00
 5863              	.LASF90:
 5864 04dc 44545061 		.ascii	"DTPanToZoomDebounce\000"
 5864      6E546F5A 
 5864      6F6F6D44 
 5864      65626F75 
 5864      6E636500 
 5865              	.LASF141:
 5866 04f0 62736C6E 		.ascii	"bsln\000"
 5866      00
 5867              	.LASF226:
 5868 04f5 6E657753 		.ascii	"newStatus\000"
 5868      74617475 
 5868      7300
 5869              	.LASF99:
 5870 04ff 666C6963 		.ascii	"flickSampleTime\000"
 5870      6B53616D 
 5870      706C6554 
 5870      696D6500 
 5871              	.LASF22:
 5872 050f 666C6F61 		.ascii	"float\000"
 5872      7400
 5873              	.LASF27:
 5874 0515 696E7433 		.ascii	"int32\000"
 5874      3200
 5875              	.LASF257:
 5876 051b 47656E65 		.ascii	"Generated_Source\\PSoC6\\CapSense_Processing.c\000"
 5876      72617465 
 5876      645F536F 
 5876      75726365 
 5876      5C50536F 
 5877              	.LASF203:
 5878 0548 43617053 		.ascii	"CapSense_DpInitialize\000"
 5878      656E7365 
 5878      5F447049 
 5878      6E697469 
 5878      616C697A 
 5879              	.LASF65:
 5880 055e 64745363 		.ascii	"dtScrollThreshold3X\000"
 5880      726F6C6C 
 5880      54687265 
 5880      73686F6C 
 5880      64335800 
 5881              	.LASF69:
 5882 0572 64745363 		.ascii	"dtScrollThreshold3Y\000"
 5882      726F6C6C 
 5882      54687265 
 5882      73686F6C 
 5882      64335900 
 5883              	.LASF207:
ARM GAS  C:\Users\Mahrukh\AppData\Local\Temp\ccgflWoc.s 			page 140


 5884 0586 74687265 		.ascii	"thresholds\000"
 5884      73686F6C 
 5884      647300
 5885              	.LASF161:
 5886 0591 736E734C 		.ascii	"snsList\000"
 5886      69737400 
 5887              	.LASF212:
 5888 0599 72657375 		.ascii	"result\000"
 5888      6C7400
 5889              	.LASF255:
 5890 05a0 43617053 		.ascii	"CapSense_DpCalcLinearCentroid\000"
 5890      656E7365 
 5890      5F447043 
 5890      616C634C 
 5890      696E6561 
 5891              	.LASF11:
 5892 05be 6C6F6E67 		.ascii	"long long unsigned int\000"
 5892      206C6F6E 
 5892      6720756E 
 5892      7369676E 
 5892      65642069 
 5893              	.LASF82:
 5894 05d5 6474496E 		.ascii	"dtInScrCountLevel\000"
 5894      53637243 
 5894      6F756E74 
 5894      4C657665 
 5894      6C00
 5895              	.LASF120:
 5896 05e7 43617053 		.ascii	"CapSense_WD_MATRIX_BUTTON_E\000"
 5896      656E7365 
 5896      5F57445F 
 5896      4D415452 
 5896      49585F42 
 5897              	.LASF193:
 5898 0603 70747252 		.ascii	"ptrRegular\000"
 5898      6567756C 
 5898      617200
 5899              	.LASF166:
 5900 060e 736E7254 		.ascii	"snrTestSensorId\000"
 5900      65737453 
 5900      656E736F 
 5900      72496400 
 5901              	.LASF183:
 5902 061e 70747232 		.ascii	"ptr2NoiseEnvlp\000"
 5902      4E6F6973 
 5902      65456E76 
 5902      6C7000
 5903              	.LASF4:
 5904 062d 5F5F7569 		.ascii	"__uint16_t\000"
 5904      6E743136 
 5904      5F7400
 5905              	.LASF177:
 5906 0638 77646774 		.ascii	"wdgtType\000"
 5906      54797065 
 5906      00
 5907              	.LASF215:
 5908 0641 43617053 		.ascii	"CapSense_DpProcessCsxWidgetRawCounts\000"
ARM GAS  C:\Users\Mahrukh\AppData\Local\Temp\ccgflWoc.s 			page 141


 5908      656E7365 
 5908      5F447050 
 5908      726F6365 
 5908      73734373 
 5909              	.LASF66:
 5910 0666 64745363 		.ascii	"dtScrollThreshold4X\000"
 5910      726F6C6C 
 5910      54687265 
 5910      73686F6C 
 5910      64345800 
 5911              	.LASF70:
 5912 067a 64745363 		.ascii	"dtScrollThreshold4Y\000"
 5912      726F6C6C 
 5912      54687265 
 5912      73686F6C 
 5912      64345900 
 5913              	.LASF191:
 5914 068e 72656775 		.ascii	"regularChannel\000"
 5914      6C617243 
 5914      68616E6E 
 5914      656C00
 5915              	.LASF158:
 5916 069d 6D6F6443 		.ascii	"modCsdClk\000"
 5916      7364436C 
 5916      6B00
 5917              	.LASF146:
 5918 06a7 43617053 		.ascii	"CapSense_RAM_SNS_STRUCT\000"
 5918      656E7365 
 5918      5F52414D 
 5918      5F534E53 
 5918      5F535452 
 5919              	.LASF239:
 5920 06bf 74656D70 		.ascii	"tempPosition\000"
 5920      506F7369 
 5920      74696F6E 
 5920      00
 5921              	.LASF17:
 5922 06cc 73697A65 		.ascii	"size_t\000"
 5922      5F7400
 5923              	.LASF115:
 5924 06d3 67726F75 		.ascii	"group4End\000"
 5924      7034456E 
 5924      6400
 5925              	.LASF104:
 5926 06dd 5354436C 		.ascii	"STClickTimeoutMin\000"
 5926      69636B54 
 5926      696D656F 
 5926      75744D69 
 5926      6E00
 5927              	.LASF131:
 5928 06ef 73696750 		.ascii	"sigPFC\000"
 5928      464300
 5929              	.LASF41:
 5930 06f6 68797374 		.ascii	"hysteresis\000"
 5930      65726573 
 5930      697300
 5931              	.LASF119:
ARM GAS  C:\Users\Mahrukh\AppData\Local\Temp\ccgflWoc.s 			page 142


 5932 0701 43617053 		.ascii	"CapSense_WD_RADIAL_SLIDER_E\000"
 5932      656E7365 
 5932      5F57445F 
 5932      52414449 
 5932      414C5F53 
 5933              	.LASF194:
 5934 071d 43617053 		.ascii	"CapSense_PTR_FILTER_VARIANT\000"
 5934      656E7365 
 5934      5F505452 
 5934      5F46494C 
 5934      5445525F 
 5935              	.LASF186:
 5936 0739 43617053 		.ascii	"CapSense_FLASH_WD_STRUCT\000"
 5936      656E7365 
 5936      5F464C41 
 5936      53485F57 
 5936      445F5354 
 5937              	.LASF106:
 5938 0752 5354446F 		.ascii	"STDoubleClickTimeoutMin\000"
 5938      75626C65 
 5938      436C6963 
 5938      6B54696D 
 5938      656F7574 
 5939              	.LASF126:
 5940 076a 6C6F7742 		.ascii	"lowBslnRst\000"
 5940      736C6E52 
 5940      737400
 5941              	.LASF92:
 5942 0775 636F6D70 		.ascii	"completedDebounce\000"
 5942      6C657465 
 5942      64446562 
 5942      6F756E63 
 5942      6500
 5943              	.LASF76:
 5944 0787 64745363 		.ascii	"dtScrollToZoomDebounce\000"
 5944      726F6C6C 
 5944      546F5A6F 
 5944      6F6D4465 
 5944      626F756E 
 5945              	.LASF227:
 5946 079e 746F7563 		.ascii	"touchTh\000"
 5946      68546800 
 5947              	.LASF176:
 5948 07a6 746F7461 		.ascii	"totalNumSns\000"
 5948      6C4E756D 
 5948      536E7300 
 5949              	.LASF77:
 5950 07b2 7374496E 		.ascii	"stInScrActiveDistanceX\000"
 5950      53637241 
 5950      63746976 
 5950      65446973 
 5950      74616E63 
 5951              	.LASF78:
 5952 07c9 7374496E 		.ascii	"stInScrActiveDistanceY\000"
 5952      53637241 
 5952      63746976 
 5952      65446973 
ARM GAS  C:\Users\Mahrukh\AppData\Local\Temp\ccgflWoc.s 			page 143


 5952      74616E63 
 5953              	.LASF37:
 5954 07e0 534D4152 		.ascii	"SMARTSENSE_CSD_NOISE_ENVELOPE_STRUCT\000"
 5954      5453454E 
 5954      53455F43 
 5954      53445F4E 
 5954      4F495345 
 5955              	.LASF39:
 5956 0805 6E6F6973 		.ascii	"noiseTh\000"
 5956      65546800 
 5957              	.LASF21:
 5958 080d 63686172 		.ascii	"char\000"
 5958      00
 5959              	.LASF253:
 5960 0812 43795F53 		.ascii	"Cy_SysLib_AssertFailed\000"
 5960      79734C69 
 5960      625F4173 
 5960      73657274 
 5960      4661696C 
 5961              	.LASF219:
 5962 0829 43617053 		.ascii	"CapSense_DpProcessCsdWidgetRawCounts\000"
 5962      656E7365 
 5962      5F447050 
 5962      726F6365 
 5962      73734373 
 5963              	.LASF238:
 5964 084e 746F7563 		.ascii	"touchIdx\000"
 5964      68496478 
 5964      00
 5965              	.LASF114:
 5966 0857 67726F75 		.ascii	"group4Start\000"
 5966      70345374 
 5966      61727400 
 5967              	.LASF252:
 5968 0863 536D6172 		.ascii	"SmartSense_RunNoiseEnvelope\000"
 5968      7453656E 
 5968      73655F52 
 5968      756E4E6F 
 5968      69736545 
 5969              	.LASF25:
 5970 087f 75696E74 		.ascii	"uint16\000"
 5970      313600
 5971              	.LASF240:
 5972 0886 66696C74 		.ascii	"filteredPosition\000"
 5972      65726564 
 5972      506F7369 
 5972      74696F6E 
 5972      00
 5973              	.LASF124:
 5974 0897 7265736F 		.ascii	"resolution\000"
 5974      6C757469 
 5974      6F6E00
 5975              	.LASF13:
 5976 08a2 75696E74 		.ascii	"uint8_t\000"
 5976      385F7400 
 5977              	.LASF153:
 5978 08aa 73746174 		.ascii	"status\000"
ARM GAS  C:\Users\Mahrukh\AppData\Local\Temp\ccgflWoc.s 			page 144


 5978      757300
 5979              	.LASF29:
 5980 08b1 43617053 		.ascii	"CapSense_LOW_BSLN_RST_TYPE\000"
 5980      656E7365 
 5980      5F4C4F57 
 5980      5F42534C 
 5980      4E5F5253 
 5981              	.LASF222:
 5982 08cc 43617053 		.ascii	"CapSense_DpProcessButton\000"
 5982      656E7365 
 5982      5F447050 
 5982      726F6365 
 5982      73734275 
 5983              	.LASF85:
 5984 08e5 626F7474 		.ascii	"bottomAngleThreshold\000"
 5984      6F6D416E 
 5984      676C6554 
 5984      68726573 
 5984      686F6C64 
 5985              	.LASF228:
 5986 08fa 70747244 		.ascii	"ptrDebounceCnt\000"
 5986      65626F75 
 5986      6E636543 
 5986      6E7400
 5987              	.LASF62:
 5988 0909 73745363 		.ascii	"stScrollDebounce\000"
 5988      726F6C6C 
 5988      4465626F 
 5988      756E6365 
 5988      00
 5989              	.LASF145:
 5990 091a 69646163 		.ascii	"idacComp\000"
 5990      436F6D70 
 5990      00
 5991              	.LASF87:
 5992 0923 53545061 		.ascii	"STPanDebounce\000"
 5992      6E446562 
 5992      6F756E63 
 5992      6500
 5993              	.LASF178:
 5994 0931 73656E73 		.ascii	"senseMethod\000"
 5994      654D6574 
 5994      686F6400 
 5995              	.LASF86:
 5996 093d 77696474 		.ascii	"widthOfDisambiguation\000"
 5996      684F6644 
 5996      6973616D 
 5996      62696775 
 5996      6174696F 
 5997              	.LASF10:
 5998 0953 6C6F6E67 		.ascii	"long long int\000"
 5998      206C6F6E 
 5998      6720696E 
 5998      7400
 5999              	.LASF179:
 6000 0961 6E756D43 		.ascii	"numCols\000"
 6000      6F6C7300 
ARM GAS  C:\Users\Mahrukh\AppData\Local\Temp\ccgflWoc.s 			page 145


 6001              	.LASF125:
 6002 0969 6F6E4465 		.ascii	"onDebounce\000"
 6002      626F756E 
 6002      636500
 6003              	.LASF206:
 6004 0974 73746172 		.ascii	"startFlag\000"
 6004      74466C61 
 6004      6700
 6005              	.LASF160:
 6006 097e 77646774 		.ascii	"wdgtList\000"
 6006      4C697374 
 6006      00
 6007              	.LASF188:
 6008 0987 43617053 		.ascii	"CapSense_FLASH_STRUCT\000"
 6008      656E7365 
 6008      5F464C41 
 6008      53485F53 
 6008      54525543 
 6009              	.LASF197:
 6010 099d 70747257 		.ascii	"ptrWdSlider\000"
 6010      64536C69 
 6010      64657200 
 6011              	.LASF246:
 6012 09a9 43617053 		.ascii	"CapSense_dsRam\000"
 6012      656E7365 
 6012      5F647352 
 6012      616D00
 6013              	.LASF168:
 6014 09b8 736E7254 		.ascii	"snrTestRawCount\000"
 6014      65737452 
 6014      6177436F 
 6014      756E7400 
 6015              	.LASF249:
 6016 09c8 6D656D73 		.ascii	"memset\000"
 6016      657400
 6017              	.LASF40:
 6018 09cf 6E4E6F69 		.ascii	"nNoiseTh\000"
 6018      73655468 
 6018      00
 6019              	.LASF157:
 6020 09d8 63736430 		.ascii	"csd0Config\000"
 6020      436F6E66 
 6020      696700
 6021              	.LASF94:
 6022 09e3 636C6963 		.ascii	"clickRadiusX\000"
 6022      6B526164 
 6022      69757358 
 6022      00
 6023              	.LASF95:
 6024 09f0 636C6963 		.ascii	"clickRadiusY\000"
 6024      6B526164 
 6024      69757359 
 6024      00
 6025              	.LASF133:
 6026 09fd 43617053 		.ascii	"CapSense_RAM_WD_BASE_STRUCT\000"
 6026      656E7365 
 6026      5F52414D 
ARM GAS  C:\Users\Mahrukh\AppData\Local\Temp\ccgflWoc.s 			page 146


 6026      5F57445F 
 6026      42415345 
 6027              	.LASF123:
 6028 0a19 43617053 		.ascii	"CapSense_WD_TYPE_ENUM\000"
 6028      656E7365 
 6028      5F57445F 
 6028      54595045 
 6028      5F454E55 
 6029              	.LASF231:
 6030 0a2f 73656E73 		.ascii	"sensorStatus\000"
 6030      6F725374 
 6030      61747573 
 6030      00
 6031              	.LASF43:
 6032 0a3c 73697A65 		.ascii	"size\000"
 6032      00
 6033              	.LASF132:
 6034 0a41 67657374 		.ascii	"gestureId\000"
 6034      75726549 
 6034      6400
 6035              	.LASF26:
 6036 0a4b 75696E74 		.ascii	"uint32\000"
 6036      333200
 6037              	.LASF235:
 6038 0a52 44705570 		.ascii	"DpUpdateLinSlider\000"
 6038      64617465 
 6038      4C696E53 
 6038      6C696465 
 6038      7200
 6039              	.LASF173:
 6040 0a64 70747232 		.ascii	"ptr2FltrHistory\000"
 6040      466C7472 
 6040      48697374 
 6040      6F727900 
 6041              	.LASF118:
 6042 0a74 43617053 		.ascii	"CapSense_WD_LINEAR_SLIDER_E\000"
 6042      656E7365 
 6042      5F57445F 
 6042      4C494E45 
 6042      41525F53 
 6043              	.LASF108:
 6044 0a90 67726F75 		.ascii	"group1Start\000"
 6044      70315374 
 6044      61727400 
 6045              	.LASF232:
 6046 0a9c 77645374 		.ascii	"wdStatusIndex\000"
 6046      61747573 
 6046      496E6465 
 6046      7800
 6047              	.LASF242:
 6048 0aaa 43617053 		.ascii	"CapSense_DpProcessSlider\000"
 6048      656E7365 
 6048      5F447050 
 6048      726F6365 
 6048      7373536C 
 6049              	.LASF109:
 6050 0ac3 67726F75 		.ascii	"group1End\000"
ARM GAS  C:\Users\Mahrukh\AppData\Local\Temp\ccgflWoc.s 			page 147


 6050      7031456E 
 6050      6400
 6051              	.LASF88:
 6052 0acd 44545061 		.ascii	"DTPanDebounce\000"
 6052      6E446562 
 6052      6F756E63 
 6052      6500
 6053              	.LASF198:
 6054 0adb 70747248 		.ascii	"ptrHistory\000"
 6054      6973746F 
 6054      727900
 6055              	.LASF213:
 6056 0ae6 736E7343 		.ascii	"snsCount\000"
 6056      6F756E74 
 6056      00
 6057              	.LASF236:
 6058 0aef 6E657750 		.ascii	"newPos\000"
 6058      6F7300
 6059              	.LASF18:
 6060 0af6 6C6F6E67 		.ascii	"long double\000"
 6060      20646F75 
 6060      626C6500 
 6061              	.LASF201:
 6062 0b02 70747252 		.ascii	"ptrRamWdgt\000"
 6062      616D5764 
 6062      677400
 6063              	.LASF225:
 6064 0b0d 736E734D 		.ascii	"snsMask\000"
 6064      61736B00 
 6065              	.LASF167:
 6066 0b15 736E7254 		.ascii	"snrTestScanCounter\000"
 6066      65737453 
 6066      63616E43 
 6066      6F756E74 
 6066      657200
 6067              	.LASF148:
 6068 0b28 636F6E66 		.ascii	"configId\000"
 6068      69674964 
 6068      00
 6069              	.LASF172:
 6070 0b31 70747232 		.ascii	"ptr2SnsRam\000"
 6070      536E7352 
 6070      616D00
 6071              	.LASF102:
 6072 0b3c 4454436C 		.ascii	"DTClickTimeoutMin\000"
 6072      69636B54 
 6072      696D656F 
 6072      75744D69 
 6072      6E00
 6073              	.LASF156:
 6074 0b4e 736E7353 		.ascii	"snsStatus\000"
 6074      74617475 
 6074      7300
 6075              	.LASF58:
 6076 0b58 73745363 		.ascii	"stScrollStep1\000"
 6076      726F6C6C 
 6076      53746570 
ARM GAS  C:\Users\Mahrukh\AppData\Local\Temp\ccgflWoc.s 			page 148


 6076      3100
 6077              	.LASF129:
 6078 0b66 736E7343 		.ascii	"snsClkSource\000"
 6078      6C6B536F 
 6078      75726365 
 6078      00
 6079              	.LASF181:
 6080 0b73 78526573 		.ascii	"xResolution\000"
 6080      6F6C7574 
 6080      696F6E00 
 6081              	.LASF71:
 6082 0b7f 64745363 		.ascii	"dtScrollStep1\000"
 6082      726F6C6C 
 6082      53746570 
 6082      3100
 6083              	.LASF72:
 6084 0b8d 64745363 		.ascii	"dtScrollStep2\000"
 6084      726F6C6C 
 6084      53746570 
 6084      3200
 6085              	.LASF73:
 6086 0b9b 64745363 		.ascii	"dtScrollStep3\000"
 6086      726F6C6C 
 6086      53746570 
 6086      3300
 6087              	.LASF74:
 6088 0ba9 64745363 		.ascii	"dtScrollStep4\000"
 6088      726F6C6C 
 6088      53746570 
 6088      3400
 6089              	.LASF2:
 6090 0bb7 73686F72 		.ascii	"short int\000"
 6090      7420696E 
 6090      7400
 6091              	.LASF169:
 6092 0bc1 43617053 		.ascii	"CapSense_RAM_STRUCT\000"
 6092      656E7365 
 6092      5F52414D 
 6092      5F535452 
 6092      55435400 
 6093              	.LASF192:
 6094 0bd5 43617053 		.ascii	"CapSense_REGULAR_FLTR_STRUCT\000"
 6094      656E7365 
 6094      5F524547 
 6094      554C4152 
 6094      5F464C54 
 6095              	.LASF241:
 6096 0bf2 66696C74 		.ascii	"filterConfig\000"
 6096      6572436F 
 6096      6E666967 
 6096      00
 6097              	.LASF7:
 6098 0bff 6C6F6E67 		.ascii	"long int\000"
 6098      20696E74 
 6098      00
 6099              	.LASF245:
 6100 0c08 49544D5F 		.ascii	"ITM_RxBuffer\000"
ARM GAS  C:\Users\Mahrukh\AppData\Local\Temp\ccgflWoc.s 			page 149


 6100      52784275 
 6100      66666572 
 6100      00
 6101              	.LASF42:
 6102 0c15 534D4152 		.ascii	"SMARTSENSE_UPDATE_THRESHOLDS_STRUCT\000"
 6102      5453454E 
 6102      53455F55 
 6102      50444154 
 6102      455F5448 
 6103              	.LASF243:
 6104 0c39 746F7563 		.ascii	"touchCnt\000"
 6104      68436E74 
 6104      00
 6105              	.LASF143:
 6106 0c42 64696666 		.ascii	"diff\000"
 6106      00
 6107              	.LASF20:
 6108 0c47 63686172 		.ascii	"char_t\000"
 6108      5F7400
 6109              	.LASF137:
 6110 0c4e 62757474 		.ascii	"button0\000"
 6110      6F6E3000 
 6111              	.LASF138:
 6112 0c56 62757474 		.ascii	"button1\000"
 6112      6F6E3100 
 6113              	.LASF220:
 6114 0c5e 736E7349 		.ascii	"snsId\000"
 6114      6400
 6115              	.LASF117:
 6116 0c64 43617053 		.ascii	"CapSense_WD_BUTTON_E\000"
 6116      656E7365 
 6116      5F57445F 
 6116      42555454 
 6116      4F4E5F45 
 6117              	.LASF190:
 6118 0c79 43617053 		.ascii	"CapSense_REGULAR_FLTR_CHANNEL_STRUCT\000"
 6118      656E7365 
 6118      5F524547 
 6118      554C4152 
 6118      5F464C54 
 6119              	.LASF214:
 6120 0c9e 70747253 		.ascii	"ptrSnsTmp\000"
 6120      6E73546D 
 6120      7000
 6121              	.LASF38:
 6122 0ca8 66696E67 		.ascii	"fingerTh\000"
 6122      65725468 
 6122      00
 6123              	.LASF113:
 6124 0cb1 67726F75 		.ascii	"group3End\000"
 6124      7033456E 
 6124      6400
 6125              	.LASF3:
 6126 0cbb 5F5F7569 		.ascii	"__uint8_t\000"
 6126      6E74385F 
 6126      7400
 6127              	.LASF112:
ARM GAS  C:\Users\Mahrukh\AppData\Local\Temp\ccgflWoc.s 			page 150


 6128 0cc5 67726F75 		.ascii	"group3Start\000"
 6128      70335374 
 6128      61727400 
 6129              	.LASF247:
 6130 0cd1 43617053 		.ascii	"CapSense_dsFlash\000"
 6130      656E7365 
 6130      5F647346 
 6130      6C617368 
 6130      00
 6131              	.LASF130:
 6132 0ce2 66696E67 		.ascii	"fingerCap\000"
 6132      65724361 
 6132      7000
 6133              	.LASF155:
 6134 0cec 77646774 		.ascii	"wdgtStatus\000"
 6134      53746174 
 6134      757300
 6135              	.LASF154:
 6136 0cf7 77646774 		.ascii	"wdgtEnable\000"
 6136      456E6162 
 6136      6C6500
 6137              	.LASF136:
 6138 0d02 43617053 		.ascii	"CapSense_RAM_WD_SLIDER_STRUCT\000"
 6138      656E7365 
 6138      5F52414D 
 6138      5F57445F 
 6138      534C4944 
 6139              	.LASF116:
 6140 0d20 43617053 		.ascii	"CapSense_TMG_CONFIG_STRUCT\000"
 6140      656E7365 
 6140      5F544D47 
 6140      5F434F4E 
 6140      4649475F 
 6141              	.LASF19:
 6142 0d3b 73697A65 		.ascii	"sizetype\000"
 6142      74797065 
 6142      00
 6143              	.LASF9:
 6144 0d44 6C6F6E67 		.ascii	"long unsigned int\000"
 6144      20756E73 
 6144      69676E65 
 6144      6420696E 
 6144      7400
 6145              	.LASF127:
 6146 0d56 69646163 		.ascii	"idacMod\000"
 6146      4D6F6400 
 6147              	.LASF50:
 6148 0d5e 73745363 		.ascii	"stScrollThreshold1X\000"
 6148      726F6C6C 
 6148      54687265 
 6148      73686F6C 
 6148      64315800 
 6149              	.LASF174:
 6150 0d72 70747232 		.ascii	"ptr2DebounceArr\000"
 6150      4465626F 
 6150      756E6365 
 6150      41727200 
ARM GAS  C:\Users\Mahrukh\AppData\Local\Temp\ccgflWoc.s 			page 151


 6151              	.LASF97:
 6152 0d82 7265736F 		.ascii	"resolutionX\000"
 6152      6C757469 
 6152      6F6E5800 
 6153              	.LASF98:
 6154 0d8e 7265736F 		.ascii	"resolutionY\000"
 6154      6C757469 
 6154      6F6E5900 
 6155              	.LASF182:
 6156 0d9a 7843656E 		.ascii	"xCentroidMultiplier\000"
 6156      74726F69 
 6156      644D756C 
 6156      7469706C 
 6156      69657200 
 6157              	.LASF151:
 6158 0dae 74756E65 		.ascii	"tunerCmd\000"
 6158      72436D64 
 6158      00
 6159              	.LASF142:
 6160 0db7 62736C6E 		.ascii	"bslnExt\000"
 6160      45787400 
 6161              	.LASF184:
 6162 0dbf 70747232 		.ascii	"ptr2PosHistory\000"
 6162      506F7348 
 6162      6973746F 
 6162      727900
 6163              	.LASF134:
 6164 0dce 43617053 		.ascii	"CapSense_RAM_WD_BUTTON_STRUCT\000"
 6164      656E7365 
 6164      5F52414D 
 6164      5F57445F 
 6164      42555454 
 6165              	.LASF237:
 6166 0dec 6E756D54 		.ascii	"numTouches\000"
 6166      6F756368 
 6166      657300
 6167              	.LASF103:
 6168 0df7 5354436C 		.ascii	"STClickTimeoutMax\000"
 6168      69636B54 
 6168      696D656F 
 6168      75744D61 
 6168      7800
 6169              	.LASF14:
 6170 0e09 75696E74 		.ascii	"uint16_t\000"
 6170      31365F74 
 6170      00
 6171              	.LASF1:
 6172 0e12 756E7369 		.ascii	"unsigned char\000"
 6172      676E6564 
 6172      20636861 
 6172      7200
 6173              	.LASF233:
 6174 0e20 77645374 		.ascii	"wdStatusMask\000"
 6174      61747573 
 6174      4D61736B 
 6174      00
 6175              	.LASF8:
ARM GAS  C:\Users\Mahrukh\AppData\Local\Temp\ccgflWoc.s 			page 152


 6176 0e2d 5F5F7569 		.ascii	"__uint32_t\000"
 6176      6E743332 
 6176      5F7400
 6177              	.LASF202:
 6178 0e38 70747246 		.ascii	"ptrFlashWdgt\000"
 6178      6C617368 
 6178      57646774 
 6178      00
 6179              	.LASF162:
 6180 0e45 67657374 		.ascii	"gestures\000"
 6180      75726573 
 6180      00
 6181              	.LASF175:
 6182 0e4e 73746174 		.ascii	"staticConfig\000"
 6182      6963436F 
 6182      6E666967 
 6182      00
 6183              	.LASF159:
 6184 0e5b 6D6F6443 		.ascii	"modCsxClk\000"
 6184      7378436C 
 6184      6B00
 6185              	.LASF105:
 6186 0e65 5354446F 		.ascii	"STDoubleClickTimeoutMax\000"
 6186      75626C65 
 6186      436C6963 
 6186      6B54696D 
 6186      656F7574 
 6187              	.LASF171:
 6188 0e7d 70747232 		.ascii	"ptr2WdgtRam\000"
 6188      57646774 
 6188      52616D00 
 6189              	.LASF28:
 6190 0e89 43617053 		.ascii	"CapSense_THRESHOLD_TYPE\000"
 6190      656E7365 
 6190      5F544852 
 6190      4553484F 
 6190      4C445F54 
 6191              	.LASF180:
 6192 0ea1 6E756D52 		.ascii	"numRows\000"
 6192      6F777300 
 6193              	.LASF258:
 6194 0ea9 433A5C55 		.ascii	"C:\\Users\\Mahrukh\\OneDrive\\Documents\\ESSAI_3\\L"
 6194      73657273 
 6194      5C4D6168 
 6194      72756B68 
 6194      5C4F6E65 
 6195 0ed6 61626F72 		.ascii	"aboratoire3.cydsn\000"
 6195      61746F69 
 6195      7265332E 
 6195      63796473 
 6195      6E00
 6196              	.LASF139:
 6197 0ee8 6C696E65 		.ascii	"linearslider0\000"
 6197      6172736C 
 6197      69646572 
 6197      3000
 6198              	.LASF223:
ARM GAS  C:\Users\Mahrukh\AppData\Local\Temp\ccgflWoc.s 			page 153


 6199 0ef6 63757272 		.ascii	"currStatus\000"
 6199      53746174 
 6199      757300
 6200              	.LASF164:
 6201 0f01 74696D65 		.ascii	"timestamp\000"
 6201      7374616D 
 6201      7000
 6202              	.LASF128:
 6203 0f0b 736E7343 		.ascii	"snsClk\000"
 6203      6C6B00
 6204              	.LASF234:
 6205 0f12 43617053 		.ascii	"CapSense_DpInitSlider\000"
 6205      656E7365 
 6205      5F447049 
 6205      6E697453 
 6205      6C696465 
 6206              	.LASF248:
 6207 0f28 43617053 		.ascii	"CapSense_InitPosFiltersSd\000"
 6207      656E7365 
 6207      5F496E69 
 6207      74506F73 
 6207      46696C74 
 6208              	.LASF0:
 6209 0f42 7369676E 		.ascii	"signed char\000"
 6209      65642063 
 6209      68617200 
 6210              	.LASF83:
 6211 0f4e 65646765 		.ascii	"edgeSwipeActiveDistance\000"
 6211      53776970 
 6211      65416374 
 6211      69766544 
 6211      69737461 
 6212              	.LASF84:
 6213 0f66 746F7041 		.ascii	"topAngleThreshold\000"
 6213      6E676C65 
 6213      54687265 
 6213      73686F6C 
 6213      6400
 6214              	.LASF5:
 6215 0f78 73686F72 		.ascii	"short unsigned int\000"
 6215      7420756E 
 6215      7369676E 
 6215      65642069 
 6215      6E7400
 6216              	.LASF229:
 6217 0f8b 43617053 		.ascii	"CapSense_DpProcessCsxWidgetStatus\000"
 6217      656E7365 
 6217      5F447050 
 6217      726F6365 
 6217      73734373 
 6218              	.LASF89:
 6219 0fad 44545A6F 		.ascii	"DTZoomDebounce\000"
 6219      6F6D4465 
 6219      626F756E 
 6219      636500
 6220              	.LASF170:
 6221 0fbc 70747232 		.ascii	"ptr2SnsFlash\000"
ARM GAS  C:\Users\Mahrukh\AppData\Local\Temp\ccgflWoc.s 			page 154


 6221      536E7346 
 6221      6C617368 
 6221      00
 6222              	.LASF54:
 6223 0fc9 73745363 		.ascii	"stScrollThreshold1Y\000"
 6223      726F6C6C 
 6223      54687265 
 6223      73686F6C 
 6223      64315900 
 6224              	.LASF189:
 6225 0fdd 6E6F7455 		.ascii	"notUsed\000"
 6225      73656400 
 6226              	.LASF24:
 6227 0fe5 75696E74 		.ascii	"uint8\000"
 6227      3800
 6228              	.LASF23:
 6229 0feb 646F7562 		.ascii	"double\000"
 6229      6C6500
 6230              	.LASF91:
 6231 0ff2 726F7461 		.ascii	"rotateDebounce\000"
 6231      74654465 
 6231      626F756E 
 6231      636500
 6232              	.LASF144:
 6233 1001 6E656742 		.ascii	"negBslnRstCnt\000"
 6233      736C6E52 
 6233      7374436E 
 6233      7400
 6234              	.LASF200:
 6235 100f 77696467 		.ascii	"widgetType\000"
 6235      65745479 
 6235      706500
 6236              	.LASF30:
 6237 101a 70617261 		.ascii	"param0\000"
 6237      6D3000
 6238              	.LASF31:
 6239 1021 70617261 		.ascii	"param1\000"
 6239      6D3100
 6240              	.LASF32:
 6241 1028 70617261 		.ascii	"param2\000"
 6241      6D3200
 6242              	.LASF33:
 6243 102f 70617261 		.ascii	"param3\000"
 6243      6D3300
 6244              	.LASF34:
 6245 1036 70617261 		.ascii	"param4\000"
 6245      6D3400
 6246              	.LASF35:
 6247 103d 70617261 		.ascii	"param5\000"
 6247      6D3500
 6248              	.LASF36:
 6249 1044 70617261 		.ascii	"param6\000"
 6249      6D3600
 6250              	.LASF149:
 6251 104b 64657669 		.ascii	"deviceId\000"
 6251      63654964 
 6251      00
ARM GAS  C:\Users\Mahrukh\AppData\Local\Temp\ccgflWoc.s 			page 155


 6252              	.LASF230:
 6253 1054 77696467 		.ascii	"widgetId\000"
 6253      65744964 
 6253      00
 6254              	.LASF135:
 6255 105d 706F7369 		.ascii	"position\000"
 6255      74696F6E 
 6255      00
 6256              	.LASF147:
 6257 1066 43617053 		.ascii	"CapSense_RAM_SNS_LIST_STRUCT\000"
 6257      656E7365 
 6257      5F52414D 
 6257      5F534E53 
 6257      5F4C4953 
 6258              	.LASF51:
 6259 1083 73745363 		.ascii	"stScrollThreshold2X\000"
 6259      726F6C6C 
 6259      54687265 
 6259      73686F6C 
 6259      64325800 
 6260              	.LASF55:
 6261 1097 73745363 		.ascii	"stScrollThreshold2Y\000"
 6261      726F6C6C 
 6261      54687265 
 6261      73686F6C 
 6261      64325900 
 6262              	.LASF187:
 6263 10ab 77646774 		.ascii	"wdgtArray\000"
 6263      41727261 
 6263      7900
 6264              		.ident	"GCC: (GNU Tools for ARM Embedded Processors) 5.4.1 20160609 (release) [ARM/embedded-5-bran
