ARM GAS  C:\Users\Mahrukh\AppData\Local\Temp\ccJcQtli.s 			page 1


   1              		.syntax unified
   2              		.cpu cortex-m4
   3              		.eabi_attribute 27, 1
   4              		.fpu fpv4-sp-d16
   5              		.eabi_attribute 20, 1
   6              		.eabi_attribute 21, 1
   7              		.eabi_attribute 23, 3
   8              		.eabi_attribute 24, 1
   9              		.eabi_attribute 25, 1
  10              		.eabi_attribute 26, 1
  11              		.eabi_attribute 30, 1
  12              		.eabi_attribute 34, 1
  13              		.eabi_attribute 18, 4
  14              		.thumb
  15              		.syntax unified
  16              		.file	"DISPLAY.c"
  17              		.text
  18              	.Ltext0:
  19              		.cfi_sections	.debug_frame
  20              		.section	.text.UpdateDisplay,"ax",%progbits
  21              		.align	2
  22              		.global	UpdateDisplay
  23              		.thumb
  24              		.thumb_func
  25              		.type	UpdateDisplay, %function
  26              	UpdateDisplay:
  27              	.LFB604:
  28              		.file 1 "DISPLAY.c"
   1:DISPLAY.c     **** /* ========================================
   2:DISPLAY.c     ****  *
   3:DISPLAY.c     ****  * Copyright YOUR COMPANY, THE YEAR
   4:DISPLAY.c     ****  * All Rights Reserved
   5:DISPLAY.c     ****  * UNPUBLISHED, LICENSED SOFTWARE.
   6:DISPLAY.c     ****  *
   7:DISPLAY.c     ****  * CONFIDENTIAL AND PROPRIETARY INFORMATION
   8:DISPLAY.c     ****  * WHICH IS THE PROPERTY OF your company.
   9:DISPLAY.c     ****  *
  10:DISPLAY.c     ****  * ========================================
  11:DISPLAY.c     **** 
  12:DISPLAY.c     **** 
  13:DISPLAY.c     **** */
  14:DISPLAY.c     **** 
  15:DISPLAY.c     **** #include "CAPSENS.h"
  16:DISPLAY.c     **** #include "DISPLAY.h"
  17:DISPLAY.c     **** 
  18:DISPLAY.c     **** // Notons que nous n'avons pas d√©clar√© certaines fonctions de ce fichier dans le HEADERFILE DISPL
  19:DISPLAY.c     **** // utilit√©s n'est que dans le pr√©sent fichier. 
  20:DISPLAY.c     **** // Le principe de ma t√¢che d'affichage s'appuie sur les FLAGS. En effet, ayant en m√©moire la page
  21:DISPLAY.c     **** // et le bouton appuy√©e, il est possible de d√©terminer quel page il faudra afficher. Pour all√©ge
  22:DISPLAY.c     **** // qui permettent d'afficher les diff√©rentes page de mon interface. 
  23:DISPLAY.c     **** 
  24:DISPLAY.c     **** // Fonction qui permet de rafra√Æchir les modifications apport√©es √† l'√©cran 
  25:DISPLAY.c     **** void UpdateDisplay(cy_eink_update_t updateMethod, bool powerCycle)
  26:DISPLAY.c     **** {
  29              		.loc 1 26 0
  30              		.cfi_startproc
  31              		@ args = 0, pretend = 0, frame = 0
ARM GAS  C:\Users\Mahrukh\AppData\Local\Temp\ccJcQtli.s 			page 2


  32              		@ frame_needed = 0, uses_anonymous_args = 0
  33              	.LVL0:
  34 0000 F8B5     		push	{r3, r4, r5, r6, r7, lr}
  35              		.cfi_def_cfa_offset 24
  36              		.cfi_offset 3, -24
  37              		.cfi_offset 4, -20
  38              		.cfi_offset 5, -16
  39              		.cfi_offset 6, -12
  40              		.cfi_offset 7, -8
  41              		.cfi_offset 14, -4
  42 0002 0646     		mov	r6, r0
  43 0004 0F46     		mov	r7, r1
  27:DISPLAY.c     ****     cy_eink_frame_t* pEmwinBuffer;
  28:DISPLAY.c     ****     /* Get the pointer to Emwin's display buffer */
  29:DISPLAY.c     ****    pEmwinBuffer = (cy_eink_frame_t*)LCD_GetDisplayBuffer();
  44              		.loc 1 29 0
  45 0006 FFF7FEFF 		bl	LCD_GetDisplayBuffer
  46              	.LVL1:
  47 000a 0546     		mov	r5, r0
  48              	.LVL2:
  30:DISPLAY.c     ****     /* Update the EInk display */
  31:DISPLAY.c     ****     Cy_EINK_ShowFrame(imageBufferCache, pEmwinBuffer, updateMethod, powerCycle);
  49              		.loc 1 31 0
  50 000c 064C     		ldr	r4, .L3
  51 000e 3B46     		mov	r3, r7
  52 0010 3246     		mov	r2, r6
  53 0012 0146     		mov	r1, r0
  54 0014 2046     		mov	r0, r4
  55              	.LVL3:
  56 0016 FFF7FEFF 		bl	Cy_EINK_ShowFrame
  57              	.LVL4:
  32:DISPLAY.c     ****     /* Copy the EmWin display buffer to the imageBuffer cache*/
  33:DISPLAY.c     ****     memcpy(imageBufferCache, pEmwinBuffer, CY_EINK_FRAME_SIZE);
  58              		.loc 1 33 0
  59 001a 41F2B062 		movw	r2, #5808
  60 001e 2946     		mov	r1, r5
  61 0020 2046     		mov	r0, r4
  62 0022 FFF7FEFF 		bl	memcpy
  63              	.LVL5:
  64 0026 F8BD     		pop	{r3, r4, r5, r6, r7, pc}
  65              	.LVL6:
  66              	.L4:
  67              		.align	2
  68              	.L3:
  69 0028 00000000 		.word	imageBufferCache
  70              		.cfi_endproc
  71              	.LFE604:
  72              		.size	UpdateDisplay, .-UpdateDisplay
  73              		.section	.text.maximum_1,"ax",%progbits
  74              		.align	2
  75              		.global	maximum_1
  76              		.thumb
  77              		.thumb_func
  78              		.type	maximum_1, %function
  79              	maximum_1:
  80              	.LFB605:
  34:DISPLAY.c     **** }
ARM GAS  C:\Users\Mahrukh\AppData\Local\Temp\ccJcQtli.s 			page 3


  35:DISPLAY.c     **** 
  36:DISPLAY.c     **** //Fonctions qui permet de d√©terminer le maximum d'un vecteur de type uint32_t de taille n
  37:DISPLAY.c     **** uint32_t maximum_1(uint32_t arr[], int n){   
  81              		.loc 1 37 0
  82              		.cfi_startproc
  83              		@ args = 0, pretend = 0, frame = 0
  84              		@ frame_needed = 0, uses_anonymous_args = 0
  85              		@ link register save eliminated.
  86              	.LVL7:
  87 0000 10B4     		push	{r4}
  88              		.cfi_def_cfa_offset 4
  89              		.cfi_offset 4, -4
  90 0002 0446     		mov	r4, r0
  38:DISPLAY.c     ****     int i;
  39:DISPLAY.c     ****     // Initialize maximum element
  40:DISPLAY.c     ****     uint32_t max = arr[0];
  91              		.loc 1 40 0
  92 0004 0068     		ldr	r0, [r0]
  93              	.LVL8:
  41:DISPLAY.c     ****     // Traverse array elements from second and
  42:DISPLAY.c     ****     // compare every element with current max 
  43:DISPLAY.c     ****     for (i = 1; i < n; i++){
  94              		.loc 1 43 0
  95 0006 0123     		movs	r3, #1
  96 0008 05E0     		b	.L6
  97              	.LVL9:
  98              	.L8:
  44:DISPLAY.c     ****         if (arr[i] > max){
  99              		.loc 1 44 0
 100 000a 54F82320 		ldr	r2, [r4, r3, lsl #2]
 101 000e 9042     		cmp	r0, r2
 102 0010 00D2     		bcs	.L7
  45:DISPLAY.c     ****             max = arr[i];}}
 103              		.loc 1 45 0
 104 0012 1046     		mov	r0, r2
 105              	.LVL10:
 106              	.L7:
  43:DISPLAY.c     ****         if (arr[i] > max){
 107              		.loc 1 43 0 discriminator 2
 108 0014 0133     		adds	r3, r3, #1
 109              	.LVL11:
 110              	.L6:
  43:DISPLAY.c     ****         if (arr[i] > max){
 111              		.loc 1 43 0 is_stmt 0 discriminator 1
 112 0016 8B42     		cmp	r3, r1
 113 0018 F7DB     		blt	.L8
  46:DISPLAY.c     ****     return max;
  47:DISPLAY.c     **** }
 114              		.loc 1 47 0 is_stmt 1
 115 001a 5DF8044B 		ldr	r4, [sp], #4
 116              		.cfi_restore 4
 117              		.cfi_def_cfa_offset 0
 118              	.LVL12:
 119 001e 7047     		bx	lr
 120              		.cfi_endproc
 121              	.LFE605:
 122              		.size	maximum_1, .-maximum_1
ARM GAS  C:\Users\Mahrukh\AppData\Local\Temp\ccJcQtli.s 			page 4


 123              		.section	.text.minimum_1,"ax",%progbits
 124              		.align	2
 125              		.global	minimum_1
 126              		.thumb
 127              		.thumb_func
 128              		.type	minimum_1, %function
 129              	minimum_1:
 130              	.LFB606:
  48:DISPLAY.c     **** //Fonctions qui permet de d√©terminer le minimum d'un vecteur de type uint32_t de taille n
  49:DISPLAY.c     **** uint32_t minimum_1(uint32_t arr[], int n)      
  50:DISPLAY.c     **** {
 131              		.loc 1 50 0
 132              		.cfi_startproc
 133              		@ args = 0, pretend = 0, frame = 0
 134              		@ frame_needed = 0, uses_anonymous_args = 0
 135              		@ link register save eliminated.
 136              	.LVL13:
 137 0000 10B4     		push	{r4}
 138              		.cfi_def_cfa_offset 4
 139              		.cfi_offset 4, -4
 140 0002 0446     		mov	r4, r0
  51:DISPLAY.c     ****     int i;
  52:DISPLAY.c     ****     // Initialize maximum element
  53:DISPLAY.c     ****     uint32_t min = arr[0];
 141              		.loc 1 53 0
 142 0004 0068     		ldr	r0, [r0]
 143              	.LVL14:
  54:DISPLAY.c     ****     // Traverse array elements from second and
  55:DISPLAY.c     ****     // compare every element with current max 
  56:DISPLAY.c     ****     for (i = 1; i < n; i++){
 144              		.loc 1 56 0
 145 0006 0123     		movs	r3, #1
 146 0008 05E0     		b	.L12
 147              	.LVL15:
 148              	.L14:
  57:DISPLAY.c     ****         if (arr[i] < min){
 149              		.loc 1 57 0
 150 000a 54F82320 		ldr	r2, [r4, r3, lsl #2]
 151 000e 9042     		cmp	r0, r2
 152 0010 00D9     		bls	.L13
  58:DISPLAY.c     ****             min = arr[i];}}
 153              		.loc 1 58 0
 154 0012 1046     		mov	r0, r2
 155              	.LVL16:
 156              	.L13:
  56:DISPLAY.c     ****         if (arr[i] < min){
 157              		.loc 1 56 0 discriminator 2
 158 0014 0133     		adds	r3, r3, #1
 159              	.LVL17:
 160              	.L12:
  56:DISPLAY.c     ****         if (arr[i] < min){
 161              		.loc 1 56 0 is_stmt 0 discriminator 1
 162 0016 8B42     		cmp	r3, r1
 163 0018 F7DB     		blt	.L14
  59:DISPLAY.c     ****     return min;
  60:DISPLAY.c     **** }
 164              		.loc 1 60 0 is_stmt 1
ARM GAS  C:\Users\Mahrukh\AppData\Local\Temp\ccJcQtli.s 			page 5


 165 001a 5DF8044B 		ldr	r4, [sp], #4
 166              		.cfi_restore 4
 167              		.cfi_def_cfa_offset 0
 168              	.LVL18:
 169 001e 7047     		bx	lr
 170              		.cfi_endproc
 171              	.LFE606:
 172              		.size	minimum_1, .-minimum_1
 173              		.section	.text.drawGraph,"ax",%progbits
 174              		.align	2
 175              		.global	drawGraph
 176              		.thumb
 177              		.thumb_func
 178              		.type	drawGraph, %function
 179              	drawGraph:
 180              	.LFB607:
  61:DISPLAY.c     **** // Fonction qui permet d'afficher la courbe d'absoprtion voulue √† partir du signal filtr√© par l'e
  62:DISPLAY.c     **** // du traitement de signal. Cette fonction prends en param√®tre ce vecteur signal, un espacement ai
  63:DISPLAY.c     **** // taille du vecteur signal. Sachant que la fr√©quence d'√©chantillonage est grande, les donn√©es p
  64:DISPLAY.c     **** // trop proches et repr√©sente seulement un signal local. De ce fait, on introduit un espacement en
  65:DISPLAY.c     **** // √† afficher afin de visualier un signal √©largie. 
  66:DISPLAY.c     **** void drawGraph(uint32_t donnees[1300], uint8_t espacement, int size ){   //size est d√©clarer comme
 181              		.loc 1 66 0
 182              		.cfi_startproc
 183              		@ args = 0, pretend = 0, frame = 0
 184              		@ frame_needed = 0, uses_anonymous_args = 0
 185              	.LVL19:
 186 0000 2DE9F041 		push	{r4, r5, r6, r7, r8, lr}
 187              		.cfi_def_cfa_offset 24
 188              		.cfi_offset 4, -24
 189              		.cfi_offset 5, -20
 190              		.cfi_offset 6, -16
 191              		.cfi_offset 7, -12
 192              		.cfi_offset 8, -8
 193              		.cfi_offset 14, -4
 194 0004 0646     		mov	r6, r0
 195 0006 0F46     		mov	r7, r1
 196 0008 1446     		mov	r4, r2
  67:DISPLAY.c     ****     
  68:DISPLAY.c     ****     GUI_SetPenSize(1);
 197              		.loc 1 68 0
 198 000a 0120     		movs	r0, #1
 199              	.LVL20:
 200 000c FFF7FEFF 		bl	GUI_SetPenSize
 201              	.LVL21:
  69:DISPLAY.c     ****     
  70:DISPLAY.c     ****     // D√©termination du maximum et du minimum du signal. Notons que la fonction GUI_DrawGraph ne p
  71:DISPLAY.c     ****     // qu'un vecteur de type uint16_t. Donc, les donn√©es de celui-ci doivent √™tre compris dans l'
  72:DISPLAY.c     ****     //Toutefois, cela n'est pas le cas pour le vecteur du signal √† affich√©, sachant que les donn√
  73:DISPLAY.c     ****     // de 10^5. De ce fait, il est possible de divis√© ce signal par 5 afin de r√©duire ces valeurs
  74:DISPLAY.c     ****     // Ce changement ne comporte aucune perte de donn√©es, simplement une modification physique du 
  75:DISPLAY.c     ****    uint32_t maximum=0; 
  76:DISPLAY.c     ****    uint32_t minimum=0;
  77:DISPLAY.c     ****     
  78:DISPLAY.c     ****    maximum = (maximum_1(donnees, size))/5;
 202              		.loc 1 78 0
 203 0010 2146     		mov	r1, r4
ARM GAS  C:\Users\Mahrukh\AppData\Local\Temp\ccJcQtli.s 			page 6


 204 0012 3046     		mov	r0, r6
 205 0014 FFF7FEFF 		bl	maximum_1
 206              	.LVL22:
 207 0018 DFF8D080 		ldr	r8, .L25
 208 001c A8FB0035 		umull	r3, r5, r8, r0
 209 0020 AD08     		lsrs	r5, r5, #2
 210              	.LVL23:
  79:DISPLAY.c     ****    minimum= (minimum_1(donnees, size))/5; 
 211              		.loc 1 79 0
 212 0022 2146     		mov	r1, r4
 213 0024 3046     		mov	r0, r6
 214 0026 FFF7FEFF 		bl	minimum_1
 215              	.LVL24:
 216 002a A8FB0030 		umull	r3, r0, r8, r0
 217 002e 8008     		lsrs	r0, r0, #2
 218              	.LVL25:
 219              	.LBB14:
  80:DISPLAY.c     ****   
  81:DISPLAY.c     ****    //Modification des valeurs du vecteur signal afin de les adapter aux pixels de l'√©cran E-INK di
  82:DISPLAY.c     ****     
  83:DISPLAY.c     ****     for(int y=0;y<size;y++){
 220              		.loc 1 83 0
 221 0030 0021     		movs	r1, #0
 222 0032 10E0     		b	.L18
 223              	.LVL26:
 224              	.L19:
  84:DISPLAY.c     ****        data[y]=(((donnees[y]/5)-minimum)*(maximum-minimum))/(2*maximum);
 225              		.loc 1 84 0 discriminator 3
 226 0034 56F82130 		ldr	r3, [r6, r1, lsl #2]
 227 0038 2C4A     		ldr	r2, .L25
 228 003a A2FB0323 		umull	r2, r3, r2, r3
 229 003e C0EB9303 		rsb	r3, r0, r3, lsr #2
 230 0042 2A1A     		subs	r2, r5, r0
 231 0044 02FB03F3 		mul	r3, r2, r3
 232 0048 6A00     		lsls	r2, r5, #1
 233 004a B3FBF2F3 		udiv	r3, r3, r2
 234 004e 284A     		ldr	r2, .L25+4
 235 0050 22F81130 		strh	r3, [r2, r1, lsl #1]	@ movhi
  83:DISPLAY.c     ****        data[y]=(((donnees[y]/5)-minimum)*(maximum-minimum))/(2*maximum);
 236              		.loc 1 83 0 discriminator 3
 237 0054 0131     		adds	r1, r1, #1
 238              	.LVL27:
 239              	.L18:
  83:DISPLAY.c     ****        data[y]=(((donnees[y]/5)-minimum)*(maximum-minimum))/(2*maximum);
 240              		.loc 1 83 0 is_stmt 0 discriminator 1
 241 0056 A142     		cmp	r1, r4
 242 0058 ECDB     		blt	.L19
 243 005a 0023     		movs	r3, #0
 244 005c 1A46     		mov	r2, r3
 245 005e 07E0     		b	.L20
 246              	.LVL28:
 247              	.L21:
 248              	.LBE14:
 249              	.LBB15:
  85:DISPLAY.c     ****     }
  86:DISPLAY.c     ****     
  87:DISPLAY.c     ****     // Espacement des donn√©es √† afficher du vecteur signal afin d'obtenir un signal global 
ARM GAS  C:\Users\Mahrukh\AppData\Local\Temp\ccJcQtli.s 			page 7


  88:DISPLAY.c     ****     int a=0; 
  89:DISPLAY.c     ****         for (int b=0; b<size;  b+=espacement) {  
  90:DISPLAY.c     ****             vecteurespacee[a]= data[b]; 
 250              		.loc 1 90 0 is_stmt 1 discriminator 3
 251 0060 2349     		ldr	r1, .L25+4
 252 0062 31F91300 		ldrsh	r0, [r1, r3, lsl #1]
 253 0066 2349     		ldr	r1, .L25+8
 254 0068 21F81200 		strh	r0, [r1, r2, lsl #1]	@ movhi
  91:DISPLAY.c     ****             a++; 
 255              		.loc 1 91 0 discriminator 3
 256 006c 0132     		adds	r2, r2, #1
 257              	.LVL29:
  89:DISPLAY.c     ****             vecteurespacee[a]= data[b]; 
 258              		.loc 1 89 0 discriminator 3
 259 006e 3B44     		add	r3, r3, r7
 260              	.LVL30:
 261              	.L20:
  89:DISPLAY.c     ****             vecteurespacee[a]= data[b]; 
 262              		.loc 1 89 0 is_stmt 0 discriminator 1
 263 0070 A342     		cmp	r3, r4
 264 0072 F5DB     		blt	.L21
 265              	.LBE15:
  92:DISPLAY.c     ****             
  93:DISPLAY.c     ****         }
  94:DISPLAY.c     ****         
  95:DISPLAY.c     ****     // Affichage de la page principal
  96:DISPLAY.c     ****     GUI_DrawGraph(vecteurespacee, 250, 5,1); //250 est la taille du vecteurespacee, donc changer ce
 266              		.loc 1 96 0 is_stmt 1
 267 0074 0123     		movs	r3, #1
 268              	.LVL31:
 269 0076 0522     		movs	r2, #5
 270              	.LVL32:
 271 0078 FA21     		movs	r1, #250
 272 007a 1E48     		ldr	r0, .L25+8
 273 007c FFF7FEFF 		bl	GUI_DrawGraph
 274              	.LVL33:
  97:DISPLAY.c     ****     
  98:DISPLAY.c     ****     GUI_DrawRect(1,1,263,125);
 275              		.loc 1 98 0
 276 0080 7D23     		movs	r3, #125
 277 0082 40F20712 		movw	r2, #263
 278 0086 0121     		movs	r1, #1
 279 0088 0846     		mov	r0, r1
 280 008a FFF7FEFF 		bl	GUI_DrawRect
 281              	.LVL34:
  99:DISPLAY.c     ****     GUI_DrawRect(153,129,263,175);
 282              		.loc 1 99 0
 283 008e AF23     		movs	r3, #175
 284 0090 40F20712 		movw	r2, #263
 285 0094 8121     		movs	r1, #129
 286 0096 9920     		movs	r0, #153
 287 0098 FFF7FEFF 		bl	GUI_DrawRect
 288              	.LVL35:
 100:DISPLAY.c     ****     GUI_DispStringAt ("COURBE AFFICHEE:", 160, 133);
 289              		.loc 1 100 0
 290 009c 8522     		movs	r2, #133
 291 009e A021     		movs	r1, #160
ARM GAS  C:\Users\Mahrukh\AppData\Local\Temp\ccJcQtli.s 			page 8


 292 00a0 1548     		ldr	r0, .L25+12
 293 00a2 FFF7FEFF 		bl	GUI_DispStringAt
 294              	.LVL36:
 101:DISPLAY.c     ****     GUI_SetFont(GUI_FONT_16B_1);
 295              		.loc 1 101 0
 296 00a6 1548     		ldr	r0, .L25+16
 297 00a8 FFF7FEFF 		bl	GUI_SetFont
 298              	.LVL37:
 102:DISPLAY.c     ****     GUI_DispStringAt ("SPECTRE", 155, 143);
 299              		.loc 1 102 0
 300 00ac 8F22     		movs	r2, #143
 301 00ae 9B21     		movs	r1, #155
 302 00b0 1348     		ldr	r0, .L25+20
 303 00b2 FFF7FEFF 		bl	GUI_DispStringAt
 304              	.LVL38:
 103:DISPLAY.c     ****        
 104:DISPLAY.c     ****         if (currentScreen.TYPEGRAPH){GUI_DispStringAt ("INFRAROUGE", 155, 157);}
 305              		.loc 1 104 0
 306 00b6 134B     		ldr	r3, .L25+24
 307 00b8 5B79     		ldrb	r3, [r3, #5]	@ zero_extendqisi2
 308 00ba 13F0FF0F 		tst	r3, #255
 309 00be 04D0     		beq	.L22
 310              		.loc 1 104 0 is_stmt 0 discriminator 1
 311 00c0 9D22     		movs	r2, #157
 312 00c2 9B21     		movs	r1, #155
 313 00c4 1048     		ldr	r0, .L25+28
 314 00c6 FFF7FEFF 		bl	GUI_DispStringAt
 315              	.LVL39:
 316              	.L22:
 105:DISPLAY.c     ****         if (currentScreen.TYPEGRAPH==0) {GUI_DispStringAt ( "ROUGE", 155, 157);}
 317              		.loc 1 105 0 is_stmt 1
 318 00ca 0E4B     		ldr	r3, .L25+24
 319 00cc 5B79     		ldrb	r3, [r3, #5]	@ zero_extendqisi2
 320 00ce 13F0FF0F 		tst	r3, #255
 321 00d2 04D1     		bne	.L23
 322              		.loc 1 105 0 is_stmt 0 discriminator 1
 323 00d4 9D22     		movs	r2, #157
 324 00d6 9B21     		movs	r1, #155
 325 00d8 0C48     		ldr	r0, .L25+32
 326 00da FFF7FEFF 		bl	GUI_DispStringAt
 327              	.LVL40:
 328              	.L23:
 106:DISPLAY.c     ****     
 107:DISPLAY.c     ****     UpdateDisplay(CY_EINK_FULL_4STAGE, true);   
 329              		.loc 1 107 0 is_stmt 1
 330 00de 0121     		movs	r1, #1
 331 00e0 0846     		mov	r0, r1
 332 00e2 FFF7FEFF 		bl	UpdateDisplay
 333              	.LVL41:
 334 00e6 BDE8F081 		pop	{r4, r5, r6, r7, r8, pc}
 335              	.LVL42:
 336              	.L26:
 337 00ea 00BF     		.align	2
 338              	.L25:
 339 00ec CDCCCCCC 		.word	-858993459
 340 00f0 00000000 		.word	data
 341 00f4 00000000 		.word	vecteurespacee
ARM GAS  C:\Users\Mahrukh\AppData\Local\Temp\ccJcQtli.s 			page 9


 342 00f8 00000000 		.word	.LC0
 343 00fc 00000000 		.word	GUI_Font16B_1
 344 0100 14000000 		.word	.LC1
 345 0104 00000000 		.word	currentScreen
 346 0108 1C000000 		.word	.LC2
 347 010c 28000000 		.word	.LC3
 348              		.cfi_endproc
 349              	.LFE607:
 350              		.size	drawGraph, .-drawGraph
 351              		.section	.text.updateParameters,"ax",%progbits
 352              		.align	2
 353              		.global	updateParameters
 354              		.thumb
 355              		.thumb_func
 356              		.type	updateParameters, %function
 357              	updateParameters:
 358              	.LFB608:
 108:DISPLAY.c     ****     
 109:DISPLAY.c     **** }
 110:DISPLAY.c     **** 
 111:DISPLAY.c     **** // Fonction qui permet d'afficher les param√®tres de la fr√©quence cardiaque et le taux d'oxyg√®ne 
 112:DISPLAY.c     **** // sur la page principale 
 113:DISPLAY.c     **** void updateParameters(int param1, int param2){
 359              		.loc 1 113 0
 360              		.cfi_startproc
 361              		@ args = 0, pretend = 0, frame = 104
 362              		@ frame_needed = 0, uses_anonymous_args = 0
 363              	.LVL43:
 364 0000 30B5     		push	{r4, r5, lr}
 365              		.cfi_def_cfa_offset 12
 366              		.cfi_offset 4, -12
 367              		.cfi_offset 5, -8
 368              		.cfi_offset 14, -4
 369 0002 9BB0     		sub	sp, sp, #108
 370              		.cfi_def_cfa_offset 120
 371 0004 0546     		mov	r5, r0
 372 0006 0C46     		mov	r4, r1
 114:DISPLAY.c     ****     
 115:DISPLAY.c     ****     GUI_Clear(); 
 373              		.loc 1 115 0
 374 0008 FFF7FEFF 		bl	GUI_Clear
 375              	.LVL44:
 116:DISPLAY.c     ****     char frequence[50];
 117:DISPLAY.c     ****     char Saturation[50];
 118:DISPLAY.c     ****     sprintf(frequence,"Frequence cardiaque: %d ",param1);
 376              		.loc 1 118 0
 377 000c 2A46     		mov	r2, r5
 378 000e 1349     		ldr	r1, .L29
 379 0010 0DA8     		add	r0, sp, #52
 380 0012 FFF7FEFF 		bl	sprintf
 381              	.LVL45:
 119:DISPLAY.c     ****     sprintf(Saturation,"Taux d'oxygene: %d ",param2);
 382              		.loc 1 119 0
 383 0016 2246     		mov	r2, r4
 384 0018 1149     		ldr	r1, .L29+4
 385 001a 6846     		mov	r0, sp
 386 001c FFF7FEFF 		bl	sprintf
ARM GAS  C:\Users\Mahrukh\AppData\Local\Temp\ccJcQtli.s 			page 10


 387              	.LVL46:
 120:DISPLAY.c     ****     
 121:DISPLAY.c     ****     GUI_SetFont(GUI_FONT_8_1);
 388              		.loc 1 121 0
 389 0020 1048     		ldr	r0, .L29+8
 390 0022 FFF7FEFF 		bl	GUI_SetFont
 391              	.LVL47:
 122:DISPLAY.c     ****     GUI_DispStringAt(frequence, 3, 140); 
 392              		.loc 1 122 0
 393 0026 8C22     		movs	r2, #140
 394 0028 0321     		movs	r1, #3
 395 002a 0DA8     		add	r0, sp, #52
 396 002c FFF7FEFF 		bl	GUI_DispStringAt
 397              	.LVL48:
 123:DISPLAY.c     ****     GUI_DispStringAt("BPM ", 125, 140);     
 398              		.loc 1 123 0
 399 0030 8C22     		movs	r2, #140
 400 0032 7D21     		movs	r1, #125
 401 0034 0C48     		ldr	r0, .L29+12
 402 0036 FFF7FEFF 		bl	GUI_DispStringAt
 403              	.LVL49:
 124:DISPLAY.c     ****     GUI_DispStringAt(Saturation, 3, 160);
 404              		.loc 1 124 0
 405 003a A022     		movs	r2, #160
 406 003c 0321     		movs	r1, #3
 407 003e 6846     		mov	r0, sp
 408 0040 FFF7FEFF 		bl	GUI_DispStringAt
 409              	.LVL50:
 125:DISPLAY.c     ****     GUI_DispStringAt(" %", 98, 160);     
 410              		.loc 1 125 0
 411 0044 A022     		movs	r2, #160
 412 0046 6221     		movs	r1, #98
 413 0048 0848     		ldr	r0, .L29+16
 414 004a FFF7FEFF 		bl	GUI_DispStringAt
 415              	.LVL51:
 126:DISPLAY.c     ****     
 127:DISPLAY.c     ****     UpdateDisplay(CY_EINK_FULL_4STAGE, true);
 416              		.loc 1 127 0
 417 004e 0121     		movs	r1, #1
 418 0050 0846     		mov	r0, r1
 419 0052 FFF7FEFF 		bl	UpdateDisplay
 420              	.LVL52:
 128:DISPLAY.c     **** }
 421              		.loc 1 128 0
 422 0056 1BB0     		add	sp, sp, #108
 423              		.cfi_def_cfa_offset 12
 424              		@ sp needed
 425 0058 30BD     		pop	{r4, r5, pc}
 426              	.LVL53:
 427              	.L30:
 428 005a 00BF     		.align	2
 429              	.L29:
 430 005c 30000000 		.word	.LC4
 431 0060 4C000000 		.word	.LC5
 432 0064 00000000 		.word	GUI_Font8_1
 433 0068 60000000 		.word	.LC6
 434 006c 68000000 		.word	.LC7
ARM GAS  C:\Users\Mahrukh\AppData\Local\Temp\ccJcQtli.s 			page 11


 435              		.cfi_endproc
 436              	.LFE608:
 437              		.size	updateParameters, .-updateParameters
 438              		.section	.text.DrawMenu,"ax",%progbits
 439              		.align	2
 440              		.global	DrawMenu
 441              		.thumb
 442              		.thumb_func
 443              		.type	DrawMenu, %function
 444              	DrawMenu:
 445              	.LFB609:
 129:DISPLAY.c     **** 
 130:DISPLAY.c     **** // Fonction qui permet de tra√ßer la page MENU avec la position du curseur √† l'endroit d√©sir√© 
 131:DISPLAY.c     **** void DrawMenu ( uint8_t pos_curseur) { 
 446              		.loc 1 131 0
 447              		.cfi_startproc
 448              		@ args = 0, pretend = 0, frame = 0
 449              		@ frame_needed = 0, uses_anonymous_args = 0
 450              	.LVL54:
 451 0000 10B5     		push	{r4, lr}
 452              		.cfi_def_cfa_offset 8
 453              		.cfi_offset 4, -8
 454              		.cfi_offset 14, -4
 455 0002 0446     		mov	r4, r0
 132:DISPLAY.c     ****     
 133:DISPLAY.c     ****     GUI_Clear(); 
 456              		.loc 1 133 0
 457 0004 FFF7FEFF 		bl	GUI_Clear
 458              	.LVL55:
 134:DISPLAY.c     ****     GUI_SetFont(GUI_FONT_32B_1);
 459              		.loc 1 134 0
 460 0008 1848     		ldr	r0, .L33
 461 000a FFF7FEFF 		bl	GUI_SetFont
 462              	.LVL56:
 135:DISPLAY.c     ****     GUI_SetTextAlign(GUI_TA_CENTER);
 463              		.loc 1 135 0
 464 000e 0220     		movs	r0, #2
 465 0010 FFF7FEFF 		bl	GUI_SetTextAlign
 466              	.LVL57:
 136:DISPLAY.c     ****     GUI_DispStringAt("MENU", 132, 2);
 467              		.loc 1 136 0
 468 0014 0222     		movs	r2, #2
 469 0016 8421     		movs	r1, #132
 470 0018 1548     		ldr	r0, .L33+4
 471 001a FFF7FEFF 		bl	GUI_DispStringAt
 472              	.LVL58:
 137:DISPLAY.c     ****         GUI_SetFont(GUI_FONT_8_1);
 473              		.loc 1 137 0
 474 001e 1548     		ldr	r0, .L33+8
 475 0020 FFF7FEFF 		bl	GUI_SetFont
 476              	.LVL59:
 138:DISPLAY.c     ****     GUI_DispStringAt ("ETAT DE L'ALARME D'ACCELERATION", 15, 40);
 477              		.loc 1 138 0
 478 0024 2822     		movs	r2, #40
 479 0026 0F21     		movs	r1, #15
 480 0028 1348     		ldr	r0, .L33+12
 481 002a FFF7FEFF 		bl	GUI_DispStringAt
ARM GAS  C:\Users\Mahrukh\AppData\Local\Temp\ccJcQtli.s 			page 12


 482              	.LVL60:
 139:DISPLAY.c     ****     GUI_DispStringAt ("MODIFICATION DU COURANT DES LEDS", 15, 70);
 483              		.loc 1 139 0
 484 002e 4622     		movs	r2, #70
 485 0030 0F21     		movs	r1, #15
 486 0032 1248     		ldr	r0, .L33+16
 487 0034 FFF7FEFF 		bl	GUI_DispStringAt
 488              	.LVL61:
 140:DISPLAY.c     ****     GUI_DispStringAt ("BORNE SUPERIEUR- RYTHME CARDIAQUE", 15, 100); 
 489              		.loc 1 140 0
 490 0038 6422     		movs	r2, #100
 491 003a 0F21     		movs	r1, #15
 492 003c 1048     		ldr	r0, .L33+20
 493 003e FFF7FEFF 		bl	GUI_DispStringAt
 494              	.LVL62:
 141:DISPLAY.c     ****     GUI_DispStringAt ("BORNE INFERIEUR- RYTHME CARDIAQUE", 15, 130); 
 495              		.loc 1 141 0
 496 0042 8222     		movs	r2, #130
 497 0044 0F21     		movs	r1, #15
 498 0046 0F48     		ldr	r0, .L33+24
 499 0048 FFF7FEFF 		bl	GUI_DispStringAt
 500              	.LVL63:
 142:DISPLAY.c     ****     GUI_DispStringAt ("ETAT DE L'ALARME DE LA FC", 15, 160);
 501              		.loc 1 142 0
 502 004c A022     		movs	r2, #160
 503 004e 0F21     		movs	r1, #15
 504 0050 0D48     		ldr	r0, .L33+28
 505 0052 FFF7FEFF 		bl	GUI_DispStringAt
 506              	.LVL64:
 143:DISPLAY.c     ****     GUI_DrawCircle (4, pos_curseur+2, 3);
 507              		.loc 1 143 0
 508 0056 0322     		movs	r2, #3
 509 0058 A11C     		adds	r1, r4, #2
 510 005a 0420     		movs	r0, #4
 511 005c FFF7FEFF 		bl	GUI_DrawCircle
 512              	.LVL65:
 144:DISPLAY.c     ****     UpdateDisplay(CY_EINK_FULL_4STAGE, true);
 513              		.loc 1 144 0
 514 0060 0121     		movs	r1, #1
 515 0062 0846     		mov	r0, r1
 516 0064 FFF7FEFF 		bl	UpdateDisplay
 517              	.LVL66:
 518 0068 10BD     		pop	{r4, pc}
 519              	.L34:
 520 006a 00BF     		.align	2
 521              	.L33:
 522 006c 00000000 		.word	GUI_Font32B_1
 523 0070 6C000000 		.word	.LC8
 524 0074 00000000 		.word	GUI_Font8_1
 525 0078 74000000 		.word	.LC9
 526 007c 94000000 		.word	.LC10
 527 0080 B8000000 		.word	.LC11
 528 0084 DC000000 		.word	.LC12
 529 0088 00010000 		.word	.LC13
 530              		.cfi_endproc
 531              	.LFE609:
 532              		.size	DrawMenu, .-DrawMenu
ARM GAS  C:\Users\Mahrukh\AppData\Local\Temp\ccJcQtli.s 			page 13


 533              		.section	.text.DrawOption1,"ax",%progbits
 534              		.align	2
 535              		.global	DrawOption1
 536              		.thumb
 537              		.thumb_func
 538              		.type	DrawOption1, %function
 539              	DrawOption1:
 540              	.LFB610:
 145:DISPLAY.c     **** } 
 146:DISPLAY.c     **** // Fonction qui permet d'afficher l'OPTION 1 de MENU 
 147:DISPLAY.c     **** void DrawOption1 ()
 148:DISPLAY.c     **** {       
 541              		.loc 1 148 0
 542              		.cfi_startproc
 543              		@ args = 0, pretend = 0, frame = 0
 544              		@ frame_needed = 0, uses_anonymous_args = 0
 545 0000 10B5     		push	{r4, lr}
 546              		.cfi_def_cfa_offset 8
 547              		.cfi_offset 4, -8
 548              		.cfi_offset 14, -4
 149:DISPLAY.c     ****           GUI_Clear(); 
 549              		.loc 1 149 0
 550 0002 FFF7FEFF 		bl	GUI_Clear
 551              	.LVL67:
 150:DISPLAY.c     ****     GUI_SetFont(GUI_FONT_16_1);
 552              		.loc 1 150 0
 553 0006 164C     		ldr	r4, .L37
 554 0008 2046     		mov	r0, r4
 555 000a FFF7FEFF 		bl	GUI_SetFont
 556              	.LVL68:
 151:DISPLAY.c     ****     GUI_SetTextAlign(GUI_TA_CENTER);
 557              		.loc 1 151 0
 558 000e 0220     		movs	r0, #2
 559 0010 FFF7FEFF 		bl	GUI_SetTextAlign
 560              	.LVL69:
 152:DISPLAY.c     ****     GUI_DispStringAt("ALARME D'ACCELERATION", 132, 20);
 561              		.loc 1 152 0
 562 0014 1422     		movs	r2, #20
 563 0016 8421     		movs	r1, #132
 564 0018 1248     		ldr	r0, .L37+4
 565 001a FFF7FEFF 		bl	GUI_DispStringAt
 566              	.LVL70:
 153:DISPLAY.c     ****     GUI_DrawLine(48,34,215,34);
 567              		.loc 1 153 0
 568 001e 2223     		movs	r3, #34
 569 0020 D722     		movs	r2, #215
 570 0022 1946     		mov	r1, r3
 571 0024 3020     		movs	r0, #48
 572 0026 FFF7FEFF 		bl	GUI_DrawLine
 573              	.LVL71:
 154:DISPLAY.c     ****         GUI_SetFont(GUI_FONT_8_1);
 574              		.loc 1 154 0
 575 002a 0F48     		ldr	r0, .L37+8
 576 002c FFF7FEFF 		bl	GUI_SetFont
 577              	.LVL72:
 155:DISPLAY.c     ****     GUI_DispStringAt ("APPUYE SUR LE BOUTON 00 POUR ACTIVER L'ALARME", 10, 70);
 578              		.loc 1 155 0
ARM GAS  C:\Users\Mahrukh\AppData\Local\Temp\ccJcQtli.s 			page 14


 579 0030 4622     		movs	r2, #70
 580 0032 0A21     		movs	r1, #10
 581 0034 0D48     		ldr	r0, .L37+12
 582 0036 FFF7FEFF 		bl	GUI_DispStringAt
 583              	.LVL73:
 156:DISPLAY.c     ****     GUI_DispStringAt ("APPUYE SUR LE BOUTON 01 POUR DESACTIVER L'ALARME", 3, 100); 
 584              		.loc 1 156 0
 585 003a 6422     		movs	r2, #100
 586 003c 0321     		movs	r1, #3
 587 003e 0C48     		ldr	r0, .L37+16
 588 0040 FFF7FEFF 		bl	GUI_DispStringAt
 589              	.LVL74:
 157:DISPLAY.c     ****      GUI_DrawRect(7,120,230,160);
 590              		.loc 1 157 0
 591 0044 A023     		movs	r3, #160
 592 0046 E622     		movs	r2, #230
 593 0048 7821     		movs	r1, #120
 594 004a 0720     		movs	r0, #7
 595 004c FFF7FEFF 		bl	GUI_DrawRect
 596              	.LVL75:
 158:DISPLAY.c     ****      GUI_SetFont(GUI_FONT_16_1);
 597              		.loc 1 158 0
 598 0050 2046     		mov	r0, r4
 599 0052 FFF7FEFF 		bl	GUI_SetFont
 600              	.LVL76:
 159:DISPLAY.c     ****     UpdateDisplay(CY_EINK_FULL_4STAGE, true);
 601              		.loc 1 159 0
 602 0056 0121     		movs	r1, #1
 603 0058 0846     		mov	r0, r1
 604 005a FFF7FEFF 		bl	UpdateDisplay
 605              	.LVL77:
 606 005e 10BD     		pop	{r4, pc}
 607              	.L38:
 608              		.align	2
 609              	.L37:
 610 0060 00000000 		.word	GUI_Font16_1
 611 0064 1C010000 		.word	.LC14
 612 0068 00000000 		.word	GUI_Font8_1
 613 006c 34010000 		.word	.LC15
 614 0070 64010000 		.word	.LC16
 615              		.cfi_endproc
 616              	.LFE610:
 617              		.size	DrawOption1, .-DrawOption1
 618              		.section	.text.DrawOption2,"ax",%progbits
 619              		.align	2
 620              		.global	DrawOption2
 621              		.thumb
 622              		.thumb_func
 623              		.type	DrawOption2, %function
 624              	DrawOption2:
 625              	.LFB611:
 160:DISPLAY.c     **** } 
 161:DISPLAY.c     **** 
 162:DISPLAY.c     **** // Fonction qui permet d'afficher l'OPTION 2 du MENU
 163:DISPLAY.c     **** void DrawOption2 ()
 164:DISPLAY.c     **** {         GUI_Clear(); 
 626              		.loc 1 164 0
ARM GAS  C:\Users\Mahrukh\AppData\Local\Temp\ccJcQtli.s 			page 15


 627              		.cfi_startproc
 628              		@ args = 0, pretend = 0, frame = 0
 629              		@ frame_needed = 0, uses_anonymous_args = 0
 630 0000 10B5     		push	{r4, lr}
 631              		.cfi_def_cfa_offset 8
 632              		.cfi_offset 4, -8
 633              		.cfi_offset 14, -4
 634              		.loc 1 164 0
 635 0002 FFF7FEFF 		bl	GUI_Clear
 636              	.LVL78:
 165:DISPLAY.c     ****     GUI_SetFont(GUI_FONT_32B_1);
 637              		.loc 1 165 0
 638 0006 2348     		ldr	r0, .L41
 639 0008 FFF7FEFF 		bl	GUI_SetFont
 640              	.LVL79:
 166:DISPLAY.c     ****     GUI_SetTextAlign(GUI_TA_CENTER);
 641              		.loc 1 166 0
 642 000c 0220     		movs	r0, #2
 643 000e FFF7FEFF 		bl	GUI_SetTextAlign
 644              	.LVL80:
 167:DISPLAY.c     ****     GUI_DispStringAt("COURANT DELs", 132, 20);
 645              		.loc 1 167 0
 646 0012 1422     		movs	r2, #20
 647 0014 8421     		movs	r1, #132
 648 0016 2048     		ldr	r0, .L41+4
 649 0018 FFF7FEFF 		bl	GUI_DispStringAt
 650              	.LVL81:
 168:DISPLAY.c     ****     GUI_DrawLine(20,50,240,50);
 651              		.loc 1 168 0
 652 001c 3223     		movs	r3, #50
 653 001e F022     		movs	r2, #240
 654 0020 1946     		mov	r1, r3
 655 0022 1420     		movs	r0, #20
 656 0024 FFF7FEFF 		bl	GUI_DrawLine
 657              	.LVL82:
 169:DISPLAY.c     ****         GUI_SetFont(GUI_FONT_8_1);
 658              		.loc 1 169 0
 659 0028 1C48     		ldr	r0, .L41+8
 660 002a FFF7FEFF 		bl	GUI_SetFont
 661              	.LVL83:
 170:DISPLAY.c     ****        GUI_SetTextAlign(GUI_TA_CENTER);
 662              		.loc 1 170 0
 663 002e 0220     		movs	r0, #2
 664 0030 FFF7FEFF 		bl	GUI_SetTextAlign
 665              	.LVL84:
 171:DISPLAY.c     ****     GUI_DispStringAt ("LE COURANT CONFIGURE DES LEDS", 132, 70);
 666              		.loc 1 171 0
 667 0034 4622     		movs	r2, #70
 668 0036 8421     		movs	r1, #132
 669 0038 1948     		ldr	r0, .L41+12
 670 003a FFF7FEFF 		bl	GUI_DispStringAt
 671              	.LVL85:
 172:DISPLAY.c     ****     GUI_SetTextAlign(GUI_TA_CENTER);
 672              		.loc 1 172 0
 673 003e 0220     		movs	r0, #2
 674 0040 FFF7FEFF 		bl	GUI_SetTextAlign
 675              	.LVL86:
ARM GAS  C:\Users\Mahrukh\AppData\Local\Temp\ccJcQtli.s 			page 16


 173:DISPLAY.c     ****     GUI_DispStringAt ("DU CAPTEUR SPO2 MAX30102 EST:", 132, 80);
 676              		.loc 1 173 0
 677 0044 5022     		movs	r2, #80
 678 0046 8421     		movs	r1, #132
 679 0048 1648     		ldr	r0, .L41+16
 680 004a FFF7FEFF 		bl	GUI_DispStringAt
 681              	.LVL87:
 174:DISPLAY.c     ****     GUI_SetFont(GUI_FONT_16B_1);
 682              		.loc 1 174 0
 683 004e 1648     		ldr	r0, .L41+20
 684 0050 FFF7FEFF 		bl	GUI_SetFont
 685              	.LVL88:
 175:DISPLAY.c     ****     GUI_DrawLine(114,140,153,140);
 686              		.loc 1 175 0
 687 0054 8C23     		movs	r3, #140
 688 0056 9922     		movs	r2, #153
 689 0058 1946     		mov	r1, r3
 690 005a 7220     		movs	r0, #114
 691 005c FFF7FEFF 		bl	GUI_DrawLine
 692              	.LVL89:
 176:DISPLAY.c     ****    GUI_SetTextAlign(GUI_TA_CENTER);
 693              		.loc 1 176 0
 694 0060 0220     		movs	r0, #2
 695 0062 FFF7FEFF 		bl	GUI_SetTextAlign
 696              	.LVL90:
 177:DISPLAY.c     ****    sprintf(buffer,"%d\n\r",courant);
 697              		.loc 1 177 0
 698 0066 114B     		ldr	r3, .L41+24
 699 0068 1A78     		ldrb	r2, [r3]	@ zero_extendqisi2
 700 006a 114C     		ldr	r4, .L41+28
 701 006c 1149     		ldr	r1, .L41+32
 702 006e 2046     		mov	r0, r4
 703 0070 FFF7FEFF 		bl	sprintf
 704              	.LVL91:
 178:DISPLAY.c     ****      GUI_DispStringAt (buffer, 125, 120);
 705              		.loc 1 178 0
 706 0074 7822     		movs	r2, #120
 707 0076 7D21     		movs	r1, #125
 708 0078 2046     		mov	r0, r4
 709 007a FFF7FEFF 		bl	GUI_DispStringAt
 710              	.LVL92:
 179:DISPLAY.c     ****     GUI_DispStringAt ("mA", 132, 120);
 711              		.loc 1 179 0
 712 007e 7822     		movs	r2, #120
 713 0080 8421     		movs	r1, #132
 714 0082 0D48     		ldr	r0, .L41+36
 715 0084 FFF7FEFF 		bl	GUI_DispStringAt
 716              	.LVL93:
 180:DISPLAY.c     ****     UpdateDisplay(CY_EINK_FULL_4STAGE, true);
 717              		.loc 1 180 0
 718 0088 0121     		movs	r1, #1
 719 008a 0846     		mov	r0, r1
 720 008c FFF7FEFF 		bl	UpdateDisplay
 721              	.LVL94:
 722 0090 10BD     		pop	{r4, pc}
 723              	.L42:
 724 0092 00BF     		.align	2
ARM GAS  C:\Users\Mahrukh\AppData\Local\Temp\ccJcQtli.s 			page 17


 725              	.L41:
 726 0094 00000000 		.word	GUI_Font32B_1
 727 0098 98010000 		.word	.LC17
 728 009c 00000000 		.word	GUI_Font8_1
 729 00a0 A8010000 		.word	.LC18
 730 00a4 C8010000 		.word	.LC19
 731 00a8 00000000 		.word	GUI_Font16B_1
 732 00ac 00000000 		.word	courant
 733 00b0 00000000 		.word	buffer
 734 00b4 E8010000 		.word	.LC20
 735 00b8 F0010000 		.word	.LC21
 736              		.cfi_endproc
 737              	.LFE611:
 738              		.size	DrawOption2, .-DrawOption2
 739              		.section	.text.DrawOption3_superieur,"ax",%progbits
 740              		.align	2
 741              		.global	DrawOption3_superieur
 742              		.thumb
 743              		.thumb_func
 744              		.type	DrawOption3_superieur, %function
 745              	DrawOption3_superieur:
 746              	.LFB612:
 181:DISPLAY.c     **** }
 182:DISPLAY.c     **** // Fonction qui permet d'afficher l'OPTION du MENU qui permet de d√©finir la borne sup√©rieure 
 183:DISPLAY.c     **** // de l'intervall de la fr√©quence cardiaque desir√©e 
 184:DISPLAY.c     **** void DrawOption3_superieur (){    
 747              		.loc 1 184 0
 748              		.cfi_startproc
 749              		@ args = 0, pretend = 0, frame = 0
 750              		@ frame_needed = 0, uses_anonymous_args = 0
 751 0000 10B5     		push	{r4, lr}
 752              		.cfi_def_cfa_offset 8
 753              		.cfi_offset 4, -8
 754              		.cfi_offset 14, -4
 185:DISPLAY.c     ****    GUI_Clear(); 
 755              		.loc 1 185 0
 756 0002 FFF7FEFF 		bl	GUI_Clear
 757              	.LVL95:
 186:DISPLAY.c     ****     GUI_SetFont(GUI_FONT_8_1);
 758              		.loc 1 186 0
 759 0006 1D4C     		ldr	r4, .L45
 760 0008 2046     		mov	r0, r4
 761 000a FFF7FEFF 		bl	GUI_SetFont
 762              	.LVL96:
 187:DISPLAY.c     ****     GUI_SetTextAlign(GUI_TA_CENTER);
 763              		.loc 1 187 0
 764 000e 0220     		movs	r0, #2
 765 0010 FFF7FEFF 		bl	GUI_SetTextAlign
 766              	.LVL97:
 188:DISPLAY.c     ****     GUI_DispStringAt("DEFINITION DE L'INTERVALLE DE L'ALARME", 132, 20);
 767              		.loc 1 188 0
 768 0014 1422     		movs	r2, #20
 769 0016 8421     		movs	r1, #132
 770 0018 1948     		ldr	r0, .L45+4
 771 001a FFF7FEFF 		bl	GUI_DispStringAt
 772              	.LVL98:
 189:DISPLAY.c     ****     GUI_DrawLine(25,30,240,30);
ARM GAS  C:\Users\Mahrukh\AppData\Local\Temp\ccJcQtli.s 			page 18


 773              		.loc 1 189 0
 774 001e 1E23     		movs	r3, #30
 775 0020 F022     		movs	r2, #240
 776 0022 1946     		mov	r1, r3
 777 0024 1920     		movs	r0, #25
 778 0026 FFF7FEFF 		bl	GUI_DrawLine
 779              	.LVL99:
 190:DISPLAY.c     ****     GUI_SetFont(GUI_FONT_8_1);
 780              		.loc 1 190 0
 781 002a 2046     		mov	r0, r4
 782 002c FFF7FEFF 		bl	GUI_SetFont
 783              	.LVL100:
 191:DISPLAY.c     ****     GUI_DispStringAt ("DEFINIISSEZ LA BORNE SUPERIEUR DE LA FC", 10, 70);
 784              		.loc 1 191 0
 785 0030 4622     		movs	r2, #70
 786 0032 0A21     		movs	r1, #10
 787 0034 1348     		ldr	r0, .L45+8
 788 0036 FFF7FEFF 		bl	GUI_DispStringAt
 789              	.LVL101:
 192:DISPLAY.c     ****     GUI_SetFont(GUI_FONT_16_1);
 790              		.loc 1 192 0
 791 003a 1348     		ldr	r0, .L45+12
 792 003c FFF7FEFF 		bl	GUI_SetFont
 793              	.LVL102:
 193:DISPLAY.c     ****     GUI_DispStringAt ("BORNE SUPERIEUR: ", 10, 110);
 794              		.loc 1 193 0
 795 0040 6E22     		movs	r2, #110
 796 0042 0A21     		movs	r1, #10
 797 0044 1148     		ldr	r0, .L45+16
 798 0046 FFF7FEFF 		bl	GUI_DispStringAt
 799              	.LVL103:
 194:DISPLAY.c     ****     GUI_SetFont(GUI_FONT_32B_1);
 800              		.loc 1 194 0
 801 004a 1148     		ldr	r0, .L45+20
 802 004c FFF7FEFF 		bl	GUI_SetFont
 803              	.LVL104:
 195:DISPLAY.c     ****     sprintf(buffer,"%d\n\r",borne_superieur);
 804              		.loc 1 195 0
 805 0050 104C     		ldr	r4, .L45+24
 806 0052 114B     		ldr	r3, .L45+28
 807 0054 1A78     		ldrb	r2, [r3]	@ zero_extendqisi2
 808 0056 1149     		ldr	r1, .L45+32
 809 0058 2046     		mov	r0, r4
 810 005a FFF7FEFF 		bl	sprintf
 811              	.LVL105:
 196:DISPLAY.c     ****      GUI_DispStringAt (buffer, 139, 99);
 812              		.loc 1 196 0
 813 005e 6322     		movs	r2, #99
 814 0060 8B21     		movs	r1, #139
 815 0062 2046     		mov	r0, r4
 816 0064 FFF7FEFF 		bl	GUI_DispStringAt
 817              	.LVL106:
 197:DISPLAY.c     ****      GUI_DispStringAt ("BPM ", 187, 98);
 818              		.loc 1 197 0
 819 0068 6222     		movs	r2, #98
 820 006a BB21     		movs	r1, #187
 821 006c 0C48     		ldr	r0, .L45+36
ARM GAS  C:\Users\Mahrukh\AppData\Local\Temp\ccJcQtli.s 			page 19


 822 006e FFF7FEFF 		bl	GUI_DispStringAt
 823              	.LVL107:
 198:DISPLAY.c     ****      UpdateDisplay(CY_EINK_FULL_4STAGE, true); 
 824              		.loc 1 198 0
 825 0072 0121     		movs	r1, #1
 826 0074 0846     		mov	r0, r1
 827 0076 FFF7FEFF 		bl	UpdateDisplay
 828              	.LVL108:
 829 007a 10BD     		pop	{r4, pc}
 830              	.L46:
 831              		.align	2
 832              	.L45:
 833 007c 00000000 		.word	GUI_Font8_1
 834 0080 F4010000 		.word	.LC22
 835 0084 1C020000 		.word	.LC23
 836 0088 00000000 		.word	GUI_Font16_1
 837 008c 44020000 		.word	.LC24
 838 0090 00000000 		.word	GUI_Font32B_1
 839 0094 00000000 		.word	buffer
 840 0098 00000000 		.word	borne_superieur
 841 009c E8010000 		.word	.LC20
 842 00a0 60000000 		.word	.LC6
 843              		.cfi_endproc
 844              	.LFE612:
 845              		.size	DrawOption3_superieur, .-DrawOption3_superieur
 846              		.section	.text.DrawOption3_inferieur,"ax",%progbits
 847              		.align	2
 848              		.global	DrawOption3_inferieur
 849              		.thumb
 850              		.thumb_func
 851              		.type	DrawOption3_inferieur, %function
 852              	DrawOption3_inferieur:
 853              	.LFB613:
 199:DISPLAY.c     **** 
 200:DISPLAY.c     **** }
 201:DISPLAY.c     **** // Fonction qui permet d'afficher l'OPTION du MENU qui permet de d√©finir la borne sup√©rieure 
 202:DISPLAY.c     **** // de l'intervall de la fr√©quence cardiaque desir√©e 
 203:DISPLAY.c     **** void DrawOption3_inferieur (){    
 854              		.loc 1 203 0
 855              		.cfi_startproc
 856              		@ args = 0, pretend = 0, frame = 0
 857              		@ frame_needed = 0, uses_anonymous_args = 0
 858 0000 10B5     		push	{r4, lr}
 859              		.cfi_def_cfa_offset 8
 860              		.cfi_offset 4, -8
 861              		.cfi_offset 14, -4
 204:DISPLAY.c     ****   GUI_Clear(); 
 862              		.loc 1 204 0
 863 0002 FFF7FEFF 		bl	GUI_Clear
 864              	.LVL109:
 205:DISPLAY.c     ****     GUI_SetFont(GUI_FONT_8_1);
 865              		.loc 1 205 0
 866 0006 1D4C     		ldr	r4, .L49
 867 0008 2046     		mov	r0, r4
 868 000a FFF7FEFF 		bl	GUI_SetFont
 869              	.LVL110:
 206:DISPLAY.c     ****     GUI_SetTextAlign(GUI_TA_CENTER);
ARM GAS  C:\Users\Mahrukh\AppData\Local\Temp\ccJcQtli.s 			page 20


 870              		.loc 1 206 0
 871 000e 0220     		movs	r0, #2
 872 0010 FFF7FEFF 		bl	GUI_SetTextAlign
 873              	.LVL111:
 207:DISPLAY.c     ****     GUI_DispStringAt("DEFINITION DE L'INTERVALLE DE L'ALARME", 132, 20);
 874              		.loc 1 207 0
 875 0014 1422     		movs	r2, #20
 876 0016 8421     		movs	r1, #132
 877 0018 1948     		ldr	r0, .L49+4
 878 001a FFF7FEFF 		bl	GUI_DispStringAt
 879              	.LVL112:
 208:DISPLAY.c     ****     GUI_DrawLine(25,30,240,30);
 880              		.loc 1 208 0
 881 001e 1E23     		movs	r3, #30
 882 0020 F022     		movs	r2, #240
 883 0022 1946     		mov	r1, r3
 884 0024 1920     		movs	r0, #25
 885 0026 FFF7FEFF 		bl	GUI_DrawLine
 886              	.LVL113:
 209:DISPLAY.c     ****     GUI_SetFont(GUI_FONT_8_1);
 887              		.loc 1 209 0
 888 002a 2046     		mov	r0, r4
 889 002c FFF7FEFF 		bl	GUI_SetFont
 890              	.LVL114:
 210:DISPLAY.c     ****     GUI_DispStringAt ("DEFINIISSEZ LA BORNE INFERIEUR DE LA FC", 10, 70);
 891              		.loc 1 210 0
 892 0030 4622     		movs	r2, #70
 893 0032 0A21     		movs	r1, #10
 894 0034 1348     		ldr	r0, .L49+8
 895 0036 FFF7FEFF 		bl	GUI_DispStringAt
 896              	.LVL115:
 211:DISPLAY.c     ****     GUI_SetFont(GUI_FONT_16_1);
 897              		.loc 1 211 0
 898 003a 1348     		ldr	r0, .L49+12
 899 003c FFF7FEFF 		bl	GUI_SetFont
 900              	.LVL116:
 212:DISPLAY.c     ****     GUI_DispStringAt ("BORNE INFERIEUR: ", 10, 110);
 901              		.loc 1 212 0
 902 0040 6E22     		movs	r2, #110
 903 0042 0A21     		movs	r1, #10
 904 0044 1148     		ldr	r0, .L49+16
 905 0046 FFF7FEFF 		bl	GUI_DispStringAt
 906              	.LVL117:
 213:DISPLAY.c     ****     GUI_SetFont(GUI_FONT_32B_1);
 907              		.loc 1 213 0
 908 004a 1148     		ldr	r0, .L49+20
 909 004c FFF7FEFF 		bl	GUI_SetFont
 910              	.LVL118:
 214:DISPLAY.c     ****     sprintf(buffer,"%d\n\r",borne_inferieur);
 911              		.loc 1 214 0
 912 0050 104C     		ldr	r4, .L49+24
 913 0052 114B     		ldr	r3, .L49+28
 914 0054 1A78     		ldrb	r2, [r3]	@ zero_extendqisi2
 915 0056 1149     		ldr	r1, .L49+32
 916 0058 2046     		mov	r0, r4
 917 005a FFF7FEFF 		bl	sprintf
 918              	.LVL119:
ARM GAS  C:\Users\Mahrukh\AppData\Local\Temp\ccJcQtli.s 			page 21


 215:DISPLAY.c     ****      GUI_DispStringAt (buffer, 139, 99);
 919              		.loc 1 215 0
 920 005e 6322     		movs	r2, #99
 921 0060 8B21     		movs	r1, #139
 922 0062 2046     		mov	r0, r4
 923 0064 FFF7FEFF 		bl	GUI_DispStringAt
 924              	.LVL120:
 216:DISPLAY.c     ****      GUI_DispStringAt ("BPM ", 187, 98);
 925              		.loc 1 216 0
 926 0068 6222     		movs	r2, #98
 927 006a BB21     		movs	r1, #187
 928 006c 0C48     		ldr	r0, .L49+36
 929 006e FFF7FEFF 		bl	GUI_DispStringAt
 930              	.LVL121:
 217:DISPLAY.c     ****      UpdateDisplay(CY_EINK_FULL_4STAGE, true); 
 931              		.loc 1 217 0
 932 0072 0121     		movs	r1, #1
 933 0074 0846     		mov	r0, r1
 934 0076 FFF7FEFF 		bl	UpdateDisplay
 935              	.LVL122:
 936 007a 10BD     		pop	{r4, pc}
 937              	.L50:
 938              		.align	2
 939              	.L49:
 940 007c 00000000 		.word	GUI_Font8_1
 941 0080 F4010000 		.word	.LC22
 942 0084 58020000 		.word	.LC25
 943 0088 00000000 		.word	GUI_Font16_1
 944 008c 80020000 		.word	.LC26
 945 0090 00000000 		.word	GUI_Font32B_1
 946 0094 00000000 		.word	buffer
 947 0098 00000000 		.word	borne_inferieur
 948 009c E8010000 		.word	.LC20
 949 00a0 60000000 		.word	.LC6
 950              		.cfi_endproc
 951              	.LFE613:
 952              		.size	DrawOption3_inferieur, .-DrawOption3_inferieur
 953              		.section	.text.DrawOption3_ETAT,"ax",%progbits
 954              		.align	2
 955              		.global	DrawOption3_ETAT
 956              		.thumb
 957              		.thumb_func
 958              		.type	DrawOption3_ETAT, %function
 959              	DrawOption3_ETAT:
 960              	.LFB614:
 218:DISPLAY.c     **** }
 219:DISPLAY.c     **** // Fonction qui permet d'afficher l'OPTION du MENU qui permet de d√©finir l'√©tat de l'alarme de fr
 220:DISPLAY.c     **** void DrawOption3_ETAT ()
 221:DISPLAY.c     **** {       
 961              		.loc 1 221 0
 962              		.cfi_startproc
 963              		@ args = 0, pretend = 0, frame = 0
 964              		@ frame_needed = 0, uses_anonymous_args = 0
 965 0000 10B5     		push	{r4, lr}
 966              		.cfi_def_cfa_offset 8
 967              		.cfi_offset 4, -8
 968              		.cfi_offset 14, -4
ARM GAS  C:\Users\Mahrukh\AppData\Local\Temp\ccJcQtli.s 			page 22


 222:DISPLAY.c     ****           GUI_Clear(); 
 969              		.loc 1 222 0
 970 0002 FFF7FEFF 		bl	GUI_Clear
 971              	.LVL123:
 223:DISPLAY.c     ****     GUI_SetFont(GUI_FONT_16_1);
 972              		.loc 1 223 0
 973 0006 174C     		ldr	r4, .L53
 974 0008 2046     		mov	r0, r4
 975 000a FFF7FEFF 		bl	GUI_SetFont
 976              	.LVL124:
 224:DISPLAY.c     ****     GUI_SetTextAlign(GUI_TA_CENTER);
 977              		.loc 1 224 0
 978 000e 0220     		movs	r0, #2
 979 0010 FFF7FEFF 		bl	GUI_SetTextAlign
 980              	.LVL125:
 225:DISPLAY.c     ****     GUI_DispStringAt("ALARME DE LA FREQUENCE CARDIAQUE", 132, 20);
 981              		.loc 1 225 0
 982 0014 1422     		movs	r2, #20
 983 0016 8421     		movs	r1, #132
 984 0018 1348     		ldr	r0, .L53+4
 985 001a FFF7FEFF 		bl	GUI_DispStringAt
 986              	.LVL126:
 226:DISPLAY.c     ****     GUI_DrawLine(3,34,260,34);
 987              		.loc 1 226 0
 988 001e 2223     		movs	r3, #34
 989 0020 4FF48272 		mov	r2, #260
 990 0024 1946     		mov	r1, r3
 991 0026 0320     		movs	r0, #3
 992 0028 FFF7FEFF 		bl	GUI_DrawLine
 993              	.LVL127:
 227:DISPLAY.c     ****         GUI_SetFont(GUI_FONT_8_1);
 994              		.loc 1 227 0
 995 002c 0F48     		ldr	r0, .L53+8
 996 002e FFF7FEFF 		bl	GUI_SetFont
 997              	.LVL128:
 228:DISPLAY.c     ****     GUI_DispStringAt ("APPUYE SUR LE BOUTON 00 POUR ACTIVER L'ALARME", 10, 70);
 998              		.loc 1 228 0
 999 0032 4622     		movs	r2, #70
 1000 0034 0A21     		movs	r1, #10
 1001 0036 0E48     		ldr	r0, .L53+12
 1002 0038 FFF7FEFF 		bl	GUI_DispStringAt
 1003              	.LVL129:
 229:DISPLAY.c     ****     GUI_DispStringAt ("APPUYE SUR LE BOUTON 01 POUR DESACTIVER L'ALARME", 3, 100); 
 1004              		.loc 1 229 0
 1005 003c 6422     		movs	r2, #100
 1006 003e 0321     		movs	r1, #3
 1007 0040 0C48     		ldr	r0, .L53+16
 1008 0042 FFF7FEFF 		bl	GUI_DispStringAt
 1009              	.LVL130:
 230:DISPLAY.c     ****      GUI_DrawRect(7,120,230,160);
 1010              		.loc 1 230 0
 1011 0046 A023     		movs	r3, #160
 1012 0048 E622     		movs	r2, #230
 1013 004a 7821     		movs	r1, #120
 1014 004c 0720     		movs	r0, #7
 1015 004e FFF7FEFF 		bl	GUI_DrawRect
 1016              	.LVL131:
ARM GAS  C:\Users\Mahrukh\AppData\Local\Temp\ccJcQtli.s 			page 23


 231:DISPLAY.c     ****      GUI_SetFont(GUI_FONT_16_1);
 1017              		.loc 1 231 0
 1018 0052 2046     		mov	r0, r4
 1019 0054 FFF7FEFF 		bl	GUI_SetFont
 1020              	.LVL132:
 232:DISPLAY.c     ****     UpdateDisplay(CY_EINK_FULL_4STAGE, true);
 1021              		.loc 1 232 0
 1022 0058 0121     		movs	r1, #1
 1023 005a 0846     		mov	r0, r1
 1024 005c FFF7FEFF 		bl	UpdateDisplay
 1025              	.LVL133:
 1026 0060 10BD     		pop	{r4, pc}
 1027              	.L54:
 1028 0062 00BF     		.align	2
 1029              	.L53:
 1030 0064 00000000 		.word	GUI_Font16_1
 1031 0068 94020000 		.word	.LC27
 1032 006c 00000000 		.word	GUI_Font8_1
 1033 0070 34010000 		.word	.LC15
 1034 0074 64010000 		.word	.LC16
 1035              		.cfi_endproc
 1036              	.LFE614:
 1037              		.size	DrawOption3_ETAT, .-DrawOption3_ETAT
 1038              		.section	.text.display_task,"ax",%progbits
 1039              		.align	2
 1040              		.global	display_task
 1041              		.thumb
 1042              		.thumb_func
 1043              		.type	display_task, %function
 1044              	display_task:
 1045              	.LFB615:
 233:DISPLAY.c     **** } 
 234:DISPLAY.c     **** 
 235:DISPLAY.c     **** // La t√¢che d'affichage 
 236:DISPLAY.c     **** void display_task( void ) {
 1046              		.loc 1 236 0
 1047              		.cfi_startproc
 1048              		@ Volatile: function does not return.
 1049              		@ args = 0, pretend = 0, frame = 0
 1050              		@ frame_needed = 0, uses_anonymous_args = 0
 1051 0000 08B5     		push	{r3, lr}
 1052              		.cfi_def_cfa_offset 8
 1053              		.cfi_offset 3, -8
 1054              		.cfi_offset 14, -4
 237:DISPLAY.c     ****    
 238:DISPLAY.c     ****     // intialisation des param√®tres de l'affichahe sur l'√©cran E-INK display Shield Board CY8CKIT
 239:DISPLAY.c     ****     GUI_Init();
 1055              		.loc 1 239 0
 1056 0002 FFF7FEFF 		bl	GUI_Init
 1057              	.LVL134:
 240:DISPLAY.c     ****     Cy_EINK_Start(20);
 1058              		.loc 1 240 0
 1059 0006 1420     		movs	r0, #20
 1060 0008 FFF7FEFF 		bl	Cy_EINK_Start
 1061              	.LVL135:
 241:DISPLAY.c     ****     Cy_EINK_Power(1);
 1062              		.loc 1 241 0
ARM GAS  C:\Users\Mahrukh\AppData\Local\Temp\ccJcQtli.s 			page 24


 1063 000c 0120     		movs	r0, #1
 1064 000e FFF7FEFF 		bl	Cy_EINK_Power
 1065              	.LVL136:
 242:DISPLAY.c     ****     GUI_Clear(); 
 1066              		.loc 1 242 0
 1067 0012 FFF7FEFF 		bl	GUI_Clear
 1068              	.LVL137:
 243:DISPLAY.c     ****     GUI_SetColor(GUI_BLACK);
 1069              		.loc 1 243 0
 1070 0016 0020     		movs	r0, #0
 1071 0018 FFF7FEFF 		bl	GUI_SetColor
 1072              	.LVL138:
 244:DISPLAY.c     ****     GUI_SetBkColor(GUI_WHITE);
 1073              		.loc 1 244 0
 1074 001c 6FF07F40 		mvn	r0, #-16777216
 1075 0020 FFF7FEFF 		bl	GUI_SetBkColor
 1076              	.LVL139:
 245:DISPLAY.c     ****     GUI_SetPenSize(1);
 1077              		.loc 1 245 0
 1078 0024 0120     		movs	r0, #1
 1079 0026 FFF7FEFF 		bl	GUI_SetPenSize
 1080              	.LVL140:
 246:DISPLAY.c     ****     GUI_SetFont(GUI_FONT_8_1);
 1081              		.loc 1 246 0
 1082 002a 2948     		ldr	r0, .L92
 1083 002c FFF7FEFF 		bl	GUI_SetFont
 1084              	.LVL141:
 1085              	.L90:
 247:DISPLAY.c     ****         
 248:DISPLAY.c     ****     for (;;) {       
 249:DISPLAY.c     ****         
 250:DISPLAY.c     ****                 if (currentScreen.FLAG_DEPART) {
 1086              		.loc 1 250 0
 1087 0030 284B     		ldr	r3, .L92+4
 1088 0032 1B79     		ldrb	r3, [r3, #4]	@ zero_extendqisi2
 1089 0034 13F0FF0F 		tst	r3, #255
 1090 0038 1DD0     		beq	.L56
 251:DISPLAY.c     ****                              updateParameters(100,66); //valeurs test    
 1091              		.loc 1 251 0
 1092 003a 4221     		movs	r1, #66
 1093 003c 6420     		movs	r0, #100
 1094 003e FFF7FEFF 		bl	updateParameters
 1095              	.LVL142:
 252:DISPLAY.c     ****                              
 253:DISPLAY.c     ****                            if (currentScreen.TYPEGRAPH)                
 1096              		.loc 1 253 0
 1097 0042 244B     		ldr	r3, .L92+4
 1098 0044 5B79     		ldrb	r3, [r3, #5]	@ zero_extendqisi2
 1099 0046 13F0FF0F 		tst	r3, #255
 1100 004a 05D0     		beq	.L57
 254:DISPLAY.c     ****                                         {   
 255:DISPLAY.c     ****                                             drawGraph(INFRAROUGE, 3,taille_infrarouge) ;           
 1101              		.loc 1 255 0
 1102 004c 224B     		ldr	r3, .L92+8
 1103 004e 1A68     		ldr	r2, [r3]
 1104 0050 0321     		movs	r1, #3
 1105 0052 2248     		ldr	r0, .L92+12
ARM GAS  C:\Users\Mahrukh\AppData\Local\Temp\ccJcQtli.s 			page 25


 1106 0054 FFF7FEFF 		bl	drawGraph
 1107              	.LVL143:
 1108              	.L57:
 256:DISPLAY.c     ****                                         } 
 257:DISPLAY.c     ****                             if (currentScreen.TYPEGRAPH==0) 
 1109              		.loc 1 257 0
 1110 0058 1E4B     		ldr	r3, .L92+4
 1111 005a 5B79     		ldrb	r3, [r3, #5]	@ zero_extendqisi2
 1112 005c 13F0FF0F 		tst	r3, #255
 1113 0060 05D1     		bne	.L58
 258:DISPLAY.c     ****                                         {
 259:DISPLAY.c     ****                                            drawGraph(ROUGE, 3,taille_rouge ) ;     
 1114              		.loc 1 259 0
 1115 0062 1F4B     		ldr	r3, .L92+16
 1116 0064 1A68     		ldr	r2, [r3]
 1117 0066 0321     		movs	r1, #3
 1118 0068 1E48     		ldr	r0, .L92+20
 1119 006a FFF7FEFF 		bl	drawGraph
 1120              	.LVL144:
 1121              	.L58:
 260:DISPLAY.c     ****                                         } 
 261:DISPLAY.c     ****                             currentScreen.screen= PRINCIPAL_PAGE; 
 1122              		.loc 1 261 0
 1123 006e 194B     		ldr	r3, .L92+4
 1124 0070 0022     		movs	r2, #0
 1125 0072 1A70     		strb	r2, [r3]
 262:DISPLAY.c     ****                             currentScreen.FLAG_DEPART=0;        
 1126              		.loc 1 262 0
 1127 0074 1A71     		strb	r2, [r3, #4]
 1128              	.L56:
 263:DISPLAY.c     ****                  }  // √† l'appuie du bouton SW2, le type de courbe d'absorption est modifi√©e 
 264:DISPLAY.c     ****                 if (currentScreen.FLAG1==1 || currentScreen.FLAG3==1) {
 1129              		.loc 1 264 0
 1130 0076 174B     		ldr	r3, .L92+4
 1131 0078 5B78     		ldrb	r3, [r3, #1]	@ zero_extendqisi2
 1132 007a DBB2     		uxtb	r3, r3
 1133 007c 012B     		cmp	r3, #1
 1134 007e 04D0     		beq	.L59
 1135              		.loc 1 264 0 is_stmt 0 discriminator 1
 1136 0080 144B     		ldr	r3, .L92+4
 1137 0082 DB78     		ldrb	r3, [r3, #3]	@ zero_extendqisi2
 1138 0084 DBB2     		uxtb	r3, r3
 1139 0086 012B     		cmp	r3, #1
 1140 0088 15D1     		bne	.L60
 1141              	.L59:
 265:DISPLAY.c     ****                      
 266:DISPLAY.c     ****                      currentScreen.screen= MAIN_MENU; 
 1142              		.loc 1 266 0 is_stmt 1
 1143 008a 124C     		ldr	r4, .L92+4
 1144 008c 0123     		movs	r3, #1
 1145 008e 2370     		strb	r3, [r4]
 267:DISPLAY.c     ****                      postion_MENU=40;
 1146              		.loc 1 267 0
 1147 0090 2820     		movs	r0, #40
 1148 0092 154B     		ldr	r3, .L92+24
 1149 0094 1870     		strb	r0, [r3]
 268:DISPLAY.c     ****                     DrawMenu(postion_MENU);
ARM GAS  C:\Users\Mahrukh\AppData\Local\Temp\ccJcQtli.s 			page 26


 1150              		.loc 1 268 0
 1151 0096 FFF7FEFF 		bl	DrawMenu
 1152              	.LVL145:
 269:DISPLAY.c     ****                     if (currentScreen.FLAG1==1) {currentScreen.FLAG1=0;}
 1153              		.loc 1 269 0
 1154 009a 6378     		ldrb	r3, [r4, #1]	@ zero_extendqisi2
 1155 009c DBB2     		uxtb	r3, r3
 1156 009e 012B     		cmp	r3, #1
 1157 00a0 01D1     		bne	.L61
 1158              		.loc 1 269 0 is_stmt 0 discriminator 1
 1159 00a2 0022     		movs	r2, #0
 1160 00a4 6270     		strb	r2, [r4, #1]
 1161              	.L61:
 270:DISPLAY.c     ****                     if (currentScreen.FLAG3==1) {currentScreen.FLAG3=0;}
 1162              		.loc 1 270 0 is_stmt 1
 1163 00a6 0B4B     		ldr	r3, .L92+4
 1164 00a8 DB78     		ldrb	r3, [r3, #3]	@ zero_extendqisi2
 1165 00aa DBB2     		uxtb	r3, r3
 1166 00ac 012B     		cmp	r3, #1
 1167 00ae 02D1     		bne	.L60
 1168              		.loc 1 270 0 is_stmt 0 discriminator 1
 1169 00b0 0022     		movs	r2, #0
 1170 00b2 084B     		ldr	r3, .L92+4
 1171 00b4 DA70     		strb	r2, [r3, #3]
 1172              	.L60:
 271:DISPLAY.c     ****                 } // √† l'appuie du bouton SW2 ou le bouton 0 dans la page principale, la page du M
 272:DISPLAY.c     ****                 if (currentScreen.FLAG1==2)
 1173              		.loc 1 272 0 is_stmt 1
 1174 00b6 074B     		ldr	r3, .L92+4
 1175 00b8 5B78     		ldrb	r3, [r3, #1]	@ zero_extendqisi2
 1176 00ba DBB2     		uxtb	r3, r3
 1177 00bc 022B     		cmp	r3, #2
 1178 00be 1FD1     		bne	.L62
 273:DISPLAY.c     ****                 {
 274:DISPLAY.c     ****                     if (postion_MENU==160)
 1179              		.loc 1 274 0
 1180 00c0 094B     		ldr	r3, .L92+24
 1181 00c2 1B78     		ldrb	r3, [r3]	@ zero_extendqisi2
 1182 00c4 A02B     		cmp	r3, #160
 1183 00c6 11D1     		bne	.L63
 275:DISPLAY.c     ****                     {postion_MENU=40; }
 1184              		.loc 1 275 0
 1185 00c8 2822     		movs	r2, #40
 1186 00ca 074B     		ldr	r3, .L92+24
 1187 00cc 1A70     		strb	r2, [r3]
 1188 00ce 10E0     		b	.L64
 1189              	.L93:
 1190              		.align	2
 1191              	.L92:
 1192 00d0 00000000 		.word	GUI_Font8_1
 1193 00d4 00000000 		.word	currentScreen
 1194 00d8 00000000 		.word	taille_infrarouge
 1195 00dc 00000000 		.word	INFRAROUGE
 1196 00e0 00000000 		.word	taille_rouge
 1197 00e4 00000000 		.word	ROUGE
 1198 00e8 00000000 		.word	postion_MENU
 1199              	.L63:
ARM GAS  C:\Users\Mahrukh\AppData\Local\Temp\ccJcQtli.s 			page 27


 276:DISPLAY.c     ****                     else 
 277:DISPLAY.c     ****                     {postion_MENU= postion_MENU+30;} 
 1200              		.loc 1 277 0
 1201 00ec 1E33     		adds	r3, r3, #30
 1202 00ee A04A     		ldr	r2, .L94
 1203 00f0 1370     		strb	r3, [r2]
 1204              	.L64:
 278:DISPLAY.c     ****                     DrawMenu(postion_MENU); 
 1205              		.loc 1 278 0
 1206 00f2 9F4B     		ldr	r3, .L94
 1207 00f4 1878     		ldrb	r0, [r3]	@ zero_extendqisi2
 1208 00f6 FFF7FEFF 		bl	DrawMenu
 1209              	.LVL146:
 279:DISPLAY.c     ****                     currentScreen.FLAG1=0; 
 1210              		.loc 1 279 0
 1211 00fa 0022     		movs	r2, #0
 1212 00fc 9D4B     		ldr	r3, .L94+4
 1213 00fe 5A70     		strb	r2, [r3, #1]
 1214              	.L62:
 280:DISPLAY.c     ****                 } // √† l'appuie du bouton 0 dans la page de MENU, le curseur change de position ve
 281:DISPLAY.c     ****                 if (currentScreen.FLAG1== 3 || selection_MENU==1 || currentScreen.FLAG2== 3 )
 1215              		.loc 1 281 0
 1216 0100 9C4B     		ldr	r3, .L94+4
 1217 0102 5B78     		ldrb	r3, [r3, #1]	@ zero_extendqisi2
 1218 0104 DBB2     		uxtb	r3, r3
 1219 0106 032B     		cmp	r3, #3
 1220 0108 08D0     		beq	.L65
 1221              		.loc 1 281 0 is_stmt 0 discriminator 1
 1222 010a 9B4B     		ldr	r3, .L94+8
 1223 010c 1B78     		ldrb	r3, [r3]	@ zero_extendqisi2
 1224 010e 012B     		cmp	r3, #1
 1225 0110 04D0     		beq	.L65
 1226              		.loc 1 281 0 discriminator 2
 1227 0112 984B     		ldr	r3, .L94+4
 1228 0114 9B78     		ldrb	r3, [r3, #2]	@ zero_extendqisi2
 1229 0116 DBB2     		uxtb	r3, r3
 1230 0118 032B     		cmp	r3, #3
 1231 011a 3BD1     		bne	.L66
 1232              	.L65:
 282:DISPLAY.c     ****                 {
 283:DISPLAY.c     **** 
 284:DISPLAY.c     ****                     DrawOption1 (); 
 1233              		.loc 1 284 0 is_stmt 1
 1234 011c FFF7FEFF 		bl	DrawOption1
 1235              	.LVL147:
 285:DISPLAY.c     ****                    
 286:DISPLAY.c     ****                     //Activation  de l'alarme de l'acc√©l√©rom√®tre √† l'appuie du bouton 0 sur la 
 287:DISPLAY.c     ****                     //Permet la lecture des variables transmis par l'expert communication
 288:DISPLAY.c     ****                                         if  (currentScreen.FLAG1==3) {
 1236              		.loc 1 288 0
 1237 0120 944B     		ldr	r3, .L94+4
 1238 0122 5B78     		ldrb	r3, [r3, #1]	@ zero_extendqisi2
 1239 0124 DBB2     		uxtb	r3, r3
 1240 0126 032B     		cmp	r3, #3
 1241 0128 11D1     		bne	.L67
 289:DISPLAY.c     ****                                              alarme_acc= true; 
 1242              		.loc 1 289 0
ARM GAS  C:\Users\Mahrukh\AppData\Local\Temp\ccJcQtli.s 			page 28


 1243 012a 0124     		movs	r4, #1
 1244 012c 934B     		ldr	r3, .L94+12
 1245 012e 1C70     		strb	r4, [r3]
 290:DISPLAY.c     ****                                              GUI_SetFont(GUI_FONT_16B_1);
 1246              		.loc 1 290 0
 1247 0130 9348     		ldr	r0, .L94+16
 1248 0132 FFF7FEFF 		bl	GUI_SetFont
 1249              	.LVL148:
 291:DISPLAY.c     ****                                              GUI_DispStringAt ("L'alarme est activee ",25, 130); 
 1250              		.loc 1 291 0
 1251 0136 8222     		movs	r2, #130
 1252 0138 1921     		movs	r1, #25
 1253 013a 9248     		ldr	r0, .L94+20
 1254 013c FFF7FEFF 		bl	GUI_DispStringAt
 1255              	.LVL149:
 292:DISPLAY.c     ****                                                UpdateDisplay(CY_EINK_FULL_4STAGE, true);
 1256              		.loc 1 292 0
 1257 0140 2146     		mov	r1, r4
 1258 0142 2046     		mov	r0, r4
 1259 0144 FFF7FEFF 		bl	UpdateDisplay
 1260              	.LVL150:
 293:DISPLAY.c     ****                                             currentScreen.FLAG1=0; }
 1261              		.loc 1 293 0
 1262 0148 0022     		movs	r2, #0
 1263 014a 8A4B     		ldr	r3, .L94+4
 1264 014c 5A70     		strb	r2, [r3, #1]
 1265              	.L67:
 294:DISPLAY.c     ****                   //D√©sactivation  de l'alarme de l'acc√©l√©rom√®tre √† l'appuie du bouton 1 sur l
 295:DISPLAY.c     ****                   //Bloque la lecture des variables transmis par l'expert communication
 296:DISPLAY.c     ****                                         if  (currentScreen.FLAG2==3) { 
 1266              		.loc 1 296 0
 1267 014e 894B     		ldr	r3, .L94+4
 1268 0150 9B78     		ldrb	r3, [r3, #2]	@ zero_extendqisi2
 1269 0152 DBB2     		uxtb	r3, r3
 1270 0154 032B     		cmp	r3, #3
 1271 0156 13D1     		bne	.L68
 297:DISPLAY.c     ****                                              alarme_acc= false;
 1272              		.loc 1 297 0
 1273 0158 0024     		movs	r4, #0
 1274 015a 884B     		ldr	r3, .L94+12
 1275 015c 1C70     		strb	r4, [r3]
 1276              	.LVL151:
 1277              	.LBB16:
 1278              	.LBB17:
 1279              		.file 2 "Generated_Source\\PSoC6\\pdl\\drivers/peripheral/gpio/cy_gpio.h"
   1:Generated_Source\PSoC6\pdl\drivers/peripheral/gpio/cy_gpio.h **** /***************************************************************************//**
   2:Generated_Source\PSoC6\pdl\drivers/peripheral/gpio/cy_gpio.h **** * \file cy_gpio.h
   3:Generated_Source\PSoC6\pdl\drivers/peripheral/gpio/cy_gpio.h **** * \version 1.20
   4:Generated_Source\PSoC6\pdl\drivers/peripheral/gpio/cy_gpio.h **** *
   5:Generated_Source\PSoC6\pdl\drivers/peripheral/gpio/cy_gpio.h **** * Provides an API declaration of the GPIO driver
   6:Generated_Source\PSoC6\pdl\drivers/peripheral/gpio/cy_gpio.h **** *
   7:Generated_Source\PSoC6\pdl\drivers/peripheral/gpio/cy_gpio.h **** ********************************************************************************
   8:Generated_Source\PSoC6\pdl\drivers/peripheral/gpio/cy_gpio.h **** * \copyright
   9:Generated_Source\PSoC6\pdl\drivers/peripheral/gpio/cy_gpio.h **** * Copyright 2016-2018, Cypress Semiconductor Corporation. All rights reserved.
  10:Generated_Source\PSoC6\pdl\drivers/peripheral/gpio/cy_gpio.h **** * You may use this file only in accordance with the license, terms, conditions,
  11:Generated_Source\PSoC6\pdl\drivers/peripheral/gpio/cy_gpio.h **** * disclaimers, and limitations in the end user license agreement accompanying
  12:Generated_Source\PSoC6\pdl\drivers/peripheral/gpio/cy_gpio.h **** * the software package with which this file was provided.
ARM GAS  C:\Users\Mahrukh\AppData\Local\Temp\ccJcQtli.s 			page 29


  13:Generated_Source\PSoC6\pdl\drivers/peripheral/gpio/cy_gpio.h **** *******************************************************************************/
  14:Generated_Source\PSoC6\pdl\drivers/peripheral/gpio/cy_gpio.h **** 
  15:Generated_Source\PSoC6\pdl\drivers/peripheral/gpio/cy_gpio.h **** /**
  16:Generated_Source\PSoC6\pdl\drivers/peripheral/gpio/cy_gpio.h **** * \addtogroup group_gpio
  17:Generated_Source\PSoC6\pdl\drivers/peripheral/gpio/cy_gpio.h **** * \{
  18:Generated_Source\PSoC6\pdl\drivers/peripheral/gpio/cy_gpio.h **** * The GPIO driver provides an API to configure and access device Input/Output pins.
  19:Generated_Source\PSoC6\pdl\drivers/peripheral/gpio/cy_gpio.h **** *
  20:Generated_Source\PSoC6\pdl\drivers/peripheral/gpio/cy_gpio.h **** * The functions and other declarations used in this driver are in cy_gpio.h. 
  21:Generated_Source\PSoC6\pdl\drivers/peripheral/gpio/cy_gpio.h **** * You can include cy_pdl.h (ModusToolbox only) to get access to all functions 
  22:Generated_Source\PSoC6\pdl\drivers/peripheral/gpio/cy_gpio.h **** * and declarations in the PDL.
  23:Generated_Source\PSoC6\pdl\drivers/peripheral/gpio/cy_gpio.h **** *
  24:Generated_Source\PSoC6\pdl\drivers/peripheral/gpio/cy_gpio.h **** * IO pins include all general purpose types such as GPIO, SIO, HSIO, AUXIO, and
  25:Generated_Source\PSoC6\pdl\drivers/peripheral/gpio/cy_gpio.h **** * their variants.
  26:Generated_Source\PSoC6\pdl\drivers/peripheral/gpio/cy_gpio.h **** *
  27:Generated_Source\PSoC6\pdl\drivers/peripheral/gpio/cy_gpio.h **** * Initialization can be performed either at the port level or by configuring the
  28:Generated_Source\PSoC6\pdl\drivers/peripheral/gpio/cy_gpio.h **** * individual pins. For efficient use of code space, port
  29:Generated_Source\PSoC6\pdl\drivers/peripheral/gpio/cy_gpio.h **** * configuration should be used in the field. Refer to the product device header files 
  30:Generated_Source\PSoC6\pdl\drivers/peripheral/gpio/cy_gpio.h **** * for the list of supported ports and pins.
  31:Generated_Source\PSoC6\pdl\drivers/peripheral/gpio/cy_gpio.h **** * 
  32:Generated_Source\PSoC6\pdl\drivers/peripheral/gpio/cy_gpio.h **** * - Single pin configuration is performed by using \ref Cy_GPIO_Pin_FastInit 
  33:Generated_Source\PSoC6\pdl\drivers/peripheral/gpio/cy_gpio.h **** *   (provide specific values) or \ref Cy_GPIO_Pin_Init (provide a filled
  34:Generated_Source\PSoC6\pdl\drivers/peripheral/gpio/cy_gpio.h **** *   cy_stc_gpio_pin_config_t structure).
  35:Generated_Source\PSoC6\pdl\drivers/peripheral/gpio/cy_gpio.h **** * - An entire port can be configured using \ref Cy_GPIO_Port_Init. Provide a filled 
  36:Generated_Source\PSoC6\pdl\drivers/peripheral/gpio/cy_gpio.h **** *   cy_stc_gpio_prt_config_t structure. The values in the structure are 
  37:Generated_Source\PSoC6\pdl\drivers/peripheral/gpio/cy_gpio.h **** *   bitfields representing the desired value for each pin in the port.
  38:Generated_Source\PSoC6\pdl\drivers/peripheral/gpio/cy_gpio.h **** * - Pin configuration and management is based on the port address and pin number.
  39:Generated_Source\PSoC6\pdl\drivers/peripheral/gpio/cy_gpio.h **** *   \ref Cy_GPIO_PortToAddr function can optionally be used to calculate the port
  40:Generated_Source\PSoC6\pdl\drivers/peripheral/gpio/cy_gpio.h **** *   address from the port number at run-time.
  41:Generated_Source\PSoC6\pdl\drivers/peripheral/gpio/cy_gpio.h **** *
  42:Generated_Source\PSoC6\pdl\drivers/peripheral/gpio/cy_gpio.h **** * Once the pin/port initialization is complete, each pin can be accessed by 
  43:Generated_Source\PSoC6\pdl\drivers/peripheral/gpio/cy_gpio.h **** * specifying the port (GPIO_PRT_Type) and the pin (0-7) in the provided API 
  44:Generated_Source\PSoC6\pdl\drivers/peripheral/gpio/cy_gpio.h **** * functions.
  45:Generated_Source\PSoC6\pdl\drivers/peripheral/gpio/cy_gpio.h **** *
  46:Generated_Source\PSoC6\pdl\drivers/peripheral/gpio/cy_gpio.h **** * \section group_gpio_configuration Configuration Considerations
  47:Generated_Source\PSoC6\pdl\drivers/peripheral/gpio/cy_gpio.h **** *
  48:Generated_Source\PSoC6\pdl\drivers/peripheral/gpio/cy_gpio.h **** * 1. Pin multiplexing is controlled through the High-Speed IO Matrix (HSIOM) selection.
  49:Generated_Source\PSoC6\pdl\drivers/peripheral/gpio/cy_gpio.h **** *    This allows the pin to connect to signal sources/sinks throughout the device,
  50:Generated_Source\PSoC6\pdl\drivers/peripheral/gpio/cy_gpio.h **** *    as defined by the pin HSIOM selection options (en_hsiom_sel_t).
  51:Generated_Source\PSoC6\pdl\drivers/peripheral/gpio/cy_gpio.h **** * 2. All pins are initialized to High-Z drive mode with HSIOM connected to CPU (SW
  52:Generated_Source\PSoC6\pdl\drivers/peripheral/gpio/cy_gpio.h **** *    control digital pin only) at Power-On-Reset(POR).
  53:Generated_Source\PSoC6\pdl\drivers/peripheral/gpio/cy_gpio.h **** * 3. Some API functions perform read-modify-write operations on shared port
  54:Generated_Source\PSoC6\pdl\drivers/peripheral/gpio/cy_gpio.h **** *    registers. These functions are not thread safe and care must be taken when
  55:Generated_Source\PSoC6\pdl\drivers/peripheral/gpio/cy_gpio.h **** *    called by the application.
  56:Generated_Source\PSoC6\pdl\drivers/peripheral/gpio/cy_gpio.h **** * 4. Digital input buffer provides a high-impedance buffer for the external 
  57:Generated_Source\PSoC6\pdl\drivers/peripheral/gpio/cy_gpio.h **** *    digital input. The input buffer is connected to the HSIOM for routing to 
  58:Generated_Source\PSoC6\pdl\drivers/peripheral/gpio/cy_gpio.h **** *    the CPU port registers and selected peripheral. Enabling the input 
  59:Generated_Source\PSoC6\pdl\drivers/peripheral/gpio/cy_gpio.h **** *    buffer provides possibility to read the pin state via the CPU.
  60:Generated_Source\PSoC6\pdl\drivers/peripheral/gpio/cy_gpio.h **** *    If pin is connected to an analog signal, the input buffer should be 
  61:Generated_Source\PSoC6\pdl\drivers/peripheral/gpio/cy_gpio.h **** *    disabled to avoid crowbar currents. For more information refer to device 
  62:Generated_Source\PSoC6\pdl\drivers/peripheral/gpio/cy_gpio.h **** *    TRM and the device datasheet.
  63:Generated_Source\PSoC6\pdl\drivers/peripheral/gpio/cy_gpio.h **** *
  64:Generated_Source\PSoC6\pdl\drivers/peripheral/gpio/cy_gpio.h **** * Multiple pins on a port can be updated using direct port register writes with an
  65:Generated_Source\PSoC6\pdl\drivers/peripheral/gpio/cy_gpio.h **** * appropriate port mask. An example is shown below, highlighting the different ways of 
  66:Generated_Source\PSoC6\pdl\drivers/peripheral/gpio/cy_gpio.h **** * configuring Port 1 pins using:
  67:Generated_Source\PSoC6\pdl\drivers/peripheral/gpio/cy_gpio.h **** * 
  68:Generated_Source\PSoC6\pdl\drivers/peripheral/gpio/cy_gpio.h **** * - Port output data register
  69:Generated_Source\PSoC6\pdl\drivers/peripheral/gpio/cy_gpio.h **** * - Port output data set register
ARM GAS  C:\Users\Mahrukh\AppData\Local\Temp\ccJcQtli.s 			page 30


  70:Generated_Source\PSoC6\pdl\drivers/peripheral/gpio/cy_gpio.h **** * - Port output data clear register
  71:Generated_Source\PSoC6\pdl\drivers/peripheral/gpio/cy_gpio.h **** *
  72:Generated_Source\PSoC6\pdl\drivers/peripheral/gpio/cy_gpio.h **** * \snippet gpio/gpio_v1_10_sut_01.cydsn/main_cm4.c Cy_GPIO_Snippet
  73:Generated_Source\PSoC6\pdl\drivers/peripheral/gpio/cy_gpio.h **** *
  74:Generated_Source\PSoC6\pdl\drivers/peripheral/gpio/cy_gpio.h **** * \section group_gpio_more_information More Information
  75:Generated_Source\PSoC6\pdl\drivers/peripheral/gpio/cy_gpio.h **** *
  76:Generated_Source\PSoC6\pdl\drivers/peripheral/gpio/cy_gpio.h **** * Refer to the technical reference manual (TRM) and the device datasheet.
  77:Generated_Source\PSoC6\pdl\drivers/peripheral/gpio/cy_gpio.h **** *
  78:Generated_Source\PSoC6\pdl\drivers/peripheral/gpio/cy_gpio.h **** * \section group_gpio_MISRA MISRA-C Compliance
  79:Generated_Source\PSoC6\pdl\drivers/peripheral/gpio/cy_gpio.h **** * The GPIO driver has the following specific deviations:
  80:Generated_Source\PSoC6\pdl\drivers/peripheral/gpio/cy_gpio.h **** *
  81:Generated_Source\PSoC6\pdl\drivers/peripheral/gpio/cy_gpio.h **** * <table class="doxtable">
  82:Generated_Source\PSoC6\pdl\drivers/peripheral/gpio/cy_gpio.h **** *   <tr>
  83:Generated_Source\PSoC6\pdl\drivers/peripheral/gpio/cy_gpio.h **** *     <th>MISRA Rule</th>
  84:Generated_Source\PSoC6\pdl\drivers/peripheral/gpio/cy_gpio.h **** *     <th>Rule Class (Required/Advisory)</th>
  85:Generated_Source\PSoC6\pdl\drivers/peripheral/gpio/cy_gpio.h **** *     <th>Rule Description</th>
  86:Generated_Source\PSoC6\pdl\drivers/peripheral/gpio/cy_gpio.h **** *     <th>Description of Deviation(s)</th>
  87:Generated_Source\PSoC6\pdl\drivers/peripheral/gpio/cy_gpio.h **** *   </tr>
  88:Generated_Source\PSoC6\pdl\drivers/peripheral/gpio/cy_gpio.h **** *   <tr>
  89:Generated_Source\PSoC6\pdl\drivers/peripheral/gpio/cy_gpio.h **** *     <td>11.4</td>
  90:Generated_Source\PSoC6\pdl\drivers/peripheral/gpio/cy_gpio.h **** *     <td>A</td>
  91:Generated_Source\PSoC6\pdl\drivers/peripheral/gpio/cy_gpio.h **** *     <td>A cast should not be performed between a pointer to object type and
  92:Generated_Source\PSoC6\pdl\drivers/peripheral/gpio/cy_gpio.h **** *         a different pointer to object type.</td>
  93:Generated_Source\PSoC6\pdl\drivers/peripheral/gpio/cy_gpio.h **** *     <td> This code is safe because the elements of both GPIO_PRT_V1_Type and GPIO_PRT_V2_Type 
  94:Generated_Source\PSoC6\pdl\drivers/peripheral/gpio/cy_gpio.h **** *          types have identical alignment.</td>
  95:Generated_Source\PSoC6\pdl\drivers/peripheral/gpio/cy_gpio.h **** *   </tr>
  96:Generated_Source\PSoC6\pdl\drivers/peripheral/gpio/cy_gpio.h **** *   <tr>
  97:Generated_Source\PSoC6\pdl\drivers/peripheral/gpio/cy_gpio.h **** *     <td>16.7</td>
  98:Generated_Source\PSoC6\pdl\drivers/peripheral/gpio/cy_gpio.h **** *     <td>A</td>
  99:Generated_Source\PSoC6\pdl\drivers/peripheral/gpio/cy_gpio.h **** *     <td>A pointer parameter in a function prototype should be declared as pointer 
 100:Generated_Source\PSoC6\pdl\drivers/peripheral/gpio/cy_gpio.h **** *         to const if the pointer is not used to modify the addressed object.</td>
 101:Generated_Source\PSoC6\pdl\drivers/peripheral/gpio/cy_gpio.h **** *     <td>The objects pointed to by the base addresses of the GPIO port are not always modified.
 102:Generated_Source\PSoC6\pdl\drivers/peripheral/gpio/cy_gpio.h **** *         While a const qualifier can be used in select scenarios, it brings little benefit
 103:Generated_Source\PSoC6\pdl\drivers/peripheral/gpio/cy_gpio.h **** *         in adding this to the affected functions. </td>
 104:Generated_Source\PSoC6\pdl\drivers/peripheral/gpio/cy_gpio.h **** *   </tr>
 105:Generated_Source\PSoC6\pdl\drivers/peripheral/gpio/cy_gpio.h **** * </table>
 106:Generated_Source\PSoC6\pdl\drivers/peripheral/gpio/cy_gpio.h **** *
 107:Generated_Source\PSoC6\pdl\drivers/peripheral/gpio/cy_gpio.h **** * \section group_gpio_changelog Changelog
 108:Generated_Source\PSoC6\pdl\drivers/peripheral/gpio/cy_gpio.h **** * <table class="doxtable">
 109:Generated_Source\PSoC6\pdl\drivers/peripheral/gpio/cy_gpio.h **** *   <tr><th>Version</th><th>Changes</th><th>Reason for Change</th></tr>
 110:Generated_Source\PSoC6\pdl\drivers/peripheral/gpio/cy_gpio.h **** *   <tr>
 111:Generated_Source\PSoC6\pdl\drivers/peripheral/gpio/cy_gpio.h **** *     <td rowspan="3">1.20</td>
 112:Generated_Source\PSoC6\pdl\drivers/peripheral/gpio/cy_gpio.h **** *     <td>Flattened the organization of the driver source code into the single source directory and
 113:Generated_Source\PSoC6\pdl\drivers/peripheral/gpio/cy_gpio.h **** *     <td>Driver library directory-structure simplification.</td>
 114:Generated_Source\PSoC6\pdl\drivers/peripheral/gpio/cy_gpio.h **** *   </tr>
 115:Generated_Source\PSoC6\pdl\drivers/peripheral/gpio/cy_gpio.h **** *   <tr>
 116:Generated_Source\PSoC6\pdl\drivers/peripheral/gpio/cy_gpio.h **** *     <td>Added the functions for configuring the AMux bus splitter switch cells:
 117:Generated_Source\PSoC6\pdl\drivers/peripheral/gpio/cy_gpio.h **** *     - \ref Cy_GPIO_SetAmuxSplit
 118:Generated_Source\PSoC6\pdl\drivers/peripheral/gpio/cy_gpio.h **** *     - \ref Cy_GPIO_GetAmuxSplit
 119:Generated_Source\PSoC6\pdl\drivers/peripheral/gpio/cy_gpio.h **** *     </td>
 120:Generated_Source\PSoC6\pdl\drivers/peripheral/gpio/cy_gpio.h **** *     <td>Added a new functionality related to AMux bus.</td>
 121:Generated_Source\PSoC6\pdl\drivers/peripheral/gpio/cy_gpio.h **** *   </tr>
 122:Generated_Source\PSoC6\pdl\drivers/peripheral/gpio/cy_gpio.h **** *   <tr>
 123:Generated_Source\PSoC6\pdl\drivers/peripheral/gpio/cy_gpio.h **** *     <td>Added register access layer. Use register access macros instead
 124:Generated_Source\PSoC6\pdl\drivers/peripheral/gpio/cy_gpio.h **** *         of direct register access using dereferenced pointers.</td>
 125:Generated_Source\PSoC6\pdl\drivers/peripheral/gpio/cy_gpio.h **** *     <td>Makes register access device-independent, so that the PDL does 
 126:Generated_Source\PSoC6\pdl\drivers/peripheral/gpio/cy_gpio.h **** *         not need to be recompiled for each supported part number.</td>
ARM GAS  C:\Users\Mahrukh\AppData\Local\Temp\ccJcQtli.s 			page 31


 127:Generated_Source\PSoC6\pdl\drivers/peripheral/gpio/cy_gpio.h **** *   </tr>
 128:Generated_Source\PSoC6\pdl\drivers/peripheral/gpio/cy_gpio.h **** *   <tr>
 129:Generated_Source\PSoC6\pdl\drivers/peripheral/gpio/cy_gpio.h **** *     <td>1.10.1</td>
 130:Generated_Source\PSoC6\pdl\drivers/peripheral/gpio/cy_gpio.h **** *     <td>Updated description for the functions: \ref Cy_GPIO_GetInterruptStatus, 
 131:Generated_Source\PSoC6\pdl\drivers/peripheral/gpio/cy_gpio.h **** *         \ref Cy_GPIO_GetInterruptMask, \ref Cy_GPIO_GetInterruptStatusMasked.
 132:Generated_Source\PSoC6\pdl\drivers/peripheral/gpio/cy_gpio.h **** *
 133:Generated_Source\PSoC6\pdl\drivers/peripheral/gpio/cy_gpio.h **** *         Minor documentation edits.
 134:Generated_Source\PSoC6\pdl\drivers/peripheral/gpio/cy_gpio.h **** *     </td>
 135:Generated_Source\PSoC6\pdl\drivers/peripheral/gpio/cy_gpio.h **** *     <td>Documentation update and clarification</td>
 136:Generated_Source\PSoC6\pdl\drivers/peripheral/gpio/cy_gpio.h **** *   </tr>
 137:Generated_Source\PSoC6\pdl\drivers/peripheral/gpio/cy_gpio.h **** *   <tr>
 138:Generated_Source\PSoC6\pdl\drivers/peripheral/gpio/cy_gpio.h **** *     <td>1.10</td>
 139:Generated_Source\PSoC6\pdl\drivers/peripheral/gpio/cy_gpio.h **** *     <td>Added input parameter validation to the API functions</td>
 140:Generated_Source\PSoC6\pdl\drivers/peripheral/gpio/cy_gpio.h **** *     <td></td>
 141:Generated_Source\PSoC6\pdl\drivers/peripheral/gpio/cy_gpio.h **** *   </tr>
 142:Generated_Source\PSoC6\pdl\drivers/peripheral/gpio/cy_gpio.h **** *   <tr>
 143:Generated_Source\PSoC6\pdl\drivers/peripheral/gpio/cy_gpio.h **** *     <td>1.0</td>
 144:Generated_Source\PSoC6\pdl\drivers/peripheral/gpio/cy_gpio.h **** *     <td>Initial version</td>
 145:Generated_Source\PSoC6\pdl\drivers/peripheral/gpio/cy_gpio.h **** *     <td></td>
 146:Generated_Source\PSoC6\pdl\drivers/peripheral/gpio/cy_gpio.h **** *   </tr>
 147:Generated_Source\PSoC6\pdl\drivers/peripheral/gpio/cy_gpio.h **** * </table>
 148:Generated_Source\PSoC6\pdl\drivers/peripheral/gpio/cy_gpio.h **** *
 149:Generated_Source\PSoC6\pdl\drivers/peripheral/gpio/cy_gpio.h **** * \defgroup group_gpio_macros Macros
 150:Generated_Source\PSoC6\pdl\drivers/peripheral/gpio/cy_gpio.h **** * \defgroup group_gpio_functions Functions
 151:Generated_Source\PSoC6\pdl\drivers/peripheral/gpio/cy_gpio.h **** * \{
 152:Generated_Source\PSoC6\pdl\drivers/peripheral/gpio/cy_gpio.h **** *   \defgroup group_gpio_functions_init       Initialization Functions
 153:Generated_Source\PSoC6\pdl\drivers/peripheral/gpio/cy_gpio.h **** *   \defgroup group_gpio_functions_gpio       GPIO Functions
 154:Generated_Source\PSoC6\pdl\drivers/peripheral/gpio/cy_gpio.h **** *   \defgroup group_gpio_functions_sio        SIO Functions
 155:Generated_Source\PSoC6\pdl\drivers/peripheral/gpio/cy_gpio.h **** *   \defgroup group_gpio_functions_interrupt  Port Interrupt Functions
 156:Generated_Source\PSoC6\pdl\drivers/peripheral/gpio/cy_gpio.h **** * \}
 157:Generated_Source\PSoC6\pdl\drivers/peripheral/gpio/cy_gpio.h **** * \defgroup group_gpio_data_structures Data Structures
 158:Generated_Source\PSoC6\pdl\drivers/peripheral/gpio/cy_gpio.h **** * \defgroup group_gpio_enums Enumerated Types
 159:Generated_Source\PSoC6\pdl\drivers/peripheral/gpio/cy_gpio.h **** */
 160:Generated_Source\PSoC6\pdl\drivers/peripheral/gpio/cy_gpio.h **** 
 161:Generated_Source\PSoC6\pdl\drivers/peripheral/gpio/cy_gpio.h **** #if !defined(CY_GPIO_H)
 162:Generated_Source\PSoC6\pdl\drivers/peripheral/gpio/cy_gpio.h **** #define CY_GPIO_H
 163:Generated_Source\PSoC6\pdl\drivers/peripheral/gpio/cy_gpio.h **** 
 164:Generated_Source\PSoC6\pdl\drivers/peripheral/gpio/cy_gpio.h **** #include <stddef.h>
 165:Generated_Source\PSoC6\pdl\drivers/peripheral/gpio/cy_gpio.h **** #include "cy_device.h"
 166:Generated_Source\PSoC6\pdl\drivers/peripheral/gpio/cy_gpio.h **** #include "cy_device_headers.h"
 167:Generated_Source\PSoC6\pdl\drivers/peripheral/gpio/cy_gpio.h **** #include "cy_syslib.h"
 168:Generated_Source\PSoC6\pdl\drivers/peripheral/gpio/cy_gpio.h **** 
 169:Generated_Source\PSoC6\pdl\drivers/peripheral/gpio/cy_gpio.h **** #if defined(__cplusplus)
 170:Generated_Source\PSoC6\pdl\drivers/peripheral/gpio/cy_gpio.h **** extern "C" {
 171:Generated_Source\PSoC6\pdl\drivers/peripheral/gpio/cy_gpio.h **** #endif
 172:Generated_Source\PSoC6\pdl\drivers/peripheral/gpio/cy_gpio.h **** 
 173:Generated_Source\PSoC6\pdl\drivers/peripheral/gpio/cy_gpio.h **** /** \addtogroup group_gpio_macros
 174:Generated_Source\PSoC6\pdl\drivers/peripheral/gpio/cy_gpio.h **** * \{
 175:Generated_Source\PSoC6\pdl\drivers/peripheral/gpio/cy_gpio.h **** */
 176:Generated_Source\PSoC6\pdl\drivers/peripheral/gpio/cy_gpio.h **** 
 177:Generated_Source\PSoC6\pdl\drivers/peripheral/gpio/cy_gpio.h **** /** Driver major version */
 178:Generated_Source\PSoC6\pdl\drivers/peripheral/gpio/cy_gpio.h **** #define CY_GPIO_DRV_VERSION_MAJOR       1
 179:Generated_Source\PSoC6\pdl\drivers/peripheral/gpio/cy_gpio.h **** 
 180:Generated_Source\PSoC6\pdl\drivers/peripheral/gpio/cy_gpio.h **** /** Driver minor version */
 181:Generated_Source\PSoC6\pdl\drivers/peripheral/gpio/cy_gpio.h **** #define CY_GPIO_DRV_VERSION_MINOR       20
 182:Generated_Source\PSoC6\pdl\drivers/peripheral/gpio/cy_gpio.h **** 
 183:Generated_Source\PSoC6\pdl\drivers/peripheral/gpio/cy_gpio.h **** /** GPIO driver ID */
ARM GAS  C:\Users\Mahrukh\AppData\Local\Temp\ccJcQtli.s 			page 32


 184:Generated_Source\PSoC6\pdl\drivers/peripheral/gpio/cy_gpio.h **** #define CY_GPIO_ID CY_PDL_DRV_ID(0x16U)
 185:Generated_Source\PSoC6\pdl\drivers/peripheral/gpio/cy_gpio.h **** 
 186:Generated_Source\PSoC6\pdl\drivers/peripheral/gpio/cy_gpio.h **** /** \} group_gpio_macros */
 187:Generated_Source\PSoC6\pdl\drivers/peripheral/gpio/cy_gpio.h **** 
 188:Generated_Source\PSoC6\pdl\drivers/peripheral/gpio/cy_gpio.h **** 
 189:Generated_Source\PSoC6\pdl\drivers/peripheral/gpio/cy_gpio.h **** /***************************************
 190:Generated_Source\PSoC6\pdl\drivers/peripheral/gpio/cy_gpio.h **** *       Enumerations
 191:Generated_Source\PSoC6\pdl\drivers/peripheral/gpio/cy_gpio.h **** ***************************************/
 192:Generated_Source\PSoC6\pdl\drivers/peripheral/gpio/cy_gpio.h **** /**
 193:Generated_Source\PSoC6\pdl\drivers/peripheral/gpio/cy_gpio.h **** * \addtogroup group_gpio_enums
 194:Generated_Source\PSoC6\pdl\drivers/peripheral/gpio/cy_gpio.h **** * \{
 195:Generated_Source\PSoC6\pdl\drivers/peripheral/gpio/cy_gpio.h **** */
 196:Generated_Source\PSoC6\pdl\drivers/peripheral/gpio/cy_gpio.h **** 
 197:Generated_Source\PSoC6\pdl\drivers/peripheral/gpio/cy_gpio.h **** /** GPIO Driver error codes */
 198:Generated_Source\PSoC6\pdl\drivers/peripheral/gpio/cy_gpio.h **** typedef enum 
 199:Generated_Source\PSoC6\pdl\drivers/peripheral/gpio/cy_gpio.h **** {
 200:Generated_Source\PSoC6\pdl\drivers/peripheral/gpio/cy_gpio.h ****     CY_GPIO_SUCCESS   = 0x00U,                                    /**< Returned successful */
 201:Generated_Source\PSoC6\pdl\drivers/peripheral/gpio/cy_gpio.h ****     CY_GPIO_BAD_PARAM = CY_GPIO_ID | CY_PDL_STATUS_ERROR | 0x01U, /**< Bad parameter was passed */
 202:Generated_Source\PSoC6\pdl\drivers/peripheral/gpio/cy_gpio.h **** } cy_en_gpio_status_t;
 203:Generated_Source\PSoC6\pdl\drivers/peripheral/gpio/cy_gpio.h **** 
 204:Generated_Source\PSoC6\pdl\drivers/peripheral/gpio/cy_gpio.h **** /** AMux switch open/close config */
 205:Generated_Source\PSoC6\pdl\drivers/peripheral/gpio/cy_gpio.h **** typedef enum
 206:Generated_Source\PSoC6\pdl\drivers/peripheral/gpio/cy_gpio.h **** {
 207:Generated_Source\PSoC6\pdl\drivers/peripheral/gpio/cy_gpio.h ****     CY_GPIO_AMUX_OPENALL,   /**< Open ground switch. Open right switch. Open left switch */
 208:Generated_Source\PSoC6\pdl\drivers/peripheral/gpio/cy_gpio.h ****     CY_GPIO_AMUX_L,         /**< Open ground switch. Open right switch. Close left switch */
 209:Generated_Source\PSoC6\pdl\drivers/peripheral/gpio/cy_gpio.h ****     CY_GPIO_AMUX_R,         /**< Open ground switch. Close right switch. Open left switch */
 210:Generated_Source\PSoC6\pdl\drivers/peripheral/gpio/cy_gpio.h ****     CY_GPIO_AMUX_LR,        /**< Open ground switch. Close right switch. Close left switch */
 211:Generated_Source\PSoC6\pdl\drivers/peripheral/gpio/cy_gpio.h ****     CY_GPIO_AMUX_G,         /**< Close ground switch. Open right switch. Open left switch */
 212:Generated_Source\PSoC6\pdl\drivers/peripheral/gpio/cy_gpio.h ****     CY_GPIO_AMUX_GL,        /**< Close ground switch. Open right switch. Close left switch */
 213:Generated_Source\PSoC6\pdl\drivers/peripheral/gpio/cy_gpio.h ****     CY_GPIO_AMUX_GR,        /**< Close ground switch. Close right switch. Open left switch */
 214:Generated_Source\PSoC6\pdl\drivers/peripheral/gpio/cy_gpio.h ****     CY_GPIO_AMUX_GLR,       /**< Close ground switch. Close right switch. Close left switch */
 215:Generated_Source\PSoC6\pdl\drivers/peripheral/gpio/cy_gpio.h **** }cy_en_gpio_amuxconnect_t;
 216:Generated_Source\PSoC6\pdl\drivers/peripheral/gpio/cy_gpio.h **** 
 217:Generated_Source\PSoC6\pdl\drivers/peripheral/gpio/cy_gpio.h **** /**
 218:Generated_Source\PSoC6\pdl\drivers/peripheral/gpio/cy_gpio.h **** * AMux Bus selection
 219:Generated_Source\PSoC6\pdl\drivers/peripheral/gpio/cy_gpio.h **** */
 220:Generated_Source\PSoC6\pdl\drivers/peripheral/gpio/cy_gpio.h **** typedef enum
 221:Generated_Source\PSoC6\pdl\drivers/peripheral/gpio/cy_gpio.h **** {
 222:Generated_Source\PSoC6\pdl\drivers/peripheral/gpio/cy_gpio.h ****     CY_GPIO_AMUXBUSA,       /**< AMuxBus A */
 223:Generated_Source\PSoC6\pdl\drivers/peripheral/gpio/cy_gpio.h ****     CY_GPIO_AMUXBUSB        /**< AMuxBus B */
 224:Generated_Source\PSoC6\pdl\drivers/peripheral/gpio/cy_gpio.h **** }cy_en_gpio_amuxselect_t;
 225:Generated_Source\PSoC6\pdl\drivers/peripheral/gpio/cy_gpio.h **** 
 226:Generated_Source\PSoC6\pdl\drivers/peripheral/gpio/cy_gpio.h **** /** \} group_gpio_enums */
 227:Generated_Source\PSoC6\pdl\drivers/peripheral/gpio/cy_gpio.h **** 
 228:Generated_Source\PSoC6\pdl\drivers/peripheral/gpio/cy_gpio.h **** 
 229:Generated_Source\PSoC6\pdl\drivers/peripheral/gpio/cy_gpio.h **** /***************************************
 230:Generated_Source\PSoC6\pdl\drivers/peripheral/gpio/cy_gpio.h **** *       Configuration Structures
 231:Generated_Source\PSoC6\pdl\drivers/peripheral/gpio/cy_gpio.h **** ***************************************/
 232:Generated_Source\PSoC6\pdl\drivers/peripheral/gpio/cy_gpio.h **** 
 233:Generated_Source\PSoC6\pdl\drivers/peripheral/gpio/cy_gpio.h **** /**
 234:Generated_Source\PSoC6\pdl\drivers/peripheral/gpio/cy_gpio.h **** * \addtogroup group_gpio_data_structures
 235:Generated_Source\PSoC6\pdl\drivers/peripheral/gpio/cy_gpio.h **** * \{
 236:Generated_Source\PSoC6\pdl\drivers/peripheral/gpio/cy_gpio.h **** */
 237:Generated_Source\PSoC6\pdl\drivers/peripheral/gpio/cy_gpio.h **** 
 238:Generated_Source\PSoC6\pdl\drivers/peripheral/gpio/cy_gpio.h **** /** This structure is used to initialize a port of GPIO pins */
 239:Generated_Source\PSoC6\pdl\drivers/peripheral/gpio/cy_gpio.h **** typedef struct 
 240:Generated_Source\PSoC6\pdl\drivers/peripheral/gpio/cy_gpio.h **** {
ARM GAS  C:\Users\Mahrukh\AppData\Local\Temp\ccJcQtli.s 			page 33


 241:Generated_Source\PSoC6\pdl\drivers/peripheral/gpio/cy_gpio.h ****     uint32_t out;           /**< Initial output data for the IO pins in the port */
 242:Generated_Source\PSoC6\pdl\drivers/peripheral/gpio/cy_gpio.h ****     uint32_t intrMask;      /**< Interrupt enable mask for the port interrupt */
 243:Generated_Source\PSoC6\pdl\drivers/peripheral/gpio/cy_gpio.h ****     uint32_t intrCfg;       /**< Port pin interrupt edge detection configuration */
 244:Generated_Source\PSoC6\pdl\drivers/peripheral/gpio/cy_gpio.h ****     uint32_t cfg;           /**< Port pin drive modes and input buffer enable configuration */
 245:Generated_Source\PSoC6\pdl\drivers/peripheral/gpio/cy_gpio.h ****     uint32_t cfgIn;         /**< Port pin input buffer configuration */
 246:Generated_Source\PSoC6\pdl\drivers/peripheral/gpio/cy_gpio.h ****     uint32_t cfgOut;        /**< Port pin output buffer configuration */
 247:Generated_Source\PSoC6\pdl\drivers/peripheral/gpio/cy_gpio.h ****     uint32_t cfgSIO;        /**< Port SIO pins configuration */
 248:Generated_Source\PSoC6\pdl\drivers/peripheral/gpio/cy_gpio.h ****     uint32_t sel0Active;    /**< HSIOM selection for port pins 0,1,2,3 */
 249:Generated_Source\PSoC6\pdl\drivers/peripheral/gpio/cy_gpio.h ****     uint32_t sel1Active;    /**< HSIOM selection for port pins 4,5,6,7 */
 250:Generated_Source\PSoC6\pdl\drivers/peripheral/gpio/cy_gpio.h **** } cy_stc_gpio_prt_config_t;
 251:Generated_Source\PSoC6\pdl\drivers/peripheral/gpio/cy_gpio.h **** 
 252:Generated_Source\PSoC6\pdl\drivers/peripheral/gpio/cy_gpio.h **** /** This structure is used to initialize a single GPIO pin */
 253:Generated_Source\PSoC6\pdl\drivers/peripheral/gpio/cy_gpio.h **** typedef struct
 254:Generated_Source\PSoC6\pdl\drivers/peripheral/gpio/cy_gpio.h **** {
 255:Generated_Source\PSoC6\pdl\drivers/peripheral/gpio/cy_gpio.h ****     uint32_t outVal;         /**< Pin output state */
 256:Generated_Source\PSoC6\pdl\drivers/peripheral/gpio/cy_gpio.h ****     uint32_t driveMode;      /**< Drive mode */
 257:Generated_Source\PSoC6\pdl\drivers/peripheral/gpio/cy_gpio.h ****     en_hsiom_sel_t hsiom;    /**< HSIOM selection */
 258:Generated_Source\PSoC6\pdl\drivers/peripheral/gpio/cy_gpio.h ****     uint32_t intEdge;        /**< Interrupt Edge type */
 259:Generated_Source\PSoC6\pdl\drivers/peripheral/gpio/cy_gpio.h ****     uint32_t intMask;        /**< Interrupt enable mask */
 260:Generated_Source\PSoC6\pdl\drivers/peripheral/gpio/cy_gpio.h ****     uint32_t vtrip;          /**< Input buffer voltage trip type */
 261:Generated_Source\PSoC6\pdl\drivers/peripheral/gpio/cy_gpio.h ****     uint32_t slewRate;       /**< Output buffer slew rate */
 262:Generated_Source\PSoC6\pdl\drivers/peripheral/gpio/cy_gpio.h ****     uint32_t driveSel;       /**< Drive strength */
 263:Generated_Source\PSoC6\pdl\drivers/peripheral/gpio/cy_gpio.h ****     uint32_t vregEn;         /**< SIO pair output buffer mode */
 264:Generated_Source\PSoC6\pdl\drivers/peripheral/gpio/cy_gpio.h ****     uint32_t ibufMode;       /**< SIO pair input buffer mode */
 265:Generated_Source\PSoC6\pdl\drivers/peripheral/gpio/cy_gpio.h ****     uint32_t vtripSel;       /**< SIO pair input buffer trip point */
 266:Generated_Source\PSoC6\pdl\drivers/peripheral/gpio/cy_gpio.h ****     uint32_t vrefSel;        /**< SIO pair reference voltage for input buffer trip point */
 267:Generated_Source\PSoC6\pdl\drivers/peripheral/gpio/cy_gpio.h ****     uint32_t vohSel;         /**< SIO pair regulated voltage output level */
 268:Generated_Source\PSoC6\pdl\drivers/peripheral/gpio/cy_gpio.h **** } cy_stc_gpio_pin_config_t;
 269:Generated_Source\PSoC6\pdl\drivers/peripheral/gpio/cy_gpio.h **** 
 270:Generated_Source\PSoC6\pdl\drivers/peripheral/gpio/cy_gpio.h **** /** \} group_gpio_data_structures */
 271:Generated_Source\PSoC6\pdl\drivers/peripheral/gpio/cy_gpio.h **** 
 272:Generated_Source\PSoC6\pdl\drivers/peripheral/gpio/cy_gpio.h **** /***************************************
 273:Generated_Source\PSoC6\pdl\drivers/peripheral/gpio/cy_gpio.h **** *        Constants
 274:Generated_Source\PSoC6\pdl\drivers/peripheral/gpio/cy_gpio.h **** ***************************************/
 275:Generated_Source\PSoC6\pdl\drivers/peripheral/gpio/cy_gpio.h **** 
 276:Generated_Source\PSoC6\pdl\drivers/peripheral/gpio/cy_gpio.h **** /** \cond INTERNAL */
 277:Generated_Source\PSoC6\pdl\drivers/peripheral/gpio/cy_gpio.h **** 
 278:Generated_Source\PSoC6\pdl\drivers/peripheral/gpio/cy_gpio.h **** /* General Constants */
 279:Generated_Source\PSoC6\pdl\drivers/peripheral/gpio/cy_gpio.h **** #define CY_GPIO_PRT_HALF                       (4UL)      /**< Half-way point of a GPIO port */
 280:Generated_Source\PSoC6\pdl\drivers/peripheral/gpio/cy_gpio.h **** #define CY_GPIO_PRT_DEINIT                     (0UL)      /**< De-init value for port registers */
 281:Generated_Source\PSoC6\pdl\drivers/peripheral/gpio/cy_gpio.h **** 
 282:Generated_Source\PSoC6\pdl\drivers/peripheral/gpio/cy_gpio.h **** /* GPIO Masks */
 283:Generated_Source\PSoC6\pdl\drivers/peripheral/gpio/cy_gpio.h **** #define CY_GPIO_HSIOM_MASK                     (0x1FUL)   /**< HSIOM selection mask */
 284:Generated_Source\PSoC6\pdl\drivers/peripheral/gpio/cy_gpio.h **** #define CY_GPIO_OUT_MASK                       (0x01UL)   /**< Single pin mask for OUT register */
 285:Generated_Source\PSoC6\pdl\drivers/peripheral/gpio/cy_gpio.h **** #define CY_GPIO_IN_MASK                        (0x01UL)   /**< Single pin mask for IN register */
 286:Generated_Source\PSoC6\pdl\drivers/peripheral/gpio/cy_gpio.h **** #define CY_GPIO_CFG_DM_MASK                    (0x0FUL)   /**< Single pin mask for drive mode in CF
 287:Generated_Source\PSoC6\pdl\drivers/peripheral/gpio/cy_gpio.h **** #define CY_GPIO_CFG_IN_VTRIP_SEL_MASK          (0x01UL)   /**< Single pin mask for VTRIP selection 
 288:Generated_Source\PSoC6\pdl\drivers/peripheral/gpio/cy_gpio.h **** #define CY_GPIO_CFG_OUT_SLOW_MASK              (0x01UL)   /**< Single pin mask for slew rate in CFG
 289:Generated_Source\PSoC6\pdl\drivers/peripheral/gpio/cy_gpio.h **** #define CY_GPIO_CFG_OUT_DRIVE_SEL_MASK         (0x03UL)   /**< Single pin mask for drive strength i
 290:Generated_Source\PSoC6\pdl\drivers/peripheral/gpio/cy_gpio.h **** #define CY_GPIO_INTR_STATUS_MASK               (0x01UL)   /**< Single pin mask for interrupt status
 291:Generated_Source\PSoC6\pdl\drivers/peripheral/gpio/cy_gpio.h **** #define CY_GPIO_INTR_EN_MASK                   (0x01UL)   /**< Single pin mask for interrupt status
 292:Generated_Source\PSoC6\pdl\drivers/peripheral/gpio/cy_gpio.h **** #define CY_GPIO_INTR_MASKED_MASK               (0x01UL)   /**< Single pin mask for masked interrupt
 293:Generated_Source\PSoC6\pdl\drivers/peripheral/gpio/cy_gpio.h **** #define CY_GPIO_INTR_SET_MASK                  (0x01UL)   /**< Single pin mask for setting the inte
 294:Generated_Source\PSoC6\pdl\drivers/peripheral/gpio/cy_gpio.h **** #define CY_GPIO_INTR_EDGE_MASK                 (0x03UL)   /**< Single pin mask for interrupt edge t
 295:Generated_Source\PSoC6\pdl\drivers/peripheral/gpio/cy_gpio.h **** #define CY_GPIO_INTR_FLT_EDGE_MASK             (0x07UL)   /**< Single pin mask for setting filtered
 296:Generated_Source\PSoC6\pdl\drivers/peripheral/gpio/cy_gpio.h **** 
 297:Generated_Source\PSoC6\pdl\drivers/peripheral/gpio/cy_gpio.h **** /* SIO Masks */
ARM GAS  C:\Users\Mahrukh\AppData\Local\Temp\ccJcQtli.s 			page 34


 298:Generated_Source\PSoC6\pdl\drivers/peripheral/gpio/cy_gpio.h **** #define CY_GPIO_VREG_EN_MASK                   (0x01UL)   /**< Single SIO pin mask for voltage regu
 299:Generated_Source\PSoC6\pdl\drivers/peripheral/gpio/cy_gpio.h **** #define CY_GPIO_IBUF_MASK                      (0x01UL)   /**< Single SIO pin mask for input buffer
 300:Generated_Source\PSoC6\pdl\drivers/peripheral/gpio/cy_gpio.h **** #define CY_GPIO_IBUF_SHIFT                     (0x01UL)   /**< Single SIO pin shift for input buffe
 301:Generated_Source\PSoC6\pdl\drivers/peripheral/gpio/cy_gpio.h **** #define CY_GPIO_VTRIP_SEL_MASK                 (0x01UL)   /**< Single SIO pin mask for the input bu
 302:Generated_Source\PSoC6\pdl\drivers/peripheral/gpio/cy_gpio.h **** #define CY_GPIO_VTRIP_SEL_SHIFT                (0x02UL)   /**< Single SIO pin shift for the input b
 303:Generated_Source\PSoC6\pdl\drivers/peripheral/gpio/cy_gpio.h **** #define CY_GPIO_VREF_SEL_MASK                  (0x03UL)   /**< Single SIO pin mask for voltage refe
 304:Generated_Source\PSoC6\pdl\drivers/peripheral/gpio/cy_gpio.h **** #define CY_GPIO_VREF_SEL_SHIFT                 (0x03UL)   /**< Single SIO pin shift for voltage ref
 305:Generated_Source\PSoC6\pdl\drivers/peripheral/gpio/cy_gpio.h **** #define CY_GPIO_VOH_SEL_MASK                   (0x07UL)   /**< Single SIO pin mask for VOH */
 306:Generated_Source\PSoC6\pdl\drivers/peripheral/gpio/cy_gpio.h **** #define CY_GPIO_VOH_SEL_SHIFT                  (0x05UL)   /**< Single SIO pin shift for VOH */
 307:Generated_Source\PSoC6\pdl\drivers/peripheral/gpio/cy_gpio.h **** 
 308:Generated_Source\PSoC6\pdl\drivers/peripheral/gpio/cy_gpio.h **** /* Special mask for SIO pin pair setting */
 309:Generated_Source\PSoC6\pdl\drivers/peripheral/gpio/cy_gpio.h **** #define CY_GPIO_SIO_ODD_PIN_MASK               (0x00FEUL) /**< SIO pin pair selection mask */
 310:Generated_Source\PSoC6\pdl\drivers/peripheral/gpio/cy_gpio.h **** #define CY_GPIO_SIO_PIN_MASK                   (0x00FFUL) /**< SIO pin pair mask */
 311:Generated_Source\PSoC6\pdl\drivers/peripheral/gpio/cy_gpio.h **** 
 312:Generated_Source\PSoC6\pdl\drivers/peripheral/gpio/cy_gpio.h **** /* Offsets */
 313:Generated_Source\PSoC6\pdl\drivers/peripheral/gpio/cy_gpio.h **** #define CY_GPIO_HSIOM_OFFSET                   (3UL)      /**< Offset for HSIOM */
 314:Generated_Source\PSoC6\pdl\drivers/peripheral/gpio/cy_gpio.h **** #define CY_GPIO_DRIVE_MODE_OFFSET              (2UL)      /**< Offset for Drive mode */
 315:Generated_Source\PSoC6\pdl\drivers/peripheral/gpio/cy_gpio.h **** #define CY_GPIO_INBUF_OFFSET                   (3UL)      /**< Offset for input buffer */
 316:Generated_Source\PSoC6\pdl\drivers/peripheral/gpio/cy_gpio.h **** #define CY_GPIO_CFG_OUT_DRIVE_OFFSET           (16UL)     /**< Offset for drive strength */
 317:Generated_Source\PSoC6\pdl\drivers/peripheral/gpio/cy_gpio.h **** #define CY_GPIO_INTR_CFG_OFFSET                (1UL)      /**< Offset for interrupt config */
 318:Generated_Source\PSoC6\pdl\drivers/peripheral/gpio/cy_gpio.h **** #define CY_GPIO_INTR_FILT_OFFSET               (18UL)     /**< Offset for filtered interrupt config
 319:Generated_Source\PSoC6\pdl\drivers/peripheral/gpio/cy_gpio.h **** #define CY_GPIO_CFG_SIO_OFFSET                 (2UL)      /**< Offset for SIO config */
 320:Generated_Source\PSoC6\pdl\drivers/peripheral/gpio/cy_gpio.h **** 
 321:Generated_Source\PSoC6\pdl\drivers/peripheral/gpio/cy_gpio.h **** /* Parameter validation constants */
 322:Generated_Source\PSoC6\pdl\drivers/peripheral/gpio/cy_gpio.h **** #define CY_GPIO_PINS_MAX                       (8UL)      /**< Number of pins in the port */
 323:Generated_Source\PSoC6\pdl\drivers/peripheral/gpio/cy_gpio.h **** #define CY_GPIO_PRT_PINS_MASK                  (0x0000000FFUL)
 324:Generated_Source\PSoC6\pdl\drivers/peripheral/gpio/cy_gpio.h **** #define CY_GPIO_PRT_INTR_CFG_EDGE_SEL_MASK     (GPIO_PRT_INTR_CFG_EDGE0_SEL_Msk | \
 325:Generated_Source\PSoC6\pdl\drivers/peripheral/gpio/cy_gpio.h ****                                                 GPIO_PRT_INTR_CFG_EDGE1_SEL_Msk | \
 326:Generated_Source\PSoC6\pdl\drivers/peripheral/gpio/cy_gpio.h ****                                                 GPIO_PRT_INTR_CFG_EDGE2_SEL_Msk | \
 327:Generated_Source\PSoC6\pdl\drivers/peripheral/gpio/cy_gpio.h ****                                                 GPIO_PRT_INTR_CFG_EDGE3_SEL_Msk | \
 328:Generated_Source\PSoC6\pdl\drivers/peripheral/gpio/cy_gpio.h ****                                                 GPIO_PRT_INTR_CFG_EDGE4_SEL_Msk | \
 329:Generated_Source\PSoC6\pdl\drivers/peripheral/gpio/cy_gpio.h ****                                                 GPIO_PRT_INTR_CFG_EDGE5_SEL_Msk | \
 330:Generated_Source\PSoC6\pdl\drivers/peripheral/gpio/cy_gpio.h ****                                                 GPIO_PRT_INTR_CFG_EDGE6_SEL_Msk | \
 331:Generated_Source\PSoC6\pdl\drivers/peripheral/gpio/cy_gpio.h ****                                                 GPIO_PRT_INTR_CFG_EDGE7_SEL_Msk)
 332:Generated_Source\PSoC6\pdl\drivers/peripheral/gpio/cy_gpio.h **** #define CY_GPIO_PRT_INTR_CFG_RANGE_MASK        (CY_GPIO_PRT_INTR_CFG_EDGE_SEL_MASK | \
 333:Generated_Source\PSoC6\pdl\drivers/peripheral/gpio/cy_gpio.h ****                                                 GPIO_PRT_INTR_CFG_FLT_EDGE_SEL_Msk | \
 334:Generated_Source\PSoC6\pdl\drivers/peripheral/gpio/cy_gpio.h ****                                                 GPIO_PRT_INTR_CFG_FLT_SEL_Msk)
 335:Generated_Source\PSoC6\pdl\drivers/peripheral/gpio/cy_gpio.h **** #define CY_GPIO_PRT_INT_MASK_MASK              (0x0000001FFUL)
 336:Generated_Source\PSoC6\pdl\drivers/peripheral/gpio/cy_gpio.h **** #define CY_GPIO_PRT_SEL_ACTIVE_MASK            (0x1FFFFFFFUL)
 337:Generated_Source\PSoC6\pdl\drivers/peripheral/gpio/cy_gpio.h **** 
 338:Generated_Source\PSoC6\pdl\drivers/peripheral/gpio/cy_gpio.h **** #define GPIO_MAX_SPLIT_CELL_SEGMENTS           (9U)
 339:Generated_Source\PSoC6\pdl\drivers/peripheral/gpio/cy_gpio.h **** 
 340:Generated_Source\PSoC6\pdl\drivers/peripheral/gpio/cy_gpio.h **** /* Parameter validation macros */
 341:Generated_Source\PSoC6\pdl\drivers/peripheral/gpio/cy_gpio.h **** #define CY_GPIO_IS_PIN_VALID(pinNum)           (CY_GPIO_PINS_MAX > (pinNum))
 342:Generated_Source\PSoC6\pdl\drivers/peripheral/gpio/cy_gpio.h **** #define CY_GPIO_IS_FILTER_PIN_VALID(pinNum)    (CY_GPIO_PINS_MAX >= (pinNum))
 343:Generated_Source\PSoC6\pdl\drivers/peripheral/gpio/cy_gpio.h **** #define CY_GPIO_IS_VALUE_VALID(outVal)         (1UL >= (outVal))
 344:Generated_Source\PSoC6\pdl\drivers/peripheral/gpio/cy_gpio.h **** #define CY_GPIO_IS_DM_VALID(driveMode)         (0U == ((driveMode) & (uint32_t)~CY_GPIO_CFG_DM_MASK
 345:Generated_Source\PSoC6\pdl\drivers/peripheral/gpio/cy_gpio.h **** 
 346:Generated_Source\PSoC6\pdl\drivers/peripheral/gpio/cy_gpio.h **** #define CY_GPIO_IS_HSIOM_VALID(hsiom)          (0U == ((hsiom) & (uint32_t)~CY_GPIO_HSIOM_MASK))
 347:Generated_Source\PSoC6\pdl\drivers/peripheral/gpio/cy_gpio.h **** 
 348:Generated_Source\PSoC6\pdl\drivers/peripheral/gpio/cy_gpio.h **** #define CY_GPIO_IS_INT_EDGE_VALID(intEdge)     ((CY_GPIO_INTR_DISABLE  == (intEdge)) || \
 349:Generated_Source\PSoC6\pdl\drivers/peripheral/gpio/cy_gpio.h ****                                                 (CY_GPIO_INTR_RISING   == (intEdge)) || \
 350:Generated_Source\PSoC6\pdl\drivers/peripheral/gpio/cy_gpio.h ****                                                 (CY_GPIO_INTR_FALLING  == (intEdge)) || \
 351:Generated_Source\PSoC6\pdl\drivers/peripheral/gpio/cy_gpio.h ****                                                 (CY_GPIO_INTR_BOTH     == (intEdge)))
 352:Generated_Source\PSoC6\pdl\drivers/peripheral/gpio/cy_gpio.h **** 
 353:Generated_Source\PSoC6\pdl\drivers/peripheral/gpio/cy_gpio.h **** #define CY_GPIO_IS_DRIVE_SEL_VALID(driveSel)   ((CY_GPIO_DRIVE_FULL    == (driveSel)) || \
 354:Generated_Source\PSoC6\pdl\drivers/peripheral/gpio/cy_gpio.h ****                                                 (CY_GPIO_DRIVE_1_2     == (driveSel)) || \
ARM GAS  C:\Users\Mahrukh\AppData\Local\Temp\ccJcQtli.s 			page 35


 355:Generated_Source\PSoC6\pdl\drivers/peripheral/gpio/cy_gpio.h ****                                                 (CY_GPIO_DRIVE_1_4     == (driveSel)) || \
 356:Generated_Source\PSoC6\pdl\drivers/peripheral/gpio/cy_gpio.h ****                                                 (CY_GPIO_DRIVE_1_8     == (driveSel)))
 357:Generated_Source\PSoC6\pdl\drivers/peripheral/gpio/cy_gpio.h **** 
 358:Generated_Source\PSoC6\pdl\drivers/peripheral/gpio/cy_gpio.h **** #define CY_GPIO_IS_VREF_SEL_VALID(vrefSel)     ((CY_SIO_VREF_PINREF    == (vrefSel)) || \
 359:Generated_Source\PSoC6\pdl\drivers/peripheral/gpio/cy_gpio.h ****                                                 (CY_SIO_VREF_1_2V      == (vrefSel)) || \
 360:Generated_Source\PSoC6\pdl\drivers/peripheral/gpio/cy_gpio.h ****                                                 (CY_SIO_VREF_AMUX_A    == (vrefSel)) || \
 361:Generated_Source\PSoC6\pdl\drivers/peripheral/gpio/cy_gpio.h ****                                                 (CY_SIO_VREF_AMUX_B    == (vrefSel)))
 362:Generated_Source\PSoC6\pdl\drivers/peripheral/gpio/cy_gpio.h **** 
 363:Generated_Source\PSoC6\pdl\drivers/peripheral/gpio/cy_gpio.h **** #define CY_GPIO_IS_VOH_SEL_VALID(vrefSel)      ((CY_SIO_VOH_1_00       == (vrefSel)) || \
 364:Generated_Source\PSoC6\pdl\drivers/peripheral/gpio/cy_gpio.h ****                                                 (CY_SIO_VOH_1_25       == (vrefSel)) || \
 365:Generated_Source\PSoC6\pdl\drivers/peripheral/gpio/cy_gpio.h ****                                                 (CY_SIO_VOH_1_49       == (vrefSel)) || \
 366:Generated_Source\PSoC6\pdl\drivers/peripheral/gpio/cy_gpio.h ****                                                 (CY_SIO_VOH_1_67       == (vrefSel)) || \
 367:Generated_Source\PSoC6\pdl\drivers/peripheral/gpio/cy_gpio.h ****                                                 (CY_SIO_VOH_2_08       == (vrefSel)) || \
 368:Generated_Source\PSoC6\pdl\drivers/peripheral/gpio/cy_gpio.h ****                                                 (CY_SIO_VOH_2_50       == (vrefSel)) || \
 369:Generated_Source\PSoC6\pdl\drivers/peripheral/gpio/cy_gpio.h ****                                                 (CY_SIO_VOH_2_78       == (vrefSel)) || \
 370:Generated_Source\PSoC6\pdl\drivers/peripheral/gpio/cy_gpio.h ****                                                 (CY_SIO_VOH_4_16       == (vrefSel)))
 371:Generated_Source\PSoC6\pdl\drivers/peripheral/gpio/cy_gpio.h ****                    
 372:Generated_Source\PSoC6\pdl\drivers/peripheral/gpio/cy_gpio.h **** #define CY_GPIO_IS_PIN_BIT_VALID(pinBit)       (0U == ((pinBit) & (uint32_t)~CY_GPIO_PRT_PINS_MASK)
 373:Generated_Source\PSoC6\pdl\drivers/peripheral/gpio/cy_gpio.h **** #define CY_GPIO_IS_INTR_CFG_VALID(intrCfg)     (0U == ((intrCfg) & (uint32_t)~CY_GPIO_PRT_INTR_CFG_
 374:Generated_Source\PSoC6\pdl\drivers/peripheral/gpio/cy_gpio.h **** #define CY_GPIO_IS_INTR_MASK_VALID(intrMask)   (0U == ((intrMask) & (uint32_t)~CY_GPIO_PRT_INT_MASK
 375:Generated_Source\PSoC6\pdl\drivers/peripheral/gpio/cy_gpio.h **** #define CY_GPIO_IS_SEL_ACT_VALID(selActive)    (0U == ((selActive) & (uint32_t)~CY_GPIO_PRT_SEL_ACT
 376:Generated_Source\PSoC6\pdl\drivers/peripheral/gpio/cy_gpio.h **** 
 377:Generated_Source\PSoC6\pdl\drivers/peripheral/gpio/cy_gpio.h **** #define CY_GPIO_IS_AMUX_SPLIT_VALID(switchCtrl)       (((uint32_t) (switchCtrl)) < GPIO_MAX_SPLIT_C
 378:Generated_Source\PSoC6\pdl\drivers/peripheral/gpio/cy_gpio.h **** 
 379:Generated_Source\PSoC6\pdl\drivers/peripheral/gpio/cy_gpio.h **** #define CY_GPIO_IS_AMUX_CONNECT_VALID(amuxConnect)    ((CY_GPIO_AMUX_OPENALL == (amuxConnect)) || \
 380:Generated_Source\PSoC6\pdl\drivers/peripheral/gpio/cy_gpio.h ****                                                        (CY_GPIO_AMUX_L       == (amuxConnect)) || \
 381:Generated_Source\PSoC6\pdl\drivers/peripheral/gpio/cy_gpio.h ****                                                        (CY_GPIO_AMUX_R       == (amuxConnect)) || \
 382:Generated_Source\PSoC6\pdl\drivers/peripheral/gpio/cy_gpio.h ****                                                        (CY_GPIO_AMUX_LR      == (amuxConnect)) || \
 383:Generated_Source\PSoC6\pdl\drivers/peripheral/gpio/cy_gpio.h ****                                                        (CY_GPIO_AMUX_G       == (amuxConnect)) || \
 384:Generated_Source\PSoC6\pdl\drivers/peripheral/gpio/cy_gpio.h ****                                                        (CY_GPIO_AMUX_GL      == (amuxConnect)) || \
 385:Generated_Source\PSoC6\pdl\drivers/peripheral/gpio/cy_gpio.h ****                                                        (CY_GPIO_AMUX_GR      == (amuxConnect)) || \
 386:Generated_Source\PSoC6\pdl\drivers/peripheral/gpio/cy_gpio.h ****                                                        (CY_GPIO_AMUX_GLR     == (amuxConnect)))
 387:Generated_Source\PSoC6\pdl\drivers/peripheral/gpio/cy_gpio.h **** 
 388:Generated_Source\PSoC6\pdl\drivers/peripheral/gpio/cy_gpio.h **** #define CY_GPIO_IS_AMUX_SELECT_VALID(amuxBus)       ((CY_GPIO_AMUXBUSA       == (amuxBus)) || \
 389:Generated_Source\PSoC6\pdl\drivers/peripheral/gpio/cy_gpio.h ****                                                      (CY_GPIO_AMUXBUSB       == (amuxBus)))
 390:Generated_Source\PSoC6\pdl\drivers/peripheral/gpio/cy_gpio.h **** /** \endcond */
 391:Generated_Source\PSoC6\pdl\drivers/peripheral/gpio/cy_gpio.h **** 
 392:Generated_Source\PSoC6\pdl\drivers/peripheral/gpio/cy_gpio.h **** 
 393:Generated_Source\PSoC6\pdl\drivers/peripheral/gpio/cy_gpio.h **** /***************************************
 394:Generated_Source\PSoC6\pdl\drivers/peripheral/gpio/cy_gpio.h **** *        Function Constants
 395:Generated_Source\PSoC6\pdl\drivers/peripheral/gpio/cy_gpio.h **** ***************************************/
 396:Generated_Source\PSoC6\pdl\drivers/peripheral/gpio/cy_gpio.h **** 
 397:Generated_Source\PSoC6\pdl\drivers/peripheral/gpio/cy_gpio.h **** /**
 398:Generated_Source\PSoC6\pdl\drivers/peripheral/gpio/cy_gpio.h **** * \addtogroup group_gpio_macros
 399:Generated_Source\PSoC6\pdl\drivers/peripheral/gpio/cy_gpio.h **** * \{
 400:Generated_Source\PSoC6\pdl\drivers/peripheral/gpio/cy_gpio.h **** */
 401:Generated_Source\PSoC6\pdl\drivers/peripheral/gpio/cy_gpio.h **** 
 402:Generated_Source\PSoC6\pdl\drivers/peripheral/gpio/cy_gpio.h **** /**
 403:Generated_Source\PSoC6\pdl\drivers/peripheral/gpio/cy_gpio.h **** * \defgroup group_gpio_driveModes Pin drive mode
 404:Generated_Source\PSoC6\pdl\drivers/peripheral/gpio/cy_gpio.h **** * \{
 405:Generated_Source\PSoC6\pdl\drivers/peripheral/gpio/cy_gpio.h **** * Constants to be used for setting the drive mode of the pin.
 406:Generated_Source\PSoC6\pdl\drivers/peripheral/gpio/cy_gpio.h **** */
 407:Generated_Source\PSoC6\pdl\drivers/peripheral/gpio/cy_gpio.h **** #define CY_GPIO_DM_ANALOG                      (0x00UL) /**< Analog High-Z. Input buffer off */
 408:Generated_Source\PSoC6\pdl\drivers/peripheral/gpio/cy_gpio.h **** #define CY_GPIO_DM_PULLUP_IN_OFF               (0x02UL) /**< Resistive Pull-Up. Input buffer off */
 409:Generated_Source\PSoC6\pdl\drivers/peripheral/gpio/cy_gpio.h **** #define CY_GPIO_DM_PULLDOWN_IN_OFF             (0x03UL) /**< Resistive Pull-Down. Input buffer off 
 410:Generated_Source\PSoC6\pdl\drivers/peripheral/gpio/cy_gpio.h **** #define CY_GPIO_DM_OD_DRIVESLOW_IN_OFF         (0x04UL) /**< Open Drain, Drives Low. Input buffer o
 411:Generated_Source\PSoC6\pdl\drivers/peripheral/gpio/cy_gpio.h **** #define CY_GPIO_DM_OD_DRIVESHIGH_IN_OFF        (0x05UL) /**< Open Drain, Drives High. Input buffer 
ARM GAS  C:\Users\Mahrukh\AppData\Local\Temp\ccJcQtli.s 			page 36


 412:Generated_Source\PSoC6\pdl\drivers/peripheral/gpio/cy_gpio.h **** #define CY_GPIO_DM_STRONG_IN_OFF               (0x06UL) /**< Strong Drive. Input buffer off */
 413:Generated_Source\PSoC6\pdl\drivers/peripheral/gpio/cy_gpio.h **** #define CY_GPIO_DM_PULLUP_DOWN_IN_OFF          (0x07UL) /**< Resistive Pull-Up/Down. Input buffer o
 414:Generated_Source\PSoC6\pdl\drivers/peripheral/gpio/cy_gpio.h **** #define CY_GPIO_DM_HIGHZ                       (0x08UL) /**< Digital High-Z. Input buffer on */
 415:Generated_Source\PSoC6\pdl\drivers/peripheral/gpio/cy_gpio.h **** #define CY_GPIO_DM_PULLUP                      (0x0AUL) /**< Resistive Pull-Up. Input buffer on */
 416:Generated_Source\PSoC6\pdl\drivers/peripheral/gpio/cy_gpio.h **** #define CY_GPIO_DM_PULLDOWN                    (0x0BUL) /**< Resistive Pull-Down. Input buffer on *
 417:Generated_Source\PSoC6\pdl\drivers/peripheral/gpio/cy_gpio.h **** #define CY_GPIO_DM_OD_DRIVESLOW                (0x0CUL) /**< Open Drain, Drives Low. Input buffer o
 418:Generated_Source\PSoC6\pdl\drivers/peripheral/gpio/cy_gpio.h **** #define CY_GPIO_DM_OD_DRIVESHIGH               (0x0DUL) /**< Open Drain, Drives High. Input buffer 
 419:Generated_Source\PSoC6\pdl\drivers/peripheral/gpio/cy_gpio.h **** #define CY_GPIO_DM_STRONG                      (0x0EUL) /**< Strong Drive. Input buffer on */
 420:Generated_Source\PSoC6\pdl\drivers/peripheral/gpio/cy_gpio.h **** #define CY_GPIO_DM_PULLUP_DOWN                 (0x0FUL) /**< Resistive Pull-Up/Down. Input buffer o
 421:Generated_Source\PSoC6\pdl\drivers/peripheral/gpio/cy_gpio.h **** /** \} */
 422:Generated_Source\PSoC6\pdl\drivers/peripheral/gpio/cy_gpio.h **** 
 423:Generated_Source\PSoC6\pdl\drivers/peripheral/gpio/cy_gpio.h **** /**
 424:Generated_Source\PSoC6\pdl\drivers/peripheral/gpio/cy_gpio.h **** * \defgroup group_gpio_vtrip Voltage trip mode
 425:Generated_Source\PSoC6\pdl\drivers/peripheral/gpio/cy_gpio.h **** * \{
 426:Generated_Source\PSoC6\pdl\drivers/peripheral/gpio/cy_gpio.h **** * Constants to be used for setting the voltage trip type on the pin.
 427:Generated_Source\PSoC6\pdl\drivers/peripheral/gpio/cy_gpio.h **** */
 428:Generated_Source\PSoC6\pdl\drivers/peripheral/gpio/cy_gpio.h **** #define CY_GPIO_VTRIP_CMOS                     (0x00UL) /**< Input buffer compatible with CMOS and 
 429:Generated_Source\PSoC6\pdl\drivers/peripheral/gpio/cy_gpio.h **** #define CY_GPIO_VTRIP_TTL                      (0x01UL) /**< Input buffer compatible with TTL and M
 430:Generated_Source\PSoC6\pdl\drivers/peripheral/gpio/cy_gpio.h **** /** \} */
 431:Generated_Source\PSoC6\pdl\drivers/peripheral/gpio/cy_gpio.h **** 
 432:Generated_Source\PSoC6\pdl\drivers/peripheral/gpio/cy_gpio.h **** /**
 433:Generated_Source\PSoC6\pdl\drivers/peripheral/gpio/cy_gpio.h **** * \defgroup group_gpio_slewRate Slew Rate Mode
 434:Generated_Source\PSoC6\pdl\drivers/peripheral/gpio/cy_gpio.h **** * \{
 435:Generated_Source\PSoC6\pdl\drivers/peripheral/gpio/cy_gpio.h **** * Constants to be used for setting the slew rate of the pin.
 436:Generated_Source\PSoC6\pdl\drivers/peripheral/gpio/cy_gpio.h **** */
 437:Generated_Source\PSoC6\pdl\drivers/peripheral/gpio/cy_gpio.h **** #define CY_GPIO_SLEW_FAST                      (0x00UL) /**< Fast slew rate */
 438:Generated_Source\PSoC6\pdl\drivers/peripheral/gpio/cy_gpio.h **** #define CY_GPIO_SLEW_SLOW                      (0x01UL) /**< Slow slew rate */
 439:Generated_Source\PSoC6\pdl\drivers/peripheral/gpio/cy_gpio.h **** /** \} */
 440:Generated_Source\PSoC6\pdl\drivers/peripheral/gpio/cy_gpio.h **** 
 441:Generated_Source\PSoC6\pdl\drivers/peripheral/gpio/cy_gpio.h **** /**
 442:Generated_Source\PSoC6\pdl\drivers/peripheral/gpio/cy_gpio.h **** * \defgroup group_gpio_driveStrength Pin drive strength
 443:Generated_Source\PSoC6\pdl\drivers/peripheral/gpio/cy_gpio.h **** * \{
 444:Generated_Source\PSoC6\pdl\drivers/peripheral/gpio/cy_gpio.h **** * Constants to be used for setting the drive strength of the pin.
 445:Generated_Source\PSoC6\pdl\drivers/peripheral/gpio/cy_gpio.h **** */
 446:Generated_Source\PSoC6\pdl\drivers/peripheral/gpio/cy_gpio.h **** #define CY_GPIO_DRIVE_FULL                     (0x00UL) /**< Full drive strength: Max drive current
 447:Generated_Source\PSoC6\pdl\drivers/peripheral/gpio/cy_gpio.h **** #define CY_GPIO_DRIVE_1_2                      (0x01UL) /**< 1/2 drive strength: 1/2 drive current 
 448:Generated_Source\PSoC6\pdl\drivers/peripheral/gpio/cy_gpio.h **** #define CY_GPIO_DRIVE_1_4                      (0x02UL) /**< 1/4 drive strength: 1/4 drive current 
 449:Generated_Source\PSoC6\pdl\drivers/peripheral/gpio/cy_gpio.h **** #define CY_GPIO_DRIVE_1_8                      (0x03UL) /**< 1/8 drive strength: 1/8 drive current 
 450:Generated_Source\PSoC6\pdl\drivers/peripheral/gpio/cy_gpio.h **** /** \} */
 451:Generated_Source\PSoC6\pdl\drivers/peripheral/gpio/cy_gpio.h **** 
 452:Generated_Source\PSoC6\pdl\drivers/peripheral/gpio/cy_gpio.h **** /**
 453:Generated_Source\PSoC6\pdl\drivers/peripheral/gpio/cy_gpio.h **** * \defgroup group_gpio_interruptTrigger Interrupt trigger type
 454:Generated_Source\PSoC6\pdl\drivers/peripheral/gpio/cy_gpio.h **** * \{
 455:Generated_Source\PSoC6\pdl\drivers/peripheral/gpio/cy_gpio.h **** * Constants to be used for setting the interrupt trigger type on the pin.
 456:Generated_Source\PSoC6\pdl\drivers/peripheral/gpio/cy_gpio.h **** */
 457:Generated_Source\PSoC6\pdl\drivers/peripheral/gpio/cy_gpio.h **** #define CY_GPIO_INTR_DISABLE                   (0x00UL) /**< Disable the pin interrupt generation *
 458:Generated_Source\PSoC6\pdl\drivers/peripheral/gpio/cy_gpio.h **** #define CY_GPIO_INTR_RISING                    (0x01UL) /**< Rising-Edge interrupt */
 459:Generated_Source\PSoC6\pdl\drivers/peripheral/gpio/cy_gpio.h **** #define CY_GPIO_INTR_FALLING                   (0x02UL) /**< Falling-Edge interrupt */
 460:Generated_Source\PSoC6\pdl\drivers/peripheral/gpio/cy_gpio.h **** #define CY_GPIO_INTR_BOTH                      (0x03UL) /**< Both-Edge interrupt */
 461:Generated_Source\PSoC6\pdl\drivers/peripheral/gpio/cy_gpio.h **** /** \} */
 462:Generated_Source\PSoC6\pdl\drivers/peripheral/gpio/cy_gpio.h **** 
 463:Generated_Source\PSoC6\pdl\drivers/peripheral/gpio/cy_gpio.h **** /**
 464:Generated_Source\PSoC6\pdl\drivers/peripheral/gpio/cy_gpio.h **** * \defgroup group_gpio_sioVreg SIO output buffer mode
 465:Generated_Source\PSoC6\pdl\drivers/peripheral/gpio/cy_gpio.h **** * \{
 466:Generated_Source\PSoC6\pdl\drivers/peripheral/gpio/cy_gpio.h **** * Constants to be used for setting the SIO output buffer mode on the pin.
 467:Generated_Source\PSoC6\pdl\drivers/peripheral/gpio/cy_gpio.h **** */
 468:Generated_Source\PSoC6\pdl\drivers/peripheral/gpio/cy_gpio.h **** #define CY_SIO_VREG_UNREGULATED                (0x00UL) /**< Unregulated output buffer */
ARM GAS  C:\Users\Mahrukh\AppData\Local\Temp\ccJcQtli.s 			page 37


 469:Generated_Source\PSoC6\pdl\drivers/peripheral/gpio/cy_gpio.h **** #define CY_SIO_VREG_REGULATED                  (0x01UL) /**< Regulated output buffer */
 470:Generated_Source\PSoC6\pdl\drivers/peripheral/gpio/cy_gpio.h **** /** \} */
 471:Generated_Source\PSoC6\pdl\drivers/peripheral/gpio/cy_gpio.h **** 
 472:Generated_Source\PSoC6\pdl\drivers/peripheral/gpio/cy_gpio.h **** /**
 473:Generated_Source\PSoC6\pdl\drivers/peripheral/gpio/cy_gpio.h **** * \defgroup group_gpio_sioIbuf SIO input buffer mode
 474:Generated_Source\PSoC6\pdl\drivers/peripheral/gpio/cy_gpio.h **** * \{
 475:Generated_Source\PSoC6\pdl\drivers/peripheral/gpio/cy_gpio.h **** * Constants to be used for setting the SIO input buffer mode on the pin.
 476:Generated_Source\PSoC6\pdl\drivers/peripheral/gpio/cy_gpio.h **** */
 477:Generated_Source\PSoC6\pdl\drivers/peripheral/gpio/cy_gpio.h **** #define CY_SIO_IBUF_SINGLEENDED                (0x00UL) /**< Single ended input buffer */
 478:Generated_Source\PSoC6\pdl\drivers/peripheral/gpio/cy_gpio.h **** #define CY_SIO_IBUF_DIFFERENTIAL               (0x01UL) /**< Differential input buffer */
 479:Generated_Source\PSoC6\pdl\drivers/peripheral/gpio/cy_gpio.h **** /** \} */
 480:Generated_Source\PSoC6\pdl\drivers/peripheral/gpio/cy_gpio.h **** 
 481:Generated_Source\PSoC6\pdl\drivers/peripheral/gpio/cy_gpio.h **** /**
 482:Generated_Source\PSoC6\pdl\drivers/peripheral/gpio/cy_gpio.h **** * \defgroup group_gpio_sioVtrip SIO input buffer trip-point
 483:Generated_Source\PSoC6\pdl\drivers/peripheral/gpio/cy_gpio.h **** * \{
 484:Generated_Source\PSoC6\pdl\drivers/peripheral/gpio/cy_gpio.h **** * Constants to be used for setting the SIO input buffer trip-point of the pin.
 485:Generated_Source\PSoC6\pdl\drivers/peripheral/gpio/cy_gpio.h **** */
 486:Generated_Source\PSoC6\pdl\drivers/peripheral/gpio/cy_gpio.h **** #define CY_SIO_VTRIP_CMOS                      (0x00UL) /**< CMOS input buffer (single-ended) */
 487:Generated_Source\PSoC6\pdl\drivers/peripheral/gpio/cy_gpio.h **** #define CY_SIO_VTRIP_TTL                       (0x01UL) /**< TTL input buffer (single-ended) */
 488:Generated_Source\PSoC6\pdl\drivers/peripheral/gpio/cy_gpio.h **** #define CY_SIO_VTRIP_0_5VDDIO_0_5VOH           (0x00UL) /**< 0.5xVddio or 0.5xVoh (differential) */
 489:Generated_Source\PSoC6\pdl\drivers/peripheral/gpio/cy_gpio.h **** #define CY_SIO_VTRIP_0_4VDDIO_1_0VREF          (0x01UL) /**< 0.4xVddio or 0.4xVoh (differential) */
 490:Generated_Source\PSoC6\pdl\drivers/peripheral/gpio/cy_gpio.h **** /** \} */
 491:Generated_Source\PSoC6\pdl\drivers/peripheral/gpio/cy_gpio.h **** 
 492:Generated_Source\PSoC6\pdl\drivers/peripheral/gpio/cy_gpio.h **** /**
 493:Generated_Source\PSoC6\pdl\drivers/peripheral/gpio/cy_gpio.h **** * \defgroup group_gpio_sioVref SIO reference voltage for input buffer trip-point
 494:Generated_Source\PSoC6\pdl\drivers/peripheral/gpio/cy_gpio.h **** * \{
 495:Generated_Source\PSoC6\pdl\drivers/peripheral/gpio/cy_gpio.h **** * Constants to be used for setting the reference voltage of SIO input buffer trip-point.
 496:Generated_Source\PSoC6\pdl\drivers/peripheral/gpio/cy_gpio.h **** */
 497:Generated_Source\PSoC6\pdl\drivers/peripheral/gpio/cy_gpio.h **** #define CY_SIO_VREF_PINREF                     (0x00UL) /**< Vref from analog pin */
 498:Generated_Source\PSoC6\pdl\drivers/peripheral/gpio/cy_gpio.h **** #define CY_SIO_VREF_1_2V                       (0x01UL) /**< Vref from internal 1.2V reference */
 499:Generated_Source\PSoC6\pdl\drivers/peripheral/gpio/cy_gpio.h **** #define CY_SIO_VREF_AMUX_A                     (0x02UL) /**< Vref from AMUXBUS_A */
 500:Generated_Source\PSoC6\pdl\drivers/peripheral/gpio/cy_gpio.h **** #define CY_SIO_VREF_AMUX_B                     (0x03UL) /**< Vref from AMUXBUS_B */
 501:Generated_Source\PSoC6\pdl\drivers/peripheral/gpio/cy_gpio.h **** /** \} */
 502:Generated_Source\PSoC6\pdl\drivers/peripheral/gpio/cy_gpio.h **** 
 503:Generated_Source\PSoC6\pdl\drivers/peripheral/gpio/cy_gpio.h **** /**
 504:Generated_Source\PSoC6\pdl\drivers/peripheral/gpio/cy_gpio.h **** * \defgroup group_gpio_sioVoh Regulated output voltage level (Voh) and input buffer trip-point of a
 505:Generated_Source\PSoC6\pdl\drivers/peripheral/gpio/cy_gpio.h **** * \{
 506:Generated_Source\PSoC6\pdl\drivers/peripheral/gpio/cy_gpio.h **** * Constants to be used for setting the Voh and input buffer trip-point of an SIO pair
 507:Generated_Source\PSoC6\pdl\drivers/peripheral/gpio/cy_gpio.h **** */
 508:Generated_Source\PSoC6\pdl\drivers/peripheral/gpio/cy_gpio.h **** #define CY_SIO_VOH_1_00                        (0x00UL) /**< Voh = 1 x Reference */
 509:Generated_Source\PSoC6\pdl\drivers/peripheral/gpio/cy_gpio.h **** #define CY_SIO_VOH_1_25                        (0x01UL) /**< Voh = 1.25 x Reference */
 510:Generated_Source\PSoC6\pdl\drivers/peripheral/gpio/cy_gpio.h **** #define CY_SIO_VOH_1_49                        (0x02UL) /**< Voh = 1.49 x Reference */
 511:Generated_Source\PSoC6\pdl\drivers/peripheral/gpio/cy_gpio.h **** #define CY_SIO_VOH_1_67                        (0x03UL) /**< Voh = 1.67 x Reference */
 512:Generated_Source\PSoC6\pdl\drivers/peripheral/gpio/cy_gpio.h **** #define CY_SIO_VOH_2_08                        (0x04UL) /**< Voh = 2.08 x Reference */
 513:Generated_Source\PSoC6\pdl\drivers/peripheral/gpio/cy_gpio.h **** #define CY_SIO_VOH_2_50                        (0x05UL) /**< Voh = 2.50 x Reference */
 514:Generated_Source\PSoC6\pdl\drivers/peripheral/gpio/cy_gpio.h **** #define CY_SIO_VOH_2_78                        (0x06UL) /**< Voh = 2.78 x Reference */
 515:Generated_Source\PSoC6\pdl\drivers/peripheral/gpio/cy_gpio.h **** #define CY_SIO_VOH_4_16                        (0x07UL) /**< Voh = 4.16 x Reference */
 516:Generated_Source\PSoC6\pdl\drivers/peripheral/gpio/cy_gpio.h **** /** \} */
 517:Generated_Source\PSoC6\pdl\drivers/peripheral/gpio/cy_gpio.h **** 
 518:Generated_Source\PSoC6\pdl\drivers/peripheral/gpio/cy_gpio.h **** /** \} group_gpio_macros */
 519:Generated_Source\PSoC6\pdl\drivers/peripheral/gpio/cy_gpio.h **** 
 520:Generated_Source\PSoC6\pdl\drivers/peripheral/gpio/cy_gpio.h **** /***************************************
 521:Generated_Source\PSoC6\pdl\drivers/peripheral/gpio/cy_gpio.h **** *        Function Prototypes
 522:Generated_Source\PSoC6\pdl\drivers/peripheral/gpio/cy_gpio.h **** ***************************************/
 523:Generated_Source\PSoC6\pdl\drivers/peripheral/gpio/cy_gpio.h **** 
 524:Generated_Source\PSoC6\pdl\drivers/peripheral/gpio/cy_gpio.h **** /**
 525:Generated_Source\PSoC6\pdl\drivers/peripheral/gpio/cy_gpio.h **** * \addtogroup group_gpio_functions
ARM GAS  C:\Users\Mahrukh\AppData\Local\Temp\ccJcQtli.s 			page 38


 526:Generated_Source\PSoC6\pdl\drivers/peripheral/gpio/cy_gpio.h **** * \{
 527:Generated_Source\PSoC6\pdl\drivers/peripheral/gpio/cy_gpio.h **** */
 528:Generated_Source\PSoC6\pdl\drivers/peripheral/gpio/cy_gpio.h **** 
 529:Generated_Source\PSoC6\pdl\drivers/peripheral/gpio/cy_gpio.h **** /**
 530:Generated_Source\PSoC6\pdl\drivers/peripheral/gpio/cy_gpio.h **** * \addtogroup group_gpio_functions_init
 531:Generated_Source\PSoC6\pdl\drivers/peripheral/gpio/cy_gpio.h **** * \{
 532:Generated_Source\PSoC6\pdl\drivers/peripheral/gpio/cy_gpio.h **** */
 533:Generated_Source\PSoC6\pdl\drivers/peripheral/gpio/cy_gpio.h **** 
 534:Generated_Source\PSoC6\pdl\drivers/peripheral/gpio/cy_gpio.h **** cy_en_gpio_status_t Cy_GPIO_Pin_Init(GPIO_PRT_Type* base, uint32_t pinNum, const cy_stc_gpio_pin_co
 535:Generated_Source\PSoC6\pdl\drivers/peripheral/gpio/cy_gpio.h **** cy_en_gpio_status_t Cy_GPIO_Port_Init(GPIO_PRT_Type* base, const cy_stc_gpio_prt_config_t *config);
 536:Generated_Source\PSoC6\pdl\drivers/peripheral/gpio/cy_gpio.h **** void Cy_GPIO_Pin_FastInit(GPIO_PRT_Type* base, uint32_t pinNum, uint32_t driveMode, uint32_t outVal
 537:Generated_Source\PSoC6\pdl\drivers/peripheral/gpio/cy_gpio.h **** void Cy_GPIO_Port_Deinit(GPIO_PRT_Type* base);
 538:Generated_Source\PSoC6\pdl\drivers/peripheral/gpio/cy_gpio.h **** __STATIC_INLINE void Cy_GPIO_SetHSIOM(GPIO_PRT_Type* base, uint32_t pinNum, en_hsiom_sel_t value);
 539:Generated_Source\PSoC6\pdl\drivers/peripheral/gpio/cy_gpio.h **** __STATIC_INLINE en_hsiom_sel_t Cy_GPIO_GetHSIOM(GPIO_PRT_Type* base, uint32_t pinNum);
 540:Generated_Source\PSoC6\pdl\drivers/peripheral/gpio/cy_gpio.h **** __STATIC_INLINE GPIO_PRT_Type* Cy_GPIO_PortToAddr(uint32_t portNum);
 541:Generated_Source\PSoC6\pdl\drivers/peripheral/gpio/cy_gpio.h **** 
 542:Generated_Source\PSoC6\pdl\drivers/peripheral/gpio/cy_gpio.h **** /** \} group_gpio_functions_init */
 543:Generated_Source\PSoC6\pdl\drivers/peripheral/gpio/cy_gpio.h **** 
 544:Generated_Source\PSoC6\pdl\drivers/peripheral/gpio/cy_gpio.h **** /**
 545:Generated_Source\PSoC6\pdl\drivers/peripheral/gpio/cy_gpio.h **** * \addtogroup group_gpio_functions_gpio
 546:Generated_Source\PSoC6\pdl\drivers/peripheral/gpio/cy_gpio.h **** * \{
 547:Generated_Source\PSoC6\pdl\drivers/peripheral/gpio/cy_gpio.h **** */
 548:Generated_Source\PSoC6\pdl\drivers/peripheral/gpio/cy_gpio.h **** 
 549:Generated_Source\PSoC6\pdl\drivers/peripheral/gpio/cy_gpio.h **** void Cy_GPIO_SetAmuxSplit(cy_en_amux_split_t switchCtrl, cy_en_gpio_amuxconnect_t amuxConnect, cy_e
 550:Generated_Source\PSoC6\pdl\drivers/peripheral/gpio/cy_gpio.h **** cy_en_gpio_amuxconnect_t Cy_GPIO_GetAmuxSplit(cy_en_amux_split_t switchCtrl, cy_en_gpio_amuxselect_
 551:Generated_Source\PSoC6\pdl\drivers/peripheral/gpio/cy_gpio.h **** 
 552:Generated_Source\PSoC6\pdl\drivers/peripheral/gpio/cy_gpio.h **** __STATIC_INLINE uint32_t Cy_GPIO_Read(GPIO_PRT_Type* base, uint32_t pinNum);
 553:Generated_Source\PSoC6\pdl\drivers/peripheral/gpio/cy_gpio.h **** __STATIC_INLINE void Cy_GPIO_Write(GPIO_PRT_Type* base, uint32_t pinNum, uint32_t value);
 554:Generated_Source\PSoC6\pdl\drivers/peripheral/gpio/cy_gpio.h **** __STATIC_INLINE uint32_t Cy_GPIO_ReadOut(GPIO_PRT_Type* base, uint32_t pinNum);
 555:Generated_Source\PSoC6\pdl\drivers/peripheral/gpio/cy_gpio.h **** __STATIC_INLINE void Cy_GPIO_Set(GPIO_PRT_Type* base, uint32_t pinNum);
 556:Generated_Source\PSoC6\pdl\drivers/peripheral/gpio/cy_gpio.h **** __STATIC_INLINE void Cy_GPIO_Clr(GPIO_PRT_Type* base, uint32_t pinNum);
 557:Generated_Source\PSoC6\pdl\drivers/peripheral/gpio/cy_gpio.h **** __STATIC_INLINE void Cy_GPIO_Inv(GPIO_PRT_Type* base, uint32_t pinNum);
 558:Generated_Source\PSoC6\pdl\drivers/peripheral/gpio/cy_gpio.h **** __STATIC_INLINE void Cy_GPIO_SetDrivemode(GPIO_PRT_Type* base, uint32_t pinNum, uint32_t value);
 559:Generated_Source\PSoC6\pdl\drivers/peripheral/gpio/cy_gpio.h **** __STATIC_INLINE uint32_t Cy_GPIO_GetDrivemode(GPIO_PRT_Type* base, uint32_t pinNum);
 560:Generated_Source\PSoC6\pdl\drivers/peripheral/gpio/cy_gpio.h **** __STATIC_INLINE void Cy_GPIO_SetVtrip(GPIO_PRT_Type* base, uint32_t pinNum, uint32_t value);
 561:Generated_Source\PSoC6\pdl\drivers/peripheral/gpio/cy_gpio.h **** __STATIC_INLINE uint32_t Cy_GPIO_GetVtrip(GPIO_PRT_Type* base, uint32_t pinNum);
 562:Generated_Source\PSoC6\pdl\drivers/peripheral/gpio/cy_gpio.h **** __STATIC_INLINE void Cy_GPIO_SetSlewRate(GPIO_PRT_Type* base, uint32_t pinNum, uint32_t value);
 563:Generated_Source\PSoC6\pdl\drivers/peripheral/gpio/cy_gpio.h **** __STATIC_INLINE uint32_t Cy_GPIO_GetSlewRate(GPIO_PRT_Type* base, uint32_t pinNum);
 564:Generated_Source\PSoC6\pdl\drivers/peripheral/gpio/cy_gpio.h **** __STATIC_INLINE void Cy_GPIO_SetDriveSel(GPIO_PRT_Type* base, uint32_t pinNum, uint32_t value);
 565:Generated_Source\PSoC6\pdl\drivers/peripheral/gpio/cy_gpio.h **** __STATIC_INLINE uint32_t Cy_GPIO_GetDriveSel(GPIO_PRT_Type* base, uint32_t pinNum);
 566:Generated_Source\PSoC6\pdl\drivers/peripheral/gpio/cy_gpio.h **** 
 567:Generated_Source\PSoC6\pdl\drivers/peripheral/gpio/cy_gpio.h **** /** \} group_gpio_functions_gpio */
 568:Generated_Source\PSoC6\pdl\drivers/peripheral/gpio/cy_gpio.h **** 
 569:Generated_Source\PSoC6\pdl\drivers/peripheral/gpio/cy_gpio.h **** /**
 570:Generated_Source\PSoC6\pdl\drivers/peripheral/gpio/cy_gpio.h **** * \addtogroup group_gpio_functions_sio
 571:Generated_Source\PSoC6\pdl\drivers/peripheral/gpio/cy_gpio.h **** * \{
 572:Generated_Source\PSoC6\pdl\drivers/peripheral/gpio/cy_gpio.h **** */
 573:Generated_Source\PSoC6\pdl\drivers/peripheral/gpio/cy_gpio.h **** 
 574:Generated_Source\PSoC6\pdl\drivers/peripheral/gpio/cy_gpio.h **** __STATIC_INLINE void Cy_GPIO_SetVregEn(GPIO_PRT_Type* base, uint32_t pinNum, uint32_t value);
 575:Generated_Source\PSoC6\pdl\drivers/peripheral/gpio/cy_gpio.h **** __STATIC_INLINE uint32_t Cy_GPIO_GetVregEn(GPIO_PRT_Type* base, uint32_t pinNum);
 576:Generated_Source\PSoC6\pdl\drivers/peripheral/gpio/cy_gpio.h **** __STATIC_INLINE void Cy_GPIO_SetIbufMode(GPIO_PRT_Type* base, uint32_t pinNum, uint32_t value);
 577:Generated_Source\PSoC6\pdl\drivers/peripheral/gpio/cy_gpio.h **** __STATIC_INLINE uint32_t Cy_GPIO_GetIbufMode(GPIO_PRT_Type* base, uint32_t pinNum);
 578:Generated_Source\PSoC6\pdl\drivers/peripheral/gpio/cy_gpio.h **** __STATIC_INLINE void Cy_GPIO_SetVtripSel(GPIO_PRT_Type* base, uint32_t pinNum, uint32_t value);
 579:Generated_Source\PSoC6\pdl\drivers/peripheral/gpio/cy_gpio.h **** __STATIC_INLINE uint32_t Cy_GPIO_GetVtripSel(GPIO_PRT_Type* base, uint32_t pinNum);
 580:Generated_Source\PSoC6\pdl\drivers/peripheral/gpio/cy_gpio.h **** __STATIC_INLINE void Cy_GPIO_SetVrefSel(GPIO_PRT_Type* base, uint32_t pinNum, uint32_t value);
 581:Generated_Source\PSoC6\pdl\drivers/peripheral/gpio/cy_gpio.h **** __STATIC_INLINE uint32_t Cy_GPIO_GetVrefSel(GPIO_PRT_Type* base, uint32_t pinNum);
 582:Generated_Source\PSoC6\pdl\drivers/peripheral/gpio/cy_gpio.h **** __STATIC_INLINE void Cy_GPIO_SetVohSel(GPIO_PRT_Type* base, uint32_t pinNum, uint32_t value);
ARM GAS  C:\Users\Mahrukh\AppData\Local\Temp\ccJcQtli.s 			page 39


 583:Generated_Source\PSoC6\pdl\drivers/peripheral/gpio/cy_gpio.h **** __STATIC_INLINE uint32_t Cy_GPIO_GetVohSel(GPIO_PRT_Type* base, uint32_t pinNum);
 584:Generated_Source\PSoC6\pdl\drivers/peripheral/gpio/cy_gpio.h **** 
 585:Generated_Source\PSoC6\pdl\drivers/peripheral/gpio/cy_gpio.h **** /** \} group_gpio_functions_sio */
 586:Generated_Source\PSoC6\pdl\drivers/peripheral/gpio/cy_gpio.h **** 
 587:Generated_Source\PSoC6\pdl\drivers/peripheral/gpio/cy_gpio.h **** /**
 588:Generated_Source\PSoC6\pdl\drivers/peripheral/gpio/cy_gpio.h **** * \addtogroup group_gpio_functions_interrupt
 589:Generated_Source\PSoC6\pdl\drivers/peripheral/gpio/cy_gpio.h **** * \{
 590:Generated_Source\PSoC6\pdl\drivers/peripheral/gpio/cy_gpio.h **** */
 591:Generated_Source\PSoC6\pdl\drivers/peripheral/gpio/cy_gpio.h **** 
 592:Generated_Source\PSoC6\pdl\drivers/peripheral/gpio/cy_gpio.h **** __STATIC_INLINE uint32_t Cy_GPIO_GetInterruptStatus(GPIO_PRT_Type* base, uint32_t pinNum);
 593:Generated_Source\PSoC6\pdl\drivers/peripheral/gpio/cy_gpio.h **** __STATIC_INLINE void Cy_GPIO_ClearInterrupt(GPIO_PRT_Type* base, uint32_t pinNum);
 594:Generated_Source\PSoC6\pdl\drivers/peripheral/gpio/cy_gpio.h **** __STATIC_INLINE void Cy_GPIO_SetInterruptMask(GPIO_PRT_Type* base, uint32_t pinNum, uint32_t value)
 595:Generated_Source\PSoC6\pdl\drivers/peripheral/gpio/cy_gpio.h **** __STATIC_INLINE uint32_t Cy_GPIO_GetInterruptMask(GPIO_PRT_Type* base, uint32_t pinNum);
 596:Generated_Source\PSoC6\pdl\drivers/peripheral/gpio/cy_gpio.h **** __STATIC_INLINE uint32_t Cy_GPIO_GetInterruptStatusMasked(GPIO_PRT_Type* base, uint32_t pinNum);
 597:Generated_Source\PSoC6\pdl\drivers/peripheral/gpio/cy_gpio.h **** __STATIC_INLINE void Cy_GPIO_SetSwInterrupt(GPIO_PRT_Type* base, uint32_t pinNum);
 598:Generated_Source\PSoC6\pdl\drivers/peripheral/gpio/cy_gpio.h **** __STATIC_INLINE void Cy_GPIO_SetInterruptEdge(GPIO_PRT_Type* base, uint32_t pinNum, uint32_t value)
 599:Generated_Source\PSoC6\pdl\drivers/peripheral/gpio/cy_gpio.h **** __STATIC_INLINE uint32_t Cy_GPIO_GetInterruptEdge(GPIO_PRT_Type* base, uint32_t pinNum);
 600:Generated_Source\PSoC6\pdl\drivers/peripheral/gpio/cy_gpio.h **** __STATIC_INLINE void Cy_GPIO_SetFilter(GPIO_PRT_Type* base, uint32_t value);
 601:Generated_Source\PSoC6\pdl\drivers/peripheral/gpio/cy_gpio.h **** __STATIC_INLINE uint32_t Cy_GPIO_GetFilter(GPIO_PRT_Type* base);
 602:Generated_Source\PSoC6\pdl\drivers/peripheral/gpio/cy_gpio.h **** 
 603:Generated_Source\PSoC6\pdl\drivers/peripheral/gpio/cy_gpio.h **** __STATIC_INLINE uint32_t Cy_GPIO_GetInterruptCause0(void);
 604:Generated_Source\PSoC6\pdl\drivers/peripheral/gpio/cy_gpio.h **** __STATIC_INLINE uint32_t Cy_GPIO_GetInterruptCause1(void);
 605:Generated_Source\PSoC6\pdl\drivers/peripheral/gpio/cy_gpio.h **** __STATIC_INLINE uint32_t Cy_GPIO_GetInterruptCause2(void);
 606:Generated_Source\PSoC6\pdl\drivers/peripheral/gpio/cy_gpio.h **** __STATIC_INLINE uint32_t Cy_GPIO_GetInterruptCause3(void);
 607:Generated_Source\PSoC6\pdl\drivers/peripheral/gpio/cy_gpio.h **** 
 608:Generated_Source\PSoC6\pdl\drivers/peripheral/gpio/cy_gpio.h **** /** \} group_gpio_functions_interrupt */
 609:Generated_Source\PSoC6\pdl\drivers/peripheral/gpio/cy_gpio.h **** 
 610:Generated_Source\PSoC6\pdl\drivers/peripheral/gpio/cy_gpio.h **** 
 611:Generated_Source\PSoC6\pdl\drivers/peripheral/gpio/cy_gpio.h **** /**
 612:Generated_Source\PSoC6\pdl\drivers/peripheral/gpio/cy_gpio.h **** * \addtogroup group_gpio_functions_init
 613:Generated_Source\PSoC6\pdl\drivers/peripheral/gpio/cy_gpio.h **** * \{
 614:Generated_Source\PSoC6\pdl\drivers/peripheral/gpio/cy_gpio.h **** */
 615:Generated_Source\PSoC6\pdl\drivers/peripheral/gpio/cy_gpio.h **** 
 616:Generated_Source\PSoC6\pdl\drivers/peripheral/gpio/cy_gpio.h **** /*******************************************************************************
 617:Generated_Source\PSoC6\pdl\drivers/peripheral/gpio/cy_gpio.h **** * Function Name: Cy_GPIO_SetHSIOM
 618:Generated_Source\PSoC6\pdl\drivers/peripheral/gpio/cy_gpio.h **** ****************************************************************************//**
 619:Generated_Source\PSoC6\pdl\drivers/peripheral/gpio/cy_gpio.h **** *
 620:Generated_Source\PSoC6\pdl\drivers/peripheral/gpio/cy_gpio.h **** * Configures the HSIOM connection to the pin.
 621:Generated_Source\PSoC6\pdl\drivers/peripheral/gpio/cy_gpio.h **** *
 622:Generated_Source\PSoC6\pdl\drivers/peripheral/gpio/cy_gpio.h **** * Connects the specified High-Speed Input Output Multiplexer (HSIOM) selection
 623:Generated_Source\PSoC6\pdl\drivers/peripheral/gpio/cy_gpio.h **** * to the pin.
 624:Generated_Source\PSoC6\pdl\drivers/peripheral/gpio/cy_gpio.h **** *
 625:Generated_Source\PSoC6\pdl\drivers/peripheral/gpio/cy_gpio.h **** * \param base
 626:Generated_Source\PSoC6\pdl\drivers/peripheral/gpio/cy_gpio.h **** * Pointer to the pin's port register base address
 627:Generated_Source\PSoC6\pdl\drivers/peripheral/gpio/cy_gpio.h **** *
 628:Generated_Source\PSoC6\pdl\drivers/peripheral/gpio/cy_gpio.h **** * \param pinNum
 629:Generated_Source\PSoC6\pdl\drivers/peripheral/gpio/cy_gpio.h **** * Position of the pin bit-field within the port register
 630:Generated_Source\PSoC6\pdl\drivers/peripheral/gpio/cy_gpio.h **** *
 631:Generated_Source\PSoC6\pdl\drivers/peripheral/gpio/cy_gpio.h **** * \param value
 632:Generated_Source\PSoC6\pdl\drivers/peripheral/gpio/cy_gpio.h **** * HSIOM input selection
 633:Generated_Source\PSoC6\pdl\drivers/peripheral/gpio/cy_gpio.h **** *
 634:Generated_Source\PSoC6\pdl\drivers/peripheral/gpio/cy_gpio.h **** * \note 
 635:Generated_Source\PSoC6\pdl\drivers/peripheral/gpio/cy_gpio.h **** * This function modifies a port register in a read-modify-write operation. It is
 636:Generated_Source\PSoC6\pdl\drivers/peripheral/gpio/cy_gpio.h **** * not thread safe as the resource is shared among multiple pins on a port.
 637:Generated_Source\PSoC6\pdl\drivers/peripheral/gpio/cy_gpio.h **** *
 638:Generated_Source\PSoC6\pdl\drivers/peripheral/gpio/cy_gpio.h **** * \funcusage
 639:Generated_Source\PSoC6\pdl\drivers/peripheral/gpio/cy_gpio.h **** * \snippet gpio/gpio_v1_10_sut_01.cydsn/main_cm4.c snippet_Cy_GPIO_SetHSIOM
ARM GAS  C:\Users\Mahrukh\AppData\Local\Temp\ccJcQtli.s 			page 40


 640:Generated_Source\PSoC6\pdl\drivers/peripheral/gpio/cy_gpio.h **** *
 641:Generated_Source\PSoC6\pdl\drivers/peripheral/gpio/cy_gpio.h **** *******************************************************************************/
 642:Generated_Source\PSoC6\pdl\drivers/peripheral/gpio/cy_gpio.h **** __STATIC_INLINE void Cy_GPIO_SetHSIOM(GPIO_PRT_Type* base, uint32_t pinNum, en_hsiom_sel_t value)
 643:Generated_Source\PSoC6\pdl\drivers/peripheral/gpio/cy_gpio.h **** {
 644:Generated_Source\PSoC6\pdl\drivers/peripheral/gpio/cy_gpio.h ****     uint32_t portNum;
 645:Generated_Source\PSoC6\pdl\drivers/peripheral/gpio/cy_gpio.h ****     uint32_t tempReg;
 646:Generated_Source\PSoC6\pdl\drivers/peripheral/gpio/cy_gpio.h ****     HSIOM_PRT_V1_Type* portAddrHSIOM;
 647:Generated_Source\PSoC6\pdl\drivers/peripheral/gpio/cy_gpio.h **** 
 648:Generated_Source\PSoC6\pdl\drivers/peripheral/gpio/cy_gpio.h ****     CY_ASSERT_L2(CY_GPIO_IS_PIN_VALID(pinNum));
 649:Generated_Source\PSoC6\pdl\drivers/peripheral/gpio/cy_gpio.h ****     CY_ASSERT_L2(CY_GPIO_IS_HSIOM_VALID(value));
 650:Generated_Source\PSoC6\pdl\drivers/peripheral/gpio/cy_gpio.h **** 
 651:Generated_Source\PSoC6\pdl\drivers/peripheral/gpio/cy_gpio.h ****     portNum = ((uint32_t)(base) - CY_GPIO_BASE) / GPIO_PRT_SECTION_SIZE;
 652:Generated_Source\PSoC6\pdl\drivers/peripheral/gpio/cy_gpio.h ****     portAddrHSIOM = (HSIOM_PRT_V1_Type*)(CY_HSIOM_BASE + (HSIOM_PRT_SECTION_SIZE * portNum));
 653:Generated_Source\PSoC6\pdl\drivers/peripheral/gpio/cy_gpio.h **** 
 654:Generated_Source\PSoC6\pdl\drivers/peripheral/gpio/cy_gpio.h ****     if(pinNum < CY_GPIO_PRT_HALF)
 655:Generated_Source\PSoC6\pdl\drivers/peripheral/gpio/cy_gpio.h ****     {
 656:Generated_Source\PSoC6\pdl\drivers/peripheral/gpio/cy_gpio.h ****         tempReg = HSIOM_PRT_PORT_SEL0(portAddrHSIOM) & ~(CY_GPIO_HSIOM_MASK << (pinNum << CY_GPIO_H
 657:Generated_Source\PSoC6\pdl\drivers/peripheral/gpio/cy_gpio.h ****         HSIOM_PRT_PORT_SEL0(portAddrHSIOM) = tempReg | ((value & CY_GPIO_HSIOM_MASK) << (pinNum << 
 658:Generated_Source\PSoC6\pdl\drivers/peripheral/gpio/cy_gpio.h ****     }
 659:Generated_Source\PSoC6\pdl\drivers/peripheral/gpio/cy_gpio.h ****     else
 660:Generated_Source\PSoC6\pdl\drivers/peripheral/gpio/cy_gpio.h ****     {
 661:Generated_Source\PSoC6\pdl\drivers/peripheral/gpio/cy_gpio.h ****         pinNum -= CY_GPIO_PRT_HALF;
 662:Generated_Source\PSoC6\pdl\drivers/peripheral/gpio/cy_gpio.h ****         tempReg = HSIOM_PRT_PORT_SEL1(portAddrHSIOM) & ~(CY_GPIO_HSIOM_MASK << (pinNum << CY_GPIO_H
 663:Generated_Source\PSoC6\pdl\drivers/peripheral/gpio/cy_gpio.h ****         HSIOM_PRT_PORT_SEL1(portAddrHSIOM) = tempReg | ((value & CY_GPIO_HSIOM_MASK) << (pinNum << 
 664:Generated_Source\PSoC6\pdl\drivers/peripheral/gpio/cy_gpio.h ****     }
 665:Generated_Source\PSoC6\pdl\drivers/peripheral/gpio/cy_gpio.h **** }
 666:Generated_Source\PSoC6\pdl\drivers/peripheral/gpio/cy_gpio.h **** 
 667:Generated_Source\PSoC6\pdl\drivers/peripheral/gpio/cy_gpio.h **** 
 668:Generated_Source\PSoC6\pdl\drivers/peripheral/gpio/cy_gpio.h **** /*******************************************************************************
 669:Generated_Source\PSoC6\pdl\drivers/peripheral/gpio/cy_gpio.h **** * Function Name: Cy_GPIO_GetHSIOM
 670:Generated_Source\PSoC6\pdl\drivers/peripheral/gpio/cy_gpio.h **** ****************************************************************************//**
 671:Generated_Source\PSoC6\pdl\drivers/peripheral/gpio/cy_gpio.h **** *
 672:Generated_Source\PSoC6\pdl\drivers/peripheral/gpio/cy_gpio.h **** * Returns the current HSIOM multiplexer connection to the pin.
 673:Generated_Source\PSoC6\pdl\drivers/peripheral/gpio/cy_gpio.h **** *
 674:Generated_Source\PSoC6\pdl\drivers/peripheral/gpio/cy_gpio.h **** * \param base
 675:Generated_Source\PSoC6\pdl\drivers/peripheral/gpio/cy_gpio.h **** * Pointer to the pin's port register base address
 676:Generated_Source\PSoC6\pdl\drivers/peripheral/gpio/cy_gpio.h **** *
 677:Generated_Source\PSoC6\pdl\drivers/peripheral/gpio/cy_gpio.h **** * \param pinNum
 678:Generated_Source\PSoC6\pdl\drivers/peripheral/gpio/cy_gpio.h **** * Position of the pin bit-field within the port register
 679:Generated_Source\PSoC6\pdl\drivers/peripheral/gpio/cy_gpio.h **** *
 680:Generated_Source\PSoC6\pdl\drivers/peripheral/gpio/cy_gpio.h **** * \return
 681:Generated_Source\PSoC6\pdl\drivers/peripheral/gpio/cy_gpio.h **** * HSIOM input selection
 682:Generated_Source\PSoC6\pdl\drivers/peripheral/gpio/cy_gpio.h **** *
 683:Generated_Source\PSoC6\pdl\drivers/peripheral/gpio/cy_gpio.h **** * \funcusage
 684:Generated_Source\PSoC6\pdl\drivers/peripheral/gpio/cy_gpio.h **** * \snippet gpio/gpio_v1_10_sut_01.cydsn/main_cm4.c snippet_Cy_GPIO_SetHSIOM
 685:Generated_Source\PSoC6\pdl\drivers/peripheral/gpio/cy_gpio.h **** *
 686:Generated_Source\PSoC6\pdl\drivers/peripheral/gpio/cy_gpio.h **** *******************************************************************************/
 687:Generated_Source\PSoC6\pdl\drivers/peripheral/gpio/cy_gpio.h **** __STATIC_INLINE en_hsiom_sel_t Cy_GPIO_GetHSIOM(GPIO_PRT_Type* base, uint32_t pinNum)
 688:Generated_Source\PSoC6\pdl\drivers/peripheral/gpio/cy_gpio.h **** {
 689:Generated_Source\PSoC6\pdl\drivers/peripheral/gpio/cy_gpio.h ****     uint32_t returnValue;
 690:Generated_Source\PSoC6\pdl\drivers/peripheral/gpio/cy_gpio.h ****     uint32_t portNum;
 691:Generated_Source\PSoC6\pdl\drivers/peripheral/gpio/cy_gpio.h ****     HSIOM_PRT_V1_Type* portAddrHSIOM;
 692:Generated_Source\PSoC6\pdl\drivers/peripheral/gpio/cy_gpio.h ****     
 693:Generated_Source\PSoC6\pdl\drivers/peripheral/gpio/cy_gpio.h ****     CY_ASSERT_L2(CY_GPIO_IS_PIN_VALID(pinNum));
 694:Generated_Source\PSoC6\pdl\drivers/peripheral/gpio/cy_gpio.h **** 
 695:Generated_Source\PSoC6\pdl\drivers/peripheral/gpio/cy_gpio.h ****     portNum = ((uint32_t)(base) - CY_GPIO_BASE) / GPIO_PRT_SECTION_SIZE;
 696:Generated_Source\PSoC6\pdl\drivers/peripheral/gpio/cy_gpio.h ****     portAddrHSIOM = (HSIOM_PRT_V1_Type*)(CY_HSIOM_BASE + (HSIOM_PRT_SECTION_SIZE * portNum));
ARM GAS  C:\Users\Mahrukh\AppData\Local\Temp\ccJcQtli.s 			page 41


 697:Generated_Source\PSoC6\pdl\drivers/peripheral/gpio/cy_gpio.h **** 
 698:Generated_Source\PSoC6\pdl\drivers/peripheral/gpio/cy_gpio.h ****     if(pinNum < CY_GPIO_PRT_HALF)
 699:Generated_Source\PSoC6\pdl\drivers/peripheral/gpio/cy_gpio.h ****     {
 700:Generated_Source\PSoC6\pdl\drivers/peripheral/gpio/cy_gpio.h ****         returnValue = (HSIOM_PRT_PORT_SEL0(portAddrHSIOM) >> (pinNum << CY_GPIO_HSIOM_OFFSET)) & CY
 701:Generated_Source\PSoC6\pdl\drivers/peripheral/gpio/cy_gpio.h ****     }
 702:Generated_Source\PSoC6\pdl\drivers/peripheral/gpio/cy_gpio.h ****     else
 703:Generated_Source\PSoC6\pdl\drivers/peripheral/gpio/cy_gpio.h ****     {
 704:Generated_Source\PSoC6\pdl\drivers/peripheral/gpio/cy_gpio.h ****         pinNum -= CY_GPIO_PRT_HALF;
 705:Generated_Source\PSoC6\pdl\drivers/peripheral/gpio/cy_gpio.h ****         returnValue = (HSIOM_PRT_PORT_SEL1(portAddrHSIOM) >> (pinNum << CY_GPIO_HSIOM_OFFSET)) & CY
 706:Generated_Source\PSoC6\pdl\drivers/peripheral/gpio/cy_gpio.h ****     }
 707:Generated_Source\PSoC6\pdl\drivers/peripheral/gpio/cy_gpio.h **** 
 708:Generated_Source\PSoC6\pdl\drivers/peripheral/gpio/cy_gpio.h ****     return (en_hsiom_sel_t)returnValue;
 709:Generated_Source\PSoC6\pdl\drivers/peripheral/gpio/cy_gpio.h **** }
 710:Generated_Source\PSoC6\pdl\drivers/peripheral/gpio/cy_gpio.h **** 
 711:Generated_Source\PSoC6\pdl\drivers/peripheral/gpio/cy_gpio.h **** 
 712:Generated_Source\PSoC6\pdl\drivers/peripheral/gpio/cy_gpio.h **** /*******************************************************************************
 713:Generated_Source\PSoC6\pdl\drivers/peripheral/gpio/cy_gpio.h **** * Function Name: Cy_GPIO_PortToAddr
 714:Generated_Source\PSoC6\pdl\drivers/peripheral/gpio/cy_gpio.h **** ****************************************************************************//**
 715:Generated_Source\PSoC6\pdl\drivers/peripheral/gpio/cy_gpio.h **** *
 716:Generated_Source\PSoC6\pdl\drivers/peripheral/gpio/cy_gpio.h **** * Retrieves the port address based on the given port number.
 717:Generated_Source\PSoC6\pdl\drivers/peripheral/gpio/cy_gpio.h **** *
 718:Generated_Source\PSoC6\pdl\drivers/peripheral/gpio/cy_gpio.h **** * This is a helper function to calculate the port base address when given a port
 719:Generated_Source\PSoC6\pdl\drivers/peripheral/gpio/cy_gpio.h **** * number. It is to be used when pin access needs to be calculated at runtime.
 720:Generated_Source\PSoC6\pdl\drivers/peripheral/gpio/cy_gpio.h **** *
 721:Generated_Source\PSoC6\pdl\drivers/peripheral/gpio/cy_gpio.h **** * \param portNum
 722:Generated_Source\PSoC6\pdl\drivers/peripheral/gpio/cy_gpio.h **** * Port number
 723:Generated_Source\PSoC6\pdl\drivers/peripheral/gpio/cy_gpio.h **** *
 724:Generated_Source\PSoC6\pdl\drivers/peripheral/gpio/cy_gpio.h **** * \return
 725:Generated_Source\PSoC6\pdl\drivers/peripheral/gpio/cy_gpio.h **** * Base address of the port register structure
 726:Generated_Source\PSoC6\pdl\drivers/peripheral/gpio/cy_gpio.h **** *
 727:Generated_Source\PSoC6\pdl\drivers/peripheral/gpio/cy_gpio.h **** * \funcusage
 728:Generated_Source\PSoC6\pdl\drivers/peripheral/gpio/cy_gpio.h **** * \snippet gpio/gpio_v1_10_sut_01.cydsn/main_cm4.c snippet_Cy_GPIO_PortToAddr
 729:Generated_Source\PSoC6\pdl\drivers/peripheral/gpio/cy_gpio.h **** *
 730:Generated_Source\PSoC6\pdl\drivers/peripheral/gpio/cy_gpio.h **** *******************************************************************************/
 731:Generated_Source\PSoC6\pdl\drivers/peripheral/gpio/cy_gpio.h **** __STATIC_INLINE GPIO_PRT_Type* Cy_GPIO_PortToAddr(uint32_t portNum)
 732:Generated_Source\PSoC6\pdl\drivers/peripheral/gpio/cy_gpio.h **** {
 733:Generated_Source\PSoC6\pdl\drivers/peripheral/gpio/cy_gpio.h ****     GPIO_PRT_Type* portBase;
 734:Generated_Source\PSoC6\pdl\drivers/peripheral/gpio/cy_gpio.h ****     
 735:Generated_Source\PSoC6\pdl\drivers/peripheral/gpio/cy_gpio.h ****     if(portNum < (uint32_t)IOSS_GPIO_GPIO_PORT_NR)
 736:Generated_Source\PSoC6\pdl\drivers/peripheral/gpio/cy_gpio.h ****     {
 737:Generated_Source\PSoC6\pdl\drivers/peripheral/gpio/cy_gpio.h ****         portBase = (GPIO_PRT_Type *)(CY_GPIO_BASE + (GPIO_PRT_SECTION_SIZE * portNum));
 738:Generated_Source\PSoC6\pdl\drivers/peripheral/gpio/cy_gpio.h ****     }
 739:Generated_Source\PSoC6\pdl\drivers/peripheral/gpio/cy_gpio.h ****     else
 740:Generated_Source\PSoC6\pdl\drivers/peripheral/gpio/cy_gpio.h ****     {
 741:Generated_Source\PSoC6\pdl\drivers/peripheral/gpio/cy_gpio.h ****         /* Error: Return default base address */
 742:Generated_Source\PSoC6\pdl\drivers/peripheral/gpio/cy_gpio.h ****         portBase = (GPIO_PRT_Type *)(CY_GPIO_BASE);
 743:Generated_Source\PSoC6\pdl\drivers/peripheral/gpio/cy_gpio.h ****     }
 744:Generated_Source\PSoC6\pdl\drivers/peripheral/gpio/cy_gpio.h **** 
 745:Generated_Source\PSoC6\pdl\drivers/peripheral/gpio/cy_gpio.h ****     return (portBase);
 746:Generated_Source\PSoC6\pdl\drivers/peripheral/gpio/cy_gpio.h **** }
 747:Generated_Source\PSoC6\pdl\drivers/peripheral/gpio/cy_gpio.h **** 
 748:Generated_Source\PSoC6\pdl\drivers/peripheral/gpio/cy_gpio.h **** /** \} group_gpio_functions_init */
 749:Generated_Source\PSoC6\pdl\drivers/peripheral/gpio/cy_gpio.h **** 
 750:Generated_Source\PSoC6\pdl\drivers/peripheral/gpio/cy_gpio.h **** /**
 751:Generated_Source\PSoC6\pdl\drivers/peripheral/gpio/cy_gpio.h **** * \addtogroup group_gpio_functions_gpio
 752:Generated_Source\PSoC6\pdl\drivers/peripheral/gpio/cy_gpio.h **** * \{
 753:Generated_Source\PSoC6\pdl\drivers/peripheral/gpio/cy_gpio.h **** */
ARM GAS  C:\Users\Mahrukh\AppData\Local\Temp\ccJcQtli.s 			page 42


 754:Generated_Source\PSoC6\pdl\drivers/peripheral/gpio/cy_gpio.h **** 
 755:Generated_Source\PSoC6\pdl\drivers/peripheral/gpio/cy_gpio.h **** /*******************************************************************************
 756:Generated_Source\PSoC6\pdl\drivers/peripheral/gpio/cy_gpio.h **** * Function Name: Cy_GPIO_Read
 757:Generated_Source\PSoC6\pdl\drivers/peripheral/gpio/cy_gpio.h **** ****************************************************************************//**
 758:Generated_Source\PSoC6\pdl\drivers/peripheral/gpio/cy_gpio.h **** *
 759:Generated_Source\PSoC6\pdl\drivers/peripheral/gpio/cy_gpio.h **** * Reads the current logic level on the input buffer of the pin.
 760:Generated_Source\PSoC6\pdl\drivers/peripheral/gpio/cy_gpio.h **** *
 761:Generated_Source\PSoC6\pdl\drivers/peripheral/gpio/cy_gpio.h **** * \param base
 762:Generated_Source\PSoC6\pdl\drivers/peripheral/gpio/cy_gpio.h **** * Pointer to the pin's port register base address
 763:Generated_Source\PSoC6\pdl\drivers/peripheral/gpio/cy_gpio.h **** *
 764:Generated_Source\PSoC6\pdl\drivers/peripheral/gpio/cy_gpio.h **** * \param pinNum
 765:Generated_Source\PSoC6\pdl\drivers/peripheral/gpio/cy_gpio.h **** * Position of the pin bit-field within the port register.
 766:Generated_Source\PSoC6\pdl\drivers/peripheral/gpio/cy_gpio.h **** * Bit position 8 is the routed pin through the port glitch filter.
 767:Generated_Source\PSoC6\pdl\drivers/peripheral/gpio/cy_gpio.h **** *
 768:Generated_Source\PSoC6\pdl\drivers/peripheral/gpio/cy_gpio.h **** * \return
 769:Generated_Source\PSoC6\pdl\drivers/peripheral/gpio/cy_gpio.h **** * Logic level present on the pin
 770:Generated_Source\PSoC6\pdl\drivers/peripheral/gpio/cy_gpio.h **** *
 771:Generated_Source\PSoC6\pdl\drivers/peripheral/gpio/cy_gpio.h **** * \funcusage
 772:Generated_Source\PSoC6\pdl\drivers/peripheral/gpio/cy_gpio.h **** * \snippet gpio/gpio_v1_10_sut_01.cydsn/main_cm4.c snippet_Cy_GPIO_Read
 773:Generated_Source\PSoC6\pdl\drivers/peripheral/gpio/cy_gpio.h **** *
 774:Generated_Source\PSoC6\pdl\drivers/peripheral/gpio/cy_gpio.h **** *******************************************************************************/
 775:Generated_Source\PSoC6\pdl\drivers/peripheral/gpio/cy_gpio.h **** __STATIC_INLINE uint32_t Cy_GPIO_Read(GPIO_PRT_Type* base, uint32_t pinNum)
 776:Generated_Source\PSoC6\pdl\drivers/peripheral/gpio/cy_gpio.h **** {
 777:Generated_Source\PSoC6\pdl\drivers/peripheral/gpio/cy_gpio.h ****     CY_ASSERT_L2(CY_GPIO_IS_FILTER_PIN_VALID(pinNum));
 778:Generated_Source\PSoC6\pdl\drivers/peripheral/gpio/cy_gpio.h ****     
 779:Generated_Source\PSoC6\pdl\drivers/peripheral/gpio/cy_gpio.h ****     return (GPIO_PRT_IN(base) >> (pinNum)) & CY_GPIO_IN_MASK;
 780:Generated_Source\PSoC6\pdl\drivers/peripheral/gpio/cy_gpio.h **** }
 781:Generated_Source\PSoC6\pdl\drivers/peripheral/gpio/cy_gpio.h **** 
 782:Generated_Source\PSoC6\pdl\drivers/peripheral/gpio/cy_gpio.h **** 
 783:Generated_Source\PSoC6\pdl\drivers/peripheral/gpio/cy_gpio.h **** /*******************************************************************************
 784:Generated_Source\PSoC6\pdl\drivers/peripheral/gpio/cy_gpio.h **** * Function Name: Cy_GPIO_Write
 785:Generated_Source\PSoC6\pdl\drivers/peripheral/gpio/cy_gpio.h **** ****************************************************************************//**
 786:Generated_Source\PSoC6\pdl\drivers/peripheral/gpio/cy_gpio.h **** *
 787:Generated_Source\PSoC6\pdl\drivers/peripheral/gpio/cy_gpio.h **** * Write a logic 0 or logic 1 state to the output driver.
 788:Generated_Source\PSoC6\pdl\drivers/peripheral/gpio/cy_gpio.h **** *
 789:Generated_Source\PSoC6\pdl\drivers/peripheral/gpio/cy_gpio.h **** * This function should be used only for software driven pins. It does not have
 790:Generated_Source\PSoC6\pdl\drivers/peripheral/gpio/cy_gpio.h **** * any effect on peripheral driven pins.
 791:Generated_Source\PSoC6\pdl\drivers/peripheral/gpio/cy_gpio.h **** *
 792:Generated_Source\PSoC6\pdl\drivers/peripheral/gpio/cy_gpio.h **** * \param base
 793:Generated_Source\PSoC6\pdl\drivers/peripheral/gpio/cy_gpio.h **** * Pointer to the pin's port register base address
 794:Generated_Source\PSoC6\pdl\drivers/peripheral/gpio/cy_gpio.h **** *
 795:Generated_Source\PSoC6\pdl\drivers/peripheral/gpio/cy_gpio.h **** * \param pinNum
 796:Generated_Source\PSoC6\pdl\drivers/peripheral/gpio/cy_gpio.h **** * Position of the pin bit-field within the port register
 797:Generated_Source\PSoC6\pdl\drivers/peripheral/gpio/cy_gpio.h **** *
 798:Generated_Source\PSoC6\pdl\drivers/peripheral/gpio/cy_gpio.h **** * \param value
 799:Generated_Source\PSoC6\pdl\drivers/peripheral/gpio/cy_gpio.h **** * Logic level to drive out on the pin
 800:Generated_Source\PSoC6\pdl\drivers/peripheral/gpio/cy_gpio.h **** *
 801:Generated_Source\PSoC6\pdl\drivers/peripheral/gpio/cy_gpio.h **** * \funcusage
 802:Generated_Source\PSoC6\pdl\drivers/peripheral/gpio/cy_gpio.h **** * \snippet gpio/gpio_v1_10_sut_01.cydsn/main_cm4.c snippet_Cy_GPIO_Write
 803:Generated_Source\PSoC6\pdl\drivers/peripheral/gpio/cy_gpio.h **** *
 804:Generated_Source\PSoC6\pdl\drivers/peripheral/gpio/cy_gpio.h **** *******************************************************************************/
 805:Generated_Source\PSoC6\pdl\drivers/peripheral/gpio/cy_gpio.h **** __STATIC_INLINE void Cy_GPIO_Write(GPIO_PRT_Type* base, uint32_t pinNum, uint32_t value)
 806:Generated_Source\PSoC6\pdl\drivers/peripheral/gpio/cy_gpio.h **** {
 807:Generated_Source\PSoC6\pdl\drivers/peripheral/gpio/cy_gpio.h ****     CY_ASSERT_L2(CY_GPIO_IS_PIN_VALID(pinNum));
 808:Generated_Source\PSoC6\pdl\drivers/peripheral/gpio/cy_gpio.h ****     CY_ASSERT_L2(CY_GPIO_IS_VALUE_VALID(value));
 809:Generated_Source\PSoC6\pdl\drivers/peripheral/gpio/cy_gpio.h **** 
 810:Generated_Source\PSoC6\pdl\drivers/peripheral/gpio/cy_gpio.h ****     /* Thread-safe: Directly access the pin registers instead of base->OUT */
ARM GAS  C:\Users\Mahrukh\AppData\Local\Temp\ccJcQtli.s 			page 43


 811:Generated_Source\PSoC6\pdl\drivers/peripheral/gpio/cy_gpio.h ****     if(0UL == value)
 812:Generated_Source\PSoC6\pdl\drivers/peripheral/gpio/cy_gpio.h ****     {
 813:Generated_Source\PSoC6\pdl\drivers/peripheral/gpio/cy_gpio.h ****         GPIO_PRT_OUT_CLR(base) = CY_GPIO_OUT_MASK << pinNum;
 814:Generated_Source\PSoC6\pdl\drivers/peripheral/gpio/cy_gpio.h ****     }
 815:Generated_Source\PSoC6\pdl\drivers/peripheral/gpio/cy_gpio.h ****     else
 816:Generated_Source\PSoC6\pdl\drivers/peripheral/gpio/cy_gpio.h ****     {
 817:Generated_Source\PSoC6\pdl\drivers/peripheral/gpio/cy_gpio.h ****         GPIO_PRT_OUT_SET(base) = CY_GPIO_OUT_MASK << pinNum;
 1280              		.loc 2 817 0
 1281 015e 0222     		movs	r2, #2
 1282 0160 894B     		ldr	r3, .L94+24
 1283 0162 9A60     		str	r2, [r3, #8]
 1284              	.LVL152:
 1285              	.LBE17:
 1286              	.LBE16:
 298:DISPLAY.c     ****                                             Cy_GPIO_Write (Pin_ACC_0_PORT,Pin_ACC_0_NUM,1);
 299:DISPLAY.c     ****                                             GUI_SetFont(GUI_FONT_16B_1);
 1287              		.loc 1 299 0
 1288 0164 8648     		ldr	r0, .L94+16
 1289 0166 FFF7FEFF 		bl	GUI_SetFont
 1290              	.LVL153:
 300:DISPLAY.c     ****                                             GUI_DispStringAt ("L'alarme est desactivee", 25, 130);
 1291              		.loc 1 300 0
 1292 016a 8222     		movs	r2, #130
 1293 016c 1921     		movs	r1, #25
 1294 016e 8748     		ldr	r0, .L94+28
 1295 0170 FFF7FEFF 		bl	GUI_DispStringAt
 1296              	.LVL154:
 301:DISPLAY.c     ****                                                UpdateDisplay(CY_EINK_FULL_4STAGE, true);
 1297              		.loc 1 301 0
 1298 0174 0121     		movs	r1, #1
 1299 0176 0846     		mov	r0, r1
 1300 0178 FFF7FEFF 		bl	UpdateDisplay
 1301              	.LVL155:
 302:DISPLAY.c     ****                                             currentScreen.FLAG2=0; }
 1302              		.loc 1 302 0
 1303 017c 7D4B     		ldr	r3, .L94+4
 1304 017e 9C70     		strb	r4, [r3, #2]
 1305              	.L68:
 303:DISPLAY.c     ****                   //Affichage de l'OPTION 1  √† l'appuie du bouton 1 sur le MENU pour une position 
 304:DISPLAY.c     ****                                         if (selection_MENU==1) {
 1306              		.loc 1 304 0
 1307 0180 7D4B     		ldr	r3, .L94+8
 1308 0182 1B78     		ldrb	r3, [r3]	@ zero_extendqisi2
 1309 0184 012B     		cmp	r3, #1
 1310 0186 05D1     		bne	.L66
 305:DISPLAY.c     ****                                             currentScreen.screen= OPTION_1; 
 1311              		.loc 1 305 0
 1312 0188 0222     		movs	r2, #2
 1313 018a 7A4B     		ldr	r3, .L94+4
 1314 018c 1A70     		strb	r2, [r3]
 306:DISPLAY.c     ****                                             selection_MENU=0;}
 1315              		.loc 1 306 0
 1316 018e 0022     		movs	r2, #0
 1317 0190 794B     		ldr	r3, .L94+8
 1318 0192 1A70     		strb	r2, [r3]
 1319              	.L66:
 307:DISPLAY.c     **** 
ARM GAS  C:\Users\Mahrukh\AppData\Local\Temp\ccJcQtli.s 			page 44


 308:DISPLAY.c     ****                 } 
 309:DISPLAY.c     ****                 if (currentScreen.FLAG1==4 || currentScreen.FLAG2==4 || selection_MENU==2){       
 1320              		.loc 1 309 0
 1321 0194 774B     		ldr	r3, .L94+4
 1322 0196 5B78     		ldrb	r3, [r3, #1]	@ zero_extendqisi2
 1323 0198 DBB2     		uxtb	r3, r3
 1324 019a 042B     		cmp	r3, #4
 1325 019c 08D0     		beq	.L69
 1326              		.loc 1 309 0 is_stmt 0 discriminator 1
 1327 019e 754B     		ldr	r3, .L94+4
 1328 01a0 9B78     		ldrb	r3, [r3, #2]	@ zero_extendqisi2
 1329 01a2 DBB2     		uxtb	r3, r3
 1330 01a4 042B     		cmp	r3, #4
 1331 01a6 03D0     		beq	.L69
 1332              		.loc 1 309 0 discriminator 2
 1333 01a8 734B     		ldr	r3, .L94+8
 1334 01aa 1B78     		ldrb	r3, [r3]	@ zero_extendqisi2
 1335 01ac 022B     		cmp	r3, #2
 1336 01ae 1BD1     		bne	.L70
 1337              	.L69:
 310:DISPLAY.c     ****                     DrawOption2();
 1338              		.loc 1 310 0 is_stmt 1
 1339 01b0 FFF7FEFF 		bl	DrawOption2
 1340              	.LVL156:
 311:DISPLAY.c     ****                    
 312:DISPLAY.c     ****                                         if  (currentScreen.FLAG1==4) { currentScreen.FLAG1=0; } // 
 1341              		.loc 1 312 0
 1342 01b4 6F4B     		ldr	r3, .L94+4
 1343 01b6 5B78     		ldrb	r3, [r3, #1]	@ zero_extendqisi2
 1344 01b8 DBB2     		uxtb	r3, r3
 1345 01ba 042B     		cmp	r3, #4
 1346 01bc 02D1     		bne	.L71
 1347              		.loc 1 312 0 is_stmt 0 discriminator 1
 1348 01be 0022     		movs	r2, #0
 1349 01c0 6C4B     		ldr	r3, .L94+4
 1350 01c2 5A70     		strb	r2, [r3, #1]
 1351              	.L71:
 313:DISPLAY.c     ****                                         if  (currentScreen.FLAG2==4) { currentScreen.FLAG2=0; } // 
 1352              		.loc 1 313 0 is_stmt 1
 1353 01c4 6B4B     		ldr	r3, .L94+4
 1354 01c6 9B78     		ldrb	r3, [r3, #2]	@ zero_extendqisi2
 1355 01c8 DBB2     		uxtb	r3, r3
 1356 01ca 042B     		cmp	r3, #4
 1357 01cc 02D1     		bne	.L72
 1358              		.loc 1 313 0 is_stmt 0 discriminator 1
 1359 01ce 0022     		movs	r2, #0
 1360 01d0 684B     		ldr	r3, .L94+4
 1361 01d2 9A70     		strb	r2, [r3, #2]
 1362              	.L72:
 314:DISPLAY.c     ****                                         if (selection_MENU==2) {
 1363              		.loc 1 314 0 is_stmt 1
 1364 01d4 684B     		ldr	r3, .L94+8
 1365 01d6 1B78     		ldrb	r3, [r3]	@ zero_extendqisi2
 1366 01d8 022B     		cmp	r3, #2
 1367 01da 05D1     		bne	.L70
 315:DISPLAY.c     ****                                             currentScreen.screen= OPTION_2; 
 1368              		.loc 1 315 0
ARM GAS  C:\Users\Mahrukh\AppData\Local\Temp\ccJcQtli.s 			page 45


 1369 01dc 0322     		movs	r2, #3
 1370 01de 654B     		ldr	r3, .L94+4
 1371 01e0 1A70     		strb	r2, [r3]
 316:DISPLAY.c     ****                                             selection_MENU=0;} //Affichage de l'OPTION 2  √† l'appu
 1372              		.loc 1 316 0
 1373 01e2 0022     		movs	r2, #0
 1374 01e4 644B     		ldr	r3, .L94+8
 1375 01e6 1A70     		strb	r2, [r3]
 1376              	.L70:
 317:DISPLAY.c     ****                 } 
 318:DISPLAY.c     ****                 if (currentScreen.FLAG1==5 || currentScreen.FLAG2==5 || selection_MENU==3) {       
 1377              		.loc 1 318 0
 1378 01e8 624B     		ldr	r3, .L94+4
 1379 01ea 5B78     		ldrb	r3, [r3, #1]	@ zero_extendqisi2
 1380 01ec DBB2     		uxtb	r3, r3
 1381 01ee 052B     		cmp	r3, #5
 1382 01f0 08D0     		beq	.L73
 1383              		.loc 1 318 0 is_stmt 0 discriminator 1
 1384 01f2 604B     		ldr	r3, .L94+4
 1385 01f4 9B78     		ldrb	r3, [r3, #2]	@ zero_extendqisi2
 1386 01f6 DBB2     		uxtb	r3, r3
 1387 01f8 052B     		cmp	r3, #5
 1388 01fa 03D0     		beq	.L73
 1389              		.loc 1 318 0 discriminator 2
 1390 01fc 5E4B     		ldr	r3, .L94+8
 1391 01fe 1B78     		ldrb	r3, [r3]	@ zero_extendqisi2
 1392 0200 032B     		cmp	r3, #3
 1393 0202 1BD1     		bne	.L74
 1394              	.L73:
 319:DISPLAY.c     ****                     DrawOption3_superieur();
 1395              		.loc 1 319 0 is_stmt 1
 1396 0204 FFF7FEFF 		bl	DrawOption3_superieur
 1397              	.LVL157:
 320:DISPLAY.c     ****                    
 321:DISPLAY.c     ****                                         if  (currentScreen.FLAG1==5) { currentScreen.FLAG1=0; } // 
 1398              		.loc 1 321 0
 1399 0208 5A4B     		ldr	r3, .L94+4
 1400 020a 5B78     		ldrb	r3, [r3, #1]	@ zero_extendqisi2
 1401 020c DBB2     		uxtb	r3, r3
 1402 020e 052B     		cmp	r3, #5
 1403 0210 02D1     		bne	.L75
 1404              		.loc 1 321 0 is_stmt 0 discriminator 1
 1405 0212 0022     		movs	r2, #0
 1406 0214 574B     		ldr	r3, .L94+4
 1407 0216 5A70     		strb	r2, [r3, #1]
 1408              	.L75:
 322:DISPLAY.c     ****                                         if  (currentScreen.FLAG2==5) { currentScreen.FLAG2=0; } // 
 1409              		.loc 1 322 0 is_stmt 1
 1410 0218 564B     		ldr	r3, .L94+4
 1411 021a 9B78     		ldrb	r3, [r3, #2]	@ zero_extendqisi2
 1412 021c DBB2     		uxtb	r3, r3
 1413 021e 052B     		cmp	r3, #5
 1414 0220 02D1     		bne	.L76
 1415              		.loc 1 322 0 is_stmt 0 discriminator 1
 1416 0222 0022     		movs	r2, #0
 1417 0224 534B     		ldr	r3, .L94+4
 1418 0226 9A70     		strb	r2, [r3, #2]
ARM GAS  C:\Users\Mahrukh\AppData\Local\Temp\ccJcQtli.s 			page 46


 1419              	.L76:
 323:DISPLAY.c     ****                                         if (selection_MENU==3) {
 1420              		.loc 1 323 0 is_stmt 1
 1421 0228 534B     		ldr	r3, .L94+8
 1422 022a 1B78     		ldrb	r3, [r3]	@ zero_extendqisi2
 1423 022c 032B     		cmp	r3, #3
 1424 022e 05D1     		bne	.L74
 324:DISPLAY.c     **** 
 325:DISPLAY.c     ****                                             currentScreen.screen= OPTION_3_superieur;
 1425              		.loc 1 325 0
 1426 0230 0422     		movs	r2, #4
 1427 0232 504B     		ldr	r3, .L94+4
 1428 0234 1A70     		strb	r2, [r3]
 326:DISPLAY.c     ****                                             selection_MENU=0;} //Affichage de l'OPTION 3  √† l'appu
 1429              		.loc 1 326 0
 1430 0236 0022     		movs	r2, #0
 1431 0238 4F4B     		ldr	r3, .L94+8
 1432 023a 1A70     		strb	r2, [r3]
 1433              	.L74:
 327:DISPLAY.c     ****                 }
 328:DISPLAY.c     ****                 if (currentScreen.FLAG1==6 || currentScreen.FLAG2==6 || selection_MENU==4) {       
 1434              		.loc 1 328 0
 1435 023c 4D4B     		ldr	r3, .L94+4
 1436 023e 5B78     		ldrb	r3, [r3, #1]	@ zero_extendqisi2
 1437 0240 DBB2     		uxtb	r3, r3
 1438 0242 062B     		cmp	r3, #6
 1439 0244 08D0     		beq	.L77
 1440              		.loc 1 328 0 is_stmt 0 discriminator 1
 1441 0246 4B4B     		ldr	r3, .L94+4
 1442 0248 9B78     		ldrb	r3, [r3, #2]	@ zero_extendqisi2
 1443 024a DBB2     		uxtb	r3, r3
 1444 024c 062B     		cmp	r3, #6
 1445 024e 03D0     		beq	.L77
 1446              		.loc 1 328 0 discriminator 2
 1447 0250 494B     		ldr	r3, .L94+8
 1448 0252 1B78     		ldrb	r3, [r3]	@ zero_extendqisi2
 1449 0254 042B     		cmp	r3, #4
 1450 0256 1BD1     		bne	.L78
 1451              	.L77:
 329:DISPLAY.c     **** 
 330:DISPLAY.c     ****                     DrawOption3_inferieur();
 1452              		.loc 1 330 0 is_stmt 1
 1453 0258 FFF7FEFF 		bl	DrawOption3_inferieur
 1454              	.LVL158:
 331:DISPLAY.c     ****                     
 332:DISPLAY.c     ****                                         if  (currentScreen.FLAG1==6) { currentScreen.FLAG1=0; } // 
 1455              		.loc 1 332 0
 1456 025c 454B     		ldr	r3, .L94+4
 1457 025e 5B78     		ldrb	r3, [r3, #1]	@ zero_extendqisi2
 1458 0260 DBB2     		uxtb	r3, r3
 1459 0262 062B     		cmp	r3, #6
 1460 0264 02D1     		bne	.L79
 1461              		.loc 1 332 0 is_stmt 0 discriminator 1
 1462 0266 0022     		movs	r2, #0
 1463 0268 424B     		ldr	r3, .L94+4
 1464 026a 5A70     		strb	r2, [r3, #1]
 1465              	.L79:
ARM GAS  C:\Users\Mahrukh\AppData\Local\Temp\ccJcQtli.s 			page 47


 333:DISPLAY.c     ****                                         if  (currentScreen.FLAG2==6) { currentScreen.FLAG2=0; } // 
 1466              		.loc 1 333 0 is_stmt 1
 1467 026c 414B     		ldr	r3, .L94+4
 1468 026e 9B78     		ldrb	r3, [r3, #2]	@ zero_extendqisi2
 1469 0270 DBB2     		uxtb	r3, r3
 1470 0272 062B     		cmp	r3, #6
 1471 0274 02D1     		bne	.L80
 1472              		.loc 1 333 0 is_stmt 0 discriminator 1
 1473 0276 0022     		movs	r2, #0
 1474 0278 3E4B     		ldr	r3, .L94+4
 1475 027a 9A70     		strb	r2, [r3, #2]
 1476              	.L80:
 334:DISPLAY.c     ****                                         if (selection_MENU==4) {
 1477              		.loc 1 334 0 is_stmt 1
 1478 027c 3E4B     		ldr	r3, .L94+8
 1479 027e 1B78     		ldrb	r3, [r3]	@ zero_extendqisi2
 1480 0280 042B     		cmp	r3, #4
 1481 0282 05D1     		bne	.L78
 335:DISPLAY.c     ****                                             currentScreen.screen= OPTION_3_inferieur; 
 1482              		.loc 1 335 0
 1483 0284 0522     		movs	r2, #5
 1484 0286 3B4B     		ldr	r3, .L94+4
 1485 0288 1A70     		strb	r2, [r3]
 336:DISPLAY.c     ****                                             selection_MENU=0;} //Affichage de l'OPTION 4  √† l'appu
 1486              		.loc 1 336 0
 1487 028a 0022     		movs	r2, #0
 1488 028c 3A4B     		ldr	r3, .L94+8
 1489 028e 1A70     		strb	r2, [r3]
 1490              	.L78:
 337:DISPLAY.c     ****                 }
 338:DISPLAY.c     ****                 if (currentScreen.FLAG1==7 || currentScreen.FLAG2==7 || selection_MENU==5) {       
 1491              		.loc 1 338 0
 1492 0290 384B     		ldr	r3, .L94+4
 1493 0292 5B78     		ldrb	r3, [r3, #1]	@ zero_extendqisi2
 1494 0294 DBB2     		uxtb	r3, r3
 1495 0296 072B     		cmp	r3, #7
 1496 0298 08D0     		beq	.L81
 1497              		.loc 1 338 0 is_stmt 0 discriminator 1
 1498 029a 364B     		ldr	r3, .L94+4
 1499 029c 9B78     		ldrb	r3, [r3, #2]	@ zero_extendqisi2
 1500 029e DBB2     		uxtb	r3, r3
 1501 02a0 072B     		cmp	r3, #7
 1502 02a2 03D0     		beq	.L81
 1503              		.loc 1 338 0 discriminator 2
 1504 02a4 344B     		ldr	r3, .L94+8
 1505 02a6 1B78     		ldrb	r3, [r3]	@ zero_extendqisi2
 1506 02a8 052B     		cmp	r3, #5
 1507 02aa 3BD1     		bne	.L82
 1508              	.L81:
 339:DISPLAY.c     **** 
 340:DISPLAY.c     ****                     DrawOption3_ETAT();
 1509              		.loc 1 340 0 is_stmt 1
 1510 02ac FFF7FEFF 		bl	DrawOption3_ETAT
 1511              	.LVL159:
 341:DISPLAY.c     ****                     //Activation  de l'alarme de la FC √† l'appuie du bouton 0 sur la page de l'OPT
 342:DISPLAY.c     ****                     //Permet la comparaison de l'intervalle de FC d√©sir√©e et la FC pr√©lev√©e 
 343:DISPLAY.c     ****                                         if  (currentScreen.FLAG1==7) {
ARM GAS  C:\Users\Mahrukh\AppData\Local\Temp\ccJcQtli.s 			page 48


 1512              		.loc 1 343 0
 1513 02b0 304B     		ldr	r3, .L94+4
 1514 02b2 5B78     		ldrb	r3, [r3, #1]	@ zero_extendqisi2
 1515 02b4 DBB2     		uxtb	r3, r3
 1516 02b6 072B     		cmp	r3, #7
 1517 02b8 11D1     		bne	.L83
 344:DISPLAY.c     ****                                              alarme_FC= true; 
 1518              		.loc 1 344 0
 1519 02ba 0124     		movs	r4, #1
 1520 02bc 344B     		ldr	r3, .L94+32
 1521 02be 1C70     		strb	r4, [r3]
 345:DISPLAY.c     ****                                              GUI_SetFont(GUI_FONT_16B_1);
 1522              		.loc 1 345 0
 1523 02c0 2F48     		ldr	r0, .L94+16
 1524 02c2 FFF7FEFF 		bl	GUI_SetFont
 1525              	.LVL160:
 346:DISPLAY.c     ****                                              GUI_DispStringAt ("L'alarme est activee ",25, 130); 
 1526              		.loc 1 346 0
 1527 02c6 8222     		movs	r2, #130
 1528 02c8 1921     		movs	r1, #25
 1529 02ca 2E48     		ldr	r0, .L94+20
 1530 02cc FFF7FEFF 		bl	GUI_DispStringAt
 1531              	.LVL161:
 347:DISPLAY.c     ****                                                UpdateDisplay(CY_EINK_FULL_4STAGE, true);
 1532              		.loc 1 347 0
 1533 02d0 2146     		mov	r1, r4
 1534 02d2 2046     		mov	r0, r4
 1535 02d4 FFF7FEFF 		bl	UpdateDisplay
 1536              	.LVL162:
 348:DISPLAY.c     ****                                             currentScreen.FLAG1=0; }
 1537              		.loc 1 348 0
 1538 02d8 0022     		movs	r2, #0
 1539 02da 264B     		ldr	r3, .L94+4
 1540 02dc 5A70     		strb	r2, [r3, #1]
 1541              	.L83:
 349:DISPLAY.c     ****                     //D√©sactivation  de l'alarme de la FC √† l'appuie du bouton 1 sur la page de l
 350:DISPLAY.c     ****                     //Bloque la comparaison de l'intervalle de FC d√©sir√©e et la FC pr√©lev√©e 
 351:DISPLAY.c     ****                                         if  (currentScreen.FLAG2==7) { 
 1542              		.loc 1 351 0
 1543 02de 254B     		ldr	r3, .L94+4
 1544 02e0 9B78     		ldrb	r3, [r3, #2]	@ zero_extendqisi2
 1545 02e2 DBB2     		uxtb	r3, r3
 1546 02e4 072B     		cmp	r3, #7
 1547 02e6 13D1     		bne	.L84
 352:DISPLAY.c     ****                                              alarme_FC= false;
 1548              		.loc 1 352 0
 1549 02e8 0024     		movs	r4, #0
 1550 02ea 294B     		ldr	r3, .L94+32
 1551 02ec 1C70     		strb	r4, [r3]
 1552              	.LVL163:
 1553              	.LBB18:
 1554              	.LBB19:
 1555              		.loc 2 817 0
 1556 02ee 8022     		movs	r2, #128
 1557 02f0 284B     		ldr	r3, .L94+36
 1558 02f2 9A60     		str	r2, [r3, #8]
 1559              	.LVL164:
ARM GAS  C:\Users\Mahrukh\AppData\Local\Temp\ccJcQtli.s 			page 49


 1560              	.LBE19:
 1561              	.LBE18:
 353:DISPLAY.c     ****                                             Cy_GPIO_Write (Pin_FC_0_PORT,Pin_FC_0_NUM,1);
 354:DISPLAY.c     ****                                             GUI_SetFont(GUI_FONT_16B_1);
 1562              		.loc 1 354 0
 1563 02f4 2248     		ldr	r0, .L94+16
 1564 02f6 FFF7FEFF 		bl	GUI_SetFont
 1565              	.LVL165:
 355:DISPLAY.c     ****                                             GUI_DispStringAt ("L'alarme est desactivee", 25, 130);
 1566              		.loc 1 355 0
 1567 02fa 8222     		movs	r2, #130
 1568 02fc 1921     		movs	r1, #25
 1569 02fe 2348     		ldr	r0, .L94+28
 1570 0300 FFF7FEFF 		bl	GUI_DispStringAt
 1571              	.LVL166:
 356:DISPLAY.c     ****                                                UpdateDisplay(CY_EINK_FULL_4STAGE, true);
 1572              		.loc 1 356 0
 1573 0304 0121     		movs	r1, #1
 1574 0306 0846     		mov	r0, r1
 1575 0308 FFF7FEFF 		bl	UpdateDisplay
 1576              	.LVL167:
 357:DISPLAY.c     ****                                             currentScreen.FLAG2=0; }
 1577              		.loc 1 357 0
 1578 030c 194B     		ldr	r3, .L94+4
 1579 030e 9C70     		strb	r4, [r3, #2]
 1580              	.L84:
 358:DISPLAY.c     ****                       //Affichage de l'OPTION 5  √† l'appuie du bouton 1 sur le MENU pour une posit
 359:DISPLAY.c     ****                                         if (selection_MENU==5) {
 1581              		.loc 1 359 0
 1582 0310 194B     		ldr	r3, .L94+8
 1583 0312 1B78     		ldrb	r3, [r3]	@ zero_extendqisi2
 1584 0314 052B     		cmp	r3, #5
 1585 0316 05D1     		bne	.L82
 360:DISPLAY.c     ****                                             currentScreen.screen= OPTION_3_ETAT; 
 1586              		.loc 1 360 0
 1587 0318 0622     		movs	r2, #6
 1588 031a 164B     		ldr	r3, .L94+4
 1589 031c 1A70     		strb	r2, [r3]
 361:DISPLAY.c     ****                                             selection_MENU=0;}
 1590              		.loc 1 361 0
 1591 031e 0022     		movs	r2, #0
 1592 0320 154B     		ldr	r3, .L94+8
 1593 0322 1A70     		strb	r2, [r3]
 1594              	.L82:
 362:DISPLAY.c     ****                 }
 363:DISPLAY.c     ****                 
 364:DISPLAY.c     ****                 // Si l'alarme de l'acc√©l√©rom√®tre est activ√©e, on lit les donn√©es transmise pa
 365:DISPLAY.c     ****                 // si celle-ci s'enclenche ou pas 
 366:DISPLAY.c     ****                 if (alarme_acc) 
 1595              		.loc 1 366 0
 1596 0324 154B     		ldr	r3, .L94+12
 1597 0326 1B78     		ldrb	r3, [r3]	@ zero_extendqisi2
 1598 0328 4BB1     		cbz	r3, .L85
 367:DISPLAY.c     ****                 {
 368:DISPLAY.c     ****                     // signal venant de la communication qui permet d'indiquer s'il y a un mouvemen
 369:DISPLAY.c     ****                         if (yassine) {
 1599              		.loc 1 369 0
ARM GAS  C:\Users\Mahrukh\AppData\Local\Temp\ccJcQtli.s 			page 50


 1600 032a 1B4B     		ldr	r3, .L94+40
 1601 032c 1B78     		ldrb	r3, [r3]	@ zero_extendqisi2
 1602 032e 1BB1     		cbz	r3, .L86
 1603              	.LVL168:
 1604              	.LBB20:
 1605              	.LBB21:
 813:Generated_Source\PSoC6\pdl\drivers/peripheral/gpio/cy_gpio.h ****     }
 1606              		.loc 2 813 0
 1607 0330 0222     		movs	r2, #2
 1608 0332 154B     		ldr	r3, .L94+24
 1609 0334 5A60     		str	r2, [r3, #4]
 1610 0336 02E0     		b	.L85
 1611              	.LVL169:
 1612              	.L86:
 1613              	.LBE21:
 1614              	.LBE20:
 1615              	.LBB22:
 1616              	.LBB23:
 1617              		.loc 2 817 0
 1618 0338 0222     		movs	r2, #2
 1619 033a 134B     		ldr	r3, .L94+24
 1620 033c 9A60     		str	r2, [r3, #8]
 1621              	.LVL170:
 1622              	.L85:
 1623              	.LBE23:
 1624              	.LBE22:
 370:DISPLAY.c     ****                          Cy_GPIO_Write(Pin_ACC_0_PORT,Pin_ACC_0_NUM, 0);
 371:DISPLAY.c     ****                         }
 372:DISPLAY.c     ****                         else {Cy_GPIO_Write (Pin_ACC_0_PORT,Pin_ACC_0_NUM,1); }  
 373:DISPLAY.c     ****                 }
 374:DISPLAY.c     ****                 // Si l'alarme de la FC est activ√©e, on compare l'intervalle de FC √©tablie √† la 
 375:DISPLAY.c     ****                 // si l'alarme s'enclenche ou pas 
 376:DISPLAY.c     ****                if (alarme_FC) 
 1625              		.loc 1 376 0
 1626 033e 144B     		ldr	r3, .L94+32
 1627 0340 1B78     		ldrb	r3, [r3]	@ zero_extendqisi2
 1628 0342 83B1     		cbz	r3, .L87
 377:DISPLAY.c     ****                 {
 378:DISPLAY.c     ****                      
 379:DISPLAY.c     ****                         if (andree<borne_inferieur || andree>borne_superieur) {                    
 1629              		.loc 1 379 0
 1630 0344 154B     		ldr	r3, .L94+44
 1631 0346 1B78     		ldrb	r3, [r3]	@ zero_extendqisi2
 1632 0348 154A     		ldr	r2, .L94+48
 1633 034a 1278     		ldrb	r2, [r2]	@ zero_extendqisi2
 1634 034c 9342     		cmp	r3, r2
 1635 034e 03D3     		bcc	.L88
 1636              		.loc 1 379 0 is_stmt 0 discriminator 1
 1637 0350 144A     		ldr	r2, .L94+52
 1638 0352 1278     		ldrb	r2, [r2]	@ zero_extendqisi2
 1639 0354 9342     		cmp	r3, r2
 1640 0356 03D9     		bls	.L89
 1641              	.L88:
 1642              	.LVL171:
 1643              	.LBB24:
 1644              	.LBB25:
 813:Generated_Source\PSoC6\pdl\drivers/peripheral/gpio/cy_gpio.h ****     }
ARM GAS  C:\Users\Mahrukh\AppData\Local\Temp\ccJcQtli.s 			page 51


 1645              		.loc 2 813 0 is_stmt 1
 1646 0358 8022     		movs	r2, #128
 1647 035a 0E4B     		ldr	r3, .L94+36
 1648 035c 5A60     		str	r2, [r3, #4]
 1649 035e 02E0     		b	.L87
 1650              	.LVL172:
 1651              	.L89:
 1652              	.LBE25:
 1653              	.LBE24:
 1654              	.LBB26:
 1655              	.LBB27:
 1656              		.loc 2 817 0
 1657 0360 8022     		movs	r2, #128
 1658 0362 0C4B     		ldr	r3, .L94+36
 1659 0364 9A60     		str	r2, [r3, #8]
 1660              	.LVL173:
 1661              	.L87:
 1662              	.LBE27:
 1663              	.LBE26:
 380:DISPLAY.c     ****                          Cy_GPIO_Write(Pin_FC_0_PORT,Pin_FC_0_NUM, 0); 
 381:DISPLAY.c     ****                         }
 382:DISPLAY.c     ****                         else {Cy_GPIO_Write (Pin_FC_0_PORT,Pin_FC_0_NUM,1); }     
 383:DISPLAY.c     ****                 }
 384:DISPLAY.c     ****                
 385:DISPLAY.c     ****                  vTaskDelay(pdMS_TO_TICKS(350));
 1664              		.loc 1 385 0
 1665 0366 4FF4AF70 		mov	r0, #350
 1666 036a FFF7FEFF 		bl	vTaskDelay
 1667              	.LVL174:
 386:DISPLAY.c     ****         }
 1668              		.loc 1 386 0
 1669 036e 5FE6     		b	.L90
 1670              	.L95:
 1671              		.align	2
 1672              	.L94:
 1673 0370 00000000 		.word	postion_MENU
 1674 0374 00000000 		.word	currentScreen
 1675 0378 00000000 		.word	selection_MENU
 1676 037c 00000000 		.word	alarme_acc
 1677 0380 00000000 		.word	GUI_Font16B_1
 1678 0384 B8020000 		.word	.LC28
 1679 0388 80003240 		.word	1077018752
 1680 038c D0020000 		.word	.LC29
 1681 0390 00000000 		.word	alarme_FC
 1682 0394 80063240 		.word	1077020288
 1683 0398 00000000 		.word	yassine
 1684 039c 00000000 		.word	andree
 1685 03a0 00000000 		.word	borne_inferieur
 1686 03a4 00000000 		.word	borne_superieur
 1687              		.cfi_endproc
 1688              	.LFE615:
 1689              		.size	display_task, .-display_task
 1690              		.comm	ROUGE,4,4
 1691              		.comm	INFRAROUGE,4,4
 1692              		.comm	andree,1,1
 1693              		.comm	yassine,1,1
 1694              		.comm	vecteurespacee,500,4
ARM GAS  C:\Users\Mahrukh\AppData\Local\Temp\ccJcQtli.s 			page 52


 1695              		.comm	data,672,4
 1696              		.comm	selection_MENU,1,1
 1697              		.comm	postion_MENU,1,1
 1698              		.comm	currentScreen,6,4
 1699              		.comm	bouton,4,4
 1700              		.comm	etat,4,4
 1701              		.comm	imageBufferCache,5808,4
 1702              		.comm	buffer_1,100,4
 1703              		.comm	buffer_0,100,4
 1704              		.comm	buffer,100,4
 1705              		.comm	borne_superieur,1,1
 1706              		.comm	borne_inferieur,1,1
 1707              		.comm	alarme_FC,1,1
 1708              		.comm	alarme_acc,1,1
 1709              		.comm	courant,1,1
 1710              		.section	.rodata.str1.4,"aMS",%progbits,1
 1711              		.align	2
 1712              	.LC0:
 1713 0000 434F5552 		.ascii	"COURBE AFFICHEE:\000"
 1713      42452041 
 1713      46464943 
 1713      4845453A 
 1713      00
 1714 0011 000000   		.space	3
 1715              	.LC1:
 1716 0014 53504543 		.ascii	"SPECTRE\000"
 1716      54524500 
 1717              	.LC2:
 1718 001c 494E4652 		.ascii	"INFRAROUGE\000"
 1718      41524F55 
 1718      474500
 1719 0027 00       		.space	1
 1720              	.LC3:
 1721 0028 524F5547 		.ascii	"ROUGE\000"
 1721      4500
 1722 002e 0000     		.space	2
 1723              	.LC4:
 1724 0030 46726571 		.ascii	"Frequence cardiaque: %d \000"
 1724      75656E63 
 1724      65206361 
 1724      72646961 
 1724      7175653A 
 1725 0049 000000   		.space	3
 1726              	.LC5:
 1727 004c 54617578 		.ascii	"Taux d'oxygene: %d \000"
 1727      2064276F 
 1727      78796765 
 1727      6E653A20 
 1727      25642000 
 1728              	.LC6:
 1729 0060 42504D20 		.ascii	"BPM \000"
 1729      00
 1730 0065 000000   		.space	3
 1731              	.LC7:
 1732 0068 202500   		.ascii	" %\000"
 1733 006b 00       		.space	1
 1734              	.LC8:
ARM GAS  C:\Users\Mahrukh\AppData\Local\Temp\ccJcQtli.s 			page 53


 1735 006c 4D454E55 		.ascii	"MENU\000"
 1735      00
 1736 0071 000000   		.space	3
 1737              	.LC9:
 1738 0074 45544154 		.ascii	"ETAT DE L'ALARME D'ACCELERATION\000"
 1738      20444520 
 1738      4C27414C 
 1738      41524D45 
 1738      20442741 
 1739              	.LC10:
 1740 0094 4D4F4449 		.ascii	"MODIFICATION DU COURANT DES LEDS\000"
 1740      46494341 
 1740      54494F4E 
 1740      20445520 
 1740      434F5552 
 1741 00b5 000000   		.space	3
 1742              	.LC11:
 1743 00b8 424F524E 		.ascii	"BORNE SUPERIEUR- RYTHME CARDIAQUE\000"
 1743      45205355 
 1743      50455249 
 1743      4555522D 
 1743      20525954 
 1744 00da 0000     		.space	2
 1745              	.LC12:
 1746 00dc 424F524E 		.ascii	"BORNE INFERIEUR- RYTHME CARDIAQUE\000"
 1746      4520494E 
 1746      46455249 
 1746      4555522D 
 1746      20525954 
 1747 00fe 0000     		.space	2
 1748              	.LC13:
 1749 0100 45544154 		.ascii	"ETAT DE L'ALARME DE LA FC\000"
 1749      20444520 
 1749      4C27414C 
 1749      41524D45 
 1749      20444520 
 1750 011a 0000     		.space	2
 1751              	.LC14:
 1752 011c 414C4152 		.ascii	"ALARME D'ACCELERATION\000"
 1752      4D452044 
 1752      27414343 
 1752      454C4552 
 1752      4154494F 
 1753 0132 0000     		.space	2
 1754              	.LC15:
 1755 0134 41505055 		.ascii	"APPUYE SUR LE BOUTON 00 POUR ACTIVER L'ALARME\000"
 1755      59452053 
 1755      5552204C 
 1755      4520424F 
 1755      55544F4E 
 1756 0162 0000     		.space	2
 1757              	.LC16:
 1758 0164 41505055 		.ascii	"APPUYE SUR LE BOUTON 01 POUR DESACTIVER L'ALARME\000"
 1758      59452053 
 1758      5552204C 
 1758      4520424F 
 1758      55544F4E 
ARM GAS  C:\Users\Mahrukh\AppData\Local\Temp\ccJcQtli.s 			page 54


 1759 0195 000000   		.space	3
 1760              	.LC17:
 1761 0198 434F5552 		.ascii	"COURANT DELs\000"
 1761      414E5420 
 1761      44454C73 
 1761      00
 1762 01a5 000000   		.space	3
 1763              	.LC18:
 1764 01a8 4C452043 		.ascii	"LE COURANT CONFIGURE DES LEDS\000"
 1764      4F555241 
 1764      4E542043 
 1764      4F4E4649 
 1764      47555245 
 1765 01c6 0000     		.space	2
 1766              	.LC19:
 1767 01c8 44552043 		.ascii	"DU CAPTEUR SPO2 MAX30102 EST:\000"
 1767      41505445 
 1767      55522053 
 1767      504F3220 
 1767      4D415833 
 1768 01e6 0000     		.space	2
 1769              	.LC20:
 1770 01e8 25640A0D 		.ascii	"%d\012\015\000"
 1770      00
 1771 01ed 000000   		.space	3
 1772              	.LC21:
 1773 01f0 6D4100   		.ascii	"mA\000"
 1774 01f3 00       		.space	1
 1775              	.LC22:
 1776 01f4 44454649 		.ascii	"DEFINITION DE L'INTERVALLE DE L'ALARME\000"
 1776      4E495449 
 1776      4F4E2044 
 1776      45204C27 
 1776      494E5445 
 1777 021b 00       		.space	1
 1778              	.LC23:
 1779 021c 44454649 		.ascii	"DEFINIISSEZ LA BORNE SUPERIEUR DE LA FC\000"
 1779      4E494953 
 1779      53455A20 
 1779      4C412042 
 1779      4F524E45 
 1780              	.LC24:
 1781 0244 424F524E 		.ascii	"BORNE SUPERIEUR: \000"
 1781      45205355 
 1781      50455249 
 1781      4555523A 
 1781      2000
 1782 0256 0000     		.space	2
 1783              	.LC25:
 1784 0258 44454649 		.ascii	"DEFINIISSEZ LA BORNE INFERIEUR DE LA FC\000"
 1784      4E494953 
 1784      53455A20 
 1784      4C412042 
 1784      4F524E45 
 1785              	.LC26:
 1786 0280 424F524E 		.ascii	"BORNE INFERIEUR: \000"
 1786      4520494E 
ARM GAS  C:\Users\Mahrukh\AppData\Local\Temp\ccJcQtli.s 			page 55


 1786      46455249 
 1786      4555523A 
 1786      2000
 1787 0292 0000     		.space	2
 1788              	.LC27:
 1789 0294 414C4152 		.ascii	"ALARME DE LA FREQUENCE CARDIAQUE\000"
 1789      4D452044 
 1789      45204C41 
 1789      20465245 
 1789      5155454E 
 1790 02b5 000000   		.space	3
 1791              	.LC28:
 1792 02b8 4C27616C 		.ascii	"L'alarme est activee \000"
 1792      61726D65 
 1792      20657374 
 1792      20616374 
 1792      69766565 
 1793 02ce 0000     		.space	2
 1794              	.LC29:
 1795 02d0 4C27616C 		.ascii	"L'alarme est desactivee\000"
 1795      61726D65 
 1795      20657374 
 1795      20646573 
 1795      61637469 
 1796              		.text
 1797              	.Letext0:
 1798              		.file 3 "c:\\program files (x86)\\cypress\\psoc creator\\4.4\\psoc creator\\import\\gnu\\arm\\5.4.
 1799              		.file 4 "c:\\program files (x86)\\cypress\\psoc creator\\4.4\\psoc creator\\import\\gnu\\arm\\5.4.
 1800              		.file 5 "Generated_Source\\PSoC6\\pdl\\devices/psoc6/include/ip/cyip_gpio.h"
 1801              		.file 6 "Generated_Source\\PSoC6\\pdl\\devices/psoc6/include/psoc6_01_config.h"
 1802              		.file 7 "Generated_Source\\PSoC6\\pdl\\drivers/peripheral/device/cy_device.h"
 1803              		.file 8 "Generated_Source\\PSoC6\\pdl\\drivers/peripheral/syslib/cy_syslib.h"
 1804              		.file 9 "Generated_Source\\PSoC6\\pdl\\drivers/peripheral/scb/cy_scb_spi.h"
 1805              		.file 10 "Generated_Source\\PSoC6\\pdl\\drivers/peripheral/scb/cy_scb_uart.h"
 1806              		.file 11 "Generated_Source\\PSoC6\\pdl\\drivers/peripheral/tcpwm/cy_tcpwm_counter.h"
 1807              		.file 12 "Generated_Source\\PSoC6\\pdl\\middleware/emWin/code/include/GUI_Type.h"
 1808              		.file 13 ".\\eInk Library/pervasive_eink_hardware_driver.h"
 1809              		.file 14 ".\\eInk Library/cy_eink_library.h"
 1810              		.file 15 "Generated_Source\\PSoC6\\pdl\\rtos/FreeRTOS/10.0.1/Source/portable/GCC/CM4F/portmacro.h"
 1811              		.file 16 "DISPLAY.h"
 1812              		.file 17 ".\\CMSIS\\Core\\Include/core_cm4.h"
 1813              		.file 18 "Generated_Source\\PSoC6/CY_EINK_SPIM.h"
 1814              		.file 19 "Generated_Source\\PSoC6/CY_EINK_Timer.h"
 1815              		.file 20 "Generated_Source\\PSoC6/UART_1.h"
 1816              		.file 21 "Generated_Source\\PSoC6\\pdl\\middleware/emWin/code/include/GUI.h"
 1817              		.file 22 "CAPSENS.h"
 1818              		.file 23 "LCDConf.h"
 1819              		.file 24 "c:\\program files (x86)\\cypress\\psoc creator\\4.4\\psoc creator\\import\\gnu\\arm\\5.4
 1820              		.file 25 "Generated_Source\\PSoC6\\pdl\\rtos/FreeRTOS/10.0.1/Source/include/task.h"
 1821              		.section	.debug_info,"",%progbits
 1822              	.Ldebug_info0:
 1823 0000 25230000 		.4byte	0x2325
 1824 0004 0400     		.2byte	0x4
 1825 0006 00000000 		.4byte	.Ldebug_abbrev0
 1826 000a 04       		.byte	0x4
 1827 000b 01       		.uleb128 0x1
 1828 000c C7020000 		.4byte	.LASF336
ARM GAS  C:\Users\Mahrukh\AppData\Local\Temp\ccJcQtli.s 			page 56


 1829 0010 0C       		.byte	0xc
 1830 0011 8C050000 		.4byte	.LASF337
 1831 0015 930F0000 		.4byte	.LASF338
 1832 0019 00000000 		.4byte	.Ldebug_ranges0+0
 1833 001d 00000000 		.4byte	0
 1834 0021 00000000 		.4byte	.Ldebug_line0
 1835 0025 02       		.uleb128 0x2
 1836 0026 02       		.byte	0x2
 1837 0027 05       		.byte	0x5
 1838 0028 520C0000 		.4byte	.LASF0
 1839 002c 02       		.uleb128 0x2
 1840 002d 01       		.byte	0x1
 1841 002e 06       		.byte	0x6
 1842 002f 5E100000 		.4byte	.LASF1
 1843 0033 03       		.uleb128 0x3
 1844 0034 D60D0000 		.4byte	.LASF3
 1845 0038 03       		.byte	0x3
 1846 0039 1D       		.byte	0x1d
 1847 003a 3E000000 		.4byte	0x3e
 1848 003e 02       		.uleb128 0x2
 1849 003f 01       		.byte	0x1
 1850 0040 08       		.byte	0x8
 1851 0041 0D0F0000 		.4byte	.LASF2
 1852 0045 03       		.uleb128 0x3
 1853 0046 AD090000 		.4byte	.LASF4
 1854 004a 03       		.byte	0x3
 1855 004b 29       		.byte	0x29
 1856 004c 25000000 		.4byte	0x25
 1857 0050 03       		.uleb128 0x3
 1858 0051 25070000 		.4byte	.LASF5
 1859 0055 03       		.byte	0x3
 1860 0056 2B       		.byte	0x2b
 1861 0057 5B000000 		.4byte	0x5b
 1862 005b 02       		.uleb128 0x2
 1863 005c 02       		.byte	0x2
 1864 005d 07       		.byte	0x7
 1865 005e 330B0000 		.4byte	.LASF6
 1866 0062 03       		.uleb128 0x3
 1867 0063 BA010000 		.4byte	.LASF7
 1868 0067 03       		.byte	0x3
 1869 0068 3F       		.byte	0x3f
 1870 0069 6D000000 		.4byte	0x6d
 1871 006d 02       		.uleb128 0x2
 1872 006e 04       		.byte	0x4
 1873 006f 05       		.byte	0x5
 1874 0070 850C0000 		.4byte	.LASF8
 1875 0074 03       		.uleb128 0x3
 1876 0075 1B0F0000 		.4byte	.LASF9
 1877 0079 03       		.byte	0x3
 1878 007a 41       		.byte	0x41
 1879 007b 7F000000 		.4byte	0x7f
 1880 007f 02       		.uleb128 0x2
 1881 0080 04       		.byte	0x4
 1882 0081 07       		.byte	0x7
 1883 0082 810E0000 		.4byte	.LASF10
 1884 0086 02       		.uleb128 0x2
 1885 0087 08       		.byte	0x8
ARM GAS  C:\Users\Mahrukh\AppData\Local\Temp\ccJcQtli.s 			page 57


 1886 0088 05       		.byte	0x5
 1887 0089 F4080000 		.4byte	.LASF11
 1888 008d 02       		.uleb128 0x2
 1889 008e 08       		.byte	0x8
 1890 008f 07       		.byte	0x7
 1891 0090 F5040000 		.4byte	.LASF12
 1892 0094 04       		.uleb128 0x4
 1893 0095 04       		.byte	0x4
 1894 0096 05       		.byte	0x5
 1895 0097 696E7400 		.ascii	"int\000"
 1896 009b 02       		.uleb128 0x2
 1897 009c 04       		.byte	0x4
 1898 009d 07       		.byte	0x7
 1899 009e 64010000 		.4byte	.LASF13
 1900 00a2 03       		.uleb128 0x3
 1901 00a3 09080000 		.4byte	.LASF14
 1902 00a7 04       		.byte	0x4
 1903 00a8 18       		.byte	0x18
 1904 00a9 33000000 		.4byte	0x33
 1905 00ad 03       		.uleb128 0x3
 1906 00ae DA040000 		.4byte	.LASF15
 1907 00b2 04       		.byte	0x4
 1908 00b3 20       		.byte	0x20
 1909 00b4 45000000 		.4byte	0x45
 1910 00b8 03       		.uleb128 0x3
 1911 00b9 640B0000 		.4byte	.LASF16
 1912 00bd 04       		.byte	0x4
 1913 00be 24       		.byte	0x24
 1914 00bf 50000000 		.4byte	0x50
 1915 00c3 03       		.uleb128 0x3
 1916 00c4 B80E0000 		.4byte	.LASF17
 1917 00c8 04       		.byte	0x4
 1918 00c9 2C       		.byte	0x2c
 1919 00ca 62000000 		.4byte	0x62
 1920 00ce 03       		.uleb128 0x3
 1921 00cf EC030000 		.4byte	.LASF18
 1922 00d3 04       		.byte	0x4
 1923 00d4 30       		.byte	0x30
 1924 00d5 74000000 		.4byte	0x74
 1925 00d9 02       		.uleb128 0x2
 1926 00da 04       		.byte	0x4
 1927 00db 07       		.byte	0x7
 1928 00dc F80B0000 		.4byte	.LASF19
 1929 00e0 05       		.uleb128 0x5
 1930 00e1 CE000000 		.4byte	0xce
 1931 00e5 05       		.uleb128 0x5
 1932 00e6 A2000000 		.4byte	0xa2
 1933 00ea 06       		.uleb128 0x6
 1934 00eb E0000000 		.4byte	0xe0
 1935 00ef 07       		.uleb128 0x7
 1936 00f0 CE000000 		.4byte	0xce
 1937 00f4 FF000000 		.4byte	0xff
 1938 00f8 08       		.uleb128 0x8
 1939 00f9 D9000000 		.4byte	0xd9
 1940 00fd 00       		.byte	0
 1941 00fe 00       		.byte	0
 1942 00ff 07       		.uleb128 0x7
ARM GAS  C:\Users\Mahrukh\AppData\Local\Temp\ccJcQtli.s 			page 58


 1943 0100 EA000000 		.4byte	0xea
 1944 0104 0F010000 		.4byte	0x10f
 1945 0108 08       		.uleb128 0x8
 1946 0109 D9000000 		.4byte	0xd9
 1947 010d 0F       		.byte	0xf
 1948 010e 00       		.byte	0
 1949 010f 09       		.uleb128 0x9
 1950 0110 80       		.byte	0x80
 1951 0111 05       		.byte	0x5
 1952 0112 22       		.byte	0x22
 1953 0113 E3010000 		.4byte	0x1e3
 1954 0117 0A       		.uleb128 0xa
 1955 0118 4F555400 		.ascii	"OUT\000"
 1956 011c 05       		.byte	0x5
 1957 011d 23       		.byte	0x23
 1958 011e E0000000 		.4byte	0xe0
 1959 0122 00       		.byte	0
 1960 0123 0B       		.uleb128 0xb
 1961 0124 BC040000 		.4byte	.LASF20
 1962 0128 05       		.byte	0x5
 1963 0129 24       		.byte	0x24
 1964 012a E0000000 		.4byte	0xe0
 1965 012e 04       		.byte	0x4
 1966 012f 0B       		.uleb128 0xb
 1967 0130 66040000 		.4byte	.LASF21
 1968 0134 05       		.byte	0x5
 1969 0135 25       		.byte	0x25
 1970 0136 E0000000 		.4byte	0xe0
 1971 013a 08       		.byte	0x8
 1972 013b 0B       		.uleb128 0xb
 1973 013c B90D0000 		.4byte	.LASF22
 1974 0140 05       		.byte	0x5
 1975 0141 26       		.byte	0x26
 1976 0142 E0000000 		.4byte	0xe0
 1977 0146 0C       		.byte	0xc
 1978 0147 0A       		.uleb128 0xa
 1979 0148 494E00   		.ascii	"IN\000"
 1980 014b 05       		.byte	0x5
 1981 014c 27       		.byte	0x27
 1982 014d EA000000 		.4byte	0xea
 1983 0151 10       		.byte	0x10
 1984 0152 0B       		.uleb128 0xb
 1985 0153 F4090000 		.4byte	.LASF23
 1986 0157 05       		.byte	0x5
 1987 0158 28       		.byte	0x28
 1988 0159 E0000000 		.4byte	0xe0
 1989 015d 14       		.byte	0x14
 1990 015e 0B       		.uleb128 0xb
 1991 015f 280A0000 		.4byte	.LASF24
 1992 0163 05       		.byte	0x5
 1993 0164 29       		.byte	0x29
 1994 0165 E0000000 		.4byte	0xe0
 1995 0169 18       		.byte	0x18
 1996 016a 0B       		.uleb128 0xb
 1997 016b 3A0E0000 		.4byte	.LASF25
 1998 016f 05       		.byte	0x5
 1999 0170 2A       		.byte	0x2a
ARM GAS  C:\Users\Mahrukh\AppData\Local\Temp\ccJcQtli.s 			page 59


 2000 0171 EA000000 		.4byte	0xea
 2001 0175 1C       		.byte	0x1c
 2002 0176 0B       		.uleb128 0xb
 2003 0177 61020000 		.4byte	.LASF26
 2004 017b 05       		.byte	0x5
 2005 017c 2B       		.byte	0x2b
 2006 017d E0000000 		.4byte	0xe0
 2007 0181 20       		.byte	0x20
 2008 0182 0B       		.uleb128 0xb
 2009 0183 4F0F0000 		.4byte	.LASF27
 2010 0187 05       		.byte	0x5
 2011 0188 2C       		.byte	0x2c
 2012 0189 E0000000 		.4byte	0xe0
 2013 018d 24       		.byte	0x24
 2014 018e 0A       		.uleb128 0xa
 2015 018f 43464700 		.ascii	"CFG\000"
 2016 0193 05       		.byte	0x5
 2017 0194 2D       		.byte	0x2d
 2018 0195 E0000000 		.4byte	0xe0
 2019 0199 28       		.byte	0x28
 2020 019a 0B       		.uleb128 0xb
 2021 019b BA030000 		.4byte	.LASF28
 2022 019f 05       		.byte	0x5
 2023 01a0 2E       		.byte	0x2e
 2024 01a1 E0000000 		.4byte	0xe0
 2025 01a5 2C       		.byte	0x2c
 2026 01a6 0B       		.uleb128 0xb
 2027 01a7 DB050000 		.4byte	.LASF29
 2028 01ab 05       		.byte	0x5
 2029 01ac 2F       		.byte	0x2f
 2030 01ad E0000000 		.4byte	0xe0
 2031 01b1 30       		.byte	0x30
 2032 01b2 0B       		.uleb128 0xb
 2033 01b3 87110000 		.4byte	.LASF30
 2034 01b7 05       		.byte	0x5
 2035 01b8 30       		.byte	0x30
 2036 01b9 E0000000 		.4byte	0xe0
 2037 01bd 34       		.byte	0x34
 2038 01be 0B       		.uleb128 0xb
 2039 01bf 14000000 		.4byte	.LASF31
 2040 01c3 05       		.byte	0x5
 2041 01c4 31       		.byte	0x31
 2042 01c5 EA000000 		.4byte	0xea
 2043 01c9 38       		.byte	0x38
 2044 01ca 0B       		.uleb128 0xb
 2045 01cb 600D0000 		.4byte	.LASF32
 2046 01cf 05       		.byte	0x5
 2047 01d0 32       		.byte	0x32
 2048 01d1 E0000000 		.4byte	0xe0
 2049 01d5 3C       		.byte	0x3c
 2050 01d6 0B       		.uleb128 0xb
 2051 01d7 C4040000 		.4byte	.LASF33
 2052 01db 05       		.byte	0x5
 2053 01dc 33       		.byte	0x33
 2054 01dd E8010000 		.4byte	0x1e8
 2055 01e1 40       		.byte	0x40
 2056 01e2 00       		.byte	0
ARM GAS  C:\Users\Mahrukh\AppData\Local\Temp\ccJcQtli.s 			page 60


 2057 01e3 05       		.uleb128 0x5
 2058 01e4 FF000000 		.4byte	0xff
 2059 01e8 06       		.uleb128 0x6
 2060 01e9 E3010000 		.4byte	0x1e3
 2061 01ed 03       		.uleb128 0x3
 2062 01ee 120D0000 		.4byte	.LASF34
 2063 01f2 05       		.byte	0x5
 2064 01f3 34       		.byte	0x34
 2065 01f4 0F010000 		.4byte	0x10f
 2066 01f8 0C       		.uleb128 0xc
 2067 01f9 2440     		.2byte	0x4024
 2068 01fb 05       		.byte	0x5
 2069 01fc 39       		.byte	0x39
 2070 01fd 83020000 		.4byte	0x283
 2071 0201 0A       		.uleb128 0xa
 2072 0202 50525400 		.ascii	"PRT\000"
 2073 0206 05       		.byte	0x5
 2074 0207 3A       		.byte	0x3a
 2075 0208 83020000 		.4byte	0x283
 2076 020c 00       		.byte	0
 2077 020d 0D       		.uleb128 0xd
 2078 020e 28080000 		.4byte	.LASF35
 2079 0212 05       		.byte	0x5
 2080 0213 3B       		.byte	0x3b
 2081 0214 EA000000 		.4byte	0xea
 2082 0218 0040     		.2byte	0x4000
 2083 021a 0D       		.uleb128 0xd
 2084 021b 28000000 		.4byte	.LASF36
 2085 021f 05       		.byte	0x5
 2086 0220 3C       		.byte	0x3c
 2087 0221 EA000000 		.4byte	0xea
 2088 0225 0440     		.2byte	0x4004
 2089 0227 0D       		.uleb128 0xd
 2090 0228 48080000 		.4byte	.LASF37
 2091 022c 05       		.byte	0x5
 2092 022d 3D       		.byte	0x3d
 2093 022e EA000000 		.4byte	0xea
 2094 0232 0840     		.2byte	0x4008
 2095 0234 0D       		.uleb128 0xd
 2096 0235 54080000 		.4byte	.LASF38
 2097 0239 05       		.byte	0x5
 2098 023a 3E       		.byte	0x3e
 2099 023b EA000000 		.4byte	0xea
 2100 023f 0C40     		.2byte	0x400c
 2101 0241 0D       		.uleb128 0xd
 2102 0242 1D000000 		.4byte	.LASF39
 2103 0246 05       		.byte	0x5
 2104 0247 3F       		.byte	0x3f
 2105 0248 EA000000 		.4byte	0xea
 2106 024c 1040     		.2byte	0x4010
 2107 024e 0D       		.uleb128 0xd
 2108 024f 98060000 		.4byte	.LASF40
 2109 0253 05       		.byte	0x5
 2110 0254 40       		.byte	0x40
 2111 0255 E0000000 		.4byte	0xe0
 2112 0259 1440     		.2byte	0x4014
 2113 025b 0D       		.uleb128 0xd
ARM GAS  C:\Users\Mahrukh\AppData\Local\Temp\ccJcQtli.s 			page 61


 2114 025c 50100000 		.4byte	.LASF41
 2115 0260 05       		.byte	0x5
 2116 0261 41       		.byte	0x41
 2117 0262 E0000000 		.4byte	0xe0
 2118 0266 1840     		.2byte	0x4018
 2119 0268 0D       		.uleb128 0xd
 2120 0269 54010000 		.4byte	.LASF42
 2121 026d 05       		.byte	0x5
 2122 026e 42       		.byte	0x42
 2123 026f EA000000 		.4byte	0xea
 2124 0273 1C40     		.2byte	0x401c
 2125 0275 0D       		.uleb128 0xd
 2126 0276 760B0000 		.4byte	.LASF43
 2127 027a 05       		.byte	0x5
 2128 027b 43       		.byte	0x43
 2129 027c E0000000 		.4byte	0xe0
 2130 0280 2040     		.2byte	0x4020
 2131 0282 00       		.byte	0
 2132 0283 07       		.uleb128 0x7
 2133 0284 ED010000 		.4byte	0x1ed
 2134 0288 93020000 		.4byte	0x293
 2135 028c 08       		.uleb128 0x8
 2136 028d D9000000 		.4byte	0xd9
 2137 0291 7F       		.byte	0x7f
 2138 0292 00       		.byte	0
 2139 0293 03       		.uleb128 0x3
 2140 0294 28040000 		.4byte	.LASF44
 2141 0298 05       		.byte	0x5
 2142 0299 44       		.byte	0x44
 2143 029a F8010000 		.4byte	0x1f8
 2144 029e 0E       		.uleb128 0xe
 2145 029f 06070000 		.4byte	.LASF45
 2146 02a3 06       		.byte	0x6
 2147 02a4 3106     		.2byte	0x631
 2148 02a6 ED010000 		.4byte	0x1ed
 2149 02aa 0E       		.uleb128 0xe
 2150 02ab 260F0000 		.4byte	.LASF46
 2151 02af 06       		.byte	0x6
 2152 02b0 3206     		.2byte	0x632
 2153 02b2 93020000 		.4byte	0x293
 2154 02b6 02       		.uleb128 0x2
 2155 02b7 08       		.byte	0x8
 2156 02b8 04       		.byte	0x4
 2157 02b9 500B0000 		.4byte	.LASF47
 2158 02bd 09       		.uleb128 0x9
 2159 02be B8       		.byte	0xb8
 2160 02bf 07       		.byte	0x7
 2161 02c0 34       		.byte	0x34
 2162 02c1 CE060000 		.4byte	0x6ce
 2163 02c5 0B       		.uleb128 0xb
 2164 02c6 56090000 		.4byte	.LASF48
 2165 02ca 07       		.byte	0x7
 2166 02cb 37       		.byte	0x37
 2167 02cc CE000000 		.4byte	0xce
 2168 02d0 00       		.byte	0
 2169 02d1 0B       		.uleb128 0xb
 2170 02d2 93070000 		.4byte	.LASF49
ARM GAS  C:\Users\Mahrukh\AppData\Local\Temp\ccJcQtli.s 			page 62


 2171 02d6 07       		.byte	0x7
 2172 02d7 38       		.byte	0x38
 2173 02d8 CE000000 		.4byte	0xce
 2174 02dc 04       		.byte	0x4
 2175 02dd 0B       		.uleb128 0xb
 2176 02de FE000000 		.4byte	.LASF50
 2177 02e2 07       		.byte	0x7
 2178 02e3 39       		.byte	0x39
 2179 02e4 CE000000 		.4byte	0xce
 2180 02e8 08       		.byte	0x8
 2181 02e9 0B       		.uleb128 0xb
 2182 02ea D9000000 		.4byte	.LASF51
 2183 02ee 07       		.byte	0x7
 2184 02ef 3A       		.byte	0x3a
 2185 02f0 CE000000 		.4byte	0xce
 2186 02f4 0C       		.byte	0xc
 2187 02f5 0B       		.uleb128 0xb
 2188 02f6 6D0B0000 		.4byte	.LASF52
 2189 02fa 07       		.byte	0x7
 2190 02fb 3B       		.byte	0x3b
 2191 02fc CE000000 		.4byte	0xce
 2192 0300 10       		.byte	0x10
 2193 0301 0B       		.uleb128 0xb
 2194 0302 D1090000 		.4byte	.LASF53
 2195 0306 07       		.byte	0x7
 2196 0307 3C       		.byte	0x3c
 2197 0308 CE000000 		.4byte	0xce
 2198 030c 14       		.byte	0x14
 2199 030d 0B       		.uleb128 0xb
 2200 030e A1060000 		.4byte	.LASF54
 2201 0312 07       		.byte	0x7
 2202 0313 3D       		.byte	0x3d
 2203 0314 CE000000 		.4byte	0xce
 2204 0318 18       		.byte	0x18
 2205 0319 0B       		.uleb128 0xb
 2206 031a 47110000 		.4byte	.LASF55
 2207 031e 07       		.byte	0x7
 2208 031f 3E       		.byte	0x3e
 2209 0320 CE000000 		.4byte	0xce
 2210 0324 1C       		.byte	0x1c
 2211 0325 0B       		.uleb128 0xb
 2212 0326 02090000 		.4byte	.LASF56
 2213 032a 07       		.byte	0x7
 2214 032b 3F       		.byte	0x3f
 2215 032c CE000000 		.4byte	0xce
 2216 0330 20       		.byte	0x20
 2217 0331 0B       		.uleb128 0xb
 2218 0332 27090000 		.4byte	.LASF57
 2219 0336 07       		.byte	0x7
 2220 0337 40       		.byte	0x40
 2221 0338 CE000000 		.4byte	0xce
 2222 033c 24       		.byte	0x24
 2223 033d 0B       		.uleb128 0xb
 2224 033e 9A0C0000 		.4byte	.LASF58
 2225 0342 07       		.byte	0x7
 2226 0343 43       		.byte	0x43
 2227 0344 A2000000 		.4byte	0xa2
ARM GAS  C:\Users\Mahrukh\AppData\Local\Temp\ccJcQtli.s 			page 63


 2228 0348 28       		.byte	0x28
 2229 0349 0B       		.uleb128 0xb
 2230 034a 77040000 		.4byte	.LASF59
 2231 034e 07       		.byte	0x7
 2232 034f 44       		.byte	0x44
 2233 0350 A2000000 		.4byte	0xa2
 2234 0354 29       		.byte	0x29
 2235 0355 0B       		.uleb128 0xb
 2236 0356 CE060000 		.4byte	.LASF60
 2237 035a 07       		.byte	0x7
 2238 035b 45       		.byte	0x45
 2239 035c A2000000 		.4byte	0xa2
 2240 0360 2A       		.byte	0x2a
 2241 0361 0B       		.uleb128 0xb
 2242 0362 EC0C0000 		.4byte	.LASF61
 2243 0366 07       		.byte	0x7
 2244 0367 46       		.byte	0x46
 2245 0368 A2000000 		.4byte	0xa2
 2246 036c 2B       		.byte	0x2b
 2247 036d 0B       		.uleb128 0xb
 2248 036e C30C0000 		.4byte	.LASF62
 2249 0372 07       		.byte	0x7
 2250 0373 47       		.byte	0x47
 2251 0374 A2000000 		.4byte	0xa2
 2252 0378 2C       		.byte	0x2c
 2253 0379 0B       		.uleb128 0xb
 2254 037a 740E0000 		.4byte	.LASF63
 2255 037e 07       		.byte	0x7
 2256 037f 48       		.byte	0x48
 2257 0380 A2000000 		.4byte	0xa2
 2258 0384 2D       		.byte	0x2d
 2259 0385 0B       		.uleb128 0xb
 2260 0386 E8110000 		.4byte	.LASF64
 2261 038a 07       		.byte	0x7
 2262 038b 49       		.byte	0x49
 2263 038c A2000000 		.4byte	0xa2
 2264 0390 2E       		.byte	0x2e
 2265 0391 0B       		.uleb128 0xb
 2266 0392 2E110000 		.4byte	.LASF65
 2267 0396 07       		.byte	0x7
 2268 0397 4A       		.byte	0x4a
 2269 0398 A2000000 		.4byte	0xa2
 2270 039c 2F       		.byte	0x2f
 2271 039d 0B       		.uleb128 0xb
 2272 039e 7A030000 		.4byte	.LASF66
 2273 03a2 07       		.byte	0x7
 2274 03a3 4B       		.byte	0x4b
 2275 03a4 A2000000 		.4byte	0xa2
 2276 03a8 30       		.byte	0x30
 2277 03a9 0B       		.uleb128 0xb
 2278 03aa 6E0A0000 		.4byte	.LASF67
 2279 03ae 07       		.byte	0x7
 2280 03af 4E       		.byte	0x4e
 2281 03b0 A2000000 		.4byte	0xa2
 2282 03b4 31       		.byte	0x31
 2283 03b5 0B       		.uleb128 0xb
 2284 03b6 88100000 		.4byte	.LASF68
ARM GAS  C:\Users\Mahrukh\AppData\Local\Temp\ccJcQtli.s 			page 64


 2285 03ba 07       		.byte	0x7
 2286 03bb 4F       		.byte	0x4f
 2287 03bc A2000000 		.4byte	0xa2
 2288 03c0 32       		.byte	0x32
 2289 03c1 0B       		.uleb128 0xb
 2290 03c2 0C0A0000 		.4byte	.LASF69
 2291 03c6 07       		.byte	0x7
 2292 03c7 50       		.byte	0x50
 2293 03c8 A2000000 		.4byte	0xa2
 2294 03cc 33       		.byte	0x33
 2295 03cd 0B       		.uleb128 0xb
 2296 03ce 78070000 		.4byte	.LASF70
 2297 03d2 07       		.byte	0x7
 2298 03d3 51       		.byte	0x51
 2299 03d4 A2000000 		.4byte	0xa2
 2300 03d8 34       		.byte	0x34
 2301 03d9 0B       		.uleb128 0xb
 2302 03da 4D050000 		.4byte	.LASF71
 2303 03de 07       		.byte	0x7
 2304 03df 52       		.byte	0x52
 2305 03e0 AD000000 		.4byte	0xad
 2306 03e4 36       		.byte	0x36
 2307 03e5 0B       		.uleb128 0xb
 2308 03e6 E8010000 		.4byte	.LASF72
 2309 03ea 07       		.byte	0x7
 2310 03eb 53       		.byte	0x53
 2311 03ec AD000000 		.4byte	0xad
 2312 03f0 38       		.byte	0x38
 2313 03f1 0B       		.uleb128 0xb
 2314 03f2 11020000 		.4byte	.LASF73
 2315 03f6 07       		.byte	0x7
 2316 03f7 54       		.byte	0x54
 2317 03f8 AD000000 		.4byte	0xad
 2318 03fc 3A       		.byte	0x3a
 2319 03fd 0B       		.uleb128 0xb
 2320 03fe 6A110000 		.4byte	.LASF74
 2321 0402 07       		.byte	0x7
 2322 0403 55       		.byte	0x55
 2323 0404 A2000000 		.4byte	0xa2
 2324 0408 3C       		.byte	0x3c
 2325 0409 0B       		.uleb128 0xb
 2326 040a 1A060000 		.4byte	.LASF75
 2327 040e 07       		.byte	0x7
 2328 040f 56       		.byte	0x56
 2329 0410 A2000000 		.4byte	0xa2
 2330 0414 3D       		.byte	0x3d
 2331 0415 0B       		.uleb128 0xb
 2332 0416 AA0B0000 		.4byte	.LASF76
 2333 041a 07       		.byte	0x7
 2334 041b 57       		.byte	0x57
 2335 041c A2000000 		.4byte	0xa2
 2336 0420 3E       		.byte	0x3e
 2337 0421 0B       		.uleb128 0xb
 2338 0422 A6000000 		.4byte	.LASF77
 2339 0426 07       		.byte	0x7
 2340 0427 58       		.byte	0x58
 2341 0428 A2000000 		.4byte	0xa2
ARM GAS  C:\Users\Mahrukh\AppData\Local\Temp\ccJcQtli.s 			page 65


 2342 042c 3F       		.byte	0x3f
 2343 042d 0B       		.uleb128 0xb
 2344 042e 8D010000 		.4byte	.LASF78
 2345 0432 07       		.byte	0x7
 2346 0433 59       		.byte	0x59
 2347 0434 A2000000 		.4byte	0xa2
 2348 0438 40       		.byte	0x40
 2349 0439 0B       		.uleb128 0xb
 2350 043a 870A0000 		.4byte	.LASF79
 2351 043e 07       		.byte	0x7
 2352 043f 5A       		.byte	0x5a
 2353 0440 A2000000 		.4byte	0xa2
 2354 0444 41       		.byte	0x41
 2355 0445 0B       		.uleb128 0xb
 2356 0446 93040000 		.4byte	.LASF80
 2357 044a 07       		.byte	0x7
 2358 044b 5B       		.byte	0x5b
 2359 044c A2000000 		.4byte	0xa2
 2360 0450 42       		.byte	0x42
 2361 0451 0B       		.uleb128 0xb
 2362 0452 EE060000 		.4byte	.LASF81
 2363 0456 07       		.byte	0x7
 2364 0457 5C       		.byte	0x5c
 2365 0458 A2000000 		.4byte	0xa2
 2366 045c 43       		.byte	0x43
 2367 045d 0B       		.uleb128 0xb
 2368 045e C2070000 		.4byte	.LASF82
 2369 0462 07       		.byte	0x7
 2370 0463 5D       		.byte	0x5d
 2371 0464 A2000000 		.4byte	0xa2
 2372 0468 44       		.byte	0x44
 2373 0469 0B       		.uleb128 0xb
 2374 046a D20F0000 		.4byte	.LASF83
 2375 046e 07       		.byte	0x7
 2376 046f 5E       		.byte	0x5e
 2377 0470 CE000000 		.4byte	0xce
 2378 0474 48       		.byte	0x48
 2379 0475 0B       		.uleb128 0xb
 2380 0476 6A020000 		.4byte	.LASF84
 2381 047a 07       		.byte	0x7
 2382 047b 5F       		.byte	0x5f
 2383 047c CE000000 		.4byte	0xce
 2384 0480 4C       		.byte	0x4c
 2385 0481 0B       		.uleb128 0xb
 2386 0482 13100000 		.4byte	.LASF85
 2387 0486 07       		.byte	0x7
 2388 0487 60       		.byte	0x60
 2389 0488 A2000000 		.4byte	0xa2
 2390 048c 50       		.byte	0x50
 2391 048d 0B       		.uleb128 0xb
 2392 048e FB0E0000 		.4byte	.LASF86
 2393 0492 07       		.byte	0x7
 2394 0493 61       		.byte	0x61
 2395 0494 A2000000 		.4byte	0xa2
 2396 0498 51       		.byte	0x51
 2397 0499 0B       		.uleb128 0xb
 2398 049a 6E090000 		.4byte	.LASF87
ARM GAS  C:\Users\Mahrukh\AppData\Local\Temp\ccJcQtli.s 			page 66


 2399 049e 07       		.byte	0x7
 2400 049f 62       		.byte	0x62
 2401 04a0 A2000000 		.4byte	0xa2
 2402 04a4 52       		.byte	0x52
 2403 04a5 0B       		.uleb128 0xb
 2404 04a6 F50A0000 		.4byte	.LASF88
 2405 04aa 07       		.byte	0x7
 2406 04ab 63       		.byte	0x63
 2407 04ac A2000000 		.4byte	0xa2
 2408 04b0 53       		.byte	0x53
 2409 04b1 0B       		.uleb128 0xb
 2410 04b2 6F0F0000 		.4byte	.LASF89
 2411 04b6 07       		.byte	0x7
 2412 04b7 64       		.byte	0x64
 2413 04b8 A2000000 		.4byte	0xa2
 2414 04bc 54       		.byte	0x54
 2415 04bd 0B       		.uleb128 0xb
 2416 04be 7F0F0000 		.4byte	.LASF90
 2417 04c2 07       		.byte	0x7
 2418 04c3 65       		.byte	0x65
 2419 04c4 A2000000 		.4byte	0xa2
 2420 04c8 55       		.byte	0x55
 2421 04c9 0B       		.uleb128 0xb
 2422 04ca 00000000 		.4byte	.LASF91
 2423 04ce 07       		.byte	0x7
 2424 04cf 66       		.byte	0x66
 2425 04d0 A2000000 		.4byte	0xa2
 2426 04d4 56       		.byte	0x56
 2427 04d5 0B       		.uleb128 0xb
 2428 04d6 DE0B0000 		.4byte	.LASF92
 2429 04da 07       		.byte	0x7
 2430 04db 67       		.byte	0x67
 2431 04dc A2000000 		.4byte	0xa2
 2432 04e0 57       		.byte	0x57
 2433 04e1 0B       		.uleb128 0xb
 2434 04e2 F4050000 		.4byte	.LASF93
 2435 04e6 07       		.byte	0x7
 2436 04e7 68       		.byte	0x68
 2437 04e8 A2000000 		.4byte	0xa2
 2438 04ec 58       		.byte	0x58
 2439 04ed 0B       		.uleb128 0xb
 2440 04ee 8F110000 		.4byte	.LASF94
 2441 04f2 07       		.byte	0x7
 2442 04f3 69       		.byte	0x69
 2443 04f4 A2000000 		.4byte	0xa2
 2444 04f8 59       		.byte	0x59
 2445 04f9 0B       		.uleb128 0xb
 2446 04fa 7D100000 		.4byte	.LASF95
 2447 04fe 07       		.byte	0x7
 2448 04ff 6E       		.byte	0x6e
 2449 0500 B8000000 		.4byte	0xb8
 2450 0504 5A       		.byte	0x5a
 2451 0505 0B       		.uleb128 0xb
 2452 0506 25010000 		.4byte	.LASF96
 2453 050a 07       		.byte	0x7
 2454 050b 6F       		.byte	0x6f
 2455 050c B8000000 		.4byte	0xb8
ARM GAS  C:\Users\Mahrukh\AppData\Local\Temp\ccJcQtli.s 			page 67


 2456 0510 5C       		.byte	0x5c
 2457 0511 0B       		.uleb128 0xb
 2458 0512 0A090000 		.4byte	.LASF97
 2459 0516 07       		.byte	0x7
 2460 0517 70       		.byte	0x70
 2461 0518 A2000000 		.4byte	0xa2
 2462 051c 5E       		.byte	0x5e
 2463 051d 0B       		.uleb128 0xb
 2464 051e B2100000 		.4byte	.LASF98
 2465 0522 07       		.byte	0x7
 2466 0523 71       		.byte	0x71
 2467 0524 A2000000 		.4byte	0xa2
 2468 0528 5F       		.byte	0x5f
 2469 0529 0B       		.uleb128 0xb
 2470 052a 14070000 		.4byte	.LASF99
 2471 052e 07       		.byte	0x7
 2472 052f 72       		.byte	0x72
 2473 0530 A2000000 		.4byte	0xa2
 2474 0534 60       		.byte	0x60
 2475 0535 0B       		.uleb128 0xb
 2476 0536 F8070000 		.4byte	.LASF100
 2477 053a 07       		.byte	0x7
 2478 053b 73       		.byte	0x73
 2479 053c CE000000 		.4byte	0xce
 2480 0540 64       		.byte	0x64
 2481 0541 0B       		.uleb128 0xb
 2482 0542 FC110000 		.4byte	.LASF101
 2483 0546 07       		.byte	0x7
 2484 0547 76       		.byte	0x76
 2485 0548 B8000000 		.4byte	0xb8
 2486 054c 68       		.byte	0x68
 2487 054d 0B       		.uleb128 0xb
 2488 054e 8B0B0000 		.4byte	.LASF102
 2489 0552 07       		.byte	0x7
 2490 0553 77       		.byte	0x77
 2491 0554 B8000000 		.4byte	0xb8
 2492 0558 6A       		.byte	0x6a
 2493 0559 0B       		.uleb128 0xb
 2494 055a E5090000 		.4byte	.LASF103
 2495 055e 07       		.byte	0x7
 2496 055f 78       		.byte	0x78
 2497 0560 B8000000 		.4byte	0xb8
 2498 0564 6C       		.byte	0x6c
 2499 0565 0B       		.uleb128 0xb
 2500 0566 3E020000 		.4byte	.LASF104
 2501 056a 07       		.byte	0x7
 2502 056b 79       		.byte	0x79
 2503 056c B8000000 		.4byte	0xb8
 2504 0570 6E       		.byte	0x6e
 2505 0571 0B       		.uleb128 0xb
 2506 0572 34080000 		.4byte	.LASF105
 2507 0576 07       		.byte	0x7
 2508 0577 7B       		.byte	0x7b
 2509 0578 A2000000 		.4byte	0xa2
 2510 057c 70       		.byte	0x70
 2511 057d 0B       		.uleb128 0xb
 2512 057e 86030000 		.4byte	.LASF106
ARM GAS  C:\Users\Mahrukh\AppData\Local\Temp\ccJcQtli.s 			page 68


 2513 0582 07       		.byte	0x7
 2514 0583 7C       		.byte	0x7c
 2515 0584 A2000000 		.4byte	0xa2
 2516 0588 71       		.byte	0x71
 2517 0589 0B       		.uleb128 0xb
 2518 058a 4B020000 		.4byte	.LASF107
 2519 058e 07       		.byte	0x7
 2520 058f 7D       		.byte	0x7d
 2521 0590 A2000000 		.4byte	0xa2
 2522 0594 72       		.byte	0x72
 2523 0595 0B       		.uleb128 0xb
 2524 0596 9A010000 		.4byte	.LASF108
 2525 059a 07       		.byte	0x7
 2526 059b 7E       		.byte	0x7e
 2527 059c A2000000 		.4byte	0xa2
 2528 05a0 73       		.byte	0x73
 2529 05a1 0B       		.uleb128 0xb
 2530 05a2 350C0000 		.4byte	.LASF109
 2531 05a6 07       		.byte	0x7
 2532 05a7 80       		.byte	0x80
 2533 05a8 B8000000 		.4byte	0xb8
 2534 05ac 74       		.byte	0x74
 2535 05ad 0B       		.uleb128 0xb
 2536 05ae 070B0000 		.4byte	.LASF110
 2537 05b2 07       		.byte	0x7
 2538 05b3 81       		.byte	0x81
 2539 05b4 B8000000 		.4byte	0xb8
 2540 05b8 76       		.byte	0x76
 2541 05b9 0B       		.uleb128 0xb
 2542 05ba 7B080000 		.4byte	.LASF111
 2543 05be 07       		.byte	0x7
 2544 05bf 82       		.byte	0x82
 2545 05c0 B8000000 		.4byte	0xb8
 2546 05c4 78       		.byte	0x78
 2547 05c5 0B       		.uleb128 0xb
 2548 05c6 0C050000 		.4byte	.LASF112
 2549 05ca 07       		.byte	0x7
 2550 05cb 83       		.byte	0x83
 2551 05cc B8000000 		.4byte	0xb8
 2552 05d0 7A       		.byte	0x7a
 2553 05d1 0B       		.uleb128 0xb
 2554 05d2 66080000 		.4byte	.LASF113
 2555 05d6 07       		.byte	0x7
 2556 05d7 86       		.byte	0x86
 2557 05d8 A2000000 		.4byte	0xa2
 2558 05dc 7C       		.byte	0x7c
 2559 05dd 0B       		.uleb128 0xb
 2560 05de 30100000 		.4byte	.LASF114
 2561 05e2 07       		.byte	0x7
 2562 05e3 87       		.byte	0x87
 2563 05e4 A2000000 		.4byte	0xa2
 2564 05e8 7D       		.byte	0x7d
 2565 05e9 0B       		.uleb128 0xb
 2566 05ea E2040000 		.4byte	.LASF115
 2567 05ee 07       		.byte	0x7
 2568 05ef 88       		.byte	0x88
 2569 05f0 A2000000 		.4byte	0xa2
ARM GAS  C:\Users\Mahrukh\AppData\Local\Temp\ccJcQtli.s 			page 69


 2570 05f4 7E       		.byte	0x7e
 2571 05f5 0B       		.uleb128 0xb
 2572 05f6 35040000 		.4byte	.LASF116
 2573 05fa 07       		.byte	0x7
 2574 05fb 89       		.byte	0x89
 2575 05fc A2000000 		.4byte	0xa2
 2576 0600 7F       		.byte	0x7f
 2577 0601 0B       		.uleb128 0xb
 2578 0602 21050000 		.4byte	.LASF117
 2579 0606 07       		.byte	0x7
 2580 0607 8A       		.byte	0x8a
 2581 0608 A2000000 		.4byte	0xa2
 2582 060c 80       		.byte	0x80
 2583 060d 0B       		.uleb128 0xb
 2584 060e 8F000000 		.4byte	.LASF118
 2585 0612 07       		.byte	0x7
 2586 0613 8D       		.byte	0x8d
 2587 0614 CE000000 		.4byte	0xce
 2588 0618 84       		.byte	0x84
 2589 0619 0B       		.uleb128 0xb
 2590 061a 230E0000 		.4byte	.LASF119
 2591 061e 07       		.byte	0x7
 2592 061f 8E       		.byte	0x8e
 2593 0620 CE000000 		.4byte	0xce
 2594 0624 88       		.byte	0x88
 2595 0625 0B       		.uleb128 0xb
 2596 0626 DA100000 		.4byte	.LASF120
 2597 062a 07       		.byte	0x7
 2598 062b 8F       		.byte	0x8f
 2599 062c CE000000 		.4byte	0xce
 2600 0630 8C       		.byte	0x8c
 2601 0631 0B       		.uleb128 0xb
 2602 0632 D60E0000 		.4byte	.LASF121
 2603 0636 07       		.byte	0x7
 2604 0637 90       		.byte	0x90
 2605 0638 CE000000 		.4byte	0xce
 2606 063c 90       		.byte	0x90
 2607 063d 0B       		.uleb128 0xb
 2608 063e C10D0000 		.4byte	.LASF122
 2609 0642 07       		.byte	0x7
 2610 0643 91       		.byte	0x91
 2611 0644 CE000000 		.4byte	0xce
 2612 0648 94       		.byte	0x94
 2613 0649 0B       		.uleb128 0xb
 2614 064a 9B030000 		.4byte	.LASF123
 2615 064e 07       		.byte	0x7
 2616 064f 92       		.byte	0x92
 2617 0650 CE000000 		.4byte	0xce
 2618 0654 98       		.byte	0x98
 2619 0655 0B       		.uleb128 0xb
 2620 0656 560E0000 		.4byte	.LASF124
 2621 065a 07       		.byte	0x7
 2622 065b 93       		.byte	0x93
 2623 065c CE000000 		.4byte	0xce
 2624 0660 9C       		.byte	0x9c
 2625 0661 0B       		.uleb128 0xb
 2626 0662 D8060000 		.4byte	.LASF125
ARM GAS  C:\Users\Mahrukh\AppData\Local\Temp\ccJcQtli.s 			page 70


 2627 0666 07       		.byte	0x7
 2628 0667 94       		.byte	0x94
 2629 0668 CE000000 		.4byte	0xce
 2630 066c A0       		.byte	0xa0
 2631 066d 0B       		.uleb128 0xb
 2632 066e 0E0E0000 		.4byte	.LASF126
 2633 0672 07       		.byte	0x7
 2634 0673 95       		.byte	0x95
 2635 0674 B8000000 		.4byte	0xb8
 2636 0678 A4       		.byte	0xa4
 2637 0679 0B       		.uleb128 0xb
 2638 067a 0F0C0000 		.4byte	.LASF127
 2639 067e 07       		.byte	0x7
 2640 067f 96       		.byte	0x96
 2641 0680 B8000000 		.4byte	0xb8
 2642 0684 A6       		.byte	0xa6
 2643 0685 0B       		.uleb128 0xb
 2644 0686 930E0000 		.4byte	.LASF128
 2645 068a 07       		.byte	0x7
 2646 068b 97       		.byte	0x97
 2647 068c B8000000 		.4byte	0xb8
 2648 0690 A8       		.byte	0xa8
 2649 0691 0B       		.uleb128 0xb
 2650 0692 32090000 		.4byte	.LASF129
 2651 0696 07       		.byte	0x7
 2652 0697 98       		.byte	0x98
 2653 0698 B8000000 		.4byte	0xb8
 2654 069c AA       		.byte	0xaa
 2655 069d 0B       		.uleb128 0xb
 2656 069e 78020000 		.4byte	.LASF130
 2657 06a2 07       		.byte	0x7
 2658 06a3 99       		.byte	0x99
 2659 06a4 B8000000 		.4byte	0xb8
 2660 06a8 AC       		.byte	0xac
 2661 06a9 0B       		.uleb128 0xb
 2662 06aa A70A0000 		.4byte	.LASF131
 2663 06ae 07       		.byte	0x7
 2664 06af 9A       		.byte	0x9a
 2665 06b0 B8000000 		.4byte	0xb8
 2666 06b4 AE       		.byte	0xae
 2667 06b5 0B       		.uleb128 0xb
 2668 06b6 97020000 		.4byte	.LASF132
 2669 06ba 07       		.byte	0x7
 2670 06bb 9D       		.byte	0x9d
 2671 06bc B8000000 		.4byte	0xb8
 2672 06c0 B0       		.byte	0xb0
 2673 06c1 0B       		.uleb128 0xb
 2674 06c2 300F0000 		.4byte	.LASF133
 2675 06c6 07       		.byte	0x7
 2676 06c7 9E       		.byte	0x9e
 2677 06c8 CE000000 		.4byte	0xce
 2678 06cc B4       		.byte	0xb4
 2679 06cd 00       		.byte	0
 2680 06ce 03       		.uleb128 0x3
 2681 06cf EF100000 		.4byte	.LASF134
 2682 06d3 07       		.byte	0x7
 2683 06d4 9F       		.byte	0x9f
ARM GAS  C:\Users\Mahrukh\AppData\Local\Temp\ccJcQtli.s 			page 71


 2684 06d5 BD020000 		.4byte	0x2bd
 2685 06d9 0E       		.uleb128 0xe
 2686 06da 310D0000 		.4byte	.LASF135
 2687 06de 08       		.byte	0x8
 2688 06df F601     		.2byte	0x1f6
 2689 06e1 E5060000 		.4byte	0x6e5
 2690 06e5 02       		.uleb128 0x2
 2691 06e6 01       		.byte	0x1
 2692 06e7 08       		.byte	0x8
 2693 06e8 9E070000 		.4byte	.LASF136
 2694 06ec 02       		.uleb128 0x2
 2695 06ed 04       		.byte	0x4
 2696 06ee 04       		.byte	0x4
 2697 06ef 9F0E0000 		.4byte	.LASF137
 2698 06f3 02       		.uleb128 0x2
 2699 06f4 08       		.byte	0x8
 2700 06f5 04       		.byte	0x4
 2701 06f6 40110000 		.4byte	.LASF138
 2702 06fa 0E       		.uleb128 0xe
 2703 06fb 3A110000 		.4byte	.LASF139
 2704 06ff 08       		.byte	0x8
 2705 0700 EA03     		.2byte	0x3ea
 2706 0702 A2000000 		.4byte	0xa2
 2707 0706 0F       		.uleb128 0xf
 2708 0707 04       		.byte	0x4
 2709 0708 CE000000 		.4byte	0xce
 2710 070c 10       		.uleb128 0x10
 2711 070d 04       		.byte	0x4
 2712 070e 02       		.uleb128 0x2
 2713 070f 01       		.byte	0x1
 2714 0710 02       		.byte	0x2
 2715 0711 59060000 		.4byte	.LASF140
 2716 0715 0F       		.uleb128 0xf
 2717 0716 04       		.byte	0x4
 2718 0717 1B070000 		.4byte	0x71b
 2719 071b 11       		.uleb128 0x11
 2720 071c 26070000 		.4byte	0x726
 2721 0720 12       		.uleb128 0x12
 2722 0721 CE000000 		.4byte	0xce
 2723 0725 00       		.byte	0
 2724 0726 0E       		.uleb128 0xe
 2725 0727 59000000 		.4byte	.LASF141
 2726 072b 09       		.byte	0x9
 2727 072c F201     		.2byte	0x1f2
 2728 072e 15070000 		.4byte	0x715
 2729 0732 13       		.uleb128 0x13
 2730 0733 580F0000 		.4byte	.LASF153
 2731 0737 24       		.byte	0x24
 2732 0738 09       		.byte	0x9
 2733 0739 7402     		.2byte	0x274
 2734 073b B5070000 		.4byte	0x7b5
 2735 073f 14       		.uleb128 0x14
 2736 0740 11080000 		.4byte	.LASF142
 2737 0744 09       		.byte	0x9
 2738 0745 7702     		.2byte	0x277
 2739 0747 E0000000 		.4byte	0xe0
 2740 074b 00       		.byte	0
ARM GAS  C:\Users\Mahrukh\AppData\Local\Temp\ccJcQtli.s 			page 72


 2741 074c 14       		.uleb128 0x14
 2742 074d EE050000 		.4byte	.LASF143
 2743 0751 09       		.byte	0x9
 2744 0752 7902     		.2byte	0x279
 2745 0754 0C070000 		.4byte	0x70c
 2746 0758 04       		.byte	0x4
 2747 0759 14       		.uleb128 0x14
 2748 075a 0C120000 		.4byte	.LASF144
 2749 075e 09       		.byte	0x9
 2750 075f 7A02     		.2byte	0x27a
 2751 0761 CE000000 		.4byte	0xce
 2752 0765 08       		.byte	0x8
 2753 0766 14       		.uleb128 0x14
 2754 0767 E7070000 		.4byte	.LASF145
 2755 076b 09       		.byte	0x9
 2756 076c 7B02     		.2byte	0x27b
 2757 076e E0000000 		.4byte	0xe0
 2758 0772 0C       		.byte	0xc
 2759 0773 14       		.uleb128 0x14
 2760 0774 E40A0000 		.4byte	.LASF146
 2761 0778 09       		.byte	0x9
 2762 0779 7D02     		.2byte	0x27d
 2763 077b 0C070000 		.4byte	0x70c
 2764 077f 10       		.byte	0x10
 2765 0780 14       		.uleb128 0x14
 2766 0781 640A0000 		.4byte	.LASF147
 2767 0785 09       		.byte	0x9
 2768 0786 7E02     		.2byte	0x27e
 2769 0788 CE000000 		.4byte	0xce
 2770 078c 14       		.byte	0x14
 2771 078d 14       		.uleb128 0x14
 2772 078e B1010000 		.4byte	.LASF148
 2773 0792 09       		.byte	0x9
 2774 0793 7F02     		.2byte	0x27f
 2775 0795 E0000000 		.4byte	0xe0
 2776 0799 18       		.byte	0x18
 2777 079a 14       		.uleb128 0x14
 2778 079b 45060000 		.4byte	.LASF149
 2779 079f 09       		.byte	0x9
 2780 07a0 8502     		.2byte	0x285
 2781 07a2 26070000 		.4byte	0x726
 2782 07a6 1C       		.byte	0x1c
 2783 07a7 14       		.uleb128 0x14
 2784 07a8 F0070000 		.4byte	.LASF150
 2785 07ac 09       		.byte	0x9
 2786 07ad 8802     		.2byte	0x288
 2787 07af CE000000 		.4byte	0xce
 2788 07b3 20       		.byte	0x20
 2789 07b4 00       		.byte	0
 2790 07b5 0E       		.uleb128 0xe
 2791 07b6 94090000 		.4byte	.LASF151
 2792 07ba 09       		.byte	0x9
 2793 07bb 8B02     		.2byte	0x28b
 2794 07bd 32070000 		.4byte	0x732
 2795 07c1 0E       		.uleb128 0xe
 2796 07c2 90080000 		.4byte	.LASF152
 2797 07c6 0A       		.byte	0xa
ARM GAS  C:\Users\Mahrukh\AppData\Local\Temp\ccJcQtli.s 			page 73


 2798 07c7 D901     		.2byte	0x1d9
 2799 07c9 15070000 		.4byte	0x715
 2800 07cd 13       		.uleb128 0x13
 2801 07ce A4040000 		.4byte	.LASF154
 2802 07d2 38       		.byte	0x38
 2803 07d3 0A       		.byte	0xa
 2804 07d4 7502     		.2byte	0x275
 2805 07d6 91080000 		.4byte	0x891
 2806 07da 14       		.uleb128 0x14
 2807 07db F5000000 		.4byte	.LASF155
 2808 07df 0A       		.byte	0xa
 2809 07e0 7802     		.2byte	0x278
 2810 07e2 E0000000 		.4byte	0xe0
 2811 07e6 00       		.byte	0
 2812 07e7 14       		.uleb128 0x14
 2813 07e8 B1030000 		.4byte	.LASF156
 2814 07ec 0A       		.byte	0xa
 2815 07ed 7902     		.2byte	0x279
 2816 07ef E0000000 		.4byte	0xe0
 2817 07f3 04       		.byte	0x4
 2818 07f4 14       		.uleb128 0x14
 2819 07f5 460B0000 		.4byte	.LASF157
 2820 07f9 0A       		.byte	0xa
 2821 07fa 7B02     		.2byte	0x27b
 2822 07fc 0C070000 		.4byte	0x70c
 2823 0800 08       		.byte	0x8
 2824 0801 14       		.uleb128 0x14
 2825 0802 30020000 		.4byte	.LASF158
 2826 0806 0A       		.byte	0xa
 2827 0807 7C02     		.2byte	0x27c
 2828 0809 CE000000 		.4byte	0xce
 2829 080d 0C       		.byte	0xc
 2830 080e 14       		.uleb128 0x14
 2831 080f FE090000 		.4byte	.LASF159
 2832 0813 0A       		.byte	0xa
 2833 0814 7D02     		.2byte	0x27d
 2834 0816 E0000000 		.4byte	0xe0
 2835 081a 10       		.byte	0x10
 2836 081b 14       		.uleb128 0x14
 2837 081c A3070000 		.4byte	.LASF160
 2838 0820 0A       		.byte	0xa
 2839 0821 7E02     		.2byte	0x27e
 2840 0823 E0000000 		.4byte	0xe0
 2841 0827 14       		.byte	0x14
 2842 0828 14       		.uleb128 0x14
 2843 0829 EE050000 		.4byte	.LASF143
 2844 082d 0A       		.byte	0xa
 2845 082e 8002     		.2byte	0x280
 2846 0830 0C070000 		.4byte	0x70c
 2847 0834 18       		.byte	0x18
 2848 0835 14       		.uleb128 0x14
 2849 0836 0C120000 		.4byte	.LASF144
 2850 083a 0A       		.byte	0xa
 2851 083b 8102     		.2byte	0x281
 2852 083d CE000000 		.4byte	0xce
 2853 0841 1C       		.byte	0x1c
 2854 0842 14       		.uleb128 0x14
ARM GAS  C:\Users\Mahrukh\AppData\Local\Temp\ccJcQtli.s 			page 74


 2855 0843 E7070000 		.4byte	.LASF145
 2856 0847 0A       		.byte	0xa
 2857 0848 8202     		.2byte	0x282
 2858 084a E0000000 		.4byte	0xe0
 2859 084e 20       		.byte	0x20
 2860 084f 14       		.uleb128 0x14
 2861 0850 E40A0000 		.4byte	.LASF146
 2862 0854 0A       		.byte	0xa
 2863 0855 8402     		.2byte	0x284
 2864 0857 0C070000 		.4byte	0x70c
 2865 085b 24       		.byte	0x24
 2866 085c 14       		.uleb128 0x14
 2867 085d 640A0000 		.4byte	.LASF147
 2868 0861 0A       		.byte	0xa
 2869 0862 8502     		.2byte	0x285
 2870 0864 CE000000 		.4byte	0xce
 2871 0868 28       		.byte	0x28
 2872 0869 14       		.uleb128 0x14
 2873 086a 990D0000 		.4byte	.LASF161
 2874 086e 0A       		.byte	0xa
 2875 086f 8602     		.2byte	0x286
 2876 0871 E0000000 		.4byte	0xe0
 2877 0875 2C       		.byte	0x2c
 2878 0876 14       		.uleb128 0x14
 2879 0877 45060000 		.4byte	.LASF149
 2880 087b 0A       		.byte	0xa
 2881 087c 8B02     		.2byte	0x28b
 2882 087e C1070000 		.4byte	0x7c1
 2883 0882 30       		.byte	0x30
 2884 0883 14       		.uleb128 0x14
 2885 0884 F0070000 		.4byte	.LASF150
 2886 0888 0A       		.byte	0xa
 2887 0889 8E02     		.2byte	0x28e
 2888 088b CE000000 		.4byte	0xce
 2889 088f 34       		.byte	0x34
 2890 0890 00       		.byte	0
 2891 0891 0E       		.uleb128 0xe
 2892 0892 C4010000 		.4byte	.LASF162
 2893 0896 0A       		.byte	0xa
 2894 0897 9102     		.2byte	0x291
 2895 0899 CD070000 		.4byte	0x7cd
 2896 089d 15       		.uleb128 0x15
 2897 089e 96100000 		.4byte	.LASF163
 2898 08a2 4C       		.byte	0x4c
 2899 08a3 0B       		.byte	0xb
 2900 08a4 2F       		.byte	0x2f
 2901 08a5 8E090000 		.4byte	0x98e
 2902 08a9 0B       		.uleb128 0xb
 2903 08aa 6A100000 		.4byte	.LASF164
 2904 08ae 0B       		.byte	0xb
 2905 08af 31       		.byte	0x31
 2906 08b0 CE000000 		.4byte	0xce
 2907 08b4 00       		.byte	0
 2908 08b5 0B       		.uleb128 0xb
 2909 08b6 D3070000 		.4byte	.LASF165
 2910 08ba 0B       		.byte	0xb
 2911 08bb 33       		.byte	0x33
ARM GAS  C:\Users\Mahrukh\AppData\Local\Temp\ccJcQtli.s 			page 75


 2912 08bc CE000000 		.4byte	0xce
 2913 08c0 04       		.byte	0x4
 2914 08c1 0B       		.uleb128 0xb
 2915 08c2 830B0000 		.4byte	.LASF166
 2916 08c6 0B       		.byte	0xb
 2917 08c7 34       		.byte	0x34
 2918 08c8 CE000000 		.4byte	0xce
 2919 08cc 08       		.byte	0x8
 2920 08cd 0B       		.uleb128 0xb
 2921 08ce 030D0000 		.4byte	.LASF167
 2922 08d2 0B       		.byte	0xb
 2923 08d3 35       		.byte	0x35
 2924 08d4 CE000000 		.4byte	0xce
 2925 08d8 0C       		.byte	0xc
 2926 08d9 0B       		.uleb128 0xb
 2927 08da 240C0000 		.4byte	.LASF168
 2928 08de 0B       		.byte	0xb
 2929 08df 37       		.byte	0x37
 2930 08e0 CE000000 		.4byte	0xce
 2931 08e4 10       		.byte	0x10
 2932 08e5 0B       		.uleb128 0xb
 2933 08e6 B5020000 		.4byte	.LASF169
 2934 08ea 0B       		.byte	0xb
 2935 08eb 38       		.byte	0x38
 2936 08ec CE000000 		.4byte	0xce
 2937 08f0 14       		.byte	0x14
 2938 08f1 0B       		.uleb128 0xb
 2939 08f2 BE020000 		.4byte	.LASF170
 2940 08f6 0B       		.byte	0xb
 2941 08f7 39       		.byte	0x39
 2942 08f8 CE000000 		.4byte	0xce
 2943 08fc 18       		.byte	0x18
 2944 08fd 0B       		.uleb128 0xb
 2945 08fe 6D0C0000 		.4byte	.LASF171
 2946 0902 0B       		.byte	0xb
 2947 0903 3A       		.byte	0x3a
 2948 0904 0E070000 		.4byte	0x70e
 2949 0908 1C       		.byte	0x1c
 2950 0909 0B       		.uleb128 0xb
 2951 090a C8030000 		.4byte	.LASF172
 2952 090e 0B       		.byte	0xb
 2953 090f 3C       		.byte	0x3c
 2954 0910 CE000000 		.4byte	0xce
 2955 0914 20       		.byte	0x20
 2956 0915 0B       		.uleb128 0xb
 2957 0916 320A0000 		.4byte	.LASF173
 2958 091a 0B       		.byte	0xb
 2959 091b 3D       		.byte	0x3d
 2960 091c CE000000 		.4byte	0xce
 2961 0920 24       		.byte	0x24
 2962 0921 0B       		.uleb128 0xb
 2963 0922 C00E0000 		.4byte	.LASF174
 2964 0926 0B       		.byte	0xb
 2965 0927 3F       		.byte	0x3f
 2966 0928 CE000000 		.4byte	0xce
 2967 092c 28       		.byte	0x28
 2968 092d 0B       		.uleb128 0xb
ARM GAS  C:\Users\Mahrukh\AppData\Local\Temp\ccJcQtli.s 			page 76


 2969 092e 180A0000 		.4byte	.LASF175
 2970 0932 0B       		.byte	0xb
 2971 0933 40       		.byte	0x40
 2972 0934 CE000000 		.4byte	0xce
 2973 0938 2C       		.byte	0x2c
 2974 0939 0B       		.uleb128 0xb
 2975 093a CE040000 		.4byte	.LASF176
 2976 093e 0B       		.byte	0xb
 2977 093f 42       		.byte	0x42
 2978 0940 CE000000 		.4byte	0xce
 2979 0944 30       		.byte	0x30
 2980 0945 0B       		.uleb128 0xb
 2981 0946 B7050000 		.4byte	.LASF177
 2982 094a 0B       		.byte	0xb
 2983 094b 43       		.byte	0x43
 2984 094c CE000000 		.4byte	0xce
 2985 0950 34       		.byte	0x34
 2986 0951 0B       		.uleb128 0xb
 2987 0952 16120000 		.4byte	.LASF178
 2988 0956 0B       		.byte	0xb
 2989 0957 45       		.byte	0x45
 2990 0958 CE000000 		.4byte	0xce
 2991 095c 38       		.byte	0x38
 2992 095d 0B       		.uleb128 0xb
 2993 095e 77000000 		.4byte	.LASF179
 2994 0962 0B       		.byte	0xb
 2995 0963 46       		.byte	0x46
 2996 0964 CE000000 		.4byte	0xce
 2997 0968 3C       		.byte	0x3c
 2998 0969 0B       		.uleb128 0xb
 2999 096a 26020000 		.4byte	.LASF180
 3000 096e 0B       		.byte	0xb
 3001 096f 48       		.byte	0x48
 3002 0970 CE000000 		.4byte	0xce
 3003 0974 40       		.byte	0x40
 3004 0975 0B       		.uleb128 0xb
 3005 0976 B40C0000 		.4byte	.LASF181
 3006 097a 0B       		.byte	0xb
 3007 097b 49       		.byte	0x49
 3008 097c CE000000 		.4byte	0xce
 3009 0980 44       		.byte	0x44
 3010 0981 0B       		.uleb128 0xb
 3011 0982 440F0000 		.4byte	.LASF182
 3012 0986 0B       		.byte	0xb
 3013 0987 4B       		.byte	0x4b
 3014 0988 CE000000 		.4byte	0xce
 3015 098c 48       		.byte	0x48
 3016 098d 00       		.byte	0
 3017 098e 03       		.uleb128 0x3
 3018 098f B80B0000 		.4byte	.LASF183
 3019 0993 0B       		.byte	0xb
 3020 0994 4C       		.byte	0x4c
 3021 0995 9D080000 		.4byte	0x89d
 3022 0999 0F       		.uleb128 0xf
 3023 099a 04       		.byte	0x4
 3024 099b 9E020000 		.4byte	0x29e
 3025 099f 0F       		.uleb128 0xf
ARM GAS  C:\Users\Mahrukh\AppData\Local\Temp\ccJcQtli.s 			page 77


 3026 09a0 04       		.byte	0x4
 3027 09a1 A5090000 		.4byte	0x9a5
 3028 09a5 16       		.uleb128 0x16
 3029 09a6 0F       		.uleb128 0xf
 3030 09a7 04       		.byte	0x4
 3031 09a8 AC090000 		.4byte	0x9ac
 3032 09ac 06       		.uleb128 0x6
 3033 09ad 3E000000 		.4byte	0x3e
 3034 09b1 0F       		.uleb128 0xf
 3035 09b2 04       		.byte	0x4
 3036 09b3 B7090000 		.4byte	0x9b7
 3037 09b7 06       		.uleb128 0x6
 3038 09b8 E5060000 		.4byte	0x6e5
 3039 09bc 09       		.uleb128 0x9
 3040 09bd 04       		.byte	0x4
 3041 09be 0C       		.byte	0xc
 3042 09bf B6       		.byte	0xb6
 3043 09c0 DB090000 		.4byte	0x9db
 3044 09c4 0A       		.uleb128 0xa
 3045 09c5 633000   		.ascii	"c0\000"
 3046 09c8 0C       		.byte	0xc
 3047 09c9 B7       		.byte	0xb7
 3048 09ca 25000000 		.4byte	0x25
 3049 09ce 00       		.byte	0
 3050 09cf 0A       		.uleb128 0xa
 3051 09d0 633100   		.ascii	"c1\000"
 3052 09d3 0C       		.byte	0xc
 3053 09d4 B8       		.byte	0xb8
 3054 09d5 25000000 		.4byte	0x25
 3055 09d9 02       		.byte	0x2
 3056 09da 00       		.byte	0
 3057 09db 03       		.uleb128 0x3
 3058 09dc A50E0000 		.4byte	.LASF184
 3059 09e0 0C       		.byte	0xc
 3060 09e1 B9       		.byte	0xb9
 3061 09e2 BC090000 		.4byte	0x9bc
 3062 09e6 09       		.uleb128 0x9
 3063 09e7 08       		.byte	0x8
 3064 09e8 0C       		.byte	0xc
 3065 09e9 BB       		.byte	0xbb
 3066 09ea 130A0000 		.4byte	0xa13
 3067 09ee 0B       		.uleb128 0xb
 3068 09ef 89070000 		.4byte	.LASF185
 3069 09f3 0C       		.byte	0xc
 3070 09f4 BC       		.byte	0xbc
 3071 09f5 5B000000 		.4byte	0x5b
 3072 09f9 00       		.byte	0
 3073 09fa 0B       		.uleb128 0xb
 3074 09fb FA0C0000 		.4byte	.LASF186
 3075 09ff 0C       		.byte	0xc
 3076 0a00 BD       		.byte	0xbd
 3077 0a01 5B000000 		.4byte	0x5b
 3078 0a05 02       		.byte	0x2
 3079 0a06 0B       		.uleb128 0xb
 3080 0a07 4E010000 		.4byte	.LASF187
 3081 0a0b 0C       		.byte	0xc
 3082 0a0c BE       		.byte	0xbe
ARM GAS  C:\Users\Mahrukh\AppData\Local\Temp\ccJcQtli.s 			page 78


 3083 0a0d 130A0000 		.4byte	0xa13
 3084 0a11 04       		.byte	0x4
 3085 0a12 00       		.byte	0
 3086 0a13 0F       		.uleb128 0xf
 3087 0a14 04       		.byte	0x4
 3088 0a15 190A0000 		.4byte	0xa19
 3089 0a19 06       		.uleb128 0x6
 3090 0a1a DB090000 		.4byte	0x9db
 3091 0a1e 03       		.uleb128 0x3
 3092 0a1f D9030000 		.4byte	.LASF188
 3093 0a23 0C       		.byte	0xc
 3094 0a24 BF       		.byte	0xbf
 3095 0a25 E6090000 		.4byte	0x9e6
 3096 0a29 09       		.uleb128 0x9
 3097 0a2a 08       		.byte	0x8
 3098 0a2b 0C       		.byte	0xc
 3099 0a2c C1       		.byte	0xc1
 3100 0a2d 620A0000 		.4byte	0xa62
 3101 0a31 0B       		.uleb128 0xb
 3102 0a32 CD100000 		.4byte	.LASF189
 3103 0a36 0C       		.byte	0xc
 3104 0a37 C2       		.byte	0xc2
 3105 0a38 3E000000 		.4byte	0x3e
 3106 0a3c 00       		.byte	0
 3107 0a3d 0B       		.uleb128 0xb
 3108 0a3e F50E0000 		.4byte	.LASF190
 3109 0a42 0C       		.byte	0xc
 3110 0a43 C3       		.byte	0xc3
 3111 0a44 3E000000 		.4byte	0x3e
 3112 0a48 01       		.byte	0x1
 3113 0a49 0B       		.uleb128 0xb
 3114 0a4a 40090000 		.4byte	.LASF191
 3115 0a4e 0C       		.byte	0xc
 3116 0a4f C4       		.byte	0xc4
 3117 0a50 3E000000 		.4byte	0x3e
 3118 0a54 02       		.byte	0x2
 3119 0a55 0B       		.uleb128 0xb
 3120 0a56 AF020000 		.4byte	.LASF192
 3121 0a5a 0C       		.byte	0xc
 3122 0a5b C5       		.byte	0xc5
 3123 0a5c A6090000 		.4byte	0x9a6
 3124 0a60 04       		.byte	0x4
 3125 0a61 00       		.byte	0
 3126 0a62 03       		.uleb128 0x3
 3127 0a63 50110000 		.4byte	.LASF193
 3128 0a67 0C       		.byte	0xc
 3129 0a68 C6       		.byte	0xc6
 3130 0a69 290A0000 		.4byte	0xa29
 3131 0a6d 09       		.uleb128 0x9
 3132 0a6e 0C       		.byte	0xc
 3133 0a6f 0C       		.byte	0xc
 3134 0a70 C8       		.byte	0xc8
 3135 0a71 BE0A0000 		.4byte	0xabe
 3136 0a75 0B       		.uleb128 0xb
 3137 0a76 CD100000 		.4byte	.LASF189
 3138 0a7a 0C       		.byte	0xc
 3139 0a7b C9       		.byte	0xc9
ARM GAS  C:\Users\Mahrukh\AppData\Local\Temp\ccJcQtli.s 			page 79


 3140 0a7c 3E000000 		.4byte	0x3e
 3141 0a80 00       		.byte	0
 3142 0a81 0B       		.uleb128 0xb
 3143 0a82 790A0000 		.4byte	.LASF194
 3144 0a86 0C       		.byte	0xc
 3145 0a87 CA       		.byte	0xca
 3146 0a88 3E000000 		.4byte	0x3e
 3147 0a8c 01       		.byte	0x1
 3148 0a8d 0B       		.uleb128 0xb
 3149 0a8e 23080000 		.4byte	.LASF195
 3150 0a92 0C       		.byte	0xc
 3151 0a93 CB       		.byte	0xcb
 3152 0a94 2C000000 		.4byte	0x2c
 3153 0a98 02       		.byte	0x2
 3154 0a99 0B       		.uleb128 0xb
 3155 0a9a E1000000 		.4byte	.LASF196
 3156 0a9e 0C       		.byte	0xc
 3157 0a9f CC       		.byte	0xcc
 3158 0aa0 2C000000 		.4byte	0x2c
 3159 0aa4 03       		.byte	0x3
 3160 0aa5 0B       		.uleb128 0xb
 3161 0aa6 F50E0000 		.4byte	.LASF190
 3162 0aaa 0C       		.byte	0xc
 3163 0aab CD       		.byte	0xcd
 3164 0aac 3E000000 		.4byte	0x3e
 3165 0ab0 04       		.byte	0x4
 3166 0ab1 0B       		.uleb128 0xb
 3167 0ab2 AF020000 		.4byte	.LASF192
 3168 0ab6 0C       		.byte	0xc
 3169 0ab7 CE       		.byte	0xce
 3170 0ab8 A6090000 		.4byte	0x9a6
 3171 0abc 08       		.byte	0x8
 3172 0abd 00       		.byte	0
 3173 0abe 03       		.uleb128 0x3
 3174 0abf 5A050000 		.4byte	.LASF197
 3175 0ac3 0C       		.byte	0xc
 3176 0ac4 CF       		.byte	0xcf
 3177 0ac5 6D0A0000 		.4byte	0xa6d
 3178 0ac9 15       		.uleb128 0x15
 3179 0aca 49040000 		.4byte	.LASF198
 3180 0ace 0C       		.byte	0xc
 3181 0acf 0C       		.byte	0xc
 3182 0ad0 D1       		.byte	0xd1
 3183 0ad1 060B0000 		.4byte	0xb06
 3184 0ad5 0B       		.uleb128 0xb
 3185 0ad6 6B050000 		.4byte	.LASF199
 3186 0ada 0C       		.byte	0xc
 3187 0adb D2       		.byte	0xd2
 3188 0adc 5B000000 		.4byte	0x5b
 3189 0ae0 00       		.byte	0
 3190 0ae1 0B       		.uleb128 0xb
 3191 0ae2 F9090000 		.4byte	.LASF200
 3192 0ae6 0C       		.byte	0xc
 3193 0ae7 D3       		.byte	0xd3
 3194 0ae8 5B000000 		.4byte	0x5b
 3195 0aec 02       		.byte	0x2
 3196 0aed 0B       		.uleb128 0xb
ARM GAS  C:\Users\Mahrukh\AppData\Local\Temp\ccJcQtli.s 			page 80


 3197 0aee 18080000 		.4byte	.LASF201
 3198 0af2 0C       		.byte	0xc
 3199 0af3 D4       		.byte	0xd4
 3200 0af4 060B0000 		.4byte	0xb06
 3201 0af8 04       		.byte	0x4
 3202 0af9 0B       		.uleb128 0xb
 3203 0afa BE110000 		.4byte	.LASF202
 3204 0afe 0C       		.byte	0xc
 3205 0aff D5       		.byte	0xd5
 3206 0b00 110B0000 		.4byte	0xb11
 3207 0b04 08       		.byte	0x8
 3208 0b05 00       		.byte	0
 3209 0b06 0F       		.uleb128 0xf
 3210 0b07 04       		.byte	0x4
 3211 0b08 0C0B0000 		.4byte	0xb0c
 3212 0b0c 06       		.uleb128 0x6
 3213 0b0d 620A0000 		.4byte	0xa62
 3214 0b11 0F       		.uleb128 0xf
 3215 0b12 04       		.byte	0x4
 3216 0b13 170B0000 		.4byte	0xb17
 3217 0b17 06       		.uleb128 0x6
 3218 0b18 C90A0000 		.4byte	0xac9
 3219 0b1c 03       		.uleb128 0x3
 3220 0b1d 49040000 		.4byte	.LASF198
 3221 0b21 0C       		.byte	0xc
 3222 0b22 D6       		.byte	0xd6
 3223 0b23 C90A0000 		.4byte	0xac9
 3224 0b27 15       		.uleb128 0x15
 3225 0b28 C7000000 		.4byte	.LASF203
 3226 0b2c 0C       		.byte	0xc
 3227 0b2d 0C       		.byte	0xc
 3228 0b2e D8       		.byte	0xd8
 3229 0b2f 640B0000 		.4byte	0xb64
 3230 0b33 0B       		.uleb128 0xb
 3231 0b34 6B050000 		.4byte	.LASF199
 3232 0b38 0C       		.byte	0xc
 3233 0b39 D9       		.byte	0xd9
 3234 0b3a 5B000000 		.4byte	0x5b
 3235 0b3e 00       		.byte	0
 3236 0b3f 0B       		.uleb128 0xb
 3237 0b40 F9090000 		.4byte	.LASF200
 3238 0b44 0C       		.byte	0xc
 3239 0b45 DA       		.byte	0xda
 3240 0b46 5B000000 		.4byte	0x5b
 3241 0b4a 02       		.byte	0x2
 3242 0b4b 0B       		.uleb128 0xb
 3243 0b4c 18080000 		.4byte	.LASF201
 3244 0b50 0C       		.byte	0xc
 3245 0b51 DB       		.byte	0xdb
 3246 0b52 640B0000 		.4byte	0xb64
 3247 0b56 04       		.byte	0x4
 3248 0b57 0B       		.uleb128 0xb
 3249 0b58 BE110000 		.4byte	.LASF202
 3250 0b5c 0C       		.byte	0xc
 3251 0b5d DC       		.byte	0xdc
 3252 0b5e 6F0B0000 		.4byte	0xb6f
 3253 0b62 08       		.byte	0x8
ARM GAS  C:\Users\Mahrukh\AppData\Local\Temp\ccJcQtli.s 			page 81


 3254 0b63 00       		.byte	0
 3255 0b64 0F       		.uleb128 0xf
 3256 0b65 04       		.byte	0x4
 3257 0b66 6A0B0000 		.4byte	0xb6a
 3258 0b6a 06       		.uleb128 0x6
 3259 0b6b BE0A0000 		.4byte	0xabe
 3260 0b6f 0F       		.uleb128 0xf
 3261 0b70 04       		.byte	0x4
 3262 0b71 750B0000 		.4byte	0xb75
 3263 0b75 06       		.uleb128 0x6
 3264 0b76 270B0000 		.4byte	0xb27
 3265 0b7a 03       		.uleb128 0x3
 3266 0b7b C7000000 		.4byte	.LASF203
 3267 0b7f 0C       		.byte	0xc
 3268 0b80 DD       		.byte	0xdd
 3269 0b81 270B0000 		.4byte	0xb27
 3270 0b85 09       		.uleb128 0x9
 3271 0b86 14       		.byte	0x14
 3272 0b87 0C       		.byte	0xc
 3273 0b88 DF       		.byte	0xdf
 3274 0b89 EE0B0000 		.4byte	0xbee
 3275 0b8d 0B       		.uleb128 0xb
 3276 0b8e AF020000 		.4byte	.LASF192
 3277 0b92 0C       		.byte	0xc
 3278 0b93 E0       		.byte	0xe0
 3279 0b94 A6090000 		.4byte	0x9a6
 3280 0b98 00       		.byte	0
 3281 0b99 0B       		.uleb128 0xb
 3282 0b9a A3050000 		.4byte	.LASF204
 3283 0b9e 0C       		.byte	0xc
 3284 0b9f E1       		.byte	0xe1
 3285 0ba0 A6090000 		.4byte	0x9a6
 3286 0ba4 04       		.byte	0x4
 3287 0ba5 0B       		.uleb128 0xb
 3288 0ba6 1A0B0000 		.4byte	.LASF205
 3289 0baa 0C       		.byte	0xc
 3290 0bab E2       		.byte	0xe2
 3291 0bac EE0B0000 		.4byte	0xbee
 3292 0bb0 08       		.byte	0x8
 3293 0bb1 0B       		.uleb128 0xb
 3294 0bb2 89070000 		.4byte	.LASF185
 3295 0bb6 0C       		.byte	0xc
 3296 0bb7 E3       		.byte	0xe3
 3297 0bb8 5B000000 		.4byte	0x5b
 3298 0bbc 0C       		.byte	0xc
 3299 0bbd 0B       		.uleb128 0xb
 3300 0bbe FA0C0000 		.4byte	.LASF186
 3301 0bc2 0C       		.byte	0xc
 3302 0bc3 E4       		.byte	0xe4
 3303 0bc4 5B000000 		.4byte	0x5b
 3304 0bc8 0E       		.byte	0xe
 3305 0bc9 0B       		.uleb128 0xb
 3306 0bca CD100000 		.4byte	.LASF189
 3307 0bce 0C       		.byte	0xc
 3308 0bcf E5       		.byte	0xe5
 3309 0bd0 3E000000 		.4byte	0x3e
 3310 0bd4 10       		.byte	0x10
ARM GAS  C:\Users\Mahrukh\AppData\Local\Temp\ccJcQtli.s 			page 82


 3311 0bd5 0B       		.uleb128 0xb
 3312 0bd6 F50E0000 		.4byte	.LASF190
 3313 0bda 0C       		.byte	0xc
 3314 0bdb E6       		.byte	0xe6
 3315 0bdc 3E000000 		.4byte	0x3e
 3316 0be0 11       		.byte	0x11
 3317 0be1 0B       		.uleb128 0xb
 3318 0be2 40090000 		.4byte	.LASF191
 3319 0be6 0C       		.byte	0xc
 3320 0be7 E7       		.byte	0xe7
 3321 0be8 3E000000 		.4byte	0x3e
 3322 0bec 12       		.byte	0x12
 3323 0bed 00       		.byte	0
 3324 0bee 0F       		.uleb128 0xf
 3325 0bef 04       		.byte	0x4
 3326 0bf0 F40B0000 		.4byte	0xbf4
 3327 0bf4 06       		.uleb128 0x6
 3328 0bf5 1E0A0000 		.4byte	0xa1e
 3329 0bf9 03       		.uleb128 0x3
 3330 0bfa 85040000 		.4byte	.LASF206
 3331 0bfe 0C       		.byte	0xc
 3332 0bff E8       		.byte	0xe8
 3333 0c00 850B0000 		.4byte	0xb85
 3334 0c04 09       		.uleb128 0x9
 3335 0c05 06       		.byte	0x6
 3336 0c06 0C       		.byte	0xc
 3337 0c07 F1       		.byte	0xf1
 3338 0c08 3D0C0000 		.4byte	0xc3d
 3339 0c0c 0B       		.uleb128 0xb
 3340 0c0d 57040000 		.4byte	.LASF207
 3341 0c11 0C       		.byte	0xc
 3342 0c12 F2       		.byte	0xf2
 3343 0c13 5B000000 		.4byte	0x5b
 3344 0c17 00       		.byte	0
 3345 0c18 0B       		.uleb128 0xb
 3346 0c19 AE050000 		.4byte	.LASF208
 3347 0c1d 0C       		.byte	0xc
 3348 0c1e F3       		.byte	0xf3
 3349 0c1f 3E000000 		.4byte	0x3e
 3350 0c23 02       		.byte	0x2
 3351 0c24 0B       		.uleb128 0xb
 3352 0c25 D60B0000 		.4byte	.LASF209
 3353 0c29 0C       		.byte	0xc
 3354 0c2a F4       		.byte	0xf4
 3355 0c2b 3E000000 		.4byte	0x3e
 3356 0c2f 03       		.byte	0x3
 3357 0c30 0B       		.uleb128 0xb
 3358 0c31 7F0A0000 		.4byte	.LASF210
 3359 0c35 0C       		.byte	0xc
 3360 0c36 F5       		.byte	0xf5
 3361 0c37 3E000000 		.4byte	0x3e
 3362 0c3b 04       		.byte	0x4
 3363 0c3c 00       		.byte	0
 3364 0c3d 03       		.uleb128 0x3
 3365 0c3e F5030000 		.4byte	.LASF211
 3366 0c42 0C       		.byte	0xc
 3367 0c43 F6       		.byte	0xf6
ARM GAS  C:\Users\Mahrukh\AppData\Local\Temp\ccJcQtli.s 			page 83


 3368 0c44 040C0000 		.4byte	0xc04
 3369 0c48 0E       		.uleb128 0xe
 3370 0c49 210B0000 		.4byte	.LASF212
 3371 0c4d 0C       		.byte	0xc
 3372 0c4e 1301     		.2byte	0x113
 3373 0c50 540C0000 		.4byte	0xc54
 3374 0c54 17       		.uleb128 0x17
 3375 0c55 94000000 		.4byte	0x94
 3376 0c59 680C0000 		.4byte	0xc68
 3377 0c5d 12       		.uleb128 0x12
 3378 0c5e B1090000 		.4byte	0x9b1
 3379 0c62 12       		.uleb128 0x12
 3380 0c63 94000000 		.4byte	0x94
 3381 0c67 00       		.byte	0
 3382 0c68 0E       		.uleb128 0xe
 3383 0c69 460E0000 		.4byte	.LASF213
 3384 0c6d 0C       		.byte	0xc
 3385 0c6e 1401     		.2byte	0x114
 3386 0c70 540C0000 		.4byte	0xc54
 3387 0c74 0E       		.uleb128 0xe
 3388 0c75 C4090000 		.4byte	.LASF214
 3389 0c79 0C       		.byte	0xc
 3390 0c7a 1501     		.2byte	0x115
 3391 0c7c 800C0000 		.4byte	0xc80
 3392 0c80 11       		.uleb128 0x11
 3393 0c81 900C0000 		.4byte	0xc90
 3394 0c85 12       		.uleb128 0x12
 3395 0c86 B1090000 		.4byte	0x9b1
 3396 0c8a 12       		.uleb128 0x12
 3397 0c8b 94000000 		.4byte	0x94
 3398 0c8f 00       		.byte	0
 3399 0c90 18       		.uleb128 0x18
 3400 0c91 0C       		.byte	0xc
 3401 0c92 0C       		.byte	0xc
 3402 0c93 1701     		.2byte	0x117
 3403 0c95 C10C0000 		.4byte	0xcc1
 3404 0c99 14       		.uleb128 0x14
 3405 0c9a AA060000 		.4byte	.LASF215
 3406 0c9e 0C       		.byte	0xc
 3407 0c9f 1801     		.2byte	0x118
 3408 0ca1 C10C0000 		.4byte	0xcc1
 3409 0ca5 00       		.byte	0
 3410 0ca6 14       		.uleb128 0x14
 3411 0ca7 570A0000 		.4byte	.LASF216
 3412 0cab 0C       		.byte	0xc
 3413 0cac 1901     		.2byte	0x119
 3414 0cae C70C0000 		.4byte	0xcc7
 3415 0cb2 04       		.byte	0x4
 3416 0cb3 14       		.uleb128 0x14
 3417 0cb4 ED0D0000 		.4byte	.LASF217
 3418 0cb8 0C       		.byte	0xc
 3419 0cb9 1A01     		.2byte	0x11a
 3420 0cbb CD0C0000 		.4byte	0xccd
 3421 0cbf 08       		.byte	0x8
 3422 0cc0 00       		.byte	0
 3423 0cc1 0F       		.uleb128 0xf
 3424 0cc2 04       		.byte	0x4
ARM GAS  C:\Users\Mahrukh\AppData\Local\Temp\ccJcQtli.s 			page 84


 3425 0cc3 480C0000 		.4byte	0xc48
 3426 0cc7 0F       		.uleb128 0xf
 3427 0cc8 04       		.byte	0x4
 3428 0cc9 680C0000 		.4byte	0xc68
 3429 0ccd 0F       		.uleb128 0xf
 3430 0cce 04       		.byte	0x4
 3431 0ccf 740C0000 		.4byte	0xc74
 3432 0cd3 0E       		.uleb128 0xe
 3433 0cd4 48000000 		.4byte	.LASF218
 3434 0cd8 0C       		.byte	0xc
 3435 0cd9 1B01     		.2byte	0x11b
 3436 0cdb 900C0000 		.4byte	0xc90
 3437 0cdf 0E       		.uleb128 0xe
 3438 0ce0 640C0000 		.4byte	.LASF219
 3439 0ce4 0C       		.byte	0xc
 3440 0ce5 2401     		.2byte	0x124
 3441 0ce7 EB0C0000 		.4byte	0xceb
 3442 0ceb 13       		.uleb128 0x13
 3443 0cec 640C0000 		.4byte	.LASF219
 3444 0cf0 24       		.byte	0x24
 3445 0cf1 0C       		.byte	0xc
 3446 0cf2 B101     		.2byte	0x1b1
 3447 0cf4 AD0D0000 		.4byte	0xdad
 3448 0cf8 14       		.uleb128 0x14
 3449 0cf9 3A060000 		.4byte	.LASF220
 3450 0cfd 0C       		.byte	0xc
 3451 0cfe B201     		.2byte	0x1b2
 3452 0d00 B80E0000 		.4byte	0xeb8
 3453 0d04 00       		.byte	0
 3454 0d05 14       		.uleb128 0x14
 3455 0d06 07010000 		.4byte	.LASF221
 3456 0d0a 0C       		.byte	0xc
 3457 0d0b B301     		.2byte	0x1b3
 3458 0d0d BE0E0000 		.4byte	0xebe
 3459 0d11 04       		.byte	0x4
 3460 0d12 14       		.uleb128 0x14
 3461 0d13 19090000 		.4byte	.LASF222
 3462 0d17 0C       		.byte	0xc
 3463 0d18 B401     		.2byte	0x1b4
 3464 0d1a C40E0000 		.4byte	0xec4
 3465 0d1e 08       		.byte	0x8
 3466 0d1f 14       		.uleb128 0x14
 3467 0d20 8D060000 		.4byte	.LASF223
 3468 0d24 0C       		.byte	0xc
 3469 0d25 B501     		.2byte	0x1b5
 3470 0d27 CA0E0000 		.4byte	0xeca
 3471 0d2b 0C       		.byte	0xc
 3472 0d2c 14       		.uleb128 0x14
 3473 0d2d 6E060000 		.4byte	.LASF224
 3474 0d31 0C       		.byte	0xc
 3475 0d32 B601     		.2byte	0x1b6
 3476 0d34 D00E0000 		.4byte	0xed0
 3477 0d38 10       		.byte	0x10
 3478 0d39 14       		.uleb128 0x14
 3479 0d3a 8A090000 		.4byte	.LASF225
 3480 0d3e 0C       		.byte	0xc
 3481 0d3f B701     		.2byte	0x1b7
ARM GAS  C:\Users\Mahrukh\AppData\Local\Temp\ccJcQtli.s 			page 85


 3482 0d41 D60E0000 		.4byte	0xed6
 3483 0d45 14       		.byte	0x14
 3484 0d46 14       		.uleb128 0x14
 3485 0d47 790A0000 		.4byte	.LASF194
 3486 0d4b 0C       		.byte	0xc
 3487 0d4c B801     		.2byte	0x1b8
 3488 0d4e 3E000000 		.4byte	0x3e
 3489 0d52 18       		.byte	0x18
 3490 0d53 14       		.uleb128 0x14
 3491 0d54 60080000 		.4byte	.LASF226
 3492 0d58 0C       		.byte	0xc
 3493 0d59 B901     		.2byte	0x1b9
 3494 0d5b 3E000000 		.4byte	0x3e
 3495 0d5f 19       		.byte	0x19
 3496 0d60 14       		.uleb128 0x14
 3497 0d61 5F060000 		.4byte	.LASF227
 3498 0d65 0C       		.byte	0xc
 3499 0d66 BA01     		.2byte	0x1ba
 3500 0d68 3E000000 		.4byte	0x3e
 3501 0d6c 1A       		.byte	0x1a
 3502 0d6d 14       		.uleb128 0x14
 3503 0d6e C8100000 		.4byte	.LASF228
 3504 0d72 0C       		.byte	0xc
 3505 0d73 BB01     		.2byte	0x1bb
 3506 0d75 3E000000 		.4byte	0x3e
 3507 0d79 1B       		.byte	0x1b
 3508 0d7a 19       		.uleb128 0x19
 3509 0d7b 7000     		.ascii	"p\000"
 3510 0d7d 0C       		.byte	0xc
 3511 0d7e C101     		.2byte	0x1c1
 3512 0d80 5D0E0000 		.4byte	0xe5d
 3513 0d84 1C       		.byte	0x1c
 3514 0d85 14       		.uleb128 0x14
 3515 0d86 AE050000 		.4byte	.LASF208
 3516 0d8a 0C       		.byte	0xc
 3517 0d8b C201     		.2byte	0x1c2
 3518 0d8d 3E000000 		.4byte	0x3e
 3519 0d91 20       		.byte	0x20
 3520 0d92 14       		.uleb128 0x14
 3521 0d93 D60B0000 		.4byte	.LASF209
 3522 0d97 0C       		.byte	0xc
 3523 0d98 C301     		.2byte	0x1c3
 3524 0d9a 3E000000 		.4byte	0x3e
 3525 0d9e 21       		.byte	0x21
 3526 0d9f 14       		.uleb128 0x14
 3527 0da0 7F0A0000 		.4byte	.LASF210
 3528 0da4 0C       		.byte	0xc
 3529 0da5 C401     		.2byte	0x1c4
 3530 0da7 3E000000 		.4byte	0x3e
 3531 0dab 22       		.byte	0x22
 3532 0dac 00       		.byte	0
 3533 0dad 0E       		.uleb128 0xe
 3534 0dae F9060000 		.4byte	.LASF229
 3535 0db2 0C       		.byte	0xc
 3536 0db3 2601     		.2byte	0x126
 3537 0db5 B90D0000 		.4byte	0xdb9
 3538 0db9 11       		.uleb128 0x11
ARM GAS  C:\Users\Mahrukh\AppData\Local\Temp\ccJcQtli.s 			page 86


 3539 0dba C40D0000 		.4byte	0xdc4
 3540 0dbe 12       		.uleb128 0x12
 3541 0dbf 5B000000 		.4byte	0x5b
 3542 0dc3 00       		.byte	0
 3543 0dc4 0E       		.uleb128 0xe
 3544 0dc5 7C010000 		.4byte	.LASF230
 3545 0dc9 0C       		.byte	0xc
 3546 0dca 2701     		.2byte	0x127
 3547 0dcc D00D0000 		.4byte	0xdd0
 3548 0dd0 17       		.uleb128 0x17
 3549 0dd1 94000000 		.4byte	0x94
 3550 0dd5 E40D0000 		.4byte	0xde4
 3551 0dd9 12       		.uleb128 0x12
 3552 0dda 5B000000 		.4byte	0x5b
 3553 0dde 12       		.uleb128 0x12
 3554 0ddf E40D0000 		.4byte	0xde4
 3555 0de3 00       		.byte	0
 3556 0de4 0F       		.uleb128 0xf
 3557 0de5 04       		.byte	0x4
 3558 0de6 94000000 		.4byte	0x94
 3559 0dea 0E       		.uleb128 0xe
 3560 0deb 25060000 		.4byte	.LASF231
 3561 0def 0C       		.byte	0xc
 3562 0df0 2801     		.2byte	0x128
 3563 0df2 F60D0000 		.4byte	0xdf6
 3564 0df6 11       		.uleb128 0x11
 3565 0df7 060E0000 		.4byte	0xe06
 3566 0dfb 12       		.uleb128 0x12
 3567 0dfc 060E0000 		.4byte	0xe06
 3568 0e00 12       		.uleb128 0x12
 3569 0e01 110E0000 		.4byte	0xe11
 3570 0e05 00       		.byte	0
 3571 0e06 0F       		.uleb128 0xf
 3572 0e07 04       		.byte	0x4
 3573 0e08 0C0E0000 		.4byte	0xe0c
 3574 0e0c 06       		.uleb128 0x6
 3575 0e0d DF0C0000 		.4byte	0xcdf
 3576 0e11 0F       		.uleb128 0xf
 3577 0e12 04       		.byte	0x4
 3578 0e13 3D0C0000 		.4byte	0xc3d
 3579 0e17 0E       		.uleb128 0xe
 3580 0e18 5D110000 		.4byte	.LASF232
 3581 0e1c 0C       		.byte	0xc
 3582 0e1d 2901     		.2byte	0x129
 3583 0e1f 230E0000 		.4byte	0xe23
 3584 0e23 17       		.uleb128 0x17
 3585 0e24 E5060000 		.4byte	0x6e5
 3586 0e28 370E0000 		.4byte	0xe37
 3587 0e2c 12       		.uleb128 0x12
 3588 0e2d 060E0000 		.4byte	0xe06
 3589 0e31 12       		.uleb128 0x12
 3590 0e32 5B000000 		.4byte	0x5b
 3591 0e36 00       		.byte	0
 3592 0e37 0E       		.uleb128 0xe
 3593 0e38 970A0000 		.4byte	.LASF233
 3594 0e3c 0C       		.byte	0xc
 3595 0e3d 2A01     		.2byte	0x12a
ARM GAS  C:\Users\Mahrukh\AppData\Local\Temp\ccJcQtli.s 			page 87


 3596 0e3f 430E0000 		.4byte	0xe43
 3597 0e43 17       		.uleb128 0x17
 3598 0e44 94000000 		.4byte	0x94
 3599 0e48 570E0000 		.4byte	0xe57
 3600 0e4c 12       		.uleb128 0x12
 3601 0e4d 5B000000 		.4byte	0x5b
 3602 0e51 12       		.uleb128 0x12
 3603 0e52 570E0000 		.4byte	0xe57
 3604 0e56 00       		.byte	0
 3605 0e57 0F       		.uleb128 0xf
 3606 0e58 04       		.byte	0x4
 3607 0e59 BE0A0000 		.4byte	0xabe
 3608 0e5d 1A       		.uleb128 0x1a
 3609 0e5e 04       		.byte	0x4
 3610 0e5f 0C       		.byte	0xc
 3611 0e60 BC01     		.2byte	0x1bc
 3612 0e62 970E0000 		.4byte	0xe97
 3613 0e66 1B       		.uleb128 0x1b
 3614 0e67 DE010000 		.4byte	.LASF234
 3615 0e6b 0C       		.byte	0xc
 3616 0e6c BD01     		.2byte	0x1bd
 3617 0e6e 9F090000 		.4byte	0x99f
 3618 0e72 1B       		.uleb128 0x1b
 3619 0e73 D80C0000 		.4byte	.LASF235
 3620 0e77 0C       		.byte	0xc
 3621 0e78 BE01     		.2byte	0x1be
 3622 0e7a 970E0000 		.4byte	0xe97
 3623 0e7e 1B       		.uleb128 0x1b
 3624 0e7f 7F0C0000 		.4byte	.LASF236
 3625 0e83 0C       		.byte	0xc
 3626 0e84 BF01     		.2byte	0x1bf
 3627 0e86 A20E0000 		.4byte	0xea2
 3628 0e8a 1B       		.uleb128 0x1b
 3629 0e8b F3110000 		.4byte	.LASF237
 3630 0e8f 0C       		.byte	0xc
 3631 0e90 C001     		.2byte	0x1c0
 3632 0e92 AD0E0000 		.4byte	0xead
 3633 0e96 00       		.byte	0
 3634 0e97 0F       		.uleb128 0xf
 3635 0e98 04       		.byte	0x4
 3636 0e99 9D0E0000 		.4byte	0xe9d
 3637 0e9d 06       		.uleb128 0x6
 3638 0e9e F90B0000 		.4byte	0xbf9
 3639 0ea2 0F       		.uleb128 0xf
 3640 0ea3 04       		.byte	0x4
 3641 0ea4 A80E0000 		.4byte	0xea8
 3642 0ea8 06       		.uleb128 0x6
 3643 0ea9 1C0B0000 		.4byte	0xb1c
 3644 0ead 0F       		.uleb128 0xf
 3645 0eae 04       		.byte	0x4
 3646 0eaf B30E0000 		.4byte	0xeb3
 3647 0eb3 06       		.uleb128 0x6
 3648 0eb4 7A0B0000 		.4byte	0xb7a
 3649 0eb8 0F       		.uleb128 0xf
 3650 0eb9 04       		.byte	0x4
 3651 0eba AD0D0000 		.4byte	0xdad
 3652 0ebe 0F       		.uleb128 0xf
ARM GAS  C:\Users\Mahrukh\AppData\Local\Temp\ccJcQtli.s 			page 88


 3653 0ebf 04       		.byte	0x4
 3654 0ec0 C40D0000 		.4byte	0xdc4
 3655 0ec4 0F       		.uleb128 0xf
 3656 0ec5 04       		.byte	0x4
 3657 0ec6 EA0D0000 		.4byte	0xdea
 3658 0eca 0F       		.uleb128 0xf
 3659 0ecb 04       		.byte	0x4
 3660 0ecc 170E0000 		.4byte	0xe17
 3661 0ed0 0F       		.uleb128 0xf
 3662 0ed1 04       		.byte	0x4
 3663 0ed2 370E0000 		.4byte	0xe37
 3664 0ed6 0F       		.uleb128 0xf
 3665 0ed7 04       		.byte	0x4
 3666 0ed8 DC0E0000 		.4byte	0xedc
 3667 0edc 06       		.uleb128 0x6
 3668 0edd D30C0000 		.4byte	0xcd3
 3669 0ee1 03       		.uleb128 0x3
 3670 0ee2 B50A0000 		.4byte	.LASF238
 3671 0ee6 0D       		.byte	0xd
 3672 0ee7 35       		.byte	0x35
 3673 0ee8 3E000000 		.4byte	0x3e
 3674 0eec 03       		.uleb128 0x3
 3675 0eed 0F110000 		.4byte	.LASF239
 3676 0ef1 0E       		.byte	0xe
 3677 0ef2 69       		.byte	0x69
 3678 0ef3 E10E0000 		.4byte	0xee1
 3679 0ef7 1C       		.uleb128 0x1c
 3680 0ef8 01       		.byte	0x1
 3681 0ef9 3E000000 		.4byte	0x3e
 3682 0efd 0E       		.byte	0xe
 3683 0efe 6E       		.byte	0x6e
 3684 0eff 160F0000 		.4byte	0xf16
 3685 0f03 1D       		.uleb128 0x1d
 3686 0f04 CA0A0000 		.4byte	.LASF240
 3687 0f08 00       		.byte	0
 3688 0f09 1D       		.uleb128 0x1d
 3689 0f0a F3010000 		.4byte	.LASF241
 3690 0f0e 01       		.byte	0x1
 3691 0f0f 1D       		.uleb128 0x1d
 3692 0f10 E0080000 		.4byte	.LASF242
 3693 0f14 02       		.byte	0x2
 3694 0f15 00       		.byte	0
 3695 0f16 03       		.uleb128 0x3
 3696 0f17 86020000 		.4byte	.LASF243
 3697 0f1b 0E       		.byte	0xe
 3698 0f1c 72       		.byte	0x72
 3699 0f1d F70E0000 		.4byte	0xef7
 3700 0f21 03       		.uleb128 0x3
 3701 0f22 EA0A0000 		.4byte	.LASF244
 3702 0f26 0F       		.byte	0xf
 3703 0f27 3F       		.byte	0x3f
 3704 0f28 CE000000 		.4byte	0xce
 3705 0f2c 1C       		.uleb128 0x1c
 3706 0f2d 01       		.byte	0x1
 3707 0f2e 3E000000 		.4byte	0x3e
 3708 0f32 10       		.byte	0x10
 3709 0f33 1A       		.byte	0x1a
ARM GAS  C:\Users\Mahrukh\AppData\Local\Temp\ccJcQtli.s 			page 89


 3710 0f34 630F0000 		.4byte	0xf63
 3711 0f38 1D       		.uleb128 0x1d
 3712 0f39 C6050000 		.4byte	.LASF245
 3713 0f3d 00       		.byte	0
 3714 0f3e 1D       		.uleb128 0x1d
 3715 0f3f DA0A0000 		.4byte	.LASF246
 3716 0f43 01       		.byte	0x1
 3717 0f44 1D       		.uleb128 0x1d
 3718 0f45 5D040000 		.4byte	.LASF247
 3719 0f49 02       		.byte	0x2
 3720 0f4a 1D       		.uleb128 0x1d
 3721 0f4b 6E040000 		.4byte	.LASF248
 3722 0f4f 03       		.byte	0x3
 3723 0f50 1D       		.uleb128 0x1d
 3724 0f51 F50F0000 		.4byte	.LASF249
 3725 0f55 04       		.byte	0x4
 3726 0f56 1D       		.uleb128 0x1d
 3727 0f57 C4110000 		.4byte	.LASF250
 3728 0f5b 05       		.byte	0x5
 3729 0f5c 1D       		.uleb128 0x1d
 3730 0f5d 60090000 		.4byte	.LASF251
 3731 0f61 06       		.byte	0x6
 3732 0f62 00       		.byte	0
 3733 0f63 03       		.uleb128 0x3
 3734 0f64 CF0C0000 		.4byte	.LASF252
 3735 0f68 10       		.byte	0x10
 3736 0f69 22       		.byte	0x22
 3737 0f6a 2C0F0000 		.4byte	0xf2c
 3738 0f6e 09       		.uleb128 0x9
 3739 0f6f 06       		.byte	0x6
 3740 0f70 10       		.byte	0x10
 3741 0f71 24       		.byte	0x24
 3742 0f72 BF0F0000 		.4byte	0xfbf
 3743 0f76 0B       		.uleb128 0xb
 3744 0f77 C1030000 		.4byte	.LASF253
 3745 0f7b 10       		.byte	0x10
 3746 0f7c 26       		.byte	0x26
 3747 0f7d 630F0000 		.4byte	0xf63
 3748 0f81 00       		.byte	0
 3749 0f82 0B       		.uleb128 0xb
 3750 0f83 F20B0000 		.4byte	.LASF254
 3751 0f87 10       		.byte	0x10
 3752 0f88 27       		.byte	0x27
 3753 0f89 A2000000 		.4byte	0xa2
 3754 0f8d 01       		.byte	0x1
 3755 0f8e 0B       		.uleb128 0xb
 3756 0f8f 24100000 		.4byte	.LASF255
 3757 0f93 10       		.byte	0x10
 3758 0f94 28       		.byte	0x28
 3759 0f95 A2000000 		.4byte	0xa2
 3760 0f99 02       		.byte	0x2
 3761 0f9a 0B       		.uleb128 0xb
 3762 0f9b 2A100000 		.4byte	.LASF256
 3763 0f9f 10       		.byte	0x10
 3764 0fa0 29       		.byte	0x29
 3765 0fa1 A2000000 		.4byte	0xa2
 3766 0fa5 03       		.byte	0x3
ARM GAS  C:\Users\Mahrukh\AppData\Local\Temp\ccJcQtli.s 			page 90


 3767 0fa6 0B       		.uleb128 0xb
 3768 0fa7 380D0000 		.4byte	.LASF257
 3769 0fab 10       		.byte	0x10
 3770 0fac 2A       		.byte	0x2a
 3771 0fad A2000000 		.4byte	0xa2
 3772 0fb1 04       		.byte	0x4
 3773 0fb2 0B       		.uleb128 0xb
 3774 0fb3 AF080000 		.4byte	.LASF258
 3775 0fb7 10       		.byte	0x10
 3776 0fb8 2B       		.byte	0x2b
 3777 0fb9 A2000000 		.4byte	0xa2
 3778 0fbd 05       		.byte	0x5
 3779 0fbe 00       		.byte	0
 3780 0fbf 03       		.uleb128 0x3
 3781 0fc0 C1030000 		.4byte	.LASF253
 3782 0fc4 10       		.byte	0x10
 3783 0fc5 2C       		.byte	0x2c
 3784 0fc6 6E0F0000 		.4byte	0xf6e
 3785 0fca 1E       		.uleb128 0x1e
 3786 0fcb 35050000 		.4byte	.LASF339
 3787 0fcf 02       		.byte	0x2
 3788 0fd0 2503     		.2byte	0x325
 3789 0fd2 03       		.byte	0x3
 3790 0fd3 FC0F0000 		.4byte	0xffc
 3791 0fd7 1F       		.uleb128 0x1f
 3792 0fd8 9F040000 		.4byte	.LASF259
 3793 0fdc 02       		.byte	0x2
 3794 0fdd 2503     		.2byte	0x325
 3795 0fdf 99090000 		.4byte	0x999
 3796 0fe3 1F       		.uleb128 0x1f
 3797 0fe4 49100000 		.4byte	.LASF260
 3798 0fe8 02       		.byte	0x2
 3799 0fe9 2503     		.2byte	0x325
 3800 0feb CE000000 		.4byte	0xce
 3801 0fef 1F       		.uleb128 0x1f
 3802 0ff0 D5050000 		.4byte	.LASF261
 3803 0ff4 02       		.byte	0x2
 3804 0ff5 2503     		.2byte	0x325
 3805 0ff7 CE000000 		.4byte	0xce
 3806 0ffb 00       		.byte	0
 3807 0ffc 20       		.uleb128 0x20
 3808 0ffd 230D0000 		.4byte	.LASF267
 3809 1001 01       		.byte	0x1
 3810 1002 19       		.byte	0x19
 3811 1003 00000000 		.4byte	.LFB604
 3812 1007 2C000000 		.4byte	.LFE604-.LFB604
 3813 100b 01       		.uleb128 0x1
 3814 100c 9C       		.byte	0x9c
 3815 100d 8B100000 		.4byte	0x108b
 3816 1011 21       		.uleb128 0x21
 3817 1012 E00D0000 		.4byte	.LASF262
 3818 1016 01       		.byte	0x1
 3819 1017 19       		.byte	0x19
 3820 1018 160F0000 		.4byte	0xf16
 3821 101c 00000000 		.4byte	.LLST0
 3822 1020 21       		.uleb128 0x21
 3823 1021 71010000 		.4byte	.LASF263
ARM GAS  C:\Users\Mahrukh\AppData\Local\Temp\ccJcQtli.s 			page 91


 3824 1025 01       		.byte	0x1
 3825 1026 19       		.byte	0x19
 3826 1027 0E070000 		.4byte	0x70e
 3827 102b 21000000 		.4byte	.LLST1
 3828 102f 22       		.uleb128 0x22
 3829 1030 7F050000 		.4byte	.LASF264
 3830 1034 01       		.byte	0x1
 3831 1035 1B       		.byte	0x1b
 3832 1036 8B100000 		.4byte	0x108b
 3833 103a 42000000 		.4byte	.LLST2
 3834 103e 23       		.uleb128 0x23
 3835 103f 0A000000 		.4byte	.LVL1
 3836 1043 4C220000 		.4byte	0x224c
 3837 1047 24       		.uleb128 0x24
 3838 1048 1A000000 		.4byte	.LVL4
 3839 104c 57220000 		.4byte	0x2257
 3840 1050 6D100000 		.4byte	0x106d
 3841 1054 25       		.uleb128 0x25
 3842 1055 01       		.uleb128 0x1
 3843 1056 50       		.byte	0x50
 3844 1057 02       		.uleb128 0x2
 3845 1058 74       		.byte	0x74
 3846 1059 00       		.sleb128 0
 3847 105a 25       		.uleb128 0x25
 3848 105b 01       		.uleb128 0x1
 3849 105c 51       		.byte	0x51
 3850 105d 02       		.uleb128 0x2
 3851 105e 75       		.byte	0x75
 3852 105f 00       		.sleb128 0
 3853 1060 25       		.uleb128 0x25
 3854 1061 01       		.uleb128 0x1
 3855 1062 52       		.byte	0x52
 3856 1063 02       		.uleb128 0x2
 3857 1064 76       		.byte	0x76
 3858 1065 00       		.sleb128 0
 3859 1066 25       		.uleb128 0x25
 3860 1067 01       		.uleb128 0x1
 3861 1068 53       		.byte	0x53
 3862 1069 02       		.uleb128 0x2
 3863 106a 77       		.byte	0x77
 3864 106b 00       		.sleb128 0
 3865 106c 00       		.byte	0
 3866 106d 26       		.uleb128 0x26
 3867 106e 26000000 		.4byte	.LVL5
 3868 1072 62220000 		.4byte	0x2262
 3869 1076 25       		.uleb128 0x25
 3870 1077 01       		.uleb128 0x1
 3871 1078 50       		.byte	0x50
 3872 1079 02       		.uleb128 0x2
 3873 107a 74       		.byte	0x74
 3874 107b 00       		.sleb128 0
 3875 107c 25       		.uleb128 0x25
 3876 107d 01       		.uleb128 0x1
 3877 107e 51       		.byte	0x51
 3878 107f 02       		.uleb128 0x2
 3879 1080 75       		.byte	0x75
 3880 1081 00       		.sleb128 0
ARM GAS  C:\Users\Mahrukh\AppData\Local\Temp\ccJcQtli.s 			page 92


 3881 1082 25       		.uleb128 0x25
 3882 1083 01       		.uleb128 0x1
 3883 1084 52       		.byte	0x52
 3884 1085 03       		.uleb128 0x3
 3885 1086 0A       		.byte	0xa
 3886 1087 B016     		.2byte	0x16b0
 3887 1089 00       		.byte	0
 3888 108a 00       		.byte	0
 3889 108b 0F       		.uleb128 0xf
 3890 108c 04       		.byte	0x4
 3891 108d EC0E0000 		.4byte	0xeec
 3892 1091 27       		.uleb128 0x27
 3893 1092 A5020000 		.4byte	.LASF265
 3894 1096 01       		.byte	0x1
 3895 1097 25       		.byte	0x25
 3896 1098 CE000000 		.4byte	0xce
 3897 109c 00000000 		.4byte	.LFB605
 3898 10a0 20000000 		.4byte	.LFE605-.LFB605
 3899 10a4 01       		.uleb128 0x1
 3900 10a5 9C       		.byte	0x9c
 3901 10a6 DF100000 		.4byte	0x10df
 3902 10aa 28       		.uleb128 0x28
 3903 10ab 61727200 		.ascii	"arr\000"
 3904 10af 01       		.byte	0x1
 3905 10b0 25       		.byte	0x25
 3906 10b1 06070000 		.4byte	0x706
 3907 10b5 6B000000 		.4byte	.LLST3
 3908 10b9 29       		.uleb128 0x29
 3909 10ba 6E00     		.ascii	"n\000"
 3910 10bc 01       		.byte	0x1
 3911 10bd 25       		.byte	0x25
 3912 10be 94000000 		.4byte	0x94
 3913 10c2 01       		.uleb128 0x1
 3914 10c3 51       		.byte	0x51
 3915 10c4 2A       		.uleb128 0x2a
 3916 10c5 6900     		.ascii	"i\000"
 3917 10c7 01       		.byte	0x1
 3918 10c8 26       		.byte	0x26
 3919 10c9 94000000 		.4byte	0x94
 3920 10cd 97000000 		.4byte	.LLST4
 3921 10d1 2B       		.uleb128 0x2b
 3922 10d2 6D617800 		.ascii	"max\000"
 3923 10d6 01       		.byte	0x1
 3924 10d7 28       		.byte	0x28
 3925 10d8 CE000000 		.4byte	0xce
 3926 10dc 01       		.uleb128 0x1
 3927 10dd 50       		.byte	0x50
 3928 10de 00       		.byte	0
 3929 10df 27       		.uleb128 0x27
 3930 10e0 64060000 		.4byte	.LASF266
 3931 10e4 01       		.byte	0x1
 3932 10e5 31       		.byte	0x31
 3933 10e6 CE000000 		.4byte	0xce
 3934 10ea 00000000 		.4byte	.LFB606
 3935 10ee 20000000 		.4byte	.LFE606-.LFB606
 3936 10f2 01       		.uleb128 0x1
 3937 10f3 9C       		.byte	0x9c
ARM GAS  C:\Users\Mahrukh\AppData\Local\Temp\ccJcQtli.s 			page 93


 3938 10f4 2D110000 		.4byte	0x112d
 3939 10f8 28       		.uleb128 0x28
 3940 10f9 61727200 		.ascii	"arr\000"
 3941 10fd 01       		.byte	0x1
 3942 10fe 31       		.byte	0x31
 3943 10ff 06070000 		.4byte	0x706
 3944 1103 B6000000 		.4byte	.LLST5
 3945 1107 29       		.uleb128 0x29
 3946 1108 6E00     		.ascii	"n\000"
 3947 110a 01       		.byte	0x1
 3948 110b 31       		.byte	0x31
 3949 110c 94000000 		.4byte	0x94
 3950 1110 01       		.uleb128 0x1
 3951 1111 51       		.byte	0x51
 3952 1112 2A       		.uleb128 0x2a
 3953 1113 6900     		.ascii	"i\000"
 3954 1115 01       		.byte	0x1
 3955 1116 33       		.byte	0x33
 3956 1117 94000000 		.4byte	0x94
 3957 111b E2000000 		.4byte	.LLST6
 3958 111f 2B       		.uleb128 0x2b
 3959 1120 6D696E00 		.ascii	"min\000"
 3960 1124 01       		.byte	0x1
 3961 1125 35       		.byte	0x35
 3962 1126 CE000000 		.4byte	0xce
 3963 112a 01       		.uleb128 0x1
 3964 112b 50       		.byte	0x50
 3965 112c 00       		.byte	0
 3966 112d 20       		.uleb128 0x20
 3967 112e 43050000 		.4byte	.LASF268
 3968 1132 01       		.byte	0x1
 3969 1133 42       		.byte	0x42
 3970 1134 00000000 		.4byte	.LFB607
 3971 1138 10010000 		.4byte	.LFE607-.LFB607
 3972 113c 01       		.uleb128 0x1
 3973 113d 9C       		.byte	0x9c
 3974 113e 34130000 		.4byte	0x1334
 3975 1142 21       		.uleb128 0x21
 3976 1143 C6060000 		.4byte	.LASF269
 3977 1147 01       		.byte	0x1
 3978 1148 42       		.byte	0x42
 3979 1149 06070000 		.4byte	0x706
 3980 114d 01010000 		.4byte	.LLST7
 3981 1151 21       		.uleb128 0x21
 3982 1152 A3110000 		.4byte	.LASF270
 3983 1156 01       		.byte	0x1
 3984 1157 42       		.byte	0x42
 3985 1158 A2000000 		.4byte	0xa2
 3986 115c 2D010000 		.4byte	.LLST8
 3987 1160 21       		.uleb128 0x21
 3988 1161 23040000 		.4byte	.LASF271
 3989 1165 01       		.byte	0x1
 3990 1166 42       		.byte	0x42
 3991 1167 94000000 		.4byte	0x94
 3992 116b 4E010000 		.4byte	.LLST9
 3993 116f 22       		.uleb128 0x22
 3994 1170 6C0E0000 		.4byte	.LASF272
ARM GAS  C:\Users\Mahrukh\AppData\Local\Temp\ccJcQtli.s 			page 94


 3995 1174 01       		.byte	0x1
 3996 1175 4B       		.byte	0x4b
 3997 1176 CE000000 		.4byte	0xce
 3998 117a 7A010000 		.4byte	.LLST10
 3999 117e 22       		.uleb128 0x22
 4000 117f 16010000 		.4byte	.LASF273
 4001 1183 01       		.byte	0x1
 4002 1184 4C       		.byte	0x4c
 4003 1185 CE000000 		.4byte	0xce
 4004 1189 99010000 		.4byte	.LLST11
 4005 118d 2A       		.uleb128 0x2a
 4006 118e 6100     		.ascii	"a\000"
 4007 1190 01       		.byte	0x1
 4008 1191 58       		.byte	0x58
 4009 1192 94000000 		.4byte	0x94
 4010 1196 B8010000 		.4byte	.LLST12
 4011 119a 2C       		.uleb128 0x2c
 4012 119b 30000000 		.4byte	.LBB14
 4013 119f 30000000 		.4byte	.LBE14-.LBB14
 4014 11a3 B5110000 		.4byte	0x11b5
 4015 11a7 2A       		.uleb128 0x2a
 4016 11a8 7900     		.ascii	"y\000"
 4017 11aa 01       		.byte	0x1
 4018 11ab 53       		.byte	0x53
 4019 11ac 94000000 		.4byte	0x94
 4020 11b0 CB010000 		.4byte	.LLST13
 4021 11b4 00       		.byte	0
 4022 11b5 2C       		.uleb128 0x2c
 4023 11b6 60000000 		.4byte	.LBB15
 4024 11ba 14000000 		.4byte	.LBE15-.LBB15
 4025 11be D0110000 		.4byte	0x11d0
 4026 11c2 2A       		.uleb128 0x2a
 4027 11c3 6200     		.ascii	"b\000"
 4028 11c5 01       		.byte	0x1
 4029 11c6 59       		.byte	0x59
 4030 11c7 94000000 		.4byte	0x94
 4031 11cb EA010000 		.4byte	.LLST14
 4032 11cf 00       		.byte	0
 4033 11d0 24       		.uleb128 0x24
 4034 11d1 10000000 		.4byte	.LVL21
 4035 11d5 6B220000 		.4byte	0x226b
 4036 11d9 E3110000 		.4byte	0x11e3
 4037 11dd 25       		.uleb128 0x25
 4038 11de 01       		.uleb128 0x1
 4039 11df 50       		.byte	0x50
 4040 11e0 01       		.uleb128 0x1
 4041 11e1 31       		.byte	0x31
 4042 11e2 00       		.byte	0
 4043 11e3 24       		.uleb128 0x24
 4044 11e4 18000000 		.4byte	.LVL22
 4045 11e8 91100000 		.4byte	0x1091
 4046 11ec FD110000 		.4byte	0x11fd
 4047 11f0 25       		.uleb128 0x25
 4048 11f1 01       		.uleb128 0x1
 4049 11f2 50       		.byte	0x50
 4050 11f3 02       		.uleb128 0x2
 4051 11f4 76       		.byte	0x76
ARM GAS  C:\Users\Mahrukh\AppData\Local\Temp\ccJcQtli.s 			page 95


 4052 11f5 00       		.sleb128 0
 4053 11f6 25       		.uleb128 0x25
 4054 11f7 01       		.uleb128 0x1
 4055 11f8 51       		.byte	0x51
 4056 11f9 02       		.uleb128 0x2
 4057 11fa 74       		.byte	0x74
 4058 11fb 00       		.sleb128 0
 4059 11fc 00       		.byte	0
 4060 11fd 24       		.uleb128 0x24
 4061 11fe 2A000000 		.4byte	.LVL24
 4062 1202 DF100000 		.4byte	0x10df
 4063 1206 17120000 		.4byte	0x1217
 4064 120a 25       		.uleb128 0x25
 4065 120b 01       		.uleb128 0x1
 4066 120c 50       		.byte	0x50
 4067 120d 02       		.uleb128 0x2
 4068 120e 76       		.byte	0x76
 4069 120f 00       		.sleb128 0
 4070 1210 25       		.uleb128 0x25
 4071 1211 01       		.uleb128 0x1
 4072 1212 51       		.byte	0x51
 4073 1213 02       		.uleb128 0x2
 4074 1214 74       		.byte	0x74
 4075 1215 00       		.sleb128 0
 4076 1216 00       		.byte	0
 4077 1217 24       		.uleb128 0x24
 4078 1218 80000000 		.4byte	.LVL33
 4079 121c 77220000 		.4byte	0x2277
 4080 1220 3E120000 		.4byte	0x123e
 4081 1224 25       		.uleb128 0x25
 4082 1225 01       		.uleb128 0x1
 4083 1226 50       		.byte	0x50
 4084 1227 05       		.uleb128 0x5
 4085 1228 03       		.byte	0x3
 4086 1229 00000000 		.4byte	vecteurespacee
 4087 122d 25       		.uleb128 0x25
 4088 122e 01       		.uleb128 0x1
 4089 122f 51       		.byte	0x51
 4090 1230 02       		.uleb128 0x2
 4091 1231 08       		.byte	0x8
 4092 1232 FA       		.byte	0xfa
 4093 1233 25       		.uleb128 0x25
 4094 1234 01       		.uleb128 0x1
 4095 1235 52       		.byte	0x52
 4096 1236 01       		.uleb128 0x1
 4097 1237 35       		.byte	0x35
 4098 1238 25       		.uleb128 0x25
 4099 1239 01       		.uleb128 0x1
 4100 123a 53       		.byte	0x53
 4101 123b 01       		.uleb128 0x1
 4102 123c 31       		.byte	0x31
 4103 123d 00       		.byte	0
 4104 123e 24       		.uleb128 0x24
 4105 123f 8E000000 		.4byte	.LVL34
 4106 1243 83220000 		.4byte	0x2283
 4107 1247 63120000 		.4byte	0x1263
 4108 124b 25       		.uleb128 0x25
ARM GAS  C:\Users\Mahrukh\AppData\Local\Temp\ccJcQtli.s 			page 96


 4109 124c 01       		.uleb128 0x1
 4110 124d 50       		.byte	0x50
 4111 124e 01       		.uleb128 0x1
 4112 124f 31       		.byte	0x31
 4113 1250 25       		.uleb128 0x25
 4114 1251 01       		.uleb128 0x1
 4115 1252 51       		.byte	0x51
 4116 1253 01       		.uleb128 0x1
 4117 1254 31       		.byte	0x31
 4118 1255 25       		.uleb128 0x25
 4119 1256 01       		.uleb128 0x1
 4120 1257 52       		.byte	0x52
 4121 1258 03       		.uleb128 0x3
 4122 1259 0A       		.byte	0xa
 4123 125a 0701     		.2byte	0x107
 4124 125c 25       		.uleb128 0x25
 4125 125d 01       		.uleb128 0x1
 4126 125e 53       		.byte	0x53
 4127 125f 02       		.uleb128 0x2
 4128 1260 08       		.byte	0x8
 4129 1261 7D       		.byte	0x7d
 4130 1262 00       		.byte	0
 4131 1263 24       		.uleb128 0x24
 4132 1264 9C000000 		.4byte	.LVL35
 4133 1268 83220000 		.4byte	0x2283
 4134 126c 8A120000 		.4byte	0x128a
 4135 1270 25       		.uleb128 0x25
 4136 1271 01       		.uleb128 0x1
 4137 1272 50       		.byte	0x50
 4138 1273 02       		.uleb128 0x2
 4139 1274 08       		.byte	0x8
 4140 1275 99       		.byte	0x99
 4141 1276 25       		.uleb128 0x25
 4142 1277 01       		.uleb128 0x1
 4143 1278 51       		.byte	0x51
 4144 1279 02       		.uleb128 0x2
 4145 127a 08       		.byte	0x8
 4146 127b 81       		.byte	0x81
 4147 127c 25       		.uleb128 0x25
 4148 127d 01       		.uleb128 0x1
 4149 127e 52       		.byte	0x52
 4150 127f 03       		.uleb128 0x3
 4151 1280 0A       		.byte	0xa
 4152 1281 0701     		.2byte	0x107
 4153 1283 25       		.uleb128 0x25
 4154 1284 01       		.uleb128 0x1
 4155 1285 53       		.byte	0x53
 4156 1286 02       		.uleb128 0x2
 4157 1287 08       		.byte	0x8
 4158 1288 AF       		.byte	0xaf
 4159 1289 00       		.byte	0
 4160 128a 24       		.uleb128 0x24
 4161 128b A6000000 		.4byte	.LVL36
 4162 128f 8F220000 		.4byte	0x228f
 4163 1293 AD120000 		.4byte	0x12ad
 4164 1297 25       		.uleb128 0x25
 4165 1298 01       		.uleb128 0x1
ARM GAS  C:\Users\Mahrukh\AppData\Local\Temp\ccJcQtli.s 			page 97


 4166 1299 50       		.byte	0x50
 4167 129a 05       		.uleb128 0x5
 4168 129b 03       		.byte	0x3
 4169 129c 00000000 		.4byte	.LC0
 4170 12a0 25       		.uleb128 0x25
 4171 12a1 01       		.uleb128 0x1
 4172 12a2 51       		.byte	0x51
 4173 12a3 02       		.uleb128 0x2
 4174 12a4 08       		.byte	0x8
 4175 12a5 A0       		.byte	0xa0
 4176 12a6 25       		.uleb128 0x25
 4177 12a7 01       		.uleb128 0x1
 4178 12a8 52       		.byte	0x52
 4179 12a9 02       		.uleb128 0x2
 4180 12aa 08       		.byte	0x8
 4181 12ab 85       		.byte	0x85
 4182 12ac 00       		.byte	0
 4183 12ad 23       		.uleb128 0x23
 4184 12ae AC000000 		.4byte	.LVL37
 4185 12b2 9B220000 		.4byte	0x229b
 4186 12b6 24       		.uleb128 0x24
 4187 12b7 B6000000 		.4byte	.LVL38
 4188 12bb 8F220000 		.4byte	0x228f
 4189 12bf D9120000 		.4byte	0x12d9
 4190 12c3 25       		.uleb128 0x25
 4191 12c4 01       		.uleb128 0x1
 4192 12c5 50       		.byte	0x50
 4193 12c6 05       		.uleb128 0x5
 4194 12c7 03       		.byte	0x3
 4195 12c8 14000000 		.4byte	.LC1
 4196 12cc 25       		.uleb128 0x25
 4197 12cd 01       		.uleb128 0x1
 4198 12ce 51       		.byte	0x51
 4199 12cf 02       		.uleb128 0x2
 4200 12d0 08       		.byte	0x8
 4201 12d1 9B       		.byte	0x9b
 4202 12d2 25       		.uleb128 0x25
 4203 12d3 01       		.uleb128 0x1
 4204 12d4 52       		.byte	0x52
 4205 12d5 02       		.uleb128 0x2
 4206 12d6 08       		.byte	0x8
 4207 12d7 8F       		.byte	0x8f
 4208 12d8 00       		.byte	0
 4209 12d9 24       		.uleb128 0x24
 4210 12da CA000000 		.4byte	.LVL39
 4211 12de 8F220000 		.4byte	0x228f
 4212 12e2 FC120000 		.4byte	0x12fc
 4213 12e6 25       		.uleb128 0x25
 4214 12e7 01       		.uleb128 0x1
 4215 12e8 50       		.byte	0x50
 4216 12e9 05       		.uleb128 0x5
 4217 12ea 03       		.byte	0x3
 4218 12eb 1C000000 		.4byte	.LC2
 4219 12ef 25       		.uleb128 0x25
 4220 12f0 01       		.uleb128 0x1
 4221 12f1 51       		.byte	0x51
 4222 12f2 02       		.uleb128 0x2
ARM GAS  C:\Users\Mahrukh\AppData\Local\Temp\ccJcQtli.s 			page 98


 4223 12f3 08       		.byte	0x8
 4224 12f4 9B       		.byte	0x9b
 4225 12f5 25       		.uleb128 0x25
 4226 12f6 01       		.uleb128 0x1
 4227 12f7 52       		.byte	0x52
 4228 12f8 02       		.uleb128 0x2
 4229 12f9 08       		.byte	0x8
 4230 12fa 9D       		.byte	0x9d
 4231 12fb 00       		.byte	0
 4232 12fc 24       		.uleb128 0x24
 4233 12fd DE000000 		.4byte	.LVL40
 4234 1301 8F220000 		.4byte	0x228f
 4235 1305 1F130000 		.4byte	0x131f
 4236 1309 25       		.uleb128 0x25
 4237 130a 01       		.uleb128 0x1
 4238 130b 50       		.byte	0x50
 4239 130c 05       		.uleb128 0x5
 4240 130d 03       		.byte	0x3
 4241 130e 28000000 		.4byte	.LC3
 4242 1312 25       		.uleb128 0x25
 4243 1313 01       		.uleb128 0x1
 4244 1314 51       		.byte	0x51
 4245 1315 02       		.uleb128 0x2
 4246 1316 08       		.byte	0x8
 4247 1317 9B       		.byte	0x9b
 4248 1318 25       		.uleb128 0x25
 4249 1319 01       		.uleb128 0x1
 4250 131a 52       		.byte	0x52
 4251 131b 02       		.uleb128 0x2
 4252 131c 08       		.byte	0x8
 4253 131d 9D       		.byte	0x9d
 4254 131e 00       		.byte	0
 4255 131f 26       		.uleb128 0x26
 4256 1320 E6000000 		.4byte	.LVL41
 4257 1324 FC0F0000 		.4byte	0xffc
 4258 1328 25       		.uleb128 0x25
 4259 1329 01       		.uleb128 0x1
 4260 132a 50       		.byte	0x50
 4261 132b 01       		.uleb128 0x1
 4262 132c 31       		.byte	0x31
 4263 132d 25       		.uleb128 0x25
 4264 132e 01       		.uleb128 0x1
 4265 132f 51       		.byte	0x51
 4266 1330 01       		.uleb128 0x1
 4267 1331 31       		.byte	0x31
 4268 1332 00       		.byte	0
 4269 1333 00       		.byte	0
 4270 1334 20       		.uleb128 0x20
 4271 1335 B1070000 		.4byte	.LASF274
 4272 1339 01       		.byte	0x1
 4273 133a 71       		.byte	0x71
 4274 133b 00000000 		.4byte	.LFB608
 4275 133f 70000000 		.4byte	.LFE608-.LFB608
 4276 1343 01       		.uleb128 0x1
 4277 1344 9C       		.byte	0x9c
 4278 1345 78140000 		.4byte	0x1478
 4279 1349 21       		.uleb128 0x21
ARM GAS  C:\Users\Mahrukh\AppData\Local\Temp\ccJcQtli.s 			page 99


 4280 134a 79110000 		.4byte	.LASF275
 4281 134e 01       		.byte	0x1
 4282 134f 71       		.byte	0x71
 4283 1350 94000000 		.4byte	0x94
 4284 1354 FD010000 		.4byte	.LLST15
 4285 1358 21       		.uleb128 0x21
 4286 1359 80110000 		.4byte	.LASF276
 4287 135d 01       		.byte	0x1
 4288 135e 71       		.byte	0x71
 4289 135f 94000000 		.4byte	0x94
 4290 1363 29020000 		.4byte	.LLST16
 4291 1367 2D       		.uleb128 0x2d
 4292 1368 07020000 		.4byte	.LASF277
 4293 136c 01       		.byte	0x1
 4294 136d 74       		.byte	0x74
 4295 136e 78140000 		.4byte	0x1478
 4296 1372 03       		.uleb128 0x3
 4297 1373 91       		.byte	0x91
 4298 1374 BC7F     		.sleb128 -68
 4299 1376 2D       		.uleb128 0x2d
 4300 1377 E3050000 		.4byte	.LASF278
 4301 137b 01       		.byte	0x1
 4302 137c 75       		.byte	0x75
 4303 137d 78140000 		.4byte	0x1478
 4304 1381 03       		.uleb128 0x3
 4305 1382 91       		.byte	0x91
 4306 1383 887F     		.sleb128 -120
 4307 1385 23       		.uleb128 0x23
 4308 1386 0C000000 		.4byte	.LVL44
 4309 138a A7220000 		.4byte	0x22a7
 4310 138e 24       		.uleb128 0x24
 4311 138f 16000000 		.4byte	.LVL45
 4312 1393 B3220000 		.4byte	0x22b3
 4313 1397 B2130000 		.4byte	0x13b2
 4314 139b 25       		.uleb128 0x25
 4315 139c 01       		.uleb128 0x1
 4316 139d 50       		.byte	0x50
 4317 139e 03       		.uleb128 0x3
 4318 139f 91       		.byte	0x91
 4319 13a0 BC7F     		.sleb128 -68
 4320 13a2 25       		.uleb128 0x25
 4321 13a3 01       		.uleb128 0x1
 4322 13a4 51       		.byte	0x51
 4323 13a5 05       		.uleb128 0x5
 4324 13a6 03       		.byte	0x3
 4325 13a7 30000000 		.4byte	.LC4
 4326 13ab 25       		.uleb128 0x25
 4327 13ac 01       		.uleb128 0x1
 4328 13ad 52       		.byte	0x52
 4329 13ae 02       		.uleb128 0x2
 4330 13af 75       		.byte	0x75
 4331 13b0 00       		.sleb128 0
 4332 13b1 00       		.byte	0
 4333 13b2 24       		.uleb128 0x24
 4334 13b3 20000000 		.4byte	.LVL46
 4335 13b7 B3220000 		.4byte	0x22b3
 4336 13bb D5130000 		.4byte	0x13d5
ARM GAS  C:\Users\Mahrukh\AppData\Local\Temp\ccJcQtli.s 			page 100


 4337 13bf 25       		.uleb128 0x25
 4338 13c0 01       		.uleb128 0x1
 4339 13c1 50       		.byte	0x50
 4340 13c2 02       		.uleb128 0x2
 4341 13c3 7D       		.byte	0x7d
 4342 13c4 00       		.sleb128 0
 4343 13c5 25       		.uleb128 0x25
 4344 13c6 01       		.uleb128 0x1
 4345 13c7 51       		.byte	0x51
 4346 13c8 05       		.uleb128 0x5
 4347 13c9 03       		.byte	0x3
 4348 13ca 4C000000 		.4byte	.LC5
 4349 13ce 25       		.uleb128 0x25
 4350 13cf 01       		.uleb128 0x1
 4351 13d0 52       		.byte	0x52
 4352 13d1 02       		.uleb128 0x2
 4353 13d2 74       		.byte	0x74
 4354 13d3 00       		.sleb128 0
 4355 13d4 00       		.byte	0
 4356 13d5 23       		.uleb128 0x23
 4357 13d6 26000000 		.4byte	.LVL47
 4358 13da 9B220000 		.4byte	0x229b
 4359 13de 24       		.uleb128 0x24
 4360 13df 30000000 		.4byte	.LVL48
 4361 13e3 8F220000 		.4byte	0x228f
 4362 13e7 FE130000 		.4byte	0x13fe
 4363 13eb 25       		.uleb128 0x25
 4364 13ec 01       		.uleb128 0x1
 4365 13ed 50       		.byte	0x50
 4366 13ee 03       		.uleb128 0x3
 4367 13ef 91       		.byte	0x91
 4368 13f0 BC7F     		.sleb128 -68
 4369 13f2 25       		.uleb128 0x25
 4370 13f3 01       		.uleb128 0x1
 4371 13f4 51       		.byte	0x51
 4372 13f5 01       		.uleb128 0x1
 4373 13f6 33       		.byte	0x33
 4374 13f7 25       		.uleb128 0x25
 4375 13f8 01       		.uleb128 0x1
 4376 13f9 52       		.byte	0x52
 4377 13fa 02       		.uleb128 0x2
 4378 13fb 08       		.byte	0x8
 4379 13fc 8C       		.byte	0x8c
 4380 13fd 00       		.byte	0
 4381 13fe 24       		.uleb128 0x24
 4382 13ff 3A000000 		.4byte	.LVL49
 4383 1403 8F220000 		.4byte	0x228f
 4384 1407 21140000 		.4byte	0x1421
 4385 140b 25       		.uleb128 0x25
 4386 140c 01       		.uleb128 0x1
 4387 140d 50       		.byte	0x50
 4388 140e 05       		.uleb128 0x5
 4389 140f 03       		.byte	0x3
 4390 1410 60000000 		.4byte	.LC6
 4391 1414 25       		.uleb128 0x25
 4392 1415 01       		.uleb128 0x1
 4393 1416 51       		.byte	0x51
ARM GAS  C:\Users\Mahrukh\AppData\Local\Temp\ccJcQtli.s 			page 101


 4394 1417 02       		.uleb128 0x2
 4395 1418 08       		.byte	0x8
 4396 1419 7D       		.byte	0x7d
 4397 141a 25       		.uleb128 0x25
 4398 141b 01       		.uleb128 0x1
 4399 141c 52       		.byte	0x52
 4400 141d 02       		.uleb128 0x2
 4401 141e 08       		.byte	0x8
 4402 141f 8C       		.byte	0x8c
 4403 1420 00       		.byte	0
 4404 1421 24       		.uleb128 0x24
 4405 1422 44000000 		.4byte	.LVL50
 4406 1426 8F220000 		.4byte	0x228f
 4407 142a 40140000 		.4byte	0x1440
 4408 142e 25       		.uleb128 0x25
 4409 142f 01       		.uleb128 0x1
 4410 1430 50       		.byte	0x50
 4411 1431 02       		.uleb128 0x2
 4412 1432 7D       		.byte	0x7d
 4413 1433 00       		.sleb128 0
 4414 1434 25       		.uleb128 0x25
 4415 1435 01       		.uleb128 0x1
 4416 1436 51       		.byte	0x51
 4417 1437 01       		.uleb128 0x1
 4418 1438 33       		.byte	0x33
 4419 1439 25       		.uleb128 0x25
 4420 143a 01       		.uleb128 0x1
 4421 143b 52       		.byte	0x52
 4422 143c 02       		.uleb128 0x2
 4423 143d 08       		.byte	0x8
 4424 143e A0       		.byte	0xa0
 4425 143f 00       		.byte	0
 4426 1440 24       		.uleb128 0x24
 4427 1441 4E000000 		.4byte	.LVL51
 4428 1445 8F220000 		.4byte	0x228f
 4429 1449 63140000 		.4byte	0x1463
 4430 144d 25       		.uleb128 0x25
 4431 144e 01       		.uleb128 0x1
 4432 144f 50       		.byte	0x50
 4433 1450 05       		.uleb128 0x5
 4434 1451 03       		.byte	0x3
 4435 1452 68000000 		.4byte	.LC7
 4436 1456 25       		.uleb128 0x25
 4437 1457 01       		.uleb128 0x1
 4438 1458 51       		.byte	0x51
 4439 1459 02       		.uleb128 0x2
 4440 145a 08       		.byte	0x8
 4441 145b 62       		.byte	0x62
 4442 145c 25       		.uleb128 0x25
 4443 145d 01       		.uleb128 0x1
 4444 145e 52       		.byte	0x52
 4445 145f 02       		.uleb128 0x2
 4446 1460 08       		.byte	0x8
 4447 1461 A0       		.byte	0xa0
 4448 1462 00       		.byte	0
 4449 1463 26       		.uleb128 0x26
 4450 1464 56000000 		.4byte	.LVL52
ARM GAS  C:\Users\Mahrukh\AppData\Local\Temp\ccJcQtli.s 			page 102


 4451 1468 FC0F0000 		.4byte	0xffc
 4452 146c 25       		.uleb128 0x25
 4453 146d 01       		.uleb128 0x1
 4454 146e 50       		.byte	0x50
 4455 146f 01       		.uleb128 0x1
 4456 1470 31       		.byte	0x31
 4457 1471 25       		.uleb128 0x25
 4458 1472 01       		.uleb128 0x1
 4459 1473 51       		.byte	0x51
 4460 1474 01       		.uleb128 0x1
 4461 1475 31       		.byte	0x31
 4462 1476 00       		.byte	0
 4463 1477 00       		.byte	0
 4464 1478 07       		.uleb128 0x7
 4465 1479 E5060000 		.4byte	0x6e5
 4466 147d 88140000 		.4byte	0x1488
 4467 1481 08       		.uleb128 0x8
 4468 1482 D9000000 		.4byte	0xd9
 4469 1486 31       		.byte	0x31
 4470 1487 00       		.byte	0
 4471 1488 20       		.uleb128 0x20
 4472 1489 CD0E0000 		.4byte	.LASF279
 4473 148d 01       		.byte	0x1
 4474 148e 83       		.byte	0x83
 4475 148f 00000000 		.4byte	.LFB609
 4476 1493 8C000000 		.4byte	.LFE609-.LFB609
 4477 1497 01       		.uleb128 0x1
 4478 1498 9C       		.byte	0x9c
 4479 1499 D9150000 		.4byte	0x15d9
 4480 149d 21       		.uleb128 0x21
 4481 149e 8E0C0000 		.4byte	.LASF280
 4482 14a2 01       		.byte	0x1
 4483 14a3 83       		.byte	0x83
 4484 14a4 A2000000 		.4byte	0xa2
 4485 14a8 55020000 		.4byte	.LLST17
 4486 14ac 23       		.uleb128 0x23
 4487 14ad 08000000 		.4byte	.LVL55
 4488 14b1 A7220000 		.4byte	0x22a7
 4489 14b5 23       		.uleb128 0x23
 4490 14b6 0E000000 		.4byte	.LVL56
 4491 14ba 9B220000 		.4byte	0x229b
 4492 14be 24       		.uleb128 0x24
 4493 14bf 14000000 		.4byte	.LVL57
 4494 14c3 BE220000 		.4byte	0x22be
 4495 14c7 D1140000 		.4byte	0x14d1
 4496 14cb 25       		.uleb128 0x25
 4497 14cc 01       		.uleb128 0x1
 4498 14cd 50       		.byte	0x50
 4499 14ce 01       		.uleb128 0x1
 4500 14cf 32       		.byte	0x32
 4501 14d0 00       		.byte	0
 4502 14d1 24       		.uleb128 0x24
 4503 14d2 1E000000 		.4byte	.LVL58
 4504 14d6 8F220000 		.4byte	0x228f
 4505 14da F3140000 		.4byte	0x14f3
 4506 14de 25       		.uleb128 0x25
 4507 14df 01       		.uleb128 0x1
ARM GAS  C:\Users\Mahrukh\AppData\Local\Temp\ccJcQtli.s 			page 103


 4508 14e0 50       		.byte	0x50
 4509 14e1 05       		.uleb128 0x5
 4510 14e2 03       		.byte	0x3
 4511 14e3 6C000000 		.4byte	.LC8
 4512 14e7 25       		.uleb128 0x25
 4513 14e8 01       		.uleb128 0x1
 4514 14e9 51       		.byte	0x51
 4515 14ea 02       		.uleb128 0x2
 4516 14eb 08       		.byte	0x8
 4517 14ec 84       		.byte	0x84
 4518 14ed 25       		.uleb128 0x25
 4519 14ee 01       		.uleb128 0x1
 4520 14ef 52       		.byte	0x52
 4521 14f0 01       		.uleb128 0x1
 4522 14f1 32       		.byte	0x32
 4523 14f2 00       		.byte	0
 4524 14f3 23       		.uleb128 0x23
 4525 14f4 24000000 		.4byte	.LVL59
 4526 14f8 9B220000 		.4byte	0x229b
 4527 14fc 24       		.uleb128 0x24
 4528 14fd 2E000000 		.4byte	.LVL60
 4529 1501 8F220000 		.4byte	0x228f
 4530 1505 1E150000 		.4byte	0x151e
 4531 1509 25       		.uleb128 0x25
 4532 150a 01       		.uleb128 0x1
 4533 150b 50       		.byte	0x50
 4534 150c 05       		.uleb128 0x5
 4535 150d 03       		.byte	0x3
 4536 150e 74000000 		.4byte	.LC9
 4537 1512 25       		.uleb128 0x25
 4538 1513 01       		.uleb128 0x1
 4539 1514 51       		.byte	0x51
 4540 1515 01       		.uleb128 0x1
 4541 1516 3F       		.byte	0x3f
 4542 1517 25       		.uleb128 0x25
 4543 1518 01       		.uleb128 0x1
 4544 1519 52       		.byte	0x52
 4545 151a 02       		.uleb128 0x2
 4546 151b 08       		.byte	0x8
 4547 151c 28       		.byte	0x28
 4548 151d 00       		.byte	0
 4549 151e 24       		.uleb128 0x24
 4550 151f 38000000 		.4byte	.LVL61
 4551 1523 8F220000 		.4byte	0x228f
 4552 1527 40150000 		.4byte	0x1540
 4553 152b 25       		.uleb128 0x25
 4554 152c 01       		.uleb128 0x1
 4555 152d 50       		.byte	0x50
 4556 152e 05       		.uleb128 0x5
 4557 152f 03       		.byte	0x3
 4558 1530 94000000 		.4byte	.LC10
 4559 1534 25       		.uleb128 0x25
 4560 1535 01       		.uleb128 0x1
 4561 1536 51       		.byte	0x51
 4562 1537 01       		.uleb128 0x1
 4563 1538 3F       		.byte	0x3f
 4564 1539 25       		.uleb128 0x25
ARM GAS  C:\Users\Mahrukh\AppData\Local\Temp\ccJcQtli.s 			page 104


 4565 153a 01       		.uleb128 0x1
 4566 153b 52       		.byte	0x52
 4567 153c 02       		.uleb128 0x2
 4568 153d 08       		.byte	0x8
 4569 153e 46       		.byte	0x46
 4570 153f 00       		.byte	0
 4571 1540 24       		.uleb128 0x24
 4572 1541 42000000 		.4byte	.LVL62
 4573 1545 8F220000 		.4byte	0x228f
 4574 1549 62150000 		.4byte	0x1562
 4575 154d 25       		.uleb128 0x25
 4576 154e 01       		.uleb128 0x1
 4577 154f 50       		.byte	0x50
 4578 1550 05       		.uleb128 0x5
 4579 1551 03       		.byte	0x3
 4580 1552 B8000000 		.4byte	.LC11
 4581 1556 25       		.uleb128 0x25
 4582 1557 01       		.uleb128 0x1
 4583 1558 51       		.byte	0x51
 4584 1559 01       		.uleb128 0x1
 4585 155a 3F       		.byte	0x3f
 4586 155b 25       		.uleb128 0x25
 4587 155c 01       		.uleb128 0x1
 4588 155d 52       		.byte	0x52
 4589 155e 02       		.uleb128 0x2
 4590 155f 08       		.byte	0x8
 4591 1560 64       		.byte	0x64
 4592 1561 00       		.byte	0
 4593 1562 24       		.uleb128 0x24
 4594 1563 4C000000 		.4byte	.LVL63
 4595 1567 8F220000 		.4byte	0x228f
 4596 156b 84150000 		.4byte	0x1584
 4597 156f 25       		.uleb128 0x25
 4598 1570 01       		.uleb128 0x1
 4599 1571 50       		.byte	0x50
 4600 1572 05       		.uleb128 0x5
 4601 1573 03       		.byte	0x3
 4602 1574 DC000000 		.4byte	.LC12
 4603 1578 25       		.uleb128 0x25
 4604 1579 01       		.uleb128 0x1
 4605 157a 51       		.byte	0x51
 4606 157b 01       		.uleb128 0x1
 4607 157c 3F       		.byte	0x3f
 4608 157d 25       		.uleb128 0x25
 4609 157e 01       		.uleb128 0x1
 4610 157f 52       		.byte	0x52
 4611 1580 02       		.uleb128 0x2
 4612 1581 08       		.byte	0x8
 4613 1582 82       		.byte	0x82
 4614 1583 00       		.byte	0
 4615 1584 24       		.uleb128 0x24
 4616 1585 56000000 		.4byte	.LVL64
 4617 1589 8F220000 		.4byte	0x228f
 4618 158d A6150000 		.4byte	0x15a6
 4619 1591 25       		.uleb128 0x25
 4620 1592 01       		.uleb128 0x1
 4621 1593 50       		.byte	0x50
ARM GAS  C:\Users\Mahrukh\AppData\Local\Temp\ccJcQtli.s 			page 105


 4622 1594 05       		.uleb128 0x5
 4623 1595 03       		.byte	0x3
 4624 1596 00010000 		.4byte	.LC13
 4625 159a 25       		.uleb128 0x25
 4626 159b 01       		.uleb128 0x1
 4627 159c 51       		.byte	0x51
 4628 159d 01       		.uleb128 0x1
 4629 159e 3F       		.byte	0x3f
 4630 159f 25       		.uleb128 0x25
 4631 15a0 01       		.uleb128 0x1
 4632 15a1 52       		.byte	0x52
 4633 15a2 02       		.uleb128 0x2
 4634 15a3 08       		.byte	0x8
 4635 15a4 A0       		.byte	0xa0
 4636 15a5 00       		.byte	0
 4637 15a6 24       		.uleb128 0x24
 4638 15a7 60000000 		.4byte	.LVL65
 4639 15ab CA220000 		.4byte	0x22ca
 4640 15af C4150000 		.4byte	0x15c4
 4641 15b3 25       		.uleb128 0x25
 4642 15b4 01       		.uleb128 0x1
 4643 15b5 50       		.byte	0x50
 4644 15b6 01       		.uleb128 0x1
 4645 15b7 34       		.byte	0x34
 4646 15b8 25       		.uleb128 0x25
 4647 15b9 01       		.uleb128 0x1
 4648 15ba 51       		.byte	0x51
 4649 15bb 02       		.uleb128 0x2
 4650 15bc 74       		.byte	0x74
 4651 15bd 02       		.sleb128 2
 4652 15be 25       		.uleb128 0x25
 4653 15bf 01       		.uleb128 0x1
 4654 15c0 52       		.byte	0x52
 4655 15c1 01       		.uleb128 0x1
 4656 15c2 33       		.byte	0x33
 4657 15c3 00       		.byte	0
 4658 15c4 26       		.uleb128 0x26
 4659 15c5 68000000 		.4byte	.LVL66
 4660 15c9 FC0F0000 		.4byte	0xffc
 4661 15cd 25       		.uleb128 0x25
 4662 15ce 01       		.uleb128 0x1
 4663 15cf 50       		.byte	0x50
 4664 15d0 01       		.uleb128 0x1
 4665 15d1 31       		.byte	0x31
 4666 15d2 25       		.uleb128 0x25
 4667 15d3 01       		.uleb128 0x1
 4668 15d4 51       		.byte	0x51
 4669 15d5 01       		.uleb128 0x1
 4670 15d6 31       		.byte	0x31
 4671 15d7 00       		.byte	0
 4672 15d8 00       		.byte	0
 4673 15d9 2E       		.uleb128 0x2e
 4674 15da 3F070000 		.4byte	.LASF281
 4675 15de 01       		.byte	0x1
 4676 15df 93       		.byte	0x93
 4677 15e0 00000000 		.4byte	.LFB610
 4678 15e4 74000000 		.4byte	.LFE610-.LFB610
ARM GAS  C:\Users\Mahrukh\AppData\Local\Temp\ccJcQtli.s 			page 106


 4679 15e8 01       		.uleb128 0x1
 4680 15e9 9C       		.byte	0x9c
 4681 15ea 01170000 		.4byte	0x1701
 4682 15ee 23       		.uleb128 0x23
 4683 15ef 06000000 		.4byte	.LVL67
 4684 15f3 A7220000 		.4byte	0x22a7
 4685 15f7 24       		.uleb128 0x24
 4686 15f8 0E000000 		.4byte	.LVL68
 4687 15fc 9B220000 		.4byte	0x229b
 4688 1600 0B160000 		.4byte	0x160b
 4689 1604 25       		.uleb128 0x25
 4690 1605 01       		.uleb128 0x1
 4691 1606 50       		.byte	0x50
 4692 1607 02       		.uleb128 0x2
 4693 1608 74       		.byte	0x74
 4694 1609 00       		.sleb128 0
 4695 160a 00       		.byte	0
 4696 160b 24       		.uleb128 0x24
 4697 160c 14000000 		.4byte	.LVL69
 4698 1610 BE220000 		.4byte	0x22be
 4699 1614 1E160000 		.4byte	0x161e
 4700 1618 25       		.uleb128 0x25
 4701 1619 01       		.uleb128 0x1
 4702 161a 50       		.byte	0x50
 4703 161b 01       		.uleb128 0x1
 4704 161c 32       		.byte	0x32
 4705 161d 00       		.byte	0
 4706 161e 24       		.uleb128 0x24
 4707 161f 1E000000 		.4byte	.LVL70
 4708 1623 8F220000 		.4byte	0x228f
 4709 1627 40160000 		.4byte	0x1640
 4710 162b 25       		.uleb128 0x25
 4711 162c 01       		.uleb128 0x1
 4712 162d 50       		.byte	0x50
 4713 162e 05       		.uleb128 0x5
 4714 162f 03       		.byte	0x3
 4715 1630 1C010000 		.4byte	.LC14
 4716 1634 25       		.uleb128 0x25
 4717 1635 01       		.uleb128 0x1
 4718 1636 51       		.byte	0x51
 4719 1637 02       		.uleb128 0x2
 4720 1638 08       		.byte	0x8
 4721 1639 84       		.byte	0x84
 4722 163a 25       		.uleb128 0x25
 4723 163b 01       		.uleb128 0x1
 4724 163c 52       		.byte	0x52
 4725 163d 01       		.uleb128 0x1
 4726 163e 44       		.byte	0x44
 4727 163f 00       		.byte	0
 4728 1640 24       		.uleb128 0x24
 4729 1641 2A000000 		.4byte	.LVL71
 4730 1645 D6220000 		.4byte	0x22d6
 4731 1649 66160000 		.4byte	0x1666
 4732 164d 25       		.uleb128 0x25
 4733 164e 01       		.uleb128 0x1
 4734 164f 50       		.byte	0x50
 4735 1650 02       		.uleb128 0x2
ARM GAS  C:\Users\Mahrukh\AppData\Local\Temp\ccJcQtli.s 			page 107


 4736 1651 08       		.byte	0x8
 4737 1652 30       		.byte	0x30
 4738 1653 25       		.uleb128 0x25
 4739 1654 01       		.uleb128 0x1
 4740 1655 51       		.byte	0x51
 4741 1656 02       		.uleb128 0x2
 4742 1657 08       		.byte	0x8
 4743 1658 22       		.byte	0x22
 4744 1659 25       		.uleb128 0x25
 4745 165a 01       		.uleb128 0x1
 4746 165b 52       		.byte	0x52
 4747 165c 02       		.uleb128 0x2
 4748 165d 08       		.byte	0x8
 4749 165e D7       		.byte	0xd7
 4750 165f 25       		.uleb128 0x25
 4751 1660 01       		.uleb128 0x1
 4752 1661 53       		.byte	0x53
 4753 1662 02       		.uleb128 0x2
 4754 1663 08       		.byte	0x8
 4755 1664 22       		.byte	0x22
 4756 1665 00       		.byte	0
 4757 1666 23       		.uleb128 0x23
 4758 1667 30000000 		.4byte	.LVL72
 4759 166b 9B220000 		.4byte	0x229b
 4760 166f 24       		.uleb128 0x24
 4761 1670 3A000000 		.4byte	.LVL73
 4762 1674 8F220000 		.4byte	0x228f
 4763 1678 91160000 		.4byte	0x1691
 4764 167c 25       		.uleb128 0x25
 4765 167d 01       		.uleb128 0x1
 4766 167e 50       		.byte	0x50
 4767 167f 05       		.uleb128 0x5
 4768 1680 03       		.byte	0x3
 4769 1681 34010000 		.4byte	.LC15
 4770 1685 25       		.uleb128 0x25
 4771 1686 01       		.uleb128 0x1
 4772 1687 51       		.byte	0x51
 4773 1688 01       		.uleb128 0x1
 4774 1689 3A       		.byte	0x3a
 4775 168a 25       		.uleb128 0x25
 4776 168b 01       		.uleb128 0x1
 4777 168c 52       		.byte	0x52
 4778 168d 02       		.uleb128 0x2
 4779 168e 08       		.byte	0x8
 4780 168f 46       		.byte	0x46
 4781 1690 00       		.byte	0
 4782 1691 24       		.uleb128 0x24
 4783 1692 44000000 		.4byte	.LVL74
 4784 1696 8F220000 		.4byte	0x228f
 4785 169a B3160000 		.4byte	0x16b3
 4786 169e 25       		.uleb128 0x25
 4787 169f 01       		.uleb128 0x1
 4788 16a0 50       		.byte	0x50
 4789 16a1 05       		.uleb128 0x5
 4790 16a2 03       		.byte	0x3
 4791 16a3 64010000 		.4byte	.LC16
 4792 16a7 25       		.uleb128 0x25
ARM GAS  C:\Users\Mahrukh\AppData\Local\Temp\ccJcQtli.s 			page 108


 4793 16a8 01       		.uleb128 0x1
 4794 16a9 51       		.byte	0x51
 4795 16aa 01       		.uleb128 0x1
 4796 16ab 33       		.byte	0x33
 4797 16ac 25       		.uleb128 0x25
 4798 16ad 01       		.uleb128 0x1
 4799 16ae 52       		.byte	0x52
 4800 16af 02       		.uleb128 0x2
 4801 16b0 08       		.byte	0x8
 4802 16b1 64       		.byte	0x64
 4803 16b2 00       		.byte	0
 4804 16b3 24       		.uleb128 0x24
 4805 16b4 50000000 		.4byte	.LVL75
 4806 16b8 83220000 		.4byte	0x2283
 4807 16bc D8160000 		.4byte	0x16d8
 4808 16c0 25       		.uleb128 0x25
 4809 16c1 01       		.uleb128 0x1
 4810 16c2 50       		.byte	0x50
 4811 16c3 01       		.uleb128 0x1
 4812 16c4 37       		.byte	0x37
 4813 16c5 25       		.uleb128 0x25
 4814 16c6 01       		.uleb128 0x1
 4815 16c7 51       		.byte	0x51
 4816 16c8 02       		.uleb128 0x2
 4817 16c9 08       		.byte	0x8
 4818 16ca 78       		.byte	0x78
 4819 16cb 25       		.uleb128 0x25
 4820 16cc 01       		.uleb128 0x1
 4821 16cd 52       		.byte	0x52
 4822 16ce 02       		.uleb128 0x2
 4823 16cf 08       		.byte	0x8
 4824 16d0 E6       		.byte	0xe6
 4825 16d1 25       		.uleb128 0x25
 4826 16d2 01       		.uleb128 0x1
 4827 16d3 53       		.byte	0x53
 4828 16d4 02       		.uleb128 0x2
 4829 16d5 08       		.byte	0x8
 4830 16d6 A0       		.byte	0xa0
 4831 16d7 00       		.byte	0
 4832 16d8 24       		.uleb128 0x24
 4833 16d9 56000000 		.4byte	.LVL76
 4834 16dd 9B220000 		.4byte	0x229b
 4835 16e1 EC160000 		.4byte	0x16ec
 4836 16e5 25       		.uleb128 0x25
 4837 16e6 01       		.uleb128 0x1
 4838 16e7 50       		.byte	0x50
 4839 16e8 02       		.uleb128 0x2
 4840 16e9 74       		.byte	0x74
 4841 16ea 00       		.sleb128 0
 4842 16eb 00       		.byte	0
 4843 16ec 26       		.uleb128 0x26
 4844 16ed 5E000000 		.4byte	.LVL77
 4845 16f1 FC0F0000 		.4byte	0xffc
 4846 16f5 25       		.uleb128 0x25
 4847 16f6 01       		.uleb128 0x1
 4848 16f7 50       		.byte	0x50
 4849 16f8 01       		.uleb128 0x1
ARM GAS  C:\Users\Mahrukh\AppData\Local\Temp\ccJcQtli.s 			page 109


 4850 16f9 31       		.byte	0x31
 4851 16fa 25       		.uleb128 0x25
 4852 16fb 01       		.uleb128 0x1
 4853 16fc 51       		.byte	0x51
 4854 16fd 01       		.uleb128 0x1
 4855 16fe 31       		.byte	0x31
 4856 16ff 00       		.byte	0
 4857 1700 00       		.byte	0
 4858 1701 2E       		.uleb128 0x2e
 4859 1702 4B070000 		.4byte	.LASF282
 4860 1706 01       		.byte	0x1
 4861 1707 A3       		.byte	0xa3
 4862 1708 00000000 		.4byte	.LFB611
 4863 170c BC000000 		.4byte	.LFE611-.LFB611
 4864 1710 01       		.uleb128 0x1
 4865 1711 9C       		.byte	0x9c
 4866 1712 AE180000 		.4byte	0x18ae
 4867 1716 23       		.uleb128 0x23
 4868 1717 06000000 		.4byte	.LVL78
 4869 171b A7220000 		.4byte	0x22a7
 4870 171f 23       		.uleb128 0x23
 4871 1720 0C000000 		.4byte	.LVL79
 4872 1724 9B220000 		.4byte	0x229b
 4873 1728 24       		.uleb128 0x24
 4874 1729 12000000 		.4byte	.LVL80
 4875 172d BE220000 		.4byte	0x22be
 4876 1731 3B170000 		.4byte	0x173b
 4877 1735 25       		.uleb128 0x25
 4878 1736 01       		.uleb128 0x1
 4879 1737 50       		.byte	0x50
 4880 1738 01       		.uleb128 0x1
 4881 1739 32       		.byte	0x32
 4882 173a 00       		.byte	0
 4883 173b 24       		.uleb128 0x24
 4884 173c 1C000000 		.4byte	.LVL81
 4885 1740 8F220000 		.4byte	0x228f
 4886 1744 5D170000 		.4byte	0x175d
 4887 1748 25       		.uleb128 0x25
 4888 1749 01       		.uleb128 0x1
 4889 174a 50       		.byte	0x50
 4890 174b 05       		.uleb128 0x5
 4891 174c 03       		.byte	0x3
 4892 174d 98010000 		.4byte	.LC17
 4893 1751 25       		.uleb128 0x25
 4894 1752 01       		.uleb128 0x1
 4895 1753 51       		.byte	0x51
 4896 1754 02       		.uleb128 0x2
 4897 1755 08       		.byte	0x8
 4898 1756 84       		.byte	0x84
 4899 1757 25       		.uleb128 0x25
 4900 1758 01       		.uleb128 0x1
 4901 1759 52       		.byte	0x52
 4902 175a 01       		.uleb128 0x1
 4903 175b 44       		.byte	0x44
 4904 175c 00       		.byte	0
 4905 175d 24       		.uleb128 0x24
 4906 175e 28000000 		.4byte	.LVL82
ARM GAS  C:\Users\Mahrukh\AppData\Local\Temp\ccJcQtli.s 			page 110


 4907 1762 D6220000 		.4byte	0x22d6
 4908 1766 82170000 		.4byte	0x1782
 4909 176a 25       		.uleb128 0x25
 4910 176b 01       		.uleb128 0x1
 4911 176c 50       		.byte	0x50
 4912 176d 01       		.uleb128 0x1
 4913 176e 44       		.byte	0x44
 4914 176f 25       		.uleb128 0x25
 4915 1770 01       		.uleb128 0x1
 4916 1771 51       		.byte	0x51
 4917 1772 02       		.uleb128 0x2
 4918 1773 08       		.byte	0x8
 4919 1774 32       		.byte	0x32
 4920 1775 25       		.uleb128 0x25
 4921 1776 01       		.uleb128 0x1
 4922 1777 52       		.byte	0x52
 4923 1778 02       		.uleb128 0x2
 4924 1779 08       		.byte	0x8
 4925 177a F0       		.byte	0xf0
 4926 177b 25       		.uleb128 0x25
 4927 177c 01       		.uleb128 0x1
 4928 177d 53       		.byte	0x53
 4929 177e 02       		.uleb128 0x2
 4930 177f 08       		.byte	0x8
 4931 1780 32       		.byte	0x32
 4932 1781 00       		.byte	0
 4933 1782 23       		.uleb128 0x23
 4934 1783 2E000000 		.4byte	.LVL83
 4935 1787 9B220000 		.4byte	0x229b
 4936 178b 24       		.uleb128 0x24
 4937 178c 34000000 		.4byte	.LVL84
 4938 1790 BE220000 		.4byte	0x22be
 4939 1794 9E170000 		.4byte	0x179e
 4940 1798 25       		.uleb128 0x25
 4941 1799 01       		.uleb128 0x1
 4942 179a 50       		.byte	0x50
 4943 179b 01       		.uleb128 0x1
 4944 179c 32       		.byte	0x32
 4945 179d 00       		.byte	0
 4946 179e 24       		.uleb128 0x24
 4947 179f 3E000000 		.4byte	.LVL85
 4948 17a3 8F220000 		.4byte	0x228f
 4949 17a7 C1170000 		.4byte	0x17c1
 4950 17ab 25       		.uleb128 0x25
 4951 17ac 01       		.uleb128 0x1
 4952 17ad 50       		.byte	0x50
 4953 17ae 05       		.uleb128 0x5
 4954 17af 03       		.byte	0x3
 4955 17b0 A8010000 		.4byte	.LC18
 4956 17b4 25       		.uleb128 0x25
 4957 17b5 01       		.uleb128 0x1
 4958 17b6 51       		.byte	0x51
 4959 17b7 02       		.uleb128 0x2
 4960 17b8 08       		.byte	0x8
 4961 17b9 84       		.byte	0x84
 4962 17ba 25       		.uleb128 0x25
 4963 17bb 01       		.uleb128 0x1
ARM GAS  C:\Users\Mahrukh\AppData\Local\Temp\ccJcQtli.s 			page 111


 4964 17bc 52       		.byte	0x52
 4965 17bd 02       		.uleb128 0x2
 4966 17be 08       		.byte	0x8
 4967 17bf 46       		.byte	0x46
 4968 17c0 00       		.byte	0
 4969 17c1 24       		.uleb128 0x24
 4970 17c2 44000000 		.4byte	.LVL86
 4971 17c6 BE220000 		.4byte	0x22be
 4972 17ca D4170000 		.4byte	0x17d4
 4973 17ce 25       		.uleb128 0x25
 4974 17cf 01       		.uleb128 0x1
 4975 17d0 50       		.byte	0x50
 4976 17d1 01       		.uleb128 0x1
 4977 17d2 32       		.byte	0x32
 4978 17d3 00       		.byte	0
 4979 17d4 24       		.uleb128 0x24
 4980 17d5 4E000000 		.4byte	.LVL87
 4981 17d9 8F220000 		.4byte	0x228f
 4982 17dd F7170000 		.4byte	0x17f7
 4983 17e1 25       		.uleb128 0x25
 4984 17e2 01       		.uleb128 0x1
 4985 17e3 50       		.byte	0x50
 4986 17e4 05       		.uleb128 0x5
 4987 17e5 03       		.byte	0x3
 4988 17e6 C8010000 		.4byte	.LC19
 4989 17ea 25       		.uleb128 0x25
 4990 17eb 01       		.uleb128 0x1
 4991 17ec 51       		.byte	0x51
 4992 17ed 02       		.uleb128 0x2
 4993 17ee 08       		.byte	0x8
 4994 17ef 84       		.byte	0x84
 4995 17f0 25       		.uleb128 0x25
 4996 17f1 01       		.uleb128 0x1
 4997 17f2 52       		.byte	0x52
 4998 17f3 02       		.uleb128 0x2
 4999 17f4 08       		.byte	0x8
 5000 17f5 50       		.byte	0x50
 5001 17f6 00       		.byte	0
 5002 17f7 23       		.uleb128 0x23
 5003 17f8 54000000 		.4byte	.LVL88
 5004 17fc 9B220000 		.4byte	0x229b
 5005 1800 24       		.uleb128 0x24
 5006 1801 60000000 		.4byte	.LVL89
 5007 1805 D6220000 		.4byte	0x22d6
 5008 1809 26180000 		.4byte	0x1826
 5009 180d 25       		.uleb128 0x25
 5010 180e 01       		.uleb128 0x1
 5011 180f 50       		.byte	0x50
 5012 1810 02       		.uleb128 0x2
 5013 1811 08       		.byte	0x8
 5014 1812 72       		.byte	0x72
 5015 1813 25       		.uleb128 0x25
 5016 1814 01       		.uleb128 0x1
 5017 1815 51       		.byte	0x51
 5018 1816 02       		.uleb128 0x2
 5019 1817 08       		.byte	0x8
 5020 1818 8C       		.byte	0x8c
ARM GAS  C:\Users\Mahrukh\AppData\Local\Temp\ccJcQtli.s 			page 112


 5021 1819 25       		.uleb128 0x25
 5022 181a 01       		.uleb128 0x1
 5023 181b 52       		.byte	0x52
 5024 181c 02       		.uleb128 0x2
 5025 181d 08       		.byte	0x8
 5026 181e 99       		.byte	0x99
 5027 181f 25       		.uleb128 0x25
 5028 1820 01       		.uleb128 0x1
 5029 1821 53       		.byte	0x53
 5030 1822 02       		.uleb128 0x2
 5031 1823 08       		.byte	0x8
 5032 1824 8C       		.byte	0x8c
 5033 1825 00       		.byte	0
 5034 1826 24       		.uleb128 0x24
 5035 1827 66000000 		.4byte	.LVL90
 5036 182b BE220000 		.4byte	0x22be
 5037 182f 39180000 		.4byte	0x1839
 5038 1833 25       		.uleb128 0x25
 5039 1834 01       		.uleb128 0x1
 5040 1835 50       		.byte	0x50
 5041 1836 01       		.uleb128 0x1
 5042 1837 32       		.byte	0x32
 5043 1838 00       		.byte	0
 5044 1839 24       		.uleb128 0x24
 5045 183a 74000000 		.4byte	.LVL91
 5046 183e B3220000 		.4byte	0x22b3
 5047 1842 56180000 		.4byte	0x1856
 5048 1846 25       		.uleb128 0x25
 5049 1847 01       		.uleb128 0x1
 5050 1848 50       		.byte	0x50
 5051 1849 02       		.uleb128 0x2
 5052 184a 74       		.byte	0x74
 5053 184b 00       		.sleb128 0
 5054 184c 25       		.uleb128 0x25
 5055 184d 01       		.uleb128 0x1
 5056 184e 51       		.byte	0x51
 5057 184f 05       		.uleb128 0x5
 5058 1850 03       		.byte	0x3
 5059 1851 E8010000 		.4byte	.LC20
 5060 1855 00       		.byte	0
 5061 1856 24       		.uleb128 0x24
 5062 1857 7E000000 		.4byte	.LVL92
 5063 185b 8F220000 		.4byte	0x228f
 5064 185f 76180000 		.4byte	0x1876
 5065 1863 25       		.uleb128 0x25
 5066 1864 01       		.uleb128 0x1
 5067 1865 50       		.byte	0x50
 5068 1866 02       		.uleb128 0x2
 5069 1867 74       		.byte	0x74
 5070 1868 00       		.sleb128 0
 5071 1869 25       		.uleb128 0x25
 5072 186a 01       		.uleb128 0x1
 5073 186b 51       		.byte	0x51
 5074 186c 02       		.uleb128 0x2
 5075 186d 08       		.byte	0x8
 5076 186e 7D       		.byte	0x7d
 5077 186f 25       		.uleb128 0x25
ARM GAS  C:\Users\Mahrukh\AppData\Local\Temp\ccJcQtli.s 			page 113


 5078 1870 01       		.uleb128 0x1
 5079 1871 52       		.byte	0x52
 5080 1872 02       		.uleb128 0x2
 5081 1873 08       		.byte	0x8
 5082 1874 78       		.byte	0x78
 5083 1875 00       		.byte	0
 5084 1876 24       		.uleb128 0x24
 5085 1877 88000000 		.4byte	.LVL93
 5086 187b 8F220000 		.4byte	0x228f
 5087 187f 99180000 		.4byte	0x1899
 5088 1883 25       		.uleb128 0x25
 5089 1884 01       		.uleb128 0x1
 5090 1885 50       		.byte	0x50
 5091 1886 05       		.uleb128 0x5
 5092 1887 03       		.byte	0x3
 5093 1888 F0010000 		.4byte	.LC21
 5094 188c 25       		.uleb128 0x25
 5095 188d 01       		.uleb128 0x1
 5096 188e 51       		.byte	0x51
 5097 188f 02       		.uleb128 0x2
 5098 1890 08       		.byte	0x8
 5099 1891 84       		.byte	0x84
 5100 1892 25       		.uleb128 0x25
 5101 1893 01       		.uleb128 0x1
 5102 1894 52       		.byte	0x52
 5103 1895 02       		.uleb128 0x2
 5104 1896 08       		.byte	0x8
 5105 1897 78       		.byte	0x78
 5106 1898 00       		.byte	0
 5107 1899 26       		.uleb128 0x26
 5108 189a 90000000 		.4byte	.LVL94
 5109 189e FC0F0000 		.4byte	0xffc
 5110 18a2 25       		.uleb128 0x25
 5111 18a3 01       		.uleb128 0x1
 5112 18a4 50       		.byte	0x50
 5113 18a5 01       		.uleb128 0x1
 5114 18a6 31       		.byte	0x31
 5115 18a7 25       		.uleb128 0x25
 5116 18a8 01       		.uleb128 0x1
 5117 18a9 51       		.byte	0x51
 5118 18aa 01       		.uleb128 0x1
 5119 18ab 31       		.byte	0x31
 5120 18ac 00       		.byte	0
 5121 18ad 00       		.byte	0
 5122 18ae 2E       		.uleb128 0x2e
 5123 18af F80D0000 		.4byte	.LASF283
 5124 18b3 01       		.byte	0x1
 5125 18b4 B8       		.byte	0xb8
 5126 18b5 00000000 		.4byte	.LFB612
 5127 18b9 A4000000 		.4byte	.LFE612-.LFB612
 5128 18bd 01       		.uleb128 0x1
 5129 18be 9C       		.byte	0x9c
 5130 18bf 171A0000 		.4byte	0x1a17
 5131 18c3 23       		.uleb128 0x23
 5132 18c4 06000000 		.4byte	.LVL95
 5133 18c8 A7220000 		.4byte	0x22a7
 5134 18cc 24       		.uleb128 0x24
ARM GAS  C:\Users\Mahrukh\AppData\Local\Temp\ccJcQtli.s 			page 114


 5135 18cd 0E000000 		.4byte	.LVL96
 5136 18d1 9B220000 		.4byte	0x229b
 5137 18d5 E0180000 		.4byte	0x18e0
 5138 18d9 25       		.uleb128 0x25
 5139 18da 01       		.uleb128 0x1
 5140 18db 50       		.byte	0x50
 5141 18dc 02       		.uleb128 0x2
 5142 18dd 74       		.byte	0x74
 5143 18de 00       		.sleb128 0
 5144 18df 00       		.byte	0
 5145 18e0 24       		.uleb128 0x24
 5146 18e1 14000000 		.4byte	.LVL97
 5147 18e5 BE220000 		.4byte	0x22be
 5148 18e9 F3180000 		.4byte	0x18f3
 5149 18ed 25       		.uleb128 0x25
 5150 18ee 01       		.uleb128 0x1
 5151 18ef 50       		.byte	0x50
 5152 18f0 01       		.uleb128 0x1
 5153 18f1 32       		.byte	0x32
 5154 18f2 00       		.byte	0
 5155 18f3 24       		.uleb128 0x24
 5156 18f4 1E000000 		.4byte	.LVL98
 5157 18f8 8F220000 		.4byte	0x228f
 5158 18fc 15190000 		.4byte	0x1915
 5159 1900 25       		.uleb128 0x25
 5160 1901 01       		.uleb128 0x1
 5161 1902 50       		.byte	0x50
 5162 1903 05       		.uleb128 0x5
 5163 1904 03       		.byte	0x3
 5164 1905 F4010000 		.4byte	.LC22
 5165 1909 25       		.uleb128 0x25
 5166 190a 01       		.uleb128 0x1
 5167 190b 51       		.byte	0x51
 5168 190c 02       		.uleb128 0x2
 5169 190d 08       		.byte	0x8
 5170 190e 84       		.byte	0x84
 5171 190f 25       		.uleb128 0x25
 5172 1910 01       		.uleb128 0x1
 5173 1911 52       		.byte	0x52
 5174 1912 01       		.uleb128 0x1
 5175 1913 44       		.byte	0x44
 5176 1914 00       		.byte	0
 5177 1915 24       		.uleb128 0x24
 5178 1916 2A000000 		.4byte	.LVL99
 5179 191a D6220000 		.4byte	0x22d6
 5180 191e 38190000 		.4byte	0x1938
 5181 1922 25       		.uleb128 0x25
 5182 1923 01       		.uleb128 0x1
 5183 1924 50       		.byte	0x50
 5184 1925 01       		.uleb128 0x1
 5185 1926 49       		.byte	0x49
 5186 1927 25       		.uleb128 0x25
 5187 1928 01       		.uleb128 0x1
 5188 1929 51       		.byte	0x51
 5189 192a 01       		.uleb128 0x1
 5190 192b 4E       		.byte	0x4e
 5191 192c 25       		.uleb128 0x25
ARM GAS  C:\Users\Mahrukh\AppData\Local\Temp\ccJcQtli.s 			page 115


 5192 192d 01       		.uleb128 0x1
 5193 192e 52       		.byte	0x52
 5194 192f 02       		.uleb128 0x2
 5195 1930 08       		.byte	0x8
 5196 1931 F0       		.byte	0xf0
 5197 1932 25       		.uleb128 0x25
 5198 1933 01       		.uleb128 0x1
 5199 1934 53       		.byte	0x53
 5200 1935 01       		.uleb128 0x1
 5201 1936 4E       		.byte	0x4e
 5202 1937 00       		.byte	0
 5203 1938 24       		.uleb128 0x24
 5204 1939 30000000 		.4byte	.LVL100
 5205 193d 9B220000 		.4byte	0x229b
 5206 1941 4C190000 		.4byte	0x194c
 5207 1945 25       		.uleb128 0x25
 5208 1946 01       		.uleb128 0x1
 5209 1947 50       		.byte	0x50
 5210 1948 02       		.uleb128 0x2
 5211 1949 74       		.byte	0x74
 5212 194a 00       		.sleb128 0
 5213 194b 00       		.byte	0
 5214 194c 24       		.uleb128 0x24
 5215 194d 3A000000 		.4byte	.LVL101
 5216 1951 8F220000 		.4byte	0x228f
 5217 1955 6E190000 		.4byte	0x196e
 5218 1959 25       		.uleb128 0x25
 5219 195a 01       		.uleb128 0x1
 5220 195b 50       		.byte	0x50
 5221 195c 05       		.uleb128 0x5
 5222 195d 03       		.byte	0x3
 5223 195e 1C020000 		.4byte	.LC23
 5224 1962 25       		.uleb128 0x25
 5225 1963 01       		.uleb128 0x1
 5226 1964 51       		.byte	0x51
 5227 1965 01       		.uleb128 0x1
 5228 1966 3A       		.byte	0x3a
 5229 1967 25       		.uleb128 0x25
 5230 1968 01       		.uleb128 0x1
 5231 1969 52       		.byte	0x52
 5232 196a 02       		.uleb128 0x2
 5233 196b 08       		.byte	0x8
 5234 196c 46       		.byte	0x46
 5235 196d 00       		.byte	0
 5236 196e 23       		.uleb128 0x23
 5237 196f 40000000 		.4byte	.LVL102
 5238 1973 9B220000 		.4byte	0x229b
 5239 1977 24       		.uleb128 0x24
 5240 1978 4A000000 		.4byte	.LVL103
 5241 197c 8F220000 		.4byte	0x228f
 5242 1980 99190000 		.4byte	0x1999
 5243 1984 25       		.uleb128 0x25
 5244 1985 01       		.uleb128 0x1
 5245 1986 50       		.byte	0x50
 5246 1987 05       		.uleb128 0x5
 5247 1988 03       		.byte	0x3
 5248 1989 44020000 		.4byte	.LC24
ARM GAS  C:\Users\Mahrukh\AppData\Local\Temp\ccJcQtli.s 			page 116


 5249 198d 25       		.uleb128 0x25
 5250 198e 01       		.uleb128 0x1
 5251 198f 51       		.byte	0x51
 5252 1990 01       		.uleb128 0x1
 5253 1991 3A       		.byte	0x3a
 5254 1992 25       		.uleb128 0x25
 5255 1993 01       		.uleb128 0x1
 5256 1994 52       		.byte	0x52
 5257 1995 02       		.uleb128 0x2
 5258 1996 08       		.byte	0x8
 5259 1997 6E       		.byte	0x6e
 5260 1998 00       		.byte	0
 5261 1999 23       		.uleb128 0x23
 5262 199a 50000000 		.4byte	.LVL104
 5263 199e 9B220000 		.4byte	0x229b
 5264 19a2 24       		.uleb128 0x24
 5265 19a3 5E000000 		.4byte	.LVL105
 5266 19a7 B3220000 		.4byte	0x22b3
 5267 19ab BF190000 		.4byte	0x19bf
 5268 19af 25       		.uleb128 0x25
 5269 19b0 01       		.uleb128 0x1
 5270 19b1 50       		.byte	0x50
 5271 19b2 02       		.uleb128 0x2
 5272 19b3 74       		.byte	0x74
 5273 19b4 00       		.sleb128 0
 5274 19b5 25       		.uleb128 0x25
 5275 19b6 01       		.uleb128 0x1
 5276 19b7 51       		.byte	0x51
 5277 19b8 05       		.uleb128 0x5
 5278 19b9 03       		.byte	0x3
 5279 19ba E8010000 		.4byte	.LC20
 5280 19be 00       		.byte	0
 5281 19bf 24       		.uleb128 0x24
 5282 19c0 68000000 		.4byte	.LVL106
 5283 19c4 8F220000 		.4byte	0x228f
 5284 19c8 DF190000 		.4byte	0x19df
 5285 19cc 25       		.uleb128 0x25
 5286 19cd 01       		.uleb128 0x1
 5287 19ce 50       		.byte	0x50
 5288 19cf 02       		.uleb128 0x2
 5289 19d0 74       		.byte	0x74
 5290 19d1 00       		.sleb128 0
 5291 19d2 25       		.uleb128 0x25
 5292 19d3 01       		.uleb128 0x1
 5293 19d4 51       		.byte	0x51
 5294 19d5 02       		.uleb128 0x2
 5295 19d6 08       		.byte	0x8
 5296 19d7 8B       		.byte	0x8b
 5297 19d8 25       		.uleb128 0x25
 5298 19d9 01       		.uleb128 0x1
 5299 19da 52       		.byte	0x52
 5300 19db 02       		.uleb128 0x2
 5301 19dc 08       		.byte	0x8
 5302 19dd 63       		.byte	0x63
 5303 19de 00       		.byte	0
 5304 19df 24       		.uleb128 0x24
 5305 19e0 72000000 		.4byte	.LVL107
ARM GAS  C:\Users\Mahrukh\AppData\Local\Temp\ccJcQtli.s 			page 117


 5306 19e4 8F220000 		.4byte	0x228f
 5307 19e8 021A0000 		.4byte	0x1a02
 5308 19ec 25       		.uleb128 0x25
 5309 19ed 01       		.uleb128 0x1
 5310 19ee 50       		.byte	0x50
 5311 19ef 05       		.uleb128 0x5
 5312 19f0 03       		.byte	0x3
 5313 19f1 60000000 		.4byte	.LC6
 5314 19f5 25       		.uleb128 0x25
 5315 19f6 01       		.uleb128 0x1
 5316 19f7 51       		.byte	0x51
 5317 19f8 02       		.uleb128 0x2
 5318 19f9 08       		.byte	0x8
 5319 19fa BB       		.byte	0xbb
 5320 19fb 25       		.uleb128 0x25
 5321 19fc 01       		.uleb128 0x1
 5322 19fd 52       		.byte	0x52
 5323 19fe 02       		.uleb128 0x2
 5324 19ff 08       		.byte	0x8
 5325 1a00 62       		.byte	0x62
 5326 1a01 00       		.byte	0
 5327 1a02 26       		.uleb128 0x26
 5328 1a03 7A000000 		.4byte	.LVL108
 5329 1a07 FC0F0000 		.4byte	0xffc
 5330 1a0b 25       		.uleb128 0x25
 5331 1a0c 01       		.uleb128 0x1
 5332 1a0d 50       		.byte	0x50
 5333 1a0e 01       		.uleb128 0x1
 5334 1a0f 31       		.byte	0x31
 5335 1a10 25       		.uleb128 0x25
 5336 1a11 01       		.uleb128 0x1
 5337 1a12 51       		.byte	0x51
 5338 1a13 01       		.uleb128 0x1
 5339 1a14 31       		.byte	0x31
 5340 1a15 00       		.byte	0
 5341 1a16 00       		.byte	0
 5342 1a17 2E       		.uleb128 0x2e
 5343 1a18 830D0000 		.4byte	.LASF284
 5344 1a1c 01       		.byte	0x1
 5345 1a1d CB       		.byte	0xcb
 5346 1a1e 00000000 		.4byte	.LFB613
 5347 1a22 A4000000 		.4byte	.LFE613-.LFB613
 5348 1a26 01       		.uleb128 0x1
 5349 1a27 9C       		.byte	0x9c
 5350 1a28 801B0000 		.4byte	0x1b80
 5351 1a2c 23       		.uleb128 0x23
 5352 1a2d 06000000 		.4byte	.LVL109
 5353 1a31 A7220000 		.4byte	0x22a7
 5354 1a35 24       		.uleb128 0x24
 5355 1a36 0E000000 		.4byte	.LVL110
 5356 1a3a 9B220000 		.4byte	0x229b
 5357 1a3e 491A0000 		.4byte	0x1a49
 5358 1a42 25       		.uleb128 0x25
 5359 1a43 01       		.uleb128 0x1
 5360 1a44 50       		.byte	0x50
 5361 1a45 02       		.uleb128 0x2
 5362 1a46 74       		.byte	0x74
ARM GAS  C:\Users\Mahrukh\AppData\Local\Temp\ccJcQtli.s 			page 118


 5363 1a47 00       		.sleb128 0
 5364 1a48 00       		.byte	0
 5365 1a49 24       		.uleb128 0x24
 5366 1a4a 14000000 		.4byte	.LVL111
 5367 1a4e BE220000 		.4byte	0x22be
 5368 1a52 5C1A0000 		.4byte	0x1a5c
 5369 1a56 25       		.uleb128 0x25
 5370 1a57 01       		.uleb128 0x1
 5371 1a58 50       		.byte	0x50
 5372 1a59 01       		.uleb128 0x1
 5373 1a5a 32       		.byte	0x32
 5374 1a5b 00       		.byte	0
 5375 1a5c 24       		.uleb128 0x24
 5376 1a5d 1E000000 		.4byte	.LVL112
 5377 1a61 8F220000 		.4byte	0x228f
 5378 1a65 7E1A0000 		.4byte	0x1a7e
 5379 1a69 25       		.uleb128 0x25
 5380 1a6a 01       		.uleb128 0x1
 5381 1a6b 50       		.byte	0x50
 5382 1a6c 05       		.uleb128 0x5
 5383 1a6d 03       		.byte	0x3
 5384 1a6e F4010000 		.4byte	.LC22
 5385 1a72 25       		.uleb128 0x25
 5386 1a73 01       		.uleb128 0x1
 5387 1a74 51       		.byte	0x51
 5388 1a75 02       		.uleb128 0x2
 5389 1a76 08       		.byte	0x8
 5390 1a77 84       		.byte	0x84
 5391 1a78 25       		.uleb128 0x25
 5392 1a79 01       		.uleb128 0x1
 5393 1a7a 52       		.byte	0x52
 5394 1a7b 01       		.uleb128 0x1
 5395 1a7c 44       		.byte	0x44
 5396 1a7d 00       		.byte	0
 5397 1a7e 24       		.uleb128 0x24
 5398 1a7f 2A000000 		.4byte	.LVL113
 5399 1a83 D6220000 		.4byte	0x22d6
 5400 1a87 A11A0000 		.4byte	0x1aa1
 5401 1a8b 25       		.uleb128 0x25
 5402 1a8c 01       		.uleb128 0x1
 5403 1a8d 50       		.byte	0x50
 5404 1a8e 01       		.uleb128 0x1
 5405 1a8f 49       		.byte	0x49
 5406 1a90 25       		.uleb128 0x25
 5407 1a91 01       		.uleb128 0x1
 5408 1a92 51       		.byte	0x51
 5409 1a93 01       		.uleb128 0x1
 5410 1a94 4E       		.byte	0x4e
 5411 1a95 25       		.uleb128 0x25
 5412 1a96 01       		.uleb128 0x1
 5413 1a97 52       		.byte	0x52
 5414 1a98 02       		.uleb128 0x2
 5415 1a99 08       		.byte	0x8
 5416 1a9a F0       		.byte	0xf0
 5417 1a9b 25       		.uleb128 0x25
 5418 1a9c 01       		.uleb128 0x1
 5419 1a9d 53       		.byte	0x53
ARM GAS  C:\Users\Mahrukh\AppData\Local\Temp\ccJcQtli.s 			page 119


 5420 1a9e 01       		.uleb128 0x1
 5421 1a9f 4E       		.byte	0x4e
 5422 1aa0 00       		.byte	0
 5423 1aa1 24       		.uleb128 0x24
 5424 1aa2 30000000 		.4byte	.LVL114
 5425 1aa6 9B220000 		.4byte	0x229b
 5426 1aaa B51A0000 		.4byte	0x1ab5
 5427 1aae 25       		.uleb128 0x25
 5428 1aaf 01       		.uleb128 0x1
 5429 1ab0 50       		.byte	0x50
 5430 1ab1 02       		.uleb128 0x2
 5431 1ab2 74       		.byte	0x74
 5432 1ab3 00       		.sleb128 0
 5433 1ab4 00       		.byte	0
 5434 1ab5 24       		.uleb128 0x24
 5435 1ab6 3A000000 		.4byte	.LVL115
 5436 1aba 8F220000 		.4byte	0x228f
 5437 1abe D71A0000 		.4byte	0x1ad7
 5438 1ac2 25       		.uleb128 0x25
 5439 1ac3 01       		.uleb128 0x1
 5440 1ac4 50       		.byte	0x50
 5441 1ac5 05       		.uleb128 0x5
 5442 1ac6 03       		.byte	0x3
 5443 1ac7 58020000 		.4byte	.LC25
 5444 1acb 25       		.uleb128 0x25
 5445 1acc 01       		.uleb128 0x1
 5446 1acd 51       		.byte	0x51
 5447 1ace 01       		.uleb128 0x1
 5448 1acf 3A       		.byte	0x3a
 5449 1ad0 25       		.uleb128 0x25
 5450 1ad1 01       		.uleb128 0x1
 5451 1ad2 52       		.byte	0x52
 5452 1ad3 02       		.uleb128 0x2
 5453 1ad4 08       		.byte	0x8
 5454 1ad5 46       		.byte	0x46
 5455 1ad6 00       		.byte	0
 5456 1ad7 23       		.uleb128 0x23
 5457 1ad8 40000000 		.4byte	.LVL116
 5458 1adc 9B220000 		.4byte	0x229b
 5459 1ae0 24       		.uleb128 0x24
 5460 1ae1 4A000000 		.4byte	.LVL117
 5461 1ae5 8F220000 		.4byte	0x228f
 5462 1ae9 021B0000 		.4byte	0x1b02
 5463 1aed 25       		.uleb128 0x25
 5464 1aee 01       		.uleb128 0x1
 5465 1aef 50       		.byte	0x50
 5466 1af0 05       		.uleb128 0x5
 5467 1af1 03       		.byte	0x3
 5468 1af2 80020000 		.4byte	.LC26
 5469 1af6 25       		.uleb128 0x25
 5470 1af7 01       		.uleb128 0x1
 5471 1af8 51       		.byte	0x51
 5472 1af9 01       		.uleb128 0x1
 5473 1afa 3A       		.byte	0x3a
 5474 1afb 25       		.uleb128 0x25
 5475 1afc 01       		.uleb128 0x1
 5476 1afd 52       		.byte	0x52
ARM GAS  C:\Users\Mahrukh\AppData\Local\Temp\ccJcQtli.s 			page 120


 5477 1afe 02       		.uleb128 0x2
 5478 1aff 08       		.byte	0x8
 5479 1b00 6E       		.byte	0x6e
 5480 1b01 00       		.byte	0
 5481 1b02 23       		.uleb128 0x23
 5482 1b03 50000000 		.4byte	.LVL118
 5483 1b07 9B220000 		.4byte	0x229b
 5484 1b0b 24       		.uleb128 0x24
 5485 1b0c 5E000000 		.4byte	.LVL119
 5486 1b10 B3220000 		.4byte	0x22b3
 5487 1b14 281B0000 		.4byte	0x1b28
 5488 1b18 25       		.uleb128 0x25
 5489 1b19 01       		.uleb128 0x1
 5490 1b1a 50       		.byte	0x50
 5491 1b1b 02       		.uleb128 0x2
 5492 1b1c 74       		.byte	0x74
 5493 1b1d 00       		.sleb128 0
 5494 1b1e 25       		.uleb128 0x25
 5495 1b1f 01       		.uleb128 0x1
 5496 1b20 51       		.byte	0x51
 5497 1b21 05       		.uleb128 0x5
 5498 1b22 03       		.byte	0x3
 5499 1b23 E8010000 		.4byte	.LC20
 5500 1b27 00       		.byte	0
 5501 1b28 24       		.uleb128 0x24
 5502 1b29 68000000 		.4byte	.LVL120
 5503 1b2d 8F220000 		.4byte	0x228f
 5504 1b31 481B0000 		.4byte	0x1b48
 5505 1b35 25       		.uleb128 0x25
 5506 1b36 01       		.uleb128 0x1
 5507 1b37 50       		.byte	0x50
 5508 1b38 02       		.uleb128 0x2
 5509 1b39 74       		.byte	0x74
 5510 1b3a 00       		.sleb128 0
 5511 1b3b 25       		.uleb128 0x25
 5512 1b3c 01       		.uleb128 0x1
 5513 1b3d 51       		.byte	0x51
 5514 1b3e 02       		.uleb128 0x2
 5515 1b3f 08       		.byte	0x8
 5516 1b40 8B       		.byte	0x8b
 5517 1b41 25       		.uleb128 0x25
 5518 1b42 01       		.uleb128 0x1
 5519 1b43 52       		.byte	0x52
 5520 1b44 02       		.uleb128 0x2
 5521 1b45 08       		.byte	0x8
 5522 1b46 63       		.byte	0x63
 5523 1b47 00       		.byte	0
 5524 1b48 24       		.uleb128 0x24
 5525 1b49 72000000 		.4byte	.LVL121
 5526 1b4d 8F220000 		.4byte	0x228f
 5527 1b51 6B1B0000 		.4byte	0x1b6b
 5528 1b55 25       		.uleb128 0x25
 5529 1b56 01       		.uleb128 0x1
 5530 1b57 50       		.byte	0x50
 5531 1b58 05       		.uleb128 0x5
 5532 1b59 03       		.byte	0x3
 5533 1b5a 60000000 		.4byte	.LC6
ARM GAS  C:\Users\Mahrukh\AppData\Local\Temp\ccJcQtli.s 			page 121


 5534 1b5e 25       		.uleb128 0x25
 5535 1b5f 01       		.uleb128 0x1
 5536 1b60 51       		.byte	0x51
 5537 1b61 02       		.uleb128 0x2
 5538 1b62 08       		.byte	0x8
 5539 1b63 BB       		.byte	0xbb
 5540 1b64 25       		.uleb128 0x25
 5541 1b65 01       		.uleb128 0x1
 5542 1b66 52       		.byte	0x52
 5543 1b67 02       		.uleb128 0x2
 5544 1b68 08       		.byte	0x8
 5545 1b69 62       		.byte	0x62
 5546 1b6a 00       		.byte	0
 5547 1b6b 26       		.uleb128 0x26
 5548 1b6c 7A000000 		.4byte	.LVL122
 5549 1b70 FC0F0000 		.4byte	0xffc
 5550 1b74 25       		.uleb128 0x25
 5551 1b75 01       		.uleb128 0x1
 5552 1b76 50       		.byte	0x50
 5553 1b77 01       		.uleb128 0x1
 5554 1b78 31       		.byte	0x31
 5555 1b79 25       		.uleb128 0x25
 5556 1b7a 01       		.uleb128 0x1
 5557 1b7b 51       		.byte	0x51
 5558 1b7c 01       		.uleb128 0x1
 5559 1b7d 31       		.byte	0x31
 5560 1b7e 00       		.byte	0
 5561 1b7f 00       		.byte	0
 5562 1b80 2E       		.uleb128 0x2e
 5563 1b81 D7110000 		.4byte	.LASF285
 5564 1b85 01       		.byte	0x1
 5565 1b86 DC       		.byte	0xdc
 5566 1b87 00000000 		.4byte	.LFB614
 5567 1b8b 78000000 		.4byte	.LFE614-.LFB614
 5568 1b8f 01       		.uleb128 0x1
 5569 1b90 9C       		.byte	0x9c
 5570 1b91 A81C0000 		.4byte	0x1ca8
 5571 1b95 23       		.uleb128 0x23
 5572 1b96 06000000 		.4byte	.LVL123
 5573 1b9a A7220000 		.4byte	0x22a7
 5574 1b9e 24       		.uleb128 0x24
 5575 1b9f 0E000000 		.4byte	.LVL124
 5576 1ba3 9B220000 		.4byte	0x229b
 5577 1ba7 B21B0000 		.4byte	0x1bb2
 5578 1bab 25       		.uleb128 0x25
 5579 1bac 01       		.uleb128 0x1
 5580 1bad 50       		.byte	0x50
 5581 1bae 02       		.uleb128 0x2
 5582 1baf 74       		.byte	0x74
 5583 1bb0 00       		.sleb128 0
 5584 1bb1 00       		.byte	0
 5585 1bb2 24       		.uleb128 0x24
 5586 1bb3 14000000 		.4byte	.LVL125
 5587 1bb7 BE220000 		.4byte	0x22be
 5588 1bbb C51B0000 		.4byte	0x1bc5
 5589 1bbf 25       		.uleb128 0x25
 5590 1bc0 01       		.uleb128 0x1
ARM GAS  C:\Users\Mahrukh\AppData\Local\Temp\ccJcQtli.s 			page 122


 5591 1bc1 50       		.byte	0x50
 5592 1bc2 01       		.uleb128 0x1
 5593 1bc3 32       		.byte	0x32
 5594 1bc4 00       		.byte	0
 5595 1bc5 24       		.uleb128 0x24
 5596 1bc6 1E000000 		.4byte	.LVL126
 5597 1bca 8F220000 		.4byte	0x228f
 5598 1bce E71B0000 		.4byte	0x1be7
 5599 1bd2 25       		.uleb128 0x25
 5600 1bd3 01       		.uleb128 0x1
 5601 1bd4 50       		.byte	0x50
 5602 1bd5 05       		.uleb128 0x5
 5603 1bd6 03       		.byte	0x3
 5604 1bd7 94020000 		.4byte	.LC27
 5605 1bdb 25       		.uleb128 0x25
 5606 1bdc 01       		.uleb128 0x1
 5607 1bdd 51       		.byte	0x51
 5608 1bde 02       		.uleb128 0x2
 5609 1bdf 08       		.byte	0x8
 5610 1be0 84       		.byte	0x84
 5611 1be1 25       		.uleb128 0x25
 5612 1be2 01       		.uleb128 0x1
 5613 1be3 52       		.byte	0x52
 5614 1be4 01       		.uleb128 0x1
 5615 1be5 44       		.byte	0x44
 5616 1be6 00       		.byte	0
 5617 1be7 24       		.uleb128 0x24
 5618 1be8 2C000000 		.4byte	.LVL127
 5619 1bec D6220000 		.4byte	0x22d6
 5620 1bf0 0D1C0000 		.4byte	0x1c0d
 5621 1bf4 25       		.uleb128 0x25
 5622 1bf5 01       		.uleb128 0x1
 5623 1bf6 50       		.byte	0x50
 5624 1bf7 01       		.uleb128 0x1
 5625 1bf8 33       		.byte	0x33
 5626 1bf9 25       		.uleb128 0x25
 5627 1bfa 01       		.uleb128 0x1
 5628 1bfb 51       		.byte	0x51
 5629 1bfc 02       		.uleb128 0x2
 5630 1bfd 08       		.byte	0x8
 5631 1bfe 22       		.byte	0x22
 5632 1bff 25       		.uleb128 0x25
 5633 1c00 01       		.uleb128 0x1
 5634 1c01 52       		.byte	0x52
 5635 1c02 03       		.uleb128 0x3
 5636 1c03 0A       		.byte	0xa
 5637 1c04 0401     		.2byte	0x104
 5638 1c06 25       		.uleb128 0x25
 5639 1c07 01       		.uleb128 0x1
 5640 1c08 53       		.byte	0x53
 5641 1c09 02       		.uleb128 0x2
 5642 1c0a 08       		.byte	0x8
 5643 1c0b 22       		.byte	0x22
 5644 1c0c 00       		.byte	0
 5645 1c0d 23       		.uleb128 0x23
 5646 1c0e 32000000 		.4byte	.LVL128
 5647 1c12 9B220000 		.4byte	0x229b
ARM GAS  C:\Users\Mahrukh\AppData\Local\Temp\ccJcQtli.s 			page 123


 5648 1c16 24       		.uleb128 0x24
 5649 1c17 3C000000 		.4byte	.LVL129
 5650 1c1b 8F220000 		.4byte	0x228f
 5651 1c1f 381C0000 		.4byte	0x1c38
 5652 1c23 25       		.uleb128 0x25
 5653 1c24 01       		.uleb128 0x1
 5654 1c25 50       		.byte	0x50
 5655 1c26 05       		.uleb128 0x5
 5656 1c27 03       		.byte	0x3
 5657 1c28 34010000 		.4byte	.LC15
 5658 1c2c 25       		.uleb128 0x25
 5659 1c2d 01       		.uleb128 0x1
 5660 1c2e 51       		.byte	0x51
 5661 1c2f 01       		.uleb128 0x1
 5662 1c30 3A       		.byte	0x3a
 5663 1c31 25       		.uleb128 0x25
 5664 1c32 01       		.uleb128 0x1
 5665 1c33 52       		.byte	0x52
 5666 1c34 02       		.uleb128 0x2
 5667 1c35 08       		.byte	0x8
 5668 1c36 46       		.byte	0x46
 5669 1c37 00       		.byte	0
 5670 1c38 24       		.uleb128 0x24
 5671 1c39 46000000 		.4byte	.LVL130
 5672 1c3d 8F220000 		.4byte	0x228f
 5673 1c41 5A1C0000 		.4byte	0x1c5a
 5674 1c45 25       		.uleb128 0x25
 5675 1c46 01       		.uleb128 0x1
 5676 1c47 50       		.byte	0x50
 5677 1c48 05       		.uleb128 0x5
 5678 1c49 03       		.byte	0x3
 5679 1c4a 64010000 		.4byte	.LC16
 5680 1c4e 25       		.uleb128 0x25
 5681 1c4f 01       		.uleb128 0x1
 5682 1c50 51       		.byte	0x51
 5683 1c51 01       		.uleb128 0x1
 5684 1c52 33       		.byte	0x33
 5685 1c53 25       		.uleb128 0x25
 5686 1c54 01       		.uleb128 0x1
 5687 1c55 52       		.byte	0x52
 5688 1c56 02       		.uleb128 0x2
 5689 1c57 08       		.byte	0x8
 5690 1c58 64       		.byte	0x64
 5691 1c59 00       		.byte	0
 5692 1c5a 24       		.uleb128 0x24
 5693 1c5b 52000000 		.4byte	.LVL131
 5694 1c5f 83220000 		.4byte	0x2283
 5695 1c63 7F1C0000 		.4byte	0x1c7f
 5696 1c67 25       		.uleb128 0x25
 5697 1c68 01       		.uleb128 0x1
 5698 1c69 50       		.byte	0x50
 5699 1c6a 01       		.uleb128 0x1
 5700 1c6b 37       		.byte	0x37
 5701 1c6c 25       		.uleb128 0x25
 5702 1c6d 01       		.uleb128 0x1
 5703 1c6e 51       		.byte	0x51
 5704 1c6f 02       		.uleb128 0x2
ARM GAS  C:\Users\Mahrukh\AppData\Local\Temp\ccJcQtli.s 			page 124


 5705 1c70 08       		.byte	0x8
 5706 1c71 78       		.byte	0x78
 5707 1c72 25       		.uleb128 0x25
 5708 1c73 01       		.uleb128 0x1
 5709 1c74 52       		.byte	0x52
 5710 1c75 02       		.uleb128 0x2
 5711 1c76 08       		.byte	0x8
 5712 1c77 E6       		.byte	0xe6
 5713 1c78 25       		.uleb128 0x25
 5714 1c79 01       		.uleb128 0x1
 5715 1c7a 53       		.byte	0x53
 5716 1c7b 02       		.uleb128 0x2
 5717 1c7c 08       		.byte	0x8
 5718 1c7d A0       		.byte	0xa0
 5719 1c7e 00       		.byte	0
 5720 1c7f 24       		.uleb128 0x24
 5721 1c80 58000000 		.4byte	.LVL132
 5722 1c84 9B220000 		.4byte	0x229b
 5723 1c88 931C0000 		.4byte	0x1c93
 5724 1c8c 25       		.uleb128 0x25
 5725 1c8d 01       		.uleb128 0x1
 5726 1c8e 50       		.byte	0x50
 5727 1c8f 02       		.uleb128 0x2
 5728 1c90 74       		.byte	0x74
 5729 1c91 00       		.sleb128 0
 5730 1c92 00       		.byte	0
 5731 1c93 26       		.uleb128 0x26
 5732 1c94 60000000 		.4byte	.LVL133
 5733 1c98 FC0F0000 		.4byte	0xffc
 5734 1c9c 25       		.uleb128 0x25
 5735 1c9d 01       		.uleb128 0x1
 5736 1c9e 50       		.byte	0x50
 5737 1c9f 01       		.uleb128 0x1
 5738 1ca0 31       		.byte	0x31
 5739 1ca1 25       		.uleb128 0x25
 5740 1ca2 01       		.uleb128 0x1
 5741 1ca3 51       		.byte	0x51
 5742 1ca4 01       		.uleb128 0x1
 5743 1ca5 31       		.byte	0x31
 5744 1ca6 00       		.byte	0
 5745 1ca7 00       		.byte	0
 5746 1ca8 2F       		.uleb128 0x2f
 5747 1ca9 34000000 		.4byte	.LASF286
 5748 1cad 01       		.byte	0x1
 5749 1cae EC       		.byte	0xec
 5750 1caf 00000000 		.4byte	.LFB615
 5751 1cb3 A8030000 		.4byte	.LFE615-.LFB615
 5752 1cb7 01       		.uleb128 0x1
 5753 1cb8 9C       		.byte	0x9c
 5754 1cb9 19200000 		.4byte	0x2019
 5755 1cbd 30       		.uleb128 0x30
 5756 1cbe CA0F0000 		.4byte	0xfca
 5757 1cc2 5E010000 		.4byte	.LBB16
 5758 1cc6 06000000 		.4byte	.LBE16-.LBB16
 5759 1cca 01       		.byte	0x1
 5760 1ccb 2A01     		.2byte	0x12a
 5761 1ccd ED1C0000 		.4byte	0x1ced
ARM GAS  C:\Users\Mahrukh\AppData\Local\Temp\ccJcQtli.s 			page 125


 5762 1cd1 31       		.uleb128 0x31
 5763 1cd2 EF0F0000 		.4byte	0xfef
 5764 1cd6 76020000 		.4byte	.LLST18
 5765 1cda 31       		.uleb128 0x31
 5766 1cdb E30F0000 		.4byte	0xfe3
 5767 1cdf 76020000 		.4byte	.LLST18
 5768 1ce3 31       		.uleb128 0x31
 5769 1ce4 D70F0000 		.4byte	0xfd7
 5770 1ce8 8A020000 		.4byte	.LLST20
 5771 1cec 00       		.byte	0
 5772 1ced 30       		.uleb128 0x30
 5773 1cee CA0F0000 		.4byte	0xfca
 5774 1cf2 EE020000 		.4byte	.LBB18
 5775 1cf6 06000000 		.4byte	.LBE18-.LBB18
 5776 1cfa 01       		.byte	0x1
 5777 1cfb 6101     		.2byte	0x161
 5778 1cfd 1D1D0000 		.4byte	0x1d1d
 5779 1d01 31       		.uleb128 0x31
 5780 1d02 EF0F0000 		.4byte	0xfef
 5781 1d06 A2020000 		.4byte	.LLST21
 5782 1d0a 31       		.uleb128 0x31
 5783 1d0b E30F0000 		.4byte	0xfe3
 5784 1d0f B6020000 		.4byte	.LLST22
 5785 1d13 31       		.uleb128 0x31
 5786 1d14 D70F0000 		.4byte	0xfd7
 5787 1d18 CA020000 		.4byte	.LLST23
 5788 1d1c 00       		.byte	0
 5789 1d1d 30       		.uleb128 0x30
 5790 1d1e CA0F0000 		.4byte	0xfca
 5791 1d22 30030000 		.4byte	.LBB20
 5792 1d26 08000000 		.4byte	.LBE20-.LBB20
 5793 1d2a 01       		.byte	0x1
 5794 1d2b 7201     		.2byte	0x172
 5795 1d2d 4D1D0000 		.4byte	0x1d4d
 5796 1d31 31       		.uleb128 0x31
 5797 1d32 EF0F0000 		.4byte	0xfef
 5798 1d36 E2020000 		.4byte	.LLST24
 5799 1d3a 31       		.uleb128 0x31
 5800 1d3b E30F0000 		.4byte	0xfe3
 5801 1d3f F6020000 		.4byte	.LLST25
 5802 1d43 31       		.uleb128 0x31
 5803 1d44 D70F0000 		.4byte	0xfd7
 5804 1d48 0A030000 		.4byte	.LLST26
 5805 1d4c 00       		.byte	0
 5806 1d4d 30       		.uleb128 0x30
 5807 1d4e CA0F0000 		.4byte	0xfca
 5808 1d52 38030000 		.4byte	.LBB22
 5809 1d56 06000000 		.4byte	.LBE22-.LBB22
 5810 1d5a 01       		.byte	0x1
 5811 1d5b 7401     		.2byte	0x174
 5812 1d5d 7D1D0000 		.4byte	0x1d7d
 5813 1d61 31       		.uleb128 0x31
 5814 1d62 EF0F0000 		.4byte	0xfef
 5815 1d66 22030000 		.4byte	.LLST27
 5816 1d6a 31       		.uleb128 0x31
 5817 1d6b E30F0000 		.4byte	0xfe3
 5818 1d6f 22030000 		.4byte	.LLST27
ARM GAS  C:\Users\Mahrukh\AppData\Local\Temp\ccJcQtli.s 			page 126


 5819 1d73 31       		.uleb128 0x31
 5820 1d74 D70F0000 		.4byte	0xfd7
 5821 1d78 36030000 		.4byte	.LLST29
 5822 1d7c 00       		.byte	0
 5823 1d7d 30       		.uleb128 0x30
 5824 1d7e CA0F0000 		.4byte	0xfca
 5825 1d82 58030000 		.4byte	.LBB24
 5826 1d86 08000000 		.4byte	.LBE24-.LBB24
 5827 1d8a 01       		.byte	0x1
 5828 1d8b 7C01     		.2byte	0x17c
 5829 1d8d AD1D0000 		.4byte	0x1dad
 5830 1d91 31       		.uleb128 0x31
 5831 1d92 EF0F0000 		.4byte	0xfef
 5832 1d96 4E030000 		.4byte	.LLST30
 5833 1d9a 31       		.uleb128 0x31
 5834 1d9b E30F0000 		.4byte	0xfe3
 5835 1d9f 62030000 		.4byte	.LLST31
 5836 1da3 31       		.uleb128 0x31
 5837 1da4 D70F0000 		.4byte	0xfd7
 5838 1da8 76030000 		.4byte	.LLST32
 5839 1dac 00       		.byte	0
 5840 1dad 30       		.uleb128 0x30
 5841 1dae CA0F0000 		.4byte	0xfca
 5842 1db2 60030000 		.4byte	.LBB26
 5843 1db6 06000000 		.4byte	.LBE26-.LBB26
 5844 1dba 01       		.byte	0x1
 5845 1dbb 7E01     		.2byte	0x17e
 5846 1dbd DD1D0000 		.4byte	0x1ddd
 5847 1dc1 31       		.uleb128 0x31
 5848 1dc2 EF0F0000 		.4byte	0xfef
 5849 1dc6 8E030000 		.4byte	.LLST33
 5850 1dca 31       		.uleb128 0x31
 5851 1dcb E30F0000 		.4byte	0xfe3
 5852 1dcf A2030000 		.4byte	.LLST34
 5853 1dd3 31       		.uleb128 0x31
 5854 1dd4 D70F0000 		.4byte	0xfd7
 5855 1dd8 B6030000 		.4byte	.LLST35
 5856 1ddc 00       		.byte	0
 5857 1ddd 23       		.uleb128 0x23
 5858 1dde 06000000 		.4byte	.LVL134
 5859 1de2 E2220000 		.4byte	0x22e2
 5860 1de6 24       		.uleb128 0x24
 5861 1de7 0C000000 		.4byte	.LVL135
 5862 1deb EE220000 		.4byte	0x22ee
 5863 1def F91D0000 		.4byte	0x1df9
 5864 1df3 25       		.uleb128 0x25
 5865 1df4 01       		.uleb128 0x1
 5866 1df5 50       		.byte	0x50
 5867 1df6 01       		.uleb128 0x1
 5868 1df7 44       		.byte	0x44
 5869 1df8 00       		.byte	0
 5870 1df9 24       		.uleb128 0x24
 5871 1dfa 12000000 		.4byte	.LVL136
 5872 1dfe F9220000 		.4byte	0x22f9
 5873 1e02 0C1E0000 		.4byte	0x1e0c
 5874 1e06 25       		.uleb128 0x25
 5875 1e07 01       		.uleb128 0x1
ARM GAS  C:\Users\Mahrukh\AppData\Local\Temp\ccJcQtli.s 			page 127


 5876 1e08 50       		.byte	0x50
 5877 1e09 01       		.uleb128 0x1
 5878 1e0a 31       		.byte	0x31
 5879 1e0b 00       		.byte	0
 5880 1e0c 23       		.uleb128 0x23
 5881 1e0d 16000000 		.4byte	.LVL137
 5882 1e11 A7220000 		.4byte	0x22a7
 5883 1e15 24       		.uleb128 0x24
 5884 1e16 1C000000 		.4byte	.LVL138
 5885 1e1a 04230000 		.4byte	0x2304
 5886 1e1e 281E0000 		.4byte	0x1e28
 5887 1e22 25       		.uleb128 0x25
 5888 1e23 01       		.uleb128 0x1
 5889 1e24 50       		.byte	0x50
 5890 1e25 01       		.uleb128 0x1
 5891 1e26 30       		.byte	0x30
 5892 1e27 00       		.byte	0
 5893 1e28 24       		.uleb128 0x24
 5894 1e29 24000000 		.4byte	.LVL139
 5895 1e2d 10230000 		.4byte	0x2310
 5896 1e31 3F1E0000 		.4byte	0x1e3f
 5897 1e35 25       		.uleb128 0x25
 5898 1e36 01       		.uleb128 0x1
 5899 1e37 50       		.byte	0x50
 5900 1e38 05       		.uleb128 0x5
 5901 1e39 0C       		.byte	0xc
 5902 1e3a FFFFFF00 		.4byte	0xffffff
 5903 1e3e 00       		.byte	0
 5904 1e3f 24       		.uleb128 0x24
 5905 1e40 2A000000 		.4byte	.LVL140
 5906 1e44 6B220000 		.4byte	0x226b
 5907 1e48 521E0000 		.4byte	0x1e52
 5908 1e4c 25       		.uleb128 0x25
 5909 1e4d 01       		.uleb128 0x1
 5910 1e4e 50       		.byte	0x50
 5911 1e4f 01       		.uleb128 0x1
 5912 1e50 31       		.byte	0x31
 5913 1e51 00       		.byte	0
 5914 1e52 23       		.uleb128 0x23
 5915 1e53 30000000 		.4byte	.LVL141
 5916 1e57 9B220000 		.4byte	0x229b
 5917 1e5b 24       		.uleb128 0x24
 5918 1e5c 42000000 		.4byte	.LVL142
 5919 1e60 34130000 		.4byte	0x1334
 5920 1e64 751E0000 		.4byte	0x1e75
 5921 1e68 25       		.uleb128 0x25
 5922 1e69 01       		.uleb128 0x1
 5923 1e6a 50       		.byte	0x50
 5924 1e6b 02       		.uleb128 0x2
 5925 1e6c 08       		.byte	0x8
 5926 1e6d 64       		.byte	0x64
 5927 1e6e 25       		.uleb128 0x25
 5928 1e6f 01       		.uleb128 0x1
 5929 1e70 51       		.byte	0x51
 5930 1e71 02       		.uleb128 0x2
 5931 1e72 08       		.byte	0x8
 5932 1e73 42       		.byte	0x42
ARM GAS  C:\Users\Mahrukh\AppData\Local\Temp\ccJcQtli.s 			page 128


 5933 1e74 00       		.byte	0
 5934 1e75 24       		.uleb128 0x24
 5935 1e76 58000000 		.4byte	.LVL143
 5936 1e7a 2D110000 		.4byte	0x112d
 5937 1e7e 911E0000 		.4byte	0x1e91
 5938 1e82 25       		.uleb128 0x25
 5939 1e83 01       		.uleb128 0x1
 5940 1e84 50       		.byte	0x50
 5941 1e85 05       		.uleb128 0x5
 5942 1e86 03       		.byte	0x3
 5943 1e87 00000000 		.4byte	INFRAROUGE
 5944 1e8b 25       		.uleb128 0x25
 5945 1e8c 01       		.uleb128 0x1
 5946 1e8d 51       		.byte	0x51
 5947 1e8e 01       		.uleb128 0x1
 5948 1e8f 33       		.byte	0x33
 5949 1e90 00       		.byte	0
 5950 1e91 24       		.uleb128 0x24
 5951 1e92 6E000000 		.4byte	.LVL144
 5952 1e96 2D110000 		.4byte	0x112d
 5953 1e9a AD1E0000 		.4byte	0x1ead
 5954 1e9e 25       		.uleb128 0x25
 5955 1e9f 01       		.uleb128 0x1
 5956 1ea0 50       		.byte	0x50
 5957 1ea1 05       		.uleb128 0x5
 5958 1ea2 03       		.byte	0x3
 5959 1ea3 00000000 		.4byte	ROUGE
 5960 1ea7 25       		.uleb128 0x25
 5961 1ea8 01       		.uleb128 0x1
 5962 1ea9 51       		.byte	0x51
 5963 1eaa 01       		.uleb128 0x1
 5964 1eab 33       		.byte	0x33
 5965 1eac 00       		.byte	0
 5966 1ead 24       		.uleb128 0x24
 5967 1eae 9A000000 		.4byte	.LVL145
 5968 1eb2 88140000 		.4byte	0x1488
 5969 1eb6 C11E0000 		.4byte	0x1ec1
 5970 1eba 25       		.uleb128 0x25
 5971 1ebb 01       		.uleb128 0x1
 5972 1ebc 50       		.byte	0x50
 5973 1ebd 02       		.uleb128 0x2
 5974 1ebe 08       		.byte	0x8
 5975 1ebf 28       		.byte	0x28
 5976 1ec0 00       		.byte	0
 5977 1ec1 23       		.uleb128 0x23
 5978 1ec2 FA000000 		.4byte	.LVL146
 5979 1ec6 88140000 		.4byte	0x1488
 5980 1eca 23       		.uleb128 0x23
 5981 1ecb 20010000 		.4byte	.LVL147
 5982 1ecf D9150000 		.4byte	0x15d9
 5983 1ed3 23       		.uleb128 0x23
 5984 1ed4 36010000 		.4byte	.LVL148
 5985 1ed8 9B220000 		.4byte	0x229b
 5986 1edc 24       		.uleb128 0x24
 5987 1edd 40010000 		.4byte	.LVL149
 5988 1ee1 8F220000 		.4byte	0x228f
 5989 1ee5 FE1E0000 		.4byte	0x1efe
ARM GAS  C:\Users\Mahrukh\AppData\Local\Temp\ccJcQtli.s 			page 129


 5990 1ee9 25       		.uleb128 0x25
 5991 1eea 01       		.uleb128 0x1
 5992 1eeb 50       		.byte	0x50
 5993 1eec 05       		.uleb128 0x5
 5994 1eed 03       		.byte	0x3
 5995 1eee B8020000 		.4byte	.LC28
 5996 1ef2 25       		.uleb128 0x25
 5997 1ef3 01       		.uleb128 0x1
 5998 1ef4 51       		.byte	0x51
 5999 1ef5 01       		.uleb128 0x1
 6000 1ef6 49       		.byte	0x49
 6001 1ef7 25       		.uleb128 0x25
 6002 1ef8 01       		.uleb128 0x1
 6003 1ef9 52       		.byte	0x52
 6004 1efa 02       		.uleb128 0x2
 6005 1efb 08       		.byte	0x8
 6006 1efc 82       		.byte	0x82
 6007 1efd 00       		.byte	0
 6008 1efe 24       		.uleb128 0x24
 6009 1eff 48010000 		.4byte	.LVL150
 6010 1f03 FC0F0000 		.4byte	0xffc
 6011 1f07 181F0000 		.4byte	0x1f18
 6012 1f0b 25       		.uleb128 0x25
 6013 1f0c 01       		.uleb128 0x1
 6014 1f0d 50       		.byte	0x50
 6015 1f0e 02       		.uleb128 0x2
 6016 1f0f 74       		.byte	0x74
 6017 1f10 00       		.sleb128 0
 6018 1f11 25       		.uleb128 0x25
 6019 1f12 01       		.uleb128 0x1
 6020 1f13 51       		.byte	0x51
 6021 1f14 02       		.uleb128 0x2
 6022 1f15 74       		.byte	0x74
 6023 1f16 00       		.sleb128 0
 6024 1f17 00       		.byte	0
 6025 1f18 23       		.uleb128 0x23
 6026 1f19 6A010000 		.4byte	.LVL153
 6027 1f1d 9B220000 		.4byte	0x229b
 6028 1f21 24       		.uleb128 0x24
 6029 1f22 74010000 		.4byte	.LVL154
 6030 1f26 8F220000 		.4byte	0x228f
 6031 1f2a 431F0000 		.4byte	0x1f43
 6032 1f2e 25       		.uleb128 0x25
 6033 1f2f 01       		.uleb128 0x1
 6034 1f30 50       		.byte	0x50
 6035 1f31 05       		.uleb128 0x5
 6036 1f32 03       		.byte	0x3
 6037 1f33 D0020000 		.4byte	.LC29
 6038 1f37 25       		.uleb128 0x25
 6039 1f38 01       		.uleb128 0x1
 6040 1f39 51       		.byte	0x51
 6041 1f3a 01       		.uleb128 0x1
 6042 1f3b 49       		.byte	0x49
 6043 1f3c 25       		.uleb128 0x25
 6044 1f3d 01       		.uleb128 0x1
 6045 1f3e 52       		.byte	0x52
 6046 1f3f 02       		.uleb128 0x2
ARM GAS  C:\Users\Mahrukh\AppData\Local\Temp\ccJcQtli.s 			page 130


 6047 1f40 08       		.byte	0x8
 6048 1f41 82       		.byte	0x82
 6049 1f42 00       		.byte	0
 6050 1f43 24       		.uleb128 0x24
 6051 1f44 7C010000 		.4byte	.LVL155
 6052 1f48 FC0F0000 		.4byte	0xffc
 6053 1f4c 5B1F0000 		.4byte	0x1f5b
 6054 1f50 25       		.uleb128 0x25
 6055 1f51 01       		.uleb128 0x1
 6056 1f52 50       		.byte	0x50
 6057 1f53 01       		.uleb128 0x1
 6058 1f54 31       		.byte	0x31
 6059 1f55 25       		.uleb128 0x25
 6060 1f56 01       		.uleb128 0x1
 6061 1f57 51       		.byte	0x51
 6062 1f58 01       		.uleb128 0x1
 6063 1f59 31       		.byte	0x31
 6064 1f5a 00       		.byte	0
 6065 1f5b 23       		.uleb128 0x23
 6066 1f5c B4010000 		.4byte	.LVL156
 6067 1f60 01170000 		.4byte	0x1701
 6068 1f64 23       		.uleb128 0x23
 6069 1f65 08020000 		.4byte	.LVL157
 6070 1f69 AE180000 		.4byte	0x18ae
 6071 1f6d 23       		.uleb128 0x23
 6072 1f6e 5C020000 		.4byte	.LVL158
 6073 1f72 171A0000 		.4byte	0x1a17
 6074 1f76 23       		.uleb128 0x23
 6075 1f77 B0020000 		.4byte	.LVL159
 6076 1f7b 801B0000 		.4byte	0x1b80
 6077 1f7f 23       		.uleb128 0x23
 6078 1f80 C6020000 		.4byte	.LVL160
 6079 1f84 9B220000 		.4byte	0x229b
 6080 1f88 24       		.uleb128 0x24
 6081 1f89 D0020000 		.4byte	.LVL161
 6082 1f8d 8F220000 		.4byte	0x228f
 6083 1f91 AA1F0000 		.4byte	0x1faa
 6084 1f95 25       		.uleb128 0x25
 6085 1f96 01       		.uleb128 0x1
 6086 1f97 50       		.byte	0x50
 6087 1f98 05       		.uleb128 0x5
 6088 1f99 03       		.byte	0x3
 6089 1f9a B8020000 		.4byte	.LC28
 6090 1f9e 25       		.uleb128 0x25
 6091 1f9f 01       		.uleb128 0x1
 6092 1fa0 51       		.byte	0x51
 6093 1fa1 01       		.uleb128 0x1
 6094 1fa2 49       		.byte	0x49
 6095 1fa3 25       		.uleb128 0x25
 6096 1fa4 01       		.uleb128 0x1
 6097 1fa5 52       		.byte	0x52
 6098 1fa6 02       		.uleb128 0x2
 6099 1fa7 08       		.byte	0x8
 6100 1fa8 82       		.byte	0x82
 6101 1fa9 00       		.byte	0
 6102 1faa 24       		.uleb128 0x24
 6103 1fab D8020000 		.4byte	.LVL162
ARM GAS  C:\Users\Mahrukh\AppData\Local\Temp\ccJcQtli.s 			page 131


 6104 1faf FC0F0000 		.4byte	0xffc
 6105 1fb3 C41F0000 		.4byte	0x1fc4
 6106 1fb7 25       		.uleb128 0x25
 6107 1fb8 01       		.uleb128 0x1
 6108 1fb9 50       		.byte	0x50
 6109 1fba 02       		.uleb128 0x2
 6110 1fbb 74       		.byte	0x74
 6111 1fbc 00       		.sleb128 0
 6112 1fbd 25       		.uleb128 0x25
 6113 1fbe 01       		.uleb128 0x1
 6114 1fbf 51       		.byte	0x51
 6115 1fc0 02       		.uleb128 0x2
 6116 1fc1 74       		.byte	0x74
 6117 1fc2 00       		.sleb128 0
 6118 1fc3 00       		.byte	0
 6119 1fc4 23       		.uleb128 0x23
 6120 1fc5 FA020000 		.4byte	.LVL165
 6121 1fc9 9B220000 		.4byte	0x229b
 6122 1fcd 24       		.uleb128 0x24
 6123 1fce 04030000 		.4byte	.LVL166
 6124 1fd2 8F220000 		.4byte	0x228f
 6125 1fd6 EF1F0000 		.4byte	0x1fef
 6126 1fda 25       		.uleb128 0x25
 6127 1fdb 01       		.uleb128 0x1
 6128 1fdc 50       		.byte	0x50
 6129 1fdd 05       		.uleb128 0x5
 6130 1fde 03       		.byte	0x3
 6131 1fdf D0020000 		.4byte	.LC29
 6132 1fe3 25       		.uleb128 0x25
 6133 1fe4 01       		.uleb128 0x1
 6134 1fe5 51       		.byte	0x51
 6135 1fe6 01       		.uleb128 0x1
 6136 1fe7 49       		.byte	0x49
 6137 1fe8 25       		.uleb128 0x25
 6138 1fe9 01       		.uleb128 0x1
 6139 1fea 52       		.byte	0x52
 6140 1feb 02       		.uleb128 0x2
 6141 1fec 08       		.byte	0x8
 6142 1fed 82       		.byte	0x82
 6143 1fee 00       		.byte	0
 6144 1fef 24       		.uleb128 0x24
 6145 1ff0 0C030000 		.4byte	.LVL167
 6146 1ff4 FC0F0000 		.4byte	0xffc
 6147 1ff8 07200000 		.4byte	0x2007
 6148 1ffc 25       		.uleb128 0x25
 6149 1ffd 01       		.uleb128 0x1
 6150 1ffe 50       		.byte	0x50
 6151 1fff 01       		.uleb128 0x1
 6152 2000 31       		.byte	0x31
 6153 2001 25       		.uleb128 0x25
 6154 2002 01       		.uleb128 0x1
 6155 2003 51       		.byte	0x51
 6156 2004 01       		.uleb128 0x1
 6157 2005 31       		.byte	0x31
 6158 2006 00       		.byte	0
 6159 2007 26       		.uleb128 0x26
 6160 2008 6E030000 		.4byte	.LVL174
ARM GAS  C:\Users\Mahrukh\AppData\Local\Temp\ccJcQtli.s 			page 132


 6161 200c 1C230000 		.4byte	0x231c
 6162 2010 25       		.uleb128 0x25
 6163 2011 01       		.uleb128 0x1
 6164 2012 50       		.byte	0x50
 6165 2013 03       		.uleb128 0x3
 6166 2014 0A       		.byte	0xa
 6167 2015 5E01     		.2byte	0x15e
 6168 2017 00       		.byte	0
 6169 2018 00       		.byte	0
 6170 2019 32       		.uleb128 0x32
 6171 201a A70C0000 		.4byte	.LASF287
 6172 201e 11       		.byte	0x11
 6173 201f 0108     		.2byte	0x801
 6174 2021 25200000 		.4byte	0x2025
 6175 2025 05       		.uleb128 0x5
 6176 2026 C3000000 		.4byte	0xc3
 6177 202a 33       		.uleb128 0x33
 6178 202b 85000000 		.4byte	.LASF288
 6179 202f 07       		.byte	0x7
 6180 2030 A7       		.byte	0xa7
 6181 2031 35200000 		.4byte	0x2035
 6182 2035 0F       		.uleb128 0xf
 6183 2036 04       		.byte	0x4
 6184 2037 3B200000 		.4byte	0x203b
 6185 203b 06       		.uleb128 0x6
 6186 203c CE060000 		.4byte	0x6ce
 6187 2040 33       		.uleb128 0x33
 6188 2041 B2000000 		.4byte	.LASF289
 6189 2045 12       		.byte	0x12
 6190 2046 5E       		.byte	0x5e
 6191 2047 B5070000 		.4byte	0x7b5
 6192 204b 33       		.uleb128 0x33
 6193 204c B9080000 		.4byte	.LASF290
 6194 2050 13       		.byte	0x13
 6195 2051 1F       		.byte	0x1f
 6196 2052 56200000 		.4byte	0x2056
 6197 2056 06       		.uleb128 0x6
 6198 2057 8E090000 		.4byte	0x98e
 6199 205b 33       		.uleb128 0x33
 6200 205c 30070000 		.4byte	.LASF291
 6201 2060 14       		.byte	0x14
 6202 2061 87       		.byte	0x87
 6203 2062 91080000 		.4byte	0x891
 6204 2066 32       		.uleb128 0x32
 6205 2067 7E090000 		.4byte	.LASF292
 6206 206b 15       		.byte	0x15
 6207 206c 0008     		.2byte	0x800
 6208 206e 0C0E0000 		.4byte	0xe0c
 6209 2072 32       		.uleb128 0x32
 6210 2073 6B070000 		.4byte	.LASF293
 6211 2077 15       		.byte	0x15
 6212 2078 0708     		.2byte	0x807
 6213 207a 0C0E0000 		.4byte	0xe0c
 6214 207e 32       		.uleb128 0x32
 6215 207f 520D0000 		.4byte	.LASF294
 6216 2083 15       		.byte	0x15
 6217 2084 0808     		.2byte	0x808
ARM GAS  C:\Users\Mahrukh\AppData\Local\Temp\ccJcQtli.s 			page 133


 6218 2086 0C0E0000 		.4byte	0xe0c
 6219 208a 32       		.uleb128 0x32
 6220 208b 440D0000 		.4byte	.LASF295
 6221 208f 15       		.byte	0x15
 6222 2090 0E08     		.2byte	0x80e
 6223 2092 0C0E0000 		.4byte	0xe0c
 6224 2096 34       		.uleb128 0x34
 6225 2097 5C0C0000 		.4byte	.LASF296
 6226 209b 16       		.byte	0x16
 6227 209c 19       		.byte	0x19
 6228 209d E5000000 		.4byte	0xe5
 6229 20a1 05       		.uleb128 0x5
 6230 20a2 03       		.byte	0x3
 6231 20a3 00000000 		.4byte	courant
 6232 20a7 34       		.uleb128 0x34
 6233 20a8 470C0000 		.4byte	.LASF297
 6234 20ac 16       		.byte	0x16
 6235 20ad 1A       		.byte	0x1a
 6236 20ae 0E070000 		.4byte	0x70e
 6237 20b2 05       		.uleb128 0x5
 6238 20b3 03       		.byte	0x3
 6239 20b4 00000000 		.4byte	alarme_acc
 6240 20b8 34       		.uleb128 0x34
 6241 20b9 EB0E0000 		.4byte	.LASF298
 6242 20bd 16       		.byte	0x16
 6243 20be 1B       		.byte	0x1b
 6244 20bf 0E070000 		.4byte	0x70e
 6245 20c3 05       		.uleb128 0x5
 6246 20c4 03       		.byte	0x3
 6247 20c5 00000000 		.4byte	alarme_FC
 6248 20c9 34       		.uleb128 0x34
 6249 20ca FF100000 		.4byte	.LASF299
 6250 20ce 16       		.byte	0x16
 6251 20cf 1C       		.byte	0x1c
 6252 20d0 A2000000 		.4byte	0xa2
 6253 20d4 05       		.uleb128 0x5
 6254 20d5 03       		.byte	0x3
 6255 20d6 00000000 		.4byte	borne_inferieur
 6256 20da 34       		.uleb128 0x34
 6257 20db AE110000 		.4byte	.LASF300
 6258 20df 16       		.byte	0x16
 6259 20e0 1D       		.byte	0x1d
 6260 20e1 A2000000 		.4byte	0xa2
 6261 20e5 05       		.uleb128 0x5
 6262 20e6 03       		.byte	0x3
 6263 20e7 00000000 		.4byte	borne_superieur
 6264 20eb 07       		.uleb128 0x7
 6265 20ec E5060000 		.4byte	0x6e5
 6266 20f0 FB200000 		.4byte	0x20fb
 6267 20f4 08       		.uleb128 0x8
 6268 20f5 D9000000 		.4byte	0xd9
 6269 20f9 63       		.byte	0x63
 6270 20fa 00       		.byte	0
 6271 20fb 34       		.uleb128 0x34
 6272 20fc 1E010000 		.4byte	.LASF301
 6273 2100 16       		.byte	0x16
 6274 2101 1E       		.byte	0x1e
ARM GAS  C:\Users\Mahrukh\AppData\Local\Temp\ccJcQtli.s 			page 134


 6275 2102 EB200000 		.4byte	0x20eb
 6276 2106 05       		.uleb128 0x5
 6277 2107 03       		.byte	0x3
 6278 2108 00000000 		.4byte	buffer
 6279 210c 34       		.uleb128 0x34
 6280 210d 08060000 		.4byte	.LASF302
 6281 2111 16       		.byte	0x16
 6282 2112 1F       		.byte	0x1f
 6283 2113 EB200000 		.4byte	0x20eb
 6284 2117 05       		.uleb128 0x5
 6285 2118 03       		.byte	0x3
 6286 2119 00000000 		.4byte	buffer_0
 6287 211d 34       		.uleb128 0x34
 6288 211e 11060000 		.4byte	.LASF303
 6289 2122 16       		.byte	0x16
 6290 2123 20       		.byte	0x20
 6291 2124 EB200000 		.4byte	0x20eb
 6292 2128 05       		.uleb128 0x5
 6293 2129 03       		.byte	0x3
 6294 212a 00000000 		.4byte	buffer_1
 6295 212e 07       		.uleb128 0x7
 6296 212f FA060000 		.4byte	0x6fa
 6297 2133 3F210000 		.4byte	0x213f
 6298 2137 35       		.uleb128 0x35
 6299 2138 D9000000 		.4byte	0xd9
 6300 213c AF16     		.2byte	0x16af
 6301 213e 00       		.byte	0
 6302 213f 34       		.uleb128 0x34
 6303 2140 3D010000 		.4byte	.LASF304
 6304 2144 16       		.byte	0x16
 6305 2145 21       		.byte	0x21
 6306 2146 2E210000 		.4byte	0x212e
 6307 214a 05       		.uleb128 0x5
 6308 214b 03       		.byte	0x3
 6309 214c 00000000 		.4byte	imageBufferCache
 6310 2150 34       		.uleb128 0x34
 6311 2151 35060000 		.4byte	.LASF305
 6312 2155 16       		.byte	0x16
 6313 2156 22       		.byte	0x22
 6314 2157 61210000 		.4byte	0x2161
 6315 215b 05       		.uleb128 0x5
 6316 215c 03       		.byte	0x3
 6317 215d 00000000 		.4byte	etat
 6318 2161 05       		.uleb128 0x5
 6319 2162 94000000 		.4byte	0x94
 6320 2166 34       		.uleb128 0x34
 6321 2167 41000000 		.4byte	.LASF306
 6322 216b 16       		.byte	0x16
 6323 216c 23       		.byte	0x23
 6324 216d 61210000 		.4byte	0x2161
 6325 2171 05       		.uleb128 0x5
 6326 2172 03       		.byte	0x3
 6327 2173 00000000 		.4byte	bouton
 6328 2177 34       		.uleb128 0x34
 6329 2178 57070000 		.4byte	.LASF307
 6330 217c 10       		.byte	0x10
 6331 217d 2F       		.byte	0x2f
ARM GAS  C:\Users\Mahrukh\AppData\Local\Temp\ccJcQtli.s 			page 135


 6332 217e 88210000 		.4byte	0x2188
 6333 2182 05       		.uleb128 0x5
 6334 2183 03       		.byte	0x3
 6335 2184 00000000 		.4byte	currentScreen
 6336 2188 05       		.uleb128 0x5
 6337 2189 BF0F0000 		.4byte	0xfbf
 6338 218d 34       		.uleb128 0x34
 6339 218e 96050000 		.4byte	.LASF308
 6340 2192 10       		.byte	0x10
 6341 2193 30       		.byte	0x30
 6342 2194 FA060000 		.4byte	0x6fa
 6343 2198 05       		.uleb128 0x5
 6344 2199 03       		.byte	0x3
 6345 219a 00000000 		.4byte	postion_MENU
 6346 219e 34       		.uleb128 0x34
 6347 219f 1F110000 		.4byte	.LASF309
 6348 21a3 10       		.byte	0x10
 6349 21a4 31       		.byte	0x31
 6350 21a5 FA060000 		.4byte	0x6fa
 6351 21a9 05       		.uleb128 0x5
 6352 21aa 03       		.byte	0x3
 6353 21ab 00000000 		.4byte	selection_MENU
 6354 21af 07       		.uleb128 0x7
 6355 21b0 25000000 		.4byte	0x25
 6356 21b4 C0210000 		.4byte	0x21c0
 6357 21b8 35       		.uleb128 0x35
 6358 21b9 D9000000 		.4byte	0xd9
 6359 21bd 4F01     		.2byte	0x14f
 6360 21bf 00       		.byte	0
 6361 21c0 34       		.uleb128 0x34
 6362 21c1 E2070000 		.4byte	.LASF310
 6363 21c5 10       		.byte	0x10
 6364 21c6 32       		.byte	0x32
 6365 21c7 AF210000 		.4byte	0x21af
 6366 21cb 05       		.uleb128 0x5
 6367 21cc 03       		.byte	0x3
 6368 21cd 00000000 		.4byte	data
 6369 21d1 07       		.uleb128 0x7
 6370 21d2 25000000 		.4byte	0x25
 6371 21d6 E1210000 		.4byte	0x21e1
 6372 21da 08       		.uleb128 0x8
 6373 21db D9000000 		.4byte	0xd9
 6374 21df F9       		.byte	0xf9
 6375 21e0 00       		.byte	0
 6376 21e1 34       		.uleb128 0x34
 6377 21e2 AA0D0000 		.4byte	.LASF311
 6378 21e6 10       		.byte	0x10
 6379 21e7 33       		.byte	0x33
 6380 21e8 D1210000 		.4byte	0x21d1
 6381 21ec 05       		.uleb128 0x5
 6382 21ed 03       		.byte	0x3
 6383 21ee 00000000 		.4byte	vecteurespacee
 6384 21f2 34       		.uleb128 0x34
 6385 21f3 41100000 		.4byte	.LASF312
 6386 21f7 10       		.byte	0x10
 6387 21f8 38       		.byte	0x38
 6388 21f9 0E070000 		.4byte	0x70e
ARM GAS  C:\Users\Mahrukh\AppData\Local\Temp\ccJcQtli.s 			page 136


 6389 21fd 05       		.uleb128 0x5
 6390 21fe 03       		.byte	0x3
 6391 21ff 00000000 		.4byte	yassine
 6392 2203 34       		.uleb128 0x34
 6393 2204 500A0000 		.4byte	.LASF313
 6394 2208 10       		.byte	0x10
 6395 2209 39       		.byte	0x39
 6396 220a A2000000 		.4byte	0xa2
 6397 220e 05       		.uleb128 0x5
 6398 220f 03       		.byte	0x3
 6399 2210 00000000 		.4byte	andree
 6400 2214 34       		.uleb128 0x34
 6401 2215 08100000 		.4byte	.LASF314
 6402 2219 10       		.byte	0x10
 6403 221a 40       		.byte	0x40
 6404 221b EF000000 		.4byte	0xef
 6405 221f 05       		.uleb128 0x5
 6406 2220 03       		.byte	0x3
 6407 2221 00000000 		.4byte	INFRAROUGE
 6408 2225 34       		.uleb128 0x34
 6409 2226 65070000 		.4byte	.LASF315
 6410 222a 10       		.byte	0x10
 6411 222b 41       		.byte	0x41
 6412 222c EF000000 		.4byte	0xef
 6413 2230 05       		.uleb128 0x5
 6414 2231 03       		.byte	0x3
 6415 2232 00000000 		.4byte	ROUGE
 6416 2236 33       		.uleb128 0x33
 6417 2237 430A0000 		.4byte	.LASF316
 6418 223b 10       		.byte	0x10
 6419 223c 42       		.byte	0x42
 6420 223d 94000000 		.4byte	0x94
 6421 2241 33       		.uleb128 0x33
 6422 2242 CE080000 		.4byte	.LASF317
 6423 2246 10       		.byte	0x10
 6424 2247 43       		.byte	0x43
 6425 2248 94000000 		.4byte	0x94
 6426 224c 36       		.uleb128 0x36
 6427 224d 6E0D0000 		.4byte	.LASF318
 6428 2251 6E0D0000 		.4byte	.LASF318
 6429 2255 17       		.byte	0x17
 6430 2256 34       		.byte	0x34
 6431 2257 36       		.uleb128 0x36
 6432 2258 02040000 		.4byte	.LASF319
 6433 225c 02040000 		.4byte	.LASF319
 6434 2260 0E       		.byte	0xe
 6435 2261 7E       		.byte	0x7e
 6436 2262 37       		.uleb128 0x37
 6437 2263 D3100000 		.4byte	.LASF340
 6438 2267 D3100000 		.4byte	.LASF340
 6439 226b 38       		.uleb128 0x38
 6440 226c E6000000 		.4byte	.LASF320
 6441 2270 E6000000 		.4byte	.LASF320
 6442 2274 15       		.byte	0x15
 6443 2275 C501     		.2byte	0x1c5
 6444 2277 38       		.uleb128 0x38
 6445 2278 71050000 		.4byte	.LASF321
ARM GAS  C:\Users\Mahrukh\AppData\Local\Temp\ccJcQtli.s 			page 137


 6446 227c 71050000 		.4byte	.LASF321
 6447 2280 15       		.byte	0x15
 6448 2281 0602     		.2byte	0x206
 6449 2283 38       		.uleb128 0x38
 6450 2284 B7090000 		.4byte	.LASF322
 6451 2288 B7090000 		.4byte	.LASF322
 6452 228c 15       		.byte	0x15
 6453 228d 1202     		.2byte	0x212
 6454 228f 38       		.uleb128 0x38
 6455 2290 7C060000 		.4byte	.LASF323
 6456 2294 7C060000 		.4byte	.LASF323
 6457 2298 15       		.byte	0x15
 6458 2299 0503     		.2byte	0x305
 6459 229b 38       		.uleb128 0x38
 6460 229c 71100000 		.4byte	.LASF324
 6461 22a0 71100000 		.4byte	.LASF324
 6462 22a4 15       		.byte	0x15
 6463 22a5 2B03     		.2byte	0x32b
 6464 22a7 38       		.uleb128 0x38
 6465 22a8 DB090000 		.4byte	.LASF325
 6466 22ac DB090000 		.4byte	.LASF325
 6467 22b0 15       		.byte	0x15
 6468 22b1 F601     		.2byte	0x1f6
 6469 22b3 36       		.uleb128 0x36
 6470 22b4 5C0B0000 		.4byte	.LASF326
 6471 22b8 5C0B0000 		.4byte	.LASF326
 6472 22bc 18       		.byte	0x18
 6473 22bd E7       		.byte	0xe7
 6474 22be 38       		.uleb128 0x38
 6475 22bf E40F0000 		.4byte	.LASF327
 6476 22c3 E40F0000 		.4byte	.LASF327
 6477 22c7 15       		.byte	0x15
 6478 22c8 2603     		.2byte	0x326
 6479 22ca 38       		.uleb128 0x38
 6480 22cb 14040000 		.4byte	.LASF328
 6481 22cf 14040000 		.4byte	.LASF328
 6482 22d3 15       		.byte	0x15
 6483 22d4 0002     		.2byte	0x200
 6484 22d6 38       		.uleb128 0x38
 6485 22d7 B9060000 		.4byte	.LASF329
 6486 22db B9060000 		.4byte	.LASF329
 6487 22df 15       		.byte	0x15
 6488 22e0 0902     		.2byte	0x209
 6489 22e2 38       		.uleb128 0x38
 6490 22e3 4D090000 		.4byte	.LASF330
 6491 22e7 4D090000 		.4byte	.LASF330
 6492 22eb 15       		.byte	0x15
 6493 22ec 6D01     		.2byte	0x16d
 6494 22ee 36       		.uleb128 0x36
 6495 22ef 010C0000 		.4byte	.LASF331
 6496 22f3 010C0000 		.4byte	.LASF331
 6497 22f7 0E       		.byte	0xe
 6498 22f8 79       		.byte	0x79
 6499 22f9 36       		.uleb128 0x36
 6500 22fa DE0C0000 		.4byte	.LASF332
 6501 22fe DE0C0000 		.4byte	.LASF332
 6502 2302 0E       		.byte	0xe
ARM GAS  C:\Users\Mahrukh\AppData\Local\Temp\ccJcQtli.s 			page 138


 6503 2303 7A       		.byte	0x7a
 6504 2304 38       		.uleb128 0x38
 6505 2305 9D0B0000 		.4byte	.LASF333
 6506 2309 9D0B0000 		.4byte	.LASF333
 6507 230d 15       		.byte	0x15
 6508 230e C101     		.2byte	0x1c1
 6509 2310 38       		.uleb128 0x38
 6510 2311 2E010000 		.4byte	.LASF334
 6511 2315 2E010000 		.4byte	.LASF334
 6512 2319 15       		.byte	0x15
 6513 231a C001     		.2byte	0x1c0
 6514 231c 38       		.uleb128 0x38
 6515 231d 4E060000 		.4byte	.LASF335
 6516 2321 4E060000 		.4byte	.LASF335
 6517 2325 19       		.byte	0x19
 6518 2326 ED02     		.2byte	0x2ed
 6519 2328 00       		.byte	0
 6520              		.section	.debug_abbrev,"",%progbits
 6521              	.Ldebug_abbrev0:
 6522 0000 01       		.uleb128 0x1
 6523 0001 11       		.uleb128 0x11
 6524 0002 01       		.byte	0x1
 6525 0003 25       		.uleb128 0x25
 6526 0004 0E       		.uleb128 0xe
 6527 0005 13       		.uleb128 0x13
 6528 0006 0B       		.uleb128 0xb
 6529 0007 03       		.uleb128 0x3
 6530 0008 0E       		.uleb128 0xe
 6531 0009 1B       		.uleb128 0x1b
 6532 000a 0E       		.uleb128 0xe
 6533 000b 55       		.uleb128 0x55
 6534 000c 17       		.uleb128 0x17
 6535 000d 11       		.uleb128 0x11
 6536 000e 01       		.uleb128 0x1
 6537 000f 10       		.uleb128 0x10
 6538 0010 17       		.uleb128 0x17
 6539 0011 00       		.byte	0
 6540 0012 00       		.byte	0
 6541 0013 02       		.uleb128 0x2
 6542 0014 24       		.uleb128 0x24
 6543 0015 00       		.byte	0
 6544 0016 0B       		.uleb128 0xb
 6545 0017 0B       		.uleb128 0xb
 6546 0018 3E       		.uleb128 0x3e
 6547 0019 0B       		.uleb128 0xb
 6548 001a 03       		.uleb128 0x3
 6549 001b 0E       		.uleb128 0xe
 6550 001c 00       		.byte	0
 6551 001d 00       		.byte	0
 6552 001e 03       		.uleb128 0x3
 6553 001f 16       		.uleb128 0x16
 6554 0020 00       		.byte	0
 6555 0021 03       		.uleb128 0x3
 6556 0022 0E       		.uleb128 0xe
 6557 0023 3A       		.uleb128 0x3a
 6558 0024 0B       		.uleb128 0xb
 6559 0025 3B       		.uleb128 0x3b
ARM GAS  C:\Users\Mahrukh\AppData\Local\Temp\ccJcQtli.s 			page 139


 6560 0026 0B       		.uleb128 0xb
 6561 0027 49       		.uleb128 0x49
 6562 0028 13       		.uleb128 0x13
 6563 0029 00       		.byte	0
 6564 002a 00       		.byte	0
 6565 002b 04       		.uleb128 0x4
 6566 002c 24       		.uleb128 0x24
 6567 002d 00       		.byte	0
 6568 002e 0B       		.uleb128 0xb
 6569 002f 0B       		.uleb128 0xb
 6570 0030 3E       		.uleb128 0x3e
 6571 0031 0B       		.uleb128 0xb
 6572 0032 03       		.uleb128 0x3
 6573 0033 08       		.uleb128 0x8
 6574 0034 00       		.byte	0
 6575 0035 00       		.byte	0
 6576 0036 05       		.uleb128 0x5
 6577 0037 35       		.uleb128 0x35
 6578 0038 00       		.byte	0
 6579 0039 49       		.uleb128 0x49
 6580 003a 13       		.uleb128 0x13
 6581 003b 00       		.byte	0
 6582 003c 00       		.byte	0
 6583 003d 06       		.uleb128 0x6
 6584 003e 26       		.uleb128 0x26
 6585 003f 00       		.byte	0
 6586 0040 49       		.uleb128 0x49
 6587 0041 13       		.uleb128 0x13
 6588 0042 00       		.byte	0
 6589 0043 00       		.byte	0
 6590 0044 07       		.uleb128 0x7
 6591 0045 01       		.uleb128 0x1
 6592 0046 01       		.byte	0x1
 6593 0047 49       		.uleb128 0x49
 6594 0048 13       		.uleb128 0x13
 6595 0049 01       		.uleb128 0x1
 6596 004a 13       		.uleb128 0x13
 6597 004b 00       		.byte	0
 6598 004c 00       		.byte	0
 6599 004d 08       		.uleb128 0x8
 6600 004e 21       		.uleb128 0x21
 6601 004f 00       		.byte	0
 6602 0050 49       		.uleb128 0x49
 6603 0051 13       		.uleb128 0x13
 6604 0052 2F       		.uleb128 0x2f
 6605 0053 0B       		.uleb128 0xb
 6606 0054 00       		.byte	0
 6607 0055 00       		.byte	0
 6608 0056 09       		.uleb128 0x9
 6609 0057 13       		.uleb128 0x13
 6610 0058 01       		.byte	0x1
 6611 0059 0B       		.uleb128 0xb
 6612 005a 0B       		.uleb128 0xb
 6613 005b 3A       		.uleb128 0x3a
 6614 005c 0B       		.uleb128 0xb
 6615 005d 3B       		.uleb128 0x3b
 6616 005e 0B       		.uleb128 0xb
ARM GAS  C:\Users\Mahrukh\AppData\Local\Temp\ccJcQtli.s 			page 140


 6617 005f 01       		.uleb128 0x1
 6618 0060 13       		.uleb128 0x13
 6619 0061 00       		.byte	0
 6620 0062 00       		.byte	0
 6621 0063 0A       		.uleb128 0xa
 6622 0064 0D       		.uleb128 0xd
 6623 0065 00       		.byte	0
 6624 0066 03       		.uleb128 0x3
 6625 0067 08       		.uleb128 0x8
 6626 0068 3A       		.uleb128 0x3a
 6627 0069 0B       		.uleb128 0xb
 6628 006a 3B       		.uleb128 0x3b
 6629 006b 0B       		.uleb128 0xb
 6630 006c 49       		.uleb128 0x49
 6631 006d 13       		.uleb128 0x13
 6632 006e 38       		.uleb128 0x38
 6633 006f 0B       		.uleb128 0xb
 6634 0070 00       		.byte	0
 6635 0071 00       		.byte	0
 6636 0072 0B       		.uleb128 0xb
 6637 0073 0D       		.uleb128 0xd
 6638 0074 00       		.byte	0
 6639 0075 03       		.uleb128 0x3
 6640 0076 0E       		.uleb128 0xe
 6641 0077 3A       		.uleb128 0x3a
 6642 0078 0B       		.uleb128 0xb
 6643 0079 3B       		.uleb128 0x3b
 6644 007a 0B       		.uleb128 0xb
 6645 007b 49       		.uleb128 0x49
 6646 007c 13       		.uleb128 0x13
 6647 007d 38       		.uleb128 0x38
 6648 007e 0B       		.uleb128 0xb
 6649 007f 00       		.byte	0
 6650 0080 00       		.byte	0
 6651 0081 0C       		.uleb128 0xc
 6652 0082 13       		.uleb128 0x13
 6653 0083 01       		.byte	0x1
 6654 0084 0B       		.uleb128 0xb
 6655 0085 05       		.uleb128 0x5
 6656 0086 3A       		.uleb128 0x3a
 6657 0087 0B       		.uleb128 0xb
 6658 0088 3B       		.uleb128 0x3b
 6659 0089 0B       		.uleb128 0xb
 6660 008a 01       		.uleb128 0x1
 6661 008b 13       		.uleb128 0x13
 6662 008c 00       		.byte	0
 6663 008d 00       		.byte	0
 6664 008e 0D       		.uleb128 0xd
 6665 008f 0D       		.uleb128 0xd
 6666 0090 00       		.byte	0
 6667 0091 03       		.uleb128 0x3
 6668 0092 0E       		.uleb128 0xe
 6669 0093 3A       		.uleb128 0x3a
 6670 0094 0B       		.uleb128 0xb
 6671 0095 3B       		.uleb128 0x3b
 6672 0096 0B       		.uleb128 0xb
 6673 0097 49       		.uleb128 0x49
ARM GAS  C:\Users\Mahrukh\AppData\Local\Temp\ccJcQtli.s 			page 141


 6674 0098 13       		.uleb128 0x13
 6675 0099 38       		.uleb128 0x38
 6676 009a 05       		.uleb128 0x5
 6677 009b 00       		.byte	0
 6678 009c 00       		.byte	0
 6679 009d 0E       		.uleb128 0xe
 6680 009e 16       		.uleb128 0x16
 6681 009f 00       		.byte	0
 6682 00a0 03       		.uleb128 0x3
 6683 00a1 0E       		.uleb128 0xe
 6684 00a2 3A       		.uleb128 0x3a
 6685 00a3 0B       		.uleb128 0xb
 6686 00a4 3B       		.uleb128 0x3b
 6687 00a5 05       		.uleb128 0x5
 6688 00a6 49       		.uleb128 0x49
 6689 00a7 13       		.uleb128 0x13
 6690 00a8 00       		.byte	0
 6691 00a9 00       		.byte	0
 6692 00aa 0F       		.uleb128 0xf
 6693 00ab 0F       		.uleb128 0xf
 6694 00ac 00       		.byte	0
 6695 00ad 0B       		.uleb128 0xb
 6696 00ae 0B       		.uleb128 0xb
 6697 00af 49       		.uleb128 0x49
 6698 00b0 13       		.uleb128 0x13
 6699 00b1 00       		.byte	0
 6700 00b2 00       		.byte	0
 6701 00b3 10       		.uleb128 0x10
 6702 00b4 0F       		.uleb128 0xf
 6703 00b5 00       		.byte	0
 6704 00b6 0B       		.uleb128 0xb
 6705 00b7 0B       		.uleb128 0xb
 6706 00b8 00       		.byte	0
 6707 00b9 00       		.byte	0
 6708 00ba 11       		.uleb128 0x11
 6709 00bb 15       		.uleb128 0x15
 6710 00bc 01       		.byte	0x1
 6711 00bd 27       		.uleb128 0x27
 6712 00be 19       		.uleb128 0x19
 6713 00bf 01       		.uleb128 0x1
 6714 00c0 13       		.uleb128 0x13
 6715 00c1 00       		.byte	0
 6716 00c2 00       		.byte	0
 6717 00c3 12       		.uleb128 0x12
 6718 00c4 05       		.uleb128 0x5
 6719 00c5 00       		.byte	0
 6720 00c6 49       		.uleb128 0x49
 6721 00c7 13       		.uleb128 0x13
 6722 00c8 00       		.byte	0
 6723 00c9 00       		.byte	0
 6724 00ca 13       		.uleb128 0x13
 6725 00cb 13       		.uleb128 0x13
 6726 00cc 01       		.byte	0x1
 6727 00cd 03       		.uleb128 0x3
 6728 00ce 0E       		.uleb128 0xe
 6729 00cf 0B       		.uleb128 0xb
 6730 00d0 0B       		.uleb128 0xb
ARM GAS  C:\Users\Mahrukh\AppData\Local\Temp\ccJcQtli.s 			page 142


 6731 00d1 3A       		.uleb128 0x3a
 6732 00d2 0B       		.uleb128 0xb
 6733 00d3 3B       		.uleb128 0x3b
 6734 00d4 05       		.uleb128 0x5
 6735 00d5 01       		.uleb128 0x1
 6736 00d6 13       		.uleb128 0x13
 6737 00d7 00       		.byte	0
 6738 00d8 00       		.byte	0
 6739 00d9 14       		.uleb128 0x14
 6740 00da 0D       		.uleb128 0xd
 6741 00db 00       		.byte	0
 6742 00dc 03       		.uleb128 0x3
 6743 00dd 0E       		.uleb128 0xe
 6744 00de 3A       		.uleb128 0x3a
 6745 00df 0B       		.uleb128 0xb
 6746 00e0 3B       		.uleb128 0x3b
 6747 00e1 05       		.uleb128 0x5
 6748 00e2 49       		.uleb128 0x49
 6749 00e3 13       		.uleb128 0x13
 6750 00e4 38       		.uleb128 0x38
 6751 00e5 0B       		.uleb128 0xb
 6752 00e6 00       		.byte	0
 6753 00e7 00       		.byte	0
 6754 00e8 15       		.uleb128 0x15
 6755 00e9 13       		.uleb128 0x13
 6756 00ea 01       		.byte	0x1
 6757 00eb 03       		.uleb128 0x3
 6758 00ec 0E       		.uleb128 0xe
 6759 00ed 0B       		.uleb128 0xb
 6760 00ee 0B       		.uleb128 0xb
 6761 00ef 3A       		.uleb128 0x3a
 6762 00f0 0B       		.uleb128 0xb
 6763 00f1 3B       		.uleb128 0x3b
 6764 00f2 0B       		.uleb128 0xb
 6765 00f3 01       		.uleb128 0x1
 6766 00f4 13       		.uleb128 0x13
 6767 00f5 00       		.byte	0
 6768 00f6 00       		.byte	0
 6769 00f7 16       		.uleb128 0x16
 6770 00f8 26       		.uleb128 0x26
 6771 00f9 00       		.byte	0
 6772 00fa 00       		.byte	0
 6773 00fb 00       		.byte	0
 6774 00fc 17       		.uleb128 0x17
 6775 00fd 15       		.uleb128 0x15
 6776 00fe 01       		.byte	0x1
 6777 00ff 27       		.uleb128 0x27
 6778 0100 19       		.uleb128 0x19
 6779 0101 49       		.uleb128 0x49
 6780 0102 13       		.uleb128 0x13
 6781 0103 01       		.uleb128 0x1
 6782 0104 13       		.uleb128 0x13
 6783 0105 00       		.byte	0
 6784 0106 00       		.byte	0
 6785 0107 18       		.uleb128 0x18
 6786 0108 13       		.uleb128 0x13
 6787 0109 01       		.byte	0x1
ARM GAS  C:\Users\Mahrukh\AppData\Local\Temp\ccJcQtli.s 			page 143


 6788 010a 0B       		.uleb128 0xb
 6789 010b 0B       		.uleb128 0xb
 6790 010c 3A       		.uleb128 0x3a
 6791 010d 0B       		.uleb128 0xb
 6792 010e 3B       		.uleb128 0x3b
 6793 010f 05       		.uleb128 0x5
 6794 0110 01       		.uleb128 0x1
 6795 0111 13       		.uleb128 0x13
 6796 0112 00       		.byte	0
 6797 0113 00       		.byte	0
 6798 0114 19       		.uleb128 0x19
 6799 0115 0D       		.uleb128 0xd
 6800 0116 00       		.byte	0
 6801 0117 03       		.uleb128 0x3
 6802 0118 08       		.uleb128 0x8
 6803 0119 3A       		.uleb128 0x3a
 6804 011a 0B       		.uleb128 0xb
 6805 011b 3B       		.uleb128 0x3b
 6806 011c 05       		.uleb128 0x5
 6807 011d 49       		.uleb128 0x49
 6808 011e 13       		.uleb128 0x13
 6809 011f 38       		.uleb128 0x38
 6810 0120 0B       		.uleb128 0xb
 6811 0121 00       		.byte	0
 6812 0122 00       		.byte	0
 6813 0123 1A       		.uleb128 0x1a
 6814 0124 17       		.uleb128 0x17
 6815 0125 01       		.byte	0x1
 6816 0126 0B       		.uleb128 0xb
 6817 0127 0B       		.uleb128 0xb
 6818 0128 3A       		.uleb128 0x3a
 6819 0129 0B       		.uleb128 0xb
 6820 012a 3B       		.uleb128 0x3b
 6821 012b 05       		.uleb128 0x5
 6822 012c 01       		.uleb128 0x1
 6823 012d 13       		.uleb128 0x13
 6824 012e 00       		.byte	0
 6825 012f 00       		.byte	0
 6826 0130 1B       		.uleb128 0x1b
 6827 0131 0D       		.uleb128 0xd
 6828 0132 00       		.byte	0
 6829 0133 03       		.uleb128 0x3
 6830 0134 0E       		.uleb128 0xe
 6831 0135 3A       		.uleb128 0x3a
 6832 0136 0B       		.uleb128 0xb
 6833 0137 3B       		.uleb128 0x3b
 6834 0138 05       		.uleb128 0x5
 6835 0139 49       		.uleb128 0x49
 6836 013a 13       		.uleb128 0x13
 6837 013b 00       		.byte	0
 6838 013c 00       		.byte	0
 6839 013d 1C       		.uleb128 0x1c
 6840 013e 04       		.uleb128 0x4
 6841 013f 01       		.byte	0x1
 6842 0140 0B       		.uleb128 0xb
 6843 0141 0B       		.uleb128 0xb
 6844 0142 49       		.uleb128 0x49
ARM GAS  C:\Users\Mahrukh\AppData\Local\Temp\ccJcQtli.s 			page 144


 6845 0143 13       		.uleb128 0x13
 6846 0144 3A       		.uleb128 0x3a
 6847 0145 0B       		.uleb128 0xb
 6848 0146 3B       		.uleb128 0x3b
 6849 0147 0B       		.uleb128 0xb
 6850 0148 01       		.uleb128 0x1
 6851 0149 13       		.uleb128 0x13
 6852 014a 00       		.byte	0
 6853 014b 00       		.byte	0
 6854 014c 1D       		.uleb128 0x1d
 6855 014d 28       		.uleb128 0x28
 6856 014e 00       		.byte	0
 6857 014f 03       		.uleb128 0x3
 6858 0150 0E       		.uleb128 0xe
 6859 0151 1C       		.uleb128 0x1c
 6860 0152 0B       		.uleb128 0xb
 6861 0153 00       		.byte	0
 6862 0154 00       		.byte	0
 6863 0155 1E       		.uleb128 0x1e
 6864 0156 2E       		.uleb128 0x2e
 6865 0157 01       		.byte	0x1
 6866 0158 03       		.uleb128 0x3
 6867 0159 0E       		.uleb128 0xe
 6868 015a 3A       		.uleb128 0x3a
 6869 015b 0B       		.uleb128 0xb
 6870 015c 3B       		.uleb128 0x3b
 6871 015d 05       		.uleb128 0x5
 6872 015e 27       		.uleb128 0x27
 6873 015f 19       		.uleb128 0x19
 6874 0160 20       		.uleb128 0x20
 6875 0161 0B       		.uleb128 0xb
 6876 0162 01       		.uleb128 0x1
 6877 0163 13       		.uleb128 0x13
 6878 0164 00       		.byte	0
 6879 0165 00       		.byte	0
 6880 0166 1F       		.uleb128 0x1f
 6881 0167 05       		.uleb128 0x5
 6882 0168 00       		.byte	0
 6883 0169 03       		.uleb128 0x3
 6884 016a 0E       		.uleb128 0xe
 6885 016b 3A       		.uleb128 0x3a
 6886 016c 0B       		.uleb128 0xb
 6887 016d 3B       		.uleb128 0x3b
 6888 016e 05       		.uleb128 0x5
 6889 016f 49       		.uleb128 0x49
 6890 0170 13       		.uleb128 0x13
 6891 0171 00       		.byte	0
 6892 0172 00       		.byte	0
 6893 0173 20       		.uleb128 0x20
 6894 0174 2E       		.uleb128 0x2e
 6895 0175 01       		.byte	0x1
 6896 0176 3F       		.uleb128 0x3f
 6897 0177 19       		.uleb128 0x19
 6898 0178 03       		.uleb128 0x3
 6899 0179 0E       		.uleb128 0xe
 6900 017a 3A       		.uleb128 0x3a
 6901 017b 0B       		.uleb128 0xb
ARM GAS  C:\Users\Mahrukh\AppData\Local\Temp\ccJcQtli.s 			page 145


 6902 017c 3B       		.uleb128 0x3b
 6903 017d 0B       		.uleb128 0xb
 6904 017e 27       		.uleb128 0x27
 6905 017f 19       		.uleb128 0x19
 6906 0180 11       		.uleb128 0x11
 6907 0181 01       		.uleb128 0x1
 6908 0182 12       		.uleb128 0x12
 6909 0183 06       		.uleb128 0x6
 6910 0184 40       		.uleb128 0x40
 6911 0185 18       		.uleb128 0x18
 6912 0186 9742     		.uleb128 0x2117
 6913 0188 19       		.uleb128 0x19
 6914 0189 01       		.uleb128 0x1
 6915 018a 13       		.uleb128 0x13
 6916 018b 00       		.byte	0
 6917 018c 00       		.byte	0
 6918 018d 21       		.uleb128 0x21
 6919 018e 05       		.uleb128 0x5
 6920 018f 00       		.byte	0
 6921 0190 03       		.uleb128 0x3
 6922 0191 0E       		.uleb128 0xe
 6923 0192 3A       		.uleb128 0x3a
 6924 0193 0B       		.uleb128 0xb
 6925 0194 3B       		.uleb128 0x3b
 6926 0195 0B       		.uleb128 0xb
 6927 0196 49       		.uleb128 0x49
 6928 0197 13       		.uleb128 0x13
 6929 0198 02       		.uleb128 0x2
 6930 0199 17       		.uleb128 0x17
 6931 019a 00       		.byte	0
 6932 019b 00       		.byte	0
 6933 019c 22       		.uleb128 0x22
 6934 019d 34       		.uleb128 0x34
 6935 019e 00       		.byte	0
 6936 019f 03       		.uleb128 0x3
 6937 01a0 0E       		.uleb128 0xe
 6938 01a1 3A       		.uleb128 0x3a
 6939 01a2 0B       		.uleb128 0xb
 6940 01a3 3B       		.uleb128 0x3b
 6941 01a4 0B       		.uleb128 0xb
 6942 01a5 49       		.uleb128 0x49
 6943 01a6 13       		.uleb128 0x13
 6944 01a7 02       		.uleb128 0x2
 6945 01a8 17       		.uleb128 0x17
 6946 01a9 00       		.byte	0
 6947 01aa 00       		.byte	0
 6948 01ab 23       		.uleb128 0x23
 6949 01ac 898201   		.uleb128 0x4109
 6950 01af 00       		.byte	0
 6951 01b0 11       		.uleb128 0x11
 6952 01b1 01       		.uleb128 0x1
 6953 01b2 31       		.uleb128 0x31
 6954 01b3 13       		.uleb128 0x13
 6955 01b4 00       		.byte	0
 6956 01b5 00       		.byte	0
 6957 01b6 24       		.uleb128 0x24
 6958 01b7 898201   		.uleb128 0x4109
ARM GAS  C:\Users\Mahrukh\AppData\Local\Temp\ccJcQtli.s 			page 146


 6959 01ba 01       		.byte	0x1
 6960 01bb 11       		.uleb128 0x11
 6961 01bc 01       		.uleb128 0x1
 6962 01bd 31       		.uleb128 0x31
 6963 01be 13       		.uleb128 0x13
 6964 01bf 01       		.uleb128 0x1
 6965 01c0 13       		.uleb128 0x13
 6966 01c1 00       		.byte	0
 6967 01c2 00       		.byte	0
 6968 01c3 25       		.uleb128 0x25
 6969 01c4 8A8201   		.uleb128 0x410a
 6970 01c7 00       		.byte	0
 6971 01c8 02       		.uleb128 0x2
 6972 01c9 18       		.uleb128 0x18
 6973 01ca 9142     		.uleb128 0x2111
 6974 01cc 18       		.uleb128 0x18
 6975 01cd 00       		.byte	0
 6976 01ce 00       		.byte	0
 6977 01cf 26       		.uleb128 0x26
 6978 01d0 898201   		.uleb128 0x4109
 6979 01d3 01       		.byte	0x1
 6980 01d4 11       		.uleb128 0x11
 6981 01d5 01       		.uleb128 0x1
 6982 01d6 31       		.uleb128 0x31
 6983 01d7 13       		.uleb128 0x13
 6984 01d8 00       		.byte	0
 6985 01d9 00       		.byte	0
 6986 01da 27       		.uleb128 0x27
 6987 01db 2E       		.uleb128 0x2e
 6988 01dc 01       		.byte	0x1
 6989 01dd 3F       		.uleb128 0x3f
 6990 01de 19       		.uleb128 0x19
 6991 01df 03       		.uleb128 0x3
 6992 01e0 0E       		.uleb128 0xe
 6993 01e1 3A       		.uleb128 0x3a
 6994 01e2 0B       		.uleb128 0xb
 6995 01e3 3B       		.uleb128 0x3b
 6996 01e4 0B       		.uleb128 0xb
 6997 01e5 27       		.uleb128 0x27
 6998 01e6 19       		.uleb128 0x19
 6999 01e7 49       		.uleb128 0x49
 7000 01e8 13       		.uleb128 0x13
 7001 01e9 11       		.uleb128 0x11
 7002 01ea 01       		.uleb128 0x1
 7003 01eb 12       		.uleb128 0x12
 7004 01ec 06       		.uleb128 0x6
 7005 01ed 40       		.uleb128 0x40
 7006 01ee 18       		.uleb128 0x18
 7007 01ef 9742     		.uleb128 0x2117
 7008 01f1 19       		.uleb128 0x19
 7009 01f2 01       		.uleb128 0x1
 7010 01f3 13       		.uleb128 0x13
 7011 01f4 00       		.byte	0
 7012 01f5 00       		.byte	0
 7013 01f6 28       		.uleb128 0x28
 7014 01f7 05       		.uleb128 0x5
 7015 01f8 00       		.byte	0
ARM GAS  C:\Users\Mahrukh\AppData\Local\Temp\ccJcQtli.s 			page 147


 7016 01f9 03       		.uleb128 0x3
 7017 01fa 08       		.uleb128 0x8
 7018 01fb 3A       		.uleb128 0x3a
 7019 01fc 0B       		.uleb128 0xb
 7020 01fd 3B       		.uleb128 0x3b
 7021 01fe 0B       		.uleb128 0xb
 7022 01ff 49       		.uleb128 0x49
 7023 0200 13       		.uleb128 0x13
 7024 0201 02       		.uleb128 0x2
 7025 0202 17       		.uleb128 0x17
 7026 0203 00       		.byte	0
 7027 0204 00       		.byte	0
 7028 0205 29       		.uleb128 0x29
 7029 0206 05       		.uleb128 0x5
 7030 0207 00       		.byte	0
 7031 0208 03       		.uleb128 0x3
 7032 0209 08       		.uleb128 0x8
 7033 020a 3A       		.uleb128 0x3a
 7034 020b 0B       		.uleb128 0xb
 7035 020c 3B       		.uleb128 0x3b
 7036 020d 0B       		.uleb128 0xb
 7037 020e 49       		.uleb128 0x49
 7038 020f 13       		.uleb128 0x13
 7039 0210 02       		.uleb128 0x2
 7040 0211 18       		.uleb128 0x18
 7041 0212 00       		.byte	0
 7042 0213 00       		.byte	0
 7043 0214 2A       		.uleb128 0x2a
 7044 0215 34       		.uleb128 0x34
 7045 0216 00       		.byte	0
 7046 0217 03       		.uleb128 0x3
 7047 0218 08       		.uleb128 0x8
 7048 0219 3A       		.uleb128 0x3a
 7049 021a 0B       		.uleb128 0xb
 7050 021b 3B       		.uleb128 0x3b
 7051 021c 0B       		.uleb128 0xb
 7052 021d 49       		.uleb128 0x49
 7053 021e 13       		.uleb128 0x13
 7054 021f 02       		.uleb128 0x2
 7055 0220 17       		.uleb128 0x17
 7056 0221 00       		.byte	0
 7057 0222 00       		.byte	0
 7058 0223 2B       		.uleb128 0x2b
 7059 0224 34       		.uleb128 0x34
 7060 0225 00       		.byte	0
 7061 0226 03       		.uleb128 0x3
 7062 0227 08       		.uleb128 0x8
 7063 0228 3A       		.uleb128 0x3a
 7064 0229 0B       		.uleb128 0xb
 7065 022a 3B       		.uleb128 0x3b
 7066 022b 0B       		.uleb128 0xb
 7067 022c 49       		.uleb128 0x49
 7068 022d 13       		.uleb128 0x13
 7069 022e 02       		.uleb128 0x2
 7070 022f 18       		.uleb128 0x18
 7071 0230 00       		.byte	0
 7072 0231 00       		.byte	0
ARM GAS  C:\Users\Mahrukh\AppData\Local\Temp\ccJcQtli.s 			page 148


 7073 0232 2C       		.uleb128 0x2c
 7074 0233 0B       		.uleb128 0xb
 7075 0234 01       		.byte	0x1
 7076 0235 11       		.uleb128 0x11
 7077 0236 01       		.uleb128 0x1
 7078 0237 12       		.uleb128 0x12
 7079 0238 06       		.uleb128 0x6
 7080 0239 01       		.uleb128 0x1
 7081 023a 13       		.uleb128 0x13
 7082 023b 00       		.byte	0
 7083 023c 00       		.byte	0
 7084 023d 2D       		.uleb128 0x2d
 7085 023e 34       		.uleb128 0x34
 7086 023f 00       		.byte	0
 7087 0240 03       		.uleb128 0x3
 7088 0241 0E       		.uleb128 0xe
 7089 0242 3A       		.uleb128 0x3a
 7090 0243 0B       		.uleb128 0xb
 7091 0244 3B       		.uleb128 0x3b
 7092 0245 0B       		.uleb128 0xb
 7093 0246 49       		.uleb128 0x49
 7094 0247 13       		.uleb128 0x13
 7095 0248 02       		.uleb128 0x2
 7096 0249 18       		.uleb128 0x18
 7097 024a 00       		.byte	0
 7098 024b 00       		.byte	0
 7099 024c 2E       		.uleb128 0x2e
 7100 024d 2E       		.uleb128 0x2e
 7101 024e 01       		.byte	0x1
 7102 024f 3F       		.uleb128 0x3f
 7103 0250 19       		.uleb128 0x19
 7104 0251 03       		.uleb128 0x3
 7105 0252 0E       		.uleb128 0xe
 7106 0253 3A       		.uleb128 0x3a
 7107 0254 0B       		.uleb128 0xb
 7108 0255 3B       		.uleb128 0x3b
 7109 0256 0B       		.uleb128 0xb
 7110 0257 11       		.uleb128 0x11
 7111 0258 01       		.uleb128 0x1
 7112 0259 12       		.uleb128 0x12
 7113 025a 06       		.uleb128 0x6
 7114 025b 40       		.uleb128 0x40
 7115 025c 18       		.uleb128 0x18
 7116 025d 9742     		.uleb128 0x2117
 7117 025f 19       		.uleb128 0x19
 7118 0260 01       		.uleb128 0x1
 7119 0261 13       		.uleb128 0x13
 7120 0262 00       		.byte	0
 7121 0263 00       		.byte	0
 7122 0264 2F       		.uleb128 0x2f
 7123 0265 2E       		.uleb128 0x2e
 7124 0266 01       		.byte	0x1
 7125 0267 3F       		.uleb128 0x3f
 7126 0268 19       		.uleb128 0x19
 7127 0269 03       		.uleb128 0x3
 7128 026a 0E       		.uleb128 0xe
 7129 026b 3A       		.uleb128 0x3a
ARM GAS  C:\Users\Mahrukh\AppData\Local\Temp\ccJcQtli.s 			page 149


 7130 026c 0B       		.uleb128 0xb
 7131 026d 3B       		.uleb128 0x3b
 7132 026e 0B       		.uleb128 0xb
 7133 026f 27       		.uleb128 0x27
 7134 0270 19       		.uleb128 0x19
 7135 0271 8701     		.uleb128 0x87
 7136 0273 19       		.uleb128 0x19
 7137 0274 11       		.uleb128 0x11
 7138 0275 01       		.uleb128 0x1
 7139 0276 12       		.uleb128 0x12
 7140 0277 06       		.uleb128 0x6
 7141 0278 40       		.uleb128 0x40
 7142 0279 18       		.uleb128 0x18
 7143 027a 9742     		.uleb128 0x2117
 7144 027c 19       		.uleb128 0x19
 7145 027d 01       		.uleb128 0x1
 7146 027e 13       		.uleb128 0x13
 7147 027f 00       		.byte	0
 7148 0280 00       		.byte	0
 7149 0281 30       		.uleb128 0x30
 7150 0282 1D       		.uleb128 0x1d
 7151 0283 01       		.byte	0x1
 7152 0284 31       		.uleb128 0x31
 7153 0285 13       		.uleb128 0x13
 7154 0286 11       		.uleb128 0x11
 7155 0287 01       		.uleb128 0x1
 7156 0288 12       		.uleb128 0x12
 7157 0289 06       		.uleb128 0x6
 7158 028a 58       		.uleb128 0x58
 7159 028b 0B       		.uleb128 0xb
 7160 028c 59       		.uleb128 0x59
 7161 028d 05       		.uleb128 0x5
 7162 028e 01       		.uleb128 0x1
 7163 028f 13       		.uleb128 0x13
 7164 0290 00       		.byte	0
 7165 0291 00       		.byte	0
 7166 0292 31       		.uleb128 0x31
 7167 0293 05       		.uleb128 0x5
 7168 0294 00       		.byte	0
 7169 0295 31       		.uleb128 0x31
 7170 0296 13       		.uleb128 0x13
 7171 0297 02       		.uleb128 0x2
 7172 0298 17       		.uleb128 0x17
 7173 0299 00       		.byte	0
 7174 029a 00       		.byte	0
 7175 029b 32       		.uleb128 0x32
 7176 029c 34       		.uleb128 0x34
 7177 029d 00       		.byte	0
 7178 029e 03       		.uleb128 0x3
 7179 029f 0E       		.uleb128 0xe
 7180 02a0 3A       		.uleb128 0x3a
 7181 02a1 0B       		.uleb128 0xb
 7182 02a2 3B       		.uleb128 0x3b
 7183 02a3 05       		.uleb128 0x5
 7184 02a4 49       		.uleb128 0x49
 7185 02a5 13       		.uleb128 0x13
 7186 02a6 3F       		.uleb128 0x3f
ARM GAS  C:\Users\Mahrukh\AppData\Local\Temp\ccJcQtli.s 			page 150


 7187 02a7 19       		.uleb128 0x19
 7188 02a8 3C       		.uleb128 0x3c
 7189 02a9 19       		.uleb128 0x19
 7190 02aa 00       		.byte	0
 7191 02ab 00       		.byte	0
 7192 02ac 33       		.uleb128 0x33
 7193 02ad 34       		.uleb128 0x34
 7194 02ae 00       		.byte	0
 7195 02af 03       		.uleb128 0x3
 7196 02b0 0E       		.uleb128 0xe
 7197 02b1 3A       		.uleb128 0x3a
 7198 02b2 0B       		.uleb128 0xb
 7199 02b3 3B       		.uleb128 0x3b
 7200 02b4 0B       		.uleb128 0xb
 7201 02b5 49       		.uleb128 0x49
 7202 02b6 13       		.uleb128 0x13
 7203 02b7 3F       		.uleb128 0x3f
 7204 02b8 19       		.uleb128 0x19
 7205 02b9 3C       		.uleb128 0x3c
 7206 02ba 19       		.uleb128 0x19
 7207 02bb 00       		.byte	0
 7208 02bc 00       		.byte	0
 7209 02bd 34       		.uleb128 0x34
 7210 02be 34       		.uleb128 0x34
 7211 02bf 00       		.byte	0
 7212 02c0 03       		.uleb128 0x3
 7213 02c1 0E       		.uleb128 0xe
 7214 02c2 3A       		.uleb128 0x3a
 7215 02c3 0B       		.uleb128 0xb
 7216 02c4 3B       		.uleb128 0x3b
 7217 02c5 0B       		.uleb128 0xb
 7218 02c6 49       		.uleb128 0x49
 7219 02c7 13       		.uleb128 0x13
 7220 02c8 3F       		.uleb128 0x3f
 7221 02c9 19       		.uleb128 0x19
 7222 02ca 02       		.uleb128 0x2
 7223 02cb 18       		.uleb128 0x18
 7224 02cc 00       		.byte	0
 7225 02cd 00       		.byte	0
 7226 02ce 35       		.uleb128 0x35
 7227 02cf 21       		.uleb128 0x21
 7228 02d0 00       		.byte	0
 7229 02d1 49       		.uleb128 0x49
 7230 02d2 13       		.uleb128 0x13
 7231 02d3 2F       		.uleb128 0x2f
 7232 02d4 05       		.uleb128 0x5
 7233 02d5 00       		.byte	0
 7234 02d6 00       		.byte	0
 7235 02d7 36       		.uleb128 0x36
 7236 02d8 2E       		.uleb128 0x2e
 7237 02d9 00       		.byte	0
 7238 02da 3F       		.uleb128 0x3f
 7239 02db 19       		.uleb128 0x19
 7240 02dc 3C       		.uleb128 0x3c
 7241 02dd 19       		.uleb128 0x19
 7242 02de 6E       		.uleb128 0x6e
 7243 02df 0E       		.uleb128 0xe
ARM GAS  C:\Users\Mahrukh\AppData\Local\Temp\ccJcQtli.s 			page 151


 7244 02e0 03       		.uleb128 0x3
 7245 02e1 0E       		.uleb128 0xe
 7246 02e2 3A       		.uleb128 0x3a
 7247 02e3 0B       		.uleb128 0xb
 7248 02e4 3B       		.uleb128 0x3b
 7249 02e5 0B       		.uleb128 0xb
 7250 02e6 00       		.byte	0
 7251 02e7 00       		.byte	0
 7252 02e8 37       		.uleb128 0x37
 7253 02e9 2E       		.uleb128 0x2e
 7254 02ea 00       		.byte	0
 7255 02eb 3F       		.uleb128 0x3f
 7256 02ec 19       		.uleb128 0x19
 7257 02ed 3C       		.uleb128 0x3c
 7258 02ee 19       		.uleb128 0x19
 7259 02ef 6E       		.uleb128 0x6e
 7260 02f0 0E       		.uleb128 0xe
 7261 02f1 03       		.uleb128 0x3
 7262 02f2 0E       		.uleb128 0xe
 7263 02f3 00       		.byte	0
 7264 02f4 00       		.byte	0
 7265 02f5 38       		.uleb128 0x38
 7266 02f6 2E       		.uleb128 0x2e
 7267 02f7 00       		.byte	0
 7268 02f8 3F       		.uleb128 0x3f
 7269 02f9 19       		.uleb128 0x19
 7270 02fa 3C       		.uleb128 0x3c
 7271 02fb 19       		.uleb128 0x19
 7272 02fc 6E       		.uleb128 0x6e
 7273 02fd 0E       		.uleb128 0xe
 7274 02fe 03       		.uleb128 0x3
 7275 02ff 0E       		.uleb128 0xe
 7276 0300 3A       		.uleb128 0x3a
 7277 0301 0B       		.uleb128 0xb
 7278 0302 3B       		.uleb128 0x3b
 7279 0303 05       		.uleb128 0x5
 7280 0304 00       		.byte	0
 7281 0305 00       		.byte	0
 7282 0306 00       		.byte	0
 7283              		.section	.debug_loc,"",%progbits
 7284              	.Ldebug_loc0:
 7285              	.LLST0:
 7286 0000 00000000 		.4byte	.LVL0
 7287 0004 09000000 		.4byte	.LVL1-1
 7288 0008 0100     		.2byte	0x1
 7289 000a 50       		.byte	0x50
 7290 000b 09000000 		.4byte	.LVL1-1
 7291 000f 2C000000 		.4byte	.LFE604
 7292 0013 0400     		.2byte	0x4
 7293 0015 F3       		.byte	0xf3
 7294 0016 01       		.uleb128 0x1
 7295 0017 50       		.byte	0x50
 7296 0018 9F       		.byte	0x9f
 7297 0019 00000000 		.4byte	0
 7298 001d 00000000 		.4byte	0
 7299              	.LLST1:
 7300 0021 00000000 		.4byte	.LVL0
ARM GAS  C:\Users\Mahrukh\AppData\Local\Temp\ccJcQtli.s 			page 152


 7301 0025 09000000 		.4byte	.LVL1-1
 7302 0029 0100     		.2byte	0x1
 7303 002b 51       		.byte	0x51
 7304 002c 09000000 		.4byte	.LVL1-1
 7305 0030 2C000000 		.4byte	.LFE604
 7306 0034 0400     		.2byte	0x4
 7307 0036 F3       		.byte	0xf3
 7308 0037 01       		.uleb128 0x1
 7309 0038 51       		.byte	0x51
 7310 0039 9F       		.byte	0x9f
 7311 003a 00000000 		.4byte	0
 7312 003e 00000000 		.4byte	0
 7313              	.LLST2:
 7314 0042 0C000000 		.4byte	.LVL2
 7315 0046 16000000 		.4byte	.LVL3
 7316 004a 0100     		.2byte	0x1
 7317 004c 50       		.byte	0x50
 7318 004d 16000000 		.4byte	.LVL3
 7319 0051 19000000 		.4byte	.LVL4-1
 7320 0055 0100     		.2byte	0x1
 7321 0057 51       		.byte	0x51
 7322 0058 19000000 		.4byte	.LVL4-1
 7323 005c 28000000 		.4byte	.LVL6
 7324 0060 0100     		.2byte	0x1
 7325 0062 55       		.byte	0x55
 7326 0063 00000000 		.4byte	0
 7327 0067 00000000 		.4byte	0
 7328              	.LLST3:
 7329 006b 00000000 		.4byte	.LVL7
 7330 006f 06000000 		.4byte	.LVL8
 7331 0073 0100     		.2byte	0x1
 7332 0075 50       		.byte	0x50
 7333 0076 06000000 		.4byte	.LVL8
 7334 007a 1E000000 		.4byte	.LVL12
 7335 007e 0100     		.2byte	0x1
 7336 0080 54       		.byte	0x54
 7337 0081 1E000000 		.4byte	.LVL12
 7338 0085 20000000 		.4byte	.LFE605
 7339 0089 0400     		.2byte	0x4
 7340 008b F3       		.byte	0xf3
 7341 008c 01       		.uleb128 0x1
 7342 008d 50       		.byte	0x50
 7343 008e 9F       		.byte	0x9f
 7344 008f 00000000 		.4byte	0
 7345 0093 00000000 		.4byte	0
 7346              	.LLST4:
 7347 0097 06000000 		.4byte	.LVL8
 7348 009b 0A000000 		.4byte	.LVL9
 7349 009f 0200     		.2byte	0x2
 7350 00a1 31       		.byte	0x31
 7351 00a2 9F       		.byte	0x9f
 7352 00a3 0A000000 		.4byte	.LVL9
 7353 00a7 20000000 		.4byte	.LFE605
 7354 00ab 0100     		.2byte	0x1
 7355 00ad 53       		.byte	0x53
 7356 00ae 00000000 		.4byte	0
 7357 00b2 00000000 		.4byte	0
ARM GAS  C:\Users\Mahrukh\AppData\Local\Temp\ccJcQtli.s 			page 153


 7358              	.LLST5:
 7359 00b6 00000000 		.4byte	.LVL13
 7360 00ba 06000000 		.4byte	.LVL14
 7361 00be 0100     		.2byte	0x1
 7362 00c0 50       		.byte	0x50
 7363 00c1 06000000 		.4byte	.LVL14
 7364 00c5 1E000000 		.4byte	.LVL18
 7365 00c9 0100     		.2byte	0x1
 7366 00cb 54       		.byte	0x54
 7367 00cc 1E000000 		.4byte	.LVL18
 7368 00d0 20000000 		.4byte	.LFE606
 7369 00d4 0400     		.2byte	0x4
 7370 00d6 F3       		.byte	0xf3
 7371 00d7 01       		.uleb128 0x1
 7372 00d8 50       		.byte	0x50
 7373 00d9 9F       		.byte	0x9f
 7374 00da 00000000 		.4byte	0
 7375 00de 00000000 		.4byte	0
 7376              	.LLST6:
 7377 00e2 06000000 		.4byte	.LVL14
 7378 00e6 0A000000 		.4byte	.LVL15
 7379 00ea 0200     		.2byte	0x2
 7380 00ec 31       		.byte	0x31
 7381 00ed 9F       		.byte	0x9f
 7382 00ee 0A000000 		.4byte	.LVL15
 7383 00f2 20000000 		.4byte	.LFE606
 7384 00f6 0100     		.2byte	0x1
 7385 00f8 53       		.byte	0x53
 7386 00f9 00000000 		.4byte	0
 7387 00fd 00000000 		.4byte	0
 7388              	.LLST7:
 7389 0101 00000000 		.4byte	.LVL19
 7390 0105 0C000000 		.4byte	.LVL20
 7391 0109 0100     		.2byte	0x1
 7392 010b 50       		.byte	0x50
 7393 010c 0C000000 		.4byte	.LVL20
 7394 0110 EA000000 		.4byte	.LVL42
 7395 0114 0100     		.2byte	0x1
 7396 0116 56       		.byte	0x56
 7397 0117 EA000000 		.4byte	.LVL42
 7398 011b 10010000 		.4byte	.LFE607
 7399 011f 0400     		.2byte	0x4
 7400 0121 F3       		.byte	0xf3
 7401 0122 01       		.uleb128 0x1
 7402 0123 50       		.byte	0x50
 7403 0124 9F       		.byte	0x9f
 7404 0125 00000000 		.4byte	0
 7405 0129 00000000 		.4byte	0
 7406              	.LLST8:
 7407 012d 00000000 		.4byte	.LVL19
 7408 0131 0F000000 		.4byte	.LVL21-1
 7409 0135 0100     		.2byte	0x1
 7410 0137 51       		.byte	0x51
 7411 0138 0F000000 		.4byte	.LVL21-1
 7412 013c 10010000 		.4byte	.LFE607
 7413 0140 0400     		.2byte	0x4
 7414 0142 F3       		.byte	0xf3
ARM GAS  C:\Users\Mahrukh\AppData\Local\Temp\ccJcQtli.s 			page 154


 7415 0143 01       		.uleb128 0x1
 7416 0144 51       		.byte	0x51
 7417 0145 9F       		.byte	0x9f
 7418 0146 00000000 		.4byte	0
 7419 014a 00000000 		.4byte	0
 7420              	.LLST9:
 7421 014e 00000000 		.4byte	.LVL19
 7422 0152 0F000000 		.4byte	.LVL21-1
 7423 0156 0100     		.2byte	0x1
 7424 0158 52       		.byte	0x52
 7425 0159 0F000000 		.4byte	.LVL21-1
 7426 015d EA000000 		.4byte	.LVL42
 7427 0161 0100     		.2byte	0x1
 7428 0163 54       		.byte	0x54
 7429 0164 EA000000 		.4byte	.LVL42
 7430 0168 10010000 		.4byte	.LFE607
 7431 016c 0400     		.2byte	0x4
 7432 016e F3       		.byte	0xf3
 7433 016f 01       		.uleb128 0x1
 7434 0170 52       		.byte	0x52
 7435 0171 9F       		.byte	0x9f
 7436 0172 00000000 		.4byte	0
 7437 0176 00000000 		.4byte	0
 7438              	.LLST10:
 7439 017a 10000000 		.4byte	.LVL21
 7440 017e 22000000 		.4byte	.LVL23
 7441 0182 0200     		.2byte	0x2
 7442 0184 30       		.byte	0x30
 7443 0185 9F       		.byte	0x9f
 7444 0186 22000000 		.4byte	.LVL23
 7445 018a EA000000 		.4byte	.LVL42
 7446 018e 0100     		.2byte	0x1
 7447 0190 55       		.byte	0x55
 7448 0191 00000000 		.4byte	0
 7449 0195 00000000 		.4byte	0
 7450              	.LLST11:
 7451 0199 10000000 		.4byte	.LVL21
 7452 019d 30000000 		.4byte	.LVL25
 7453 01a1 0200     		.2byte	0x2
 7454 01a3 30       		.byte	0x30
 7455 01a4 9F       		.byte	0x9f
 7456 01a5 30000000 		.4byte	.LVL25
 7457 01a9 60000000 		.4byte	.LVL28
 7458 01ad 0100     		.2byte	0x1
 7459 01af 50       		.byte	0x50
 7460 01b0 00000000 		.4byte	0
 7461 01b4 00000000 		.4byte	0
 7462              	.LLST12:
 7463 01b8 60000000 		.4byte	.LVL28
 7464 01bc 78000000 		.4byte	.LVL32
 7465 01c0 0100     		.2byte	0x1
 7466 01c2 52       		.byte	0x52
 7467 01c3 00000000 		.4byte	0
 7468 01c7 00000000 		.4byte	0
 7469              	.LLST13:
 7470 01cb 30000000 		.4byte	.LVL25
 7471 01cf 34000000 		.4byte	.LVL26
ARM GAS  C:\Users\Mahrukh\AppData\Local\Temp\ccJcQtli.s 			page 155


 7472 01d3 0200     		.2byte	0x2
 7473 01d5 30       		.byte	0x30
 7474 01d6 9F       		.byte	0x9f
 7475 01d7 34000000 		.4byte	.LVL26
 7476 01db 60000000 		.4byte	.LVL28
 7477 01df 0100     		.2byte	0x1
 7478 01e1 51       		.byte	0x51
 7479 01e2 00000000 		.4byte	0
 7480 01e6 00000000 		.4byte	0
 7481              	.LLST14:
 7482 01ea 60000000 		.4byte	.LVL28
 7483 01ee 76000000 		.4byte	.LVL31
 7484 01f2 0100     		.2byte	0x1
 7485 01f4 53       		.byte	0x53
 7486 01f5 00000000 		.4byte	0
 7487 01f9 00000000 		.4byte	0
 7488              	.LLST15:
 7489 01fd 00000000 		.4byte	.LVL43
 7490 0201 0B000000 		.4byte	.LVL44-1
 7491 0205 0100     		.2byte	0x1
 7492 0207 50       		.byte	0x50
 7493 0208 0B000000 		.4byte	.LVL44-1
 7494 020c 5A000000 		.4byte	.LVL53
 7495 0210 0100     		.2byte	0x1
 7496 0212 55       		.byte	0x55
 7497 0213 5A000000 		.4byte	.LVL53
 7498 0217 70000000 		.4byte	.LFE608
 7499 021b 0400     		.2byte	0x4
 7500 021d F3       		.byte	0xf3
 7501 021e 01       		.uleb128 0x1
 7502 021f 50       		.byte	0x50
 7503 0220 9F       		.byte	0x9f
 7504 0221 00000000 		.4byte	0
 7505 0225 00000000 		.4byte	0
 7506              	.LLST16:
 7507 0229 00000000 		.4byte	.LVL43
 7508 022d 0B000000 		.4byte	.LVL44-1
 7509 0231 0100     		.2byte	0x1
 7510 0233 51       		.byte	0x51
 7511 0234 0B000000 		.4byte	.LVL44-1
 7512 0238 5A000000 		.4byte	.LVL53
 7513 023c 0100     		.2byte	0x1
 7514 023e 54       		.byte	0x54
 7515 023f 5A000000 		.4byte	.LVL53
 7516 0243 70000000 		.4byte	.LFE608
 7517 0247 0400     		.2byte	0x4
 7518 0249 F3       		.byte	0xf3
 7519 024a 01       		.uleb128 0x1
 7520 024b 51       		.byte	0x51
 7521 024c 9F       		.byte	0x9f
 7522 024d 00000000 		.4byte	0
 7523 0251 00000000 		.4byte	0
 7524              	.LLST17:
 7525 0255 00000000 		.4byte	.LVL54
 7526 0259 07000000 		.4byte	.LVL55-1
 7527 025d 0100     		.2byte	0x1
 7528 025f 50       		.byte	0x50
ARM GAS  C:\Users\Mahrukh\AppData\Local\Temp\ccJcQtli.s 			page 156


 7529 0260 07000000 		.4byte	.LVL55-1
 7530 0264 8C000000 		.4byte	.LFE609
 7531 0268 0400     		.2byte	0x4
 7532 026a F3       		.byte	0xf3
 7533 026b 01       		.uleb128 0x1
 7534 026c 50       		.byte	0x50
 7535 026d 9F       		.byte	0x9f
 7536 026e 00000000 		.4byte	0
 7537 0272 00000000 		.4byte	0
 7538              	.LLST18:
 7539 0276 5E010000 		.4byte	.LVL151
 7540 027a 64010000 		.4byte	.LVL152
 7541 027e 0200     		.2byte	0x2
 7542 0280 31       		.byte	0x31
 7543 0281 9F       		.byte	0x9f
 7544 0282 00000000 		.4byte	0
 7545 0286 00000000 		.4byte	0
 7546              	.LLST20:
 7547 028a 5E010000 		.4byte	.LVL151
 7548 028e 64010000 		.4byte	.LVL152
 7549 0292 0600     		.2byte	0x6
 7550 0294 0C       		.byte	0xc
 7551 0295 80003240 		.4byte	0x40320080
 7552 0299 9F       		.byte	0x9f
 7553 029a 00000000 		.4byte	0
 7554 029e 00000000 		.4byte	0
 7555              	.LLST21:
 7556 02a2 EE020000 		.4byte	.LVL163
 7557 02a6 F4020000 		.4byte	.LVL164
 7558 02aa 0200     		.2byte	0x2
 7559 02ac 31       		.byte	0x31
 7560 02ad 9F       		.byte	0x9f
 7561 02ae 00000000 		.4byte	0
 7562 02b2 00000000 		.4byte	0
 7563              	.LLST22:
 7564 02b6 EE020000 		.4byte	.LVL163
 7565 02ba F4020000 		.4byte	.LVL164
 7566 02be 0200     		.2byte	0x2
 7567 02c0 37       		.byte	0x37
 7568 02c1 9F       		.byte	0x9f
 7569 02c2 00000000 		.4byte	0
 7570 02c6 00000000 		.4byte	0
 7571              	.LLST23:
 7572 02ca EE020000 		.4byte	.LVL163
 7573 02ce F4020000 		.4byte	.LVL164
 7574 02d2 0600     		.2byte	0x6
 7575 02d4 0C       		.byte	0xc
 7576 02d5 80063240 		.4byte	0x40320680
 7577 02d9 9F       		.byte	0x9f
 7578 02da 00000000 		.4byte	0
 7579 02de 00000000 		.4byte	0
 7580              	.LLST24:
 7581 02e2 30030000 		.4byte	.LVL168
 7582 02e6 38030000 		.4byte	.LVL169
 7583 02ea 0200     		.2byte	0x2
 7584 02ec 30       		.byte	0x30
 7585 02ed 9F       		.byte	0x9f
ARM GAS  C:\Users\Mahrukh\AppData\Local\Temp\ccJcQtli.s 			page 157


 7586 02ee 00000000 		.4byte	0
 7587 02f2 00000000 		.4byte	0
 7588              	.LLST25:
 7589 02f6 30030000 		.4byte	.LVL168
 7590 02fa 38030000 		.4byte	.LVL169
 7591 02fe 0200     		.2byte	0x2
 7592 0300 31       		.byte	0x31
 7593 0301 9F       		.byte	0x9f
 7594 0302 00000000 		.4byte	0
 7595 0306 00000000 		.4byte	0
 7596              	.LLST26:
 7597 030a 30030000 		.4byte	.LVL168
 7598 030e 38030000 		.4byte	.LVL169
 7599 0312 0600     		.2byte	0x6
 7600 0314 0C       		.byte	0xc
 7601 0315 80003240 		.4byte	0x40320080
 7602 0319 9F       		.byte	0x9f
 7603 031a 00000000 		.4byte	0
 7604 031e 00000000 		.4byte	0
 7605              	.LLST27:
 7606 0322 38030000 		.4byte	.LVL169
 7607 0326 3E030000 		.4byte	.LVL170
 7608 032a 0200     		.2byte	0x2
 7609 032c 31       		.byte	0x31
 7610 032d 9F       		.byte	0x9f
 7611 032e 00000000 		.4byte	0
 7612 0332 00000000 		.4byte	0
 7613              	.LLST29:
 7614 0336 38030000 		.4byte	.LVL169
 7615 033a 3E030000 		.4byte	.LVL170
 7616 033e 0600     		.2byte	0x6
 7617 0340 0C       		.byte	0xc
 7618 0341 80003240 		.4byte	0x40320080
 7619 0345 9F       		.byte	0x9f
 7620 0346 00000000 		.4byte	0
 7621 034a 00000000 		.4byte	0
 7622              	.LLST30:
 7623 034e 58030000 		.4byte	.LVL171
 7624 0352 60030000 		.4byte	.LVL172
 7625 0356 0200     		.2byte	0x2
 7626 0358 30       		.byte	0x30
 7627 0359 9F       		.byte	0x9f
 7628 035a 00000000 		.4byte	0
 7629 035e 00000000 		.4byte	0
 7630              	.LLST31:
 7631 0362 58030000 		.4byte	.LVL171
 7632 0366 60030000 		.4byte	.LVL172
 7633 036a 0200     		.2byte	0x2
 7634 036c 37       		.byte	0x37
 7635 036d 9F       		.byte	0x9f
 7636 036e 00000000 		.4byte	0
 7637 0372 00000000 		.4byte	0
 7638              	.LLST32:
 7639 0376 58030000 		.4byte	.LVL171
 7640 037a 60030000 		.4byte	.LVL172
 7641 037e 0600     		.2byte	0x6
 7642 0380 0C       		.byte	0xc
ARM GAS  C:\Users\Mahrukh\AppData\Local\Temp\ccJcQtli.s 			page 158


 7643 0381 80063240 		.4byte	0x40320680
 7644 0385 9F       		.byte	0x9f
 7645 0386 00000000 		.4byte	0
 7646 038a 00000000 		.4byte	0
 7647              	.LLST33:
 7648 038e 60030000 		.4byte	.LVL172
 7649 0392 66030000 		.4byte	.LVL173
 7650 0396 0200     		.2byte	0x2
 7651 0398 31       		.byte	0x31
 7652 0399 9F       		.byte	0x9f
 7653 039a 00000000 		.4byte	0
 7654 039e 00000000 		.4byte	0
 7655              	.LLST34:
 7656 03a2 60030000 		.4byte	.LVL172
 7657 03a6 66030000 		.4byte	.LVL173
 7658 03aa 0200     		.2byte	0x2
 7659 03ac 37       		.byte	0x37
 7660 03ad 9F       		.byte	0x9f
 7661 03ae 00000000 		.4byte	0
 7662 03b2 00000000 		.4byte	0
 7663              	.LLST35:
 7664 03b6 60030000 		.4byte	.LVL172
 7665 03ba 66030000 		.4byte	.LVL173
 7666 03be 0600     		.2byte	0x6
 7667 03c0 0C       		.byte	0xc
 7668 03c1 80063240 		.4byte	0x40320680
 7669 03c5 9F       		.byte	0x9f
 7670 03c6 00000000 		.4byte	0
 7671 03ca 00000000 		.4byte	0
 7672              		.section	.debug_aranges,"",%progbits
 7673 0000 74000000 		.4byte	0x74
 7674 0004 0200     		.2byte	0x2
 7675 0006 00000000 		.4byte	.Ldebug_info0
 7676 000a 04       		.byte	0x4
 7677 000b 00       		.byte	0
 7678 000c 0000     		.2byte	0
 7679 000e 0000     		.2byte	0
 7680 0010 00000000 		.4byte	.LFB604
 7681 0014 2C000000 		.4byte	.LFE604-.LFB604
 7682 0018 00000000 		.4byte	.LFB605
 7683 001c 20000000 		.4byte	.LFE605-.LFB605
 7684 0020 00000000 		.4byte	.LFB606
 7685 0024 20000000 		.4byte	.LFE606-.LFB606
 7686 0028 00000000 		.4byte	.LFB607
 7687 002c 10010000 		.4byte	.LFE607-.LFB607
 7688 0030 00000000 		.4byte	.LFB608
 7689 0034 70000000 		.4byte	.LFE608-.LFB608
 7690 0038 00000000 		.4byte	.LFB609
 7691 003c 8C000000 		.4byte	.LFE609-.LFB609
 7692 0040 00000000 		.4byte	.LFB610
 7693 0044 74000000 		.4byte	.LFE610-.LFB610
 7694 0048 00000000 		.4byte	.LFB611
 7695 004c BC000000 		.4byte	.LFE611-.LFB611
 7696 0050 00000000 		.4byte	.LFB612
 7697 0054 A4000000 		.4byte	.LFE612-.LFB612
 7698 0058 00000000 		.4byte	.LFB613
 7699 005c A4000000 		.4byte	.LFE613-.LFB613
ARM GAS  C:\Users\Mahrukh\AppData\Local\Temp\ccJcQtli.s 			page 159


 7700 0060 00000000 		.4byte	.LFB614
 7701 0064 78000000 		.4byte	.LFE614-.LFB614
 7702 0068 00000000 		.4byte	.LFB615
 7703 006c A8030000 		.4byte	.LFE615-.LFB615
 7704 0070 00000000 		.4byte	0
 7705 0074 00000000 		.4byte	0
 7706              		.section	.debug_ranges,"",%progbits
 7707              	.Ldebug_ranges0:
 7708 0000 00000000 		.4byte	.LFB604
 7709 0004 2C000000 		.4byte	.LFE604
 7710 0008 00000000 		.4byte	.LFB605
 7711 000c 20000000 		.4byte	.LFE605
 7712 0010 00000000 		.4byte	.LFB606
 7713 0014 20000000 		.4byte	.LFE606
 7714 0018 00000000 		.4byte	.LFB607
 7715 001c 10010000 		.4byte	.LFE607
 7716 0020 00000000 		.4byte	.LFB608
 7717 0024 70000000 		.4byte	.LFE608
 7718 0028 00000000 		.4byte	.LFB609
 7719 002c 8C000000 		.4byte	.LFE609
 7720 0030 00000000 		.4byte	.LFB610
 7721 0034 74000000 		.4byte	.LFE610
 7722 0038 00000000 		.4byte	.LFB611
 7723 003c BC000000 		.4byte	.LFE611
 7724 0040 00000000 		.4byte	.LFB612
 7725 0044 A4000000 		.4byte	.LFE612
 7726 0048 00000000 		.4byte	.LFB613
 7727 004c A4000000 		.4byte	.LFE613
 7728 0050 00000000 		.4byte	.LFB614
 7729 0054 78000000 		.4byte	.LFE614
 7730 0058 00000000 		.4byte	.LFB615
 7731 005c A8030000 		.4byte	.LFE615
 7732 0060 00000000 		.4byte	0
 7733 0064 00000000 		.4byte	0
 7734              		.section	.debug_line,"",%progbits
 7735              	.Ldebug_line0:
 7736 0000 D8070000 		.section	.debug_str,"MS",%progbits,1
 7736      02004905 
 7736      00000201 
 7736      FB0E0D00 
 7736      01010101 
 7737              	.LASF91:
 7738 0000 666C6173 		.ascii	"flashCtlMainWs1Freq\000"
 7738      6843746C 
 7738      4D61696E 
 7738      57733146 
 7738      72657100 
 7739              	.LASF31:
 7740 0014 52455345 		.ascii	"RESERVED\000"
 7740      52564544 
 7740      00
 7741              	.LASF39:
 7742 001d 5644445F 		.ascii	"VDD_ACTIVE\000"
 7742      41435449 
 7742      564500
 7743              	.LASF36:
 7744 0028 494E5452 		.ascii	"INTR_CAUSE1\000"
ARM GAS  C:\Users\Mahrukh\AppData\Local\Temp\ccJcQtli.s 			page 160


 7744      5F434155 
 7744      53453100 
 7745              	.LASF286:
 7746 0034 64697370 		.ascii	"display_task\000"
 7746      6C61795F 
 7746      7461736B 
 7746      00
 7747              	.LASF306:
 7748 0041 626F7574 		.ascii	"bouton\000"
 7748      6F6E00
 7749              	.LASF218:
 7750 0048 74475549 		.ascii	"tGUI_ENC_APIList\000"
 7750      5F454E43 
 7750      5F415049 
 7750      4C697374 
 7750      00
 7751              	.LASF141:
 7752 0059 63795F63 		.ascii	"cy_cb_scb_spi_handle_events_t\000"
 7752      625F7363 
 7752      625F7370 
 7752      695F6861 
 7752      6E646C65 
 7753              	.LASF179:
 7754 0077 73746F70 		.ascii	"stopInputMode\000"
 7754      496E7075 
 7754      744D6F64 
 7754      6500
 7755              	.LASF288:
 7756 0085 63795F64 		.ascii	"cy_device\000"
 7756      65766963 
 7756      6500
 7757              	.LASF118:
 7758 008f 63707573 		.ascii	"cpussCm0ClockCtlOffset\000"
 7758      73436D30 
 7758      436C6F63 
 7758      6B43746C 
 7758      4F666673 
 7759              	.LASF77:
 7760 00a6 70657269 		.ascii	"periClockNr\000"
 7760      436C6F63 
 7760      6B4E7200 
 7761              	.LASF289:
 7762 00b2 43595F45 		.ascii	"CY_EINK_SPIM_context\000"
 7762      494E4B5F 
 7762      5350494D 
 7762      5F636F6E 
 7762      74657874 
 7763              	.LASF203:
 7764 00c7 4755495F 		.ascii	"GUI_FONT_PROP_EXT\000"
 7764      464F4E54 
 7764      5F50524F 
 7764      505F4558 
 7764      5400
 7765              	.LASF51:
 7766 00d9 75646242 		.ascii	"udbBase\000"
 7766      61736500 
 7767              	.LASF196:
ARM GAS  C:\Users\Mahrukh\AppData\Local\Temp\ccJcQtli.s 			page 161


 7768 00e1 59506F73 		.ascii	"YPos\000"
 7768      00
 7769              	.LASF320:
 7770 00e6 4755495F 		.ascii	"GUI_SetPenSize\000"
 7770      53657450 
 7770      656E5369 
 7770      7A6500
 7771              	.LASF155:
 7772 00f5 74785374 		.ascii	"txStatus\000"
 7772      61747573 
 7772      00
 7773              	.LASF50:
 7774 00fe 70657269 		.ascii	"periBase\000"
 7774      42617365 
 7774      00
 7775              	.LASF221:
 7776 0107 70664765 		.ascii	"pfGetCharDistX\000"
 7776      74436861 
 7776      72446973 
 7776      745800
 7777              	.LASF273:
 7778 0116 6D696E69 		.ascii	"minimum\000"
 7778      6D756D00 
 7779              	.LASF301:
 7780 011e 62756666 		.ascii	"buffer\000"
 7780      657200
 7781              	.LASF96:
 7782 0125 64774368 		.ascii	"dwChSize\000"
 7782      53697A65 
 7782      00
 7783              	.LASF334:
 7784 012e 4755495F 		.ascii	"GUI_SetBkColor\000"
 7784      53657442 
 7784      6B436F6C 
 7784      6F7200
 7785              	.LASF304:
 7786 013d 696D6167 		.ascii	"imageBufferCache\000"
 7786      65427566 
 7786      66657243 
 7786      61636865 
 7786      00
 7787              	.LASF187:
 7788 014e 704C6973 		.ascii	"pList\000"
 7788      7400
 7789              	.LASF42:
 7790 0154 5644445F 		.ascii	"VDD_INTR_MASKED\000"
 7790      494E5452 
 7790      5F4D4153 
 7790      4B454400 
 7791              	.LASF13:
 7792 0164 756E7369 		.ascii	"unsigned int\000"
 7792      676E6564 
 7792      20696E74 
 7792      00
 7793              	.LASF263:
 7794 0171 706F7765 		.ascii	"powerCycle\000"
 7794      72437963 
ARM GAS  C:\Users\Mahrukh\AppData\Local\Temp\ccJcQtli.s 			page 162


 7794      6C6500
 7795              	.LASF230:
 7796 017c 4755495F 		.ascii	"GUI_GETCHARDISTX\000"
 7796      47455443 
 7796      48415244 
 7796      49535458 
 7796      00
 7797              	.LASF78:
 7798 018d 736D6966 		.ascii	"smifDeviceNr\000"
 7798      44657669 
 7798      63654E72 
 7798      00
 7799              	.LASF108:
 7800 019a 70657269 		.ascii	"periDivCmdPaTypeSelPos\000"
 7800      44697643 
 7800      6D645061 
 7800      54797065 
 7800      53656C50 
 7801              	.LASF148:
 7802 01b1 74784275 		.ascii	"txBufIdx\000"
 7802      66496478 
 7802      00
 7803              	.LASF7:
 7804 01ba 5F5F696E 		.ascii	"__int32_t\000"
 7804      7433325F 
 7804      7400
 7805              	.LASF162:
 7806 01c4 63795F73 		.ascii	"cy_stc_scb_uart_context_t\000"
 7806      74635F73 
 7806      63625F75 
 7806      6172745F 
 7806      636F6E74 
 7807              	.LASF234:
 7808 01de 70466F6E 		.ascii	"pFontData\000"
 7808      74446174 
 7808      6100
 7809              	.LASF72:
 7810 01e8 63707573 		.ascii	"cpussFmIrq\000"
 7810      73466D49 
 7810      727100
 7811              	.LASF241:
 7812 01f3 43595F45 		.ascii	"CY_EINK_FULL_4STAGE\000"
 7812      494E4B5F 
 7812      46554C4C 
 7812      5F345354 
 7812      41474500 
 7813              	.LASF277:
 7814 0207 66726571 		.ascii	"frequence\000"
 7814      75656E63 
 7814      6500
 7815              	.LASF73:
 7816 0211 63707573 		.ascii	"cpussNotConnectedIrq\000"
 7816      734E6F74 
 7816      436F6E6E 
 7816      65637465 
 7816      64497271 
 7817              	.LASF180:
ARM GAS  C:\Users\Mahrukh\AppData\Local\Temp\ccJcQtli.s 			page 163


 7818 0226 73746F70 		.ascii	"stopInput\000"
 7818      496E7075 
 7818      7400
 7819              	.LASF158:
 7820 0230 72785269 		.ascii	"rxRingBufSize\000"
 7820      6E674275 
 7820      6653697A 
 7820      6500
 7821              	.LASF104:
 7822 023e 70657269 		.ascii	"periTrGrSize\000"
 7822      54724772 
 7822      53697A65 
 7822      00
 7823              	.LASF107:
 7824 024b 70657269 		.ascii	"periDivCmdPaDivSelPos\000"
 7824      44697643 
 7824      6D645061 
 7824      44697653 
 7824      656C506F 
 7825              	.LASF26:
 7826 0261 494E5452 		.ascii	"INTR_SET\000"
 7826      5F534554 
 7826      00
 7827              	.LASF84:
 7828 026a 63727970 		.ascii	"cryptoMemSize\000"
 7828      746F4D65 
 7828      6D53697A 
 7828      6500
 7829              	.LASF130:
 7830 0278 63707573 		.ascii	"cpussRam1Ctl0\000"
 7830      7352616D 
 7830      3143746C 
 7830      3000
 7831              	.LASF243:
 7832 0286 63795F65 		.ascii	"cy_eink_update_t\000"
 7832      696E6B5F 
 7832      75706461 
 7832      74655F74 
 7832      00
 7833              	.LASF132:
 7834 0297 69706353 		.ascii	"ipcStructSize\000"
 7834      74727563 
 7834      7453697A 
 7834      6500
 7835              	.LASF265:
 7836 02a5 6D617869 		.ascii	"maximum_1\000"
 7836      6D756D5F 
 7836      3100
 7837              	.LASF192:
 7838 02af 70446174 		.ascii	"pData\000"
 7838      6100
 7839              	.LASF169:
 7840 02b5 636F6D70 		.ascii	"compare0\000"
 7840      61726530 
 7840      00
 7841              	.LASF170:
 7842 02be 636F6D70 		.ascii	"compare1\000"
ARM GAS  C:\Users\Mahrukh\AppData\Local\Temp\ccJcQtli.s 			page 164


 7842      61726531 
 7842      00
 7843              	.LASF336:
 7844 02c7 474E5520 		.ascii	"GNU C11 5.4.1 20160609 (release) [ARM/embedded-5-br"
 7844      43313120 
 7844      352E342E 
 7844      31203230 
 7844      31363036 
 7845 02fa 616E6368 		.ascii	"anch revision 237715] -mcpu=cortex-m4 -mfloat-abi=s"
 7845      20726576 
 7845      6973696F 
 7845      6E203233 
 7845      37373135 
 7846 032d 6F667466 		.ascii	"oftfp -mfpu=fpv4-sp-d16 -mthumb -g -Og -ffunction-s"
 7846      70202D6D 
 7846      6670753D 
 7846      66707634 
 7846      2D73702D 
 7847 0360 65637469 		.ascii	"ections -ffat-lto-objects\000"
 7847      6F6E7320 
 7847      2D666661 
 7847      742D6C74 
 7847      6F2D6F62 
 7848              	.LASF66:
 7849 037a 70726F74 		.ascii	"protVersion\000"
 7849      56657273 
 7849      696F6E00 
 7850              	.LASF106:
 7851 0386 70657269 		.ascii	"periDivCmdTypeSelPos\000"
 7851      44697643 
 7851      6D645479 
 7851      70655365 
 7851      6C506F73 
 7852              	.LASF123:
 7853 039b 63707573 		.ascii	"cpussTrimRamCtlOffset\000"
 7853      73547269 
 7853      6D52616D 
 7853      43746C4F 
 7853      66667365 
 7854              	.LASF156:
 7855 03b1 72785374 		.ascii	"rxStatus\000"
 7855      61747573 
 7855      00
 7856              	.LASF28:
 7857 03ba 4346475F 		.ascii	"CFG_IN\000"
 7857      494E00
 7858              	.LASF253:
 7859 03c1 73637265 		.ascii	"screen\000"
 7859      656E00
 7860              	.LASF172:
 7861 03c8 696E7465 		.ascii	"interruptSources\000"
 7861      72727570 
 7861      74536F75 
 7861      72636573 
 7861      00
 7862              	.LASF188:
 7863 03d9 4755495F 		.ascii	"GUI_FONT_TRANSINFO\000"
ARM GAS  C:\Users\Mahrukh\AppData\Local\Temp\ccJcQtli.s 			page 165


 7863      464F4E54 
 7863      5F545241 
 7863      4E53494E 
 7863      464F00
 7864              	.LASF18:
 7865 03ec 75696E74 		.ascii	"uint32_t\000"
 7865      33325F74 
 7865      00
 7866              	.LASF211:
 7867 03f5 4755495F 		.ascii	"GUI_FONTINFO\000"
 7867      464F4E54 
 7867      494E464F 
 7867      00
 7868              	.LASF319:
 7869 0402 43795F45 		.ascii	"Cy_EINK_ShowFrame\000"
 7869      494E4B5F 
 7869      53686F77 
 7869      4672616D 
 7869      6500
 7870              	.LASF328:
 7871 0414 4755495F 		.ascii	"GUI_DrawCircle\000"
 7871      44726177 
 7871      43697263 
 7871      6C6500
 7872              	.LASF271:
 7873 0423 73697A65 		.ascii	"size\000"
 7873      00
 7874              	.LASF44:
 7875 0428 4750494F 		.ascii	"GPIO_V1_Type\000"
 7875      5F56315F 
 7875      54797065 
 7875      00
 7876              	.LASF116:
 7877 0435 6770696F 		.ascii	"gpioPrtCfgOutOffset\000"
 7877      50727443 
 7877      66674F75 
 7877      744F6666 
 7877      73657400 
 7878              	.LASF198:
 7879 0449 4755495F 		.ascii	"GUI_FONT_PROP\000"
 7879      464F4E54 
 7879      5F50524F 
 7879      5000
 7880              	.LASF207:
 7881 0457 466C6167 		.ascii	"Flags\000"
 7881      7300
 7882              	.LASF247:
 7883 045d 4F505449 		.ascii	"OPTION_1\000"
 7883      4F4E5F31 
 7883      00
 7884              	.LASF21:
 7885 0466 4F55545F 		.ascii	"OUT_SET\000"
 7885      53455400 
 7886              	.LASF248:
 7887 046e 4F505449 		.ascii	"OPTION_2\000"
 7887      4F4E5F32 
 7887      00
ARM GAS  C:\Users\Mahrukh\AppData\Local\Temp\ccJcQtli.s 			page 166


 7888              	.LASF59:
 7889 0477 63727970 		.ascii	"cryptoVersion\000"
 7889      746F5665 
 7889      7273696F 
 7889      6E00
 7890              	.LASF206:
 7891 0485 4755495F 		.ascii	"GUI_FONT_MONO\000"
 7891      464F4E54 
 7891      5F4D4F4E 
 7891      4F00
 7892              	.LASF80:
 7893 0493 65704D6F 		.ascii	"epMonitorNr\000"
 7893      6E69746F 
 7893      724E7200 
 7894              	.LASF259:
 7895 049f 62617365 		.ascii	"base\000"
 7895      00
 7896              	.LASF154:
 7897 04a4 63795F73 		.ascii	"cy_stc_scb_uart_context\000"
 7897      74635F73 
 7897      63625F75 
 7897      6172745F 
 7897      636F6E74 
 7898              	.LASF20:
 7899 04bc 4F55545F 		.ascii	"OUT_CLR\000"
 7899      434C5200 
 7900              	.LASF33:
 7901 04c4 52455345 		.ascii	"RESERVED1\000"
 7901      52564544 
 7901      3100
 7902              	.LASF176:
 7903 04ce 72656C6F 		.ascii	"reloadInput\000"
 7903      6164496E 
 7903      70757400 
 7904              	.LASF15:
 7905 04da 696E7431 		.ascii	"int16_t\000"
 7905      365F7400 
 7906              	.LASF115:
 7907 04e2 6770696F 		.ascii	"gpioPrtCfgInOffset\000"
 7907      50727443 
 7907      6667496E 
 7907      4F666673 
 7907      657400
 7908              	.LASF12:
 7909 04f5 6C6F6E67 		.ascii	"long long unsigned int\000"
 7909      206C6F6E 
 7909      6720756E 
 7909      7369676E 
 7909      65642069 
 7910              	.LASF112:
 7911 050c 70657269 		.ascii	"periDiv24_5CtlOffset\000"
 7911      44697632 
 7911      345F3543 
 7911      746C4F66 
 7911      66736574 
 7912              	.LASF117:
 7913 0521 6770696F 		.ascii	"gpioPrtCfgSioOffset\000"
ARM GAS  C:\Users\Mahrukh\AppData\Local\Temp\ccJcQtli.s 			page 167


 7913      50727443 
 7913      66675369 
 7913      6F4F6666 
 7913      73657400 
 7914              	.LASF339:
 7915 0535 43795F47 		.ascii	"Cy_GPIO_Write\000"
 7915      50494F5F 
 7915      57726974 
 7915      6500
 7916              	.LASF268:
 7917 0543 64726177 		.ascii	"drawGraph\000"
 7917      47726170 
 7917      6800
 7918              	.LASF71:
 7919 054d 63707573 		.ascii	"cpussIpc0Irq\000"
 7919      73497063 
 7919      30497271 
 7919      00
 7920              	.LASF197:
 7921 055a 4755495F 		.ascii	"GUI_CHARINFO_EXT\000"
 7921      43484152 
 7921      494E464F 
 7921      5F455854 
 7921      00
 7922              	.LASF199:
 7923 056b 46697273 		.ascii	"First\000"
 7923      7400
 7924              	.LASF321:
 7925 0571 4755495F 		.ascii	"GUI_DrawGraph\000"
 7925      44726177 
 7925      47726170 
 7925      6800
 7926              	.LASF264:
 7927 057f 70456D77 		.ascii	"pEmwinBuffer\000"
 7927      696E4275 
 7927      66666572 
 7927      00
 7928              	.LASF337:
 7929 058c 44495350 		.ascii	"DISPLAY.c\000"
 7929      4C41592E 
 7929      6300
 7930              	.LASF308:
 7931 0596 706F7374 		.ascii	"postion_MENU\000"
 7931      696F6E5F 
 7931      4D454E55 
 7931      00
 7932              	.LASF204:
 7933 05a3 70547261 		.ascii	"pTransData\000"
 7933      6E734461 
 7933      746100
 7934              	.LASF208:
 7935 05ae 42617365 		.ascii	"Baseline\000"
 7935      6C696E65 
 7935      00
 7936              	.LASF177:
 7937 05b7 73746172 		.ascii	"startInputMode\000"
 7937      74496E70 
ARM GAS  C:\Users\Mahrukh\AppData\Local\Temp\ccJcQtli.s 			page 168


 7937      75744D6F 
 7937      646500
 7938              	.LASF245:
 7939 05c6 5052494E 		.ascii	"PRINCIPAL_PAGE\000"
 7939      43495041 
 7939      4C5F5041 
 7939      474500
 7940              	.LASF261:
 7941 05d5 76616C75 		.ascii	"value\000"
 7941      6500
 7942              	.LASF29:
 7943 05db 4346475F 		.ascii	"CFG_OUT\000"
 7943      4F555400 
 7944              	.LASF278:
 7945 05e3 53617475 		.ascii	"Saturation\000"
 7945      72617469 
 7945      6F6E00
 7946              	.LASF143:
 7947 05ee 72784275 		.ascii	"rxBuf\000"
 7947      6600
 7948              	.LASF93:
 7949 05f4 666C6173 		.ascii	"flashCtlMainWs3Freq\000"
 7949      6843746C 
 7949      4D61696E 
 7949      57733346 
 7949      72657100 
 7950              	.LASF302:
 7951 0608 62756666 		.ascii	"buffer_0\000"
 7951      65725F30 
 7951      00
 7952              	.LASF303:
 7953 0611 62756666 		.ascii	"buffer_1\000"
 7953      65725F31 
 7953      00
 7954              	.LASF75:
 7955 061a 73727373 		.ascii	"srssNumPll\000"
 7955      4E756D50 
 7955      6C6C00
 7956              	.LASF231:
 7957 0625 4755495F 		.ascii	"GUI_GETFONTINFO\000"
 7957      47455446 
 7957      4F4E5449 
 7957      4E464F00 
 7958              	.LASF305:
 7959 0635 65746174 		.ascii	"etat\000"
 7959      00
 7960              	.LASF220:
 7961 063a 70664469 		.ascii	"pfDispChar\000"
 7961      73704368 
 7961      617200
 7962              	.LASF149:
 7963 0645 63624576 		.ascii	"cbEvents\000"
 7963      656E7473 
 7963      00
 7964              	.LASF335:
 7965 064e 76546173 		.ascii	"vTaskDelay\000"
 7965      6B44656C 
ARM GAS  C:\Users\Mahrukh\AppData\Local\Temp\ccJcQtli.s 			page 169


 7965      617900
 7966              	.LASF140:
 7967 0659 5F426F6F 		.ascii	"_Bool\000"
 7967      6C00
 7968              	.LASF227:
 7969 065f 584D6167 		.ascii	"XMag\000"
 7969      00
 7970              	.LASF266:
 7971 0664 6D696E69 		.ascii	"minimum_1\000"
 7971      6D756D5F 
 7971      3100
 7972              	.LASF224:
 7973 066e 70664765 		.ascii	"pfGetCharInfo\000"
 7973      74436861 
 7973      72496E66 
 7973      6F00
 7974              	.LASF323:
 7975 067c 4755495F 		.ascii	"GUI_DispStringAt\000"
 7975      44697370 
 7975      53747269 
 7975      6E674174 
 7975      00
 7976              	.LASF223:
 7977 068d 70664973 		.ascii	"pfIsInFont\000"
 7977      496E466F 
 7977      6E7400
 7978              	.LASF40:
 7979 0698 5644445F 		.ascii	"VDD_INTR\000"
 7979      494E5452 
 7979      00
 7980              	.LASF54:
 7981 06a1 6770696F 		.ascii	"gpioBase\000"
 7981      42617365 
 7981      00
 7982              	.LASF215:
 7983 06aa 70664765 		.ascii	"pfGetLineDistX\000"
 7983      744C696E 
 7983      65446973 
 7983      745800
 7984              	.LASF329:
 7985 06b9 4755495F 		.ascii	"GUI_DrawLine\000"
 7985      44726177 
 7985      4C696E65 
 7985      00
 7986              	.LASF269:
 7987 06c6 646F6E6E 		.ascii	"donnees\000"
 7987      65657300 
 7988              	.LASF60:
 7989 06ce 64775665 		.ascii	"dwVersion\000"
 7989      7273696F 
 7989      6E00
 7990              	.LASF125:
 7991 06d8 63707573 		.ascii	"cpussSysTickCtlOffset\000"
 7991      73537973 
 7991      5469636B 
 7991      43746C4F 
 7991      66667365 
ARM GAS  C:\Users\Mahrukh\AppData\Local\Temp\ccJcQtli.s 			page 170


 7992              	.LASF81:
 7993 06ee 75646250 		.ascii	"udbPresent\000"
 7993      72657365 
 7993      6E7400
 7994              	.LASF229:
 7995 06f9 4755495F 		.ascii	"GUI_DISPCHAR\000"
 7995      44495350 
 7995      43484152 
 7995      00
 7996              	.LASF45:
 7997 0706 4750494F 		.ascii	"GPIO_PRT_Type\000"
 7997      5F505254 
 7997      5F547970 
 7997      6500
 7998              	.LASF99:
 7999 0714 64775374 		.ascii	"dwStatusChIdxPos\000"
 7999      61747573 
 7999      43684964 
 7999      78506F73 
 7999      00
 8000              	.LASF5:
 8001 0725 5F5F7569 		.ascii	"__uint16_t\000"
 8001      6E743136 
 8001      5F7400
 8002              	.LASF291:
 8003 0730 55415254 		.ascii	"UART_1_context\000"
 8003      5F315F63 
 8003      6F6E7465 
 8003      787400
 8004              	.LASF281:
 8005 073f 44726177 		.ascii	"DrawOption1\000"
 8005      4F707469 
 8005      6F6E3100 
 8006              	.LASF282:
 8007 074b 44726177 		.ascii	"DrawOption2\000"
 8007      4F707469 
 8007      6F6E3200 
 8008              	.LASF307:
 8009 0757 63757272 		.ascii	"currentScreen\000"
 8009      656E7453 
 8009      63726565 
 8009      6E00
 8010              	.LASF315:
 8011 0765 524F5547 		.ascii	"ROUGE\000"
 8011      4500
 8012              	.LASF293:
 8013 076b 4755495F 		.ascii	"GUI_Font16_1\000"
 8013      466F6E74 
 8013      31365F31 
 8013      00
 8014              	.LASF70:
 8015 0778 63707573 		.ascii	"cpussFlashPaSize\000"
 8015      73466C61 
 8015      73685061 
 8015      53697A65 
 8015      00
 8016              	.LASF185:
ARM GAS  C:\Users\Mahrukh\AppData\Local\Temp\ccJcQtli.s 			page 171


 8017 0789 46697273 		.ascii	"FirstChar\000"
 8017      74436861 
 8017      7200
 8018              	.LASF49:
 8019 0793 666C6173 		.ascii	"flashcBase\000"
 8019      68634261 
 8019      736500
 8020              	.LASF136:
 8021 079e 63686172 		.ascii	"char\000"
 8021      00
 8022              	.LASF160:
 8023 07a3 72785269 		.ascii	"rxRingBufTail\000"
 8023      6E674275 
 8023      66546169 
 8023      6C00
 8024              	.LASF274:
 8025 07b1 75706461 		.ascii	"updateParameters\000"
 8025      74655061 
 8025      72616D65 
 8025      74657273 
 8025      00
 8026              	.LASF82:
 8027 07c2 73797350 		.ascii	"sysPmSimoPresent\000"
 8027      6D53696D 
 8027      6F507265 
 8027      73656E74 
 8027      00
 8028              	.LASF165:
 8029 07d3 636C6F63 		.ascii	"clockPrescaler\000"
 8029      6B507265 
 8029      7363616C 
 8029      657200
 8030              	.LASF310:
 8031 07e2 64617461 		.ascii	"data\000"
 8031      00
 8032              	.LASF145:
 8033 07e7 72784275 		.ascii	"rxBufIdx\000"
 8033      66496478 
 8033      00
 8034              	.LASF150:
 8035 07f0 696E6974 		.ascii	"initKey\000"
 8035      4B657900 
 8036              	.LASF100:
 8037 07f8 64775374 		.ascii	"dwStatusChIdxMsk\000"
 8037      61747573 
 8037      43684964 
 8037      784D736B 
 8037      00
 8038              	.LASF14:
 8039 0809 75696E74 		.ascii	"uint8_t\000"
 8039      385F7400 
 8040              	.LASF142:
 8041 0811 73746174 		.ascii	"status\000"
 8041      757300
 8042              	.LASF201:
 8043 0818 70614368 		.ascii	"paCharInfo\000"
 8043      6172496E 
ARM GAS  C:\Users\Mahrukh\AppData\Local\Temp\ccJcQtli.s 			page 172


 8043      666F00
 8044              	.LASF195:
 8045 0823 58506F73 		.ascii	"XPos\000"
 8045      00
 8046              	.LASF35:
 8047 0828 494E5452 		.ascii	"INTR_CAUSE0\000"
 8047      5F434155 
 8047      53453000 
 8048              	.LASF105:
 8049 0834 70657269 		.ascii	"periDivCmdDivSelMsk\000"
 8049      44697643 
 8049      6D644469 
 8049      7653656C 
 8049      4D736B00 
 8050              	.LASF37:
 8051 0848 494E5452 		.ascii	"INTR_CAUSE2\000"
 8051      5F434155 
 8051      53453200 
 8052              	.LASF38:
 8053 0854 494E5452 		.ascii	"INTR_CAUSE3\000"
 8053      5F434155 
 8053      53453300 
 8054              	.LASF226:
 8055 0860 59446973 		.ascii	"YDist\000"
 8055      7400
 8056              	.LASF113:
 8057 0866 6770696F 		.ascii	"gpioPrtIntrCfgOffset\000"
 8057      50727449 
 8057      6E747243 
 8057      66674F66 
 8057      66736574 
 8058              	.LASF111:
 8059 087b 70657269 		.ascii	"periDiv16_5CtlOffset\000"
 8059      44697631 
 8059      365F3543 
 8059      746C4F66 
 8059      66736574 
 8060              	.LASF152:
 8061 0890 63795F63 		.ascii	"cy_cb_scb_uart_handle_events_t\000"
 8061      625F7363 
 8061      625F7561 
 8061      72745F68 
 8061      616E646C 
 8062              	.LASF258:
 8063 08af 54595045 		.ascii	"TYPEGRAPH\000"
 8063      47524150 
 8063      4800
 8064              	.LASF290:
 8065 08b9 43595F45 		.ascii	"CY_EINK_Timer_config\000"
 8065      494E4B5F 
 8065      54696D65 
 8065      725F636F 
 8065      6E666967 
 8066              	.LASF317:
 8067 08ce 7461696C 		.ascii	"taille_infrarouge\000"
 8067      6C655F69 
 8067      6E667261 
ARM GAS  C:\Users\Mahrukh\AppData\Local\Temp\ccJcQtli.s 			page 173


 8067      726F7567 
 8067      6500
 8068              	.LASF242:
 8069 08e0 43595F45 		.ascii	"CY_EINK_FULL_2STAGE\000"
 8069      494E4B5F 
 8069      46554C4C 
 8069      5F325354 
 8069      41474500 
 8070              	.LASF11:
 8071 08f4 6C6F6E67 		.ascii	"long long int\000"
 8071      206C6F6E 
 8071      6720696E 
 8071      7400
 8072              	.LASF56:
 8073 0902 69706342 		.ascii	"ipcBase\000"
 8073      61736500 
 8074              	.LASF97:
 8075 090a 64774368 		.ascii	"dwChCtlPrioPos\000"
 8075      43746C50 
 8075      72696F50 
 8075      6F7300
 8076              	.LASF222:
 8077 0919 70664765 		.ascii	"pfGetFontInfo\000"
 8077      74466F6E 
 8077      74496E66 
 8077      6F00
 8078              	.LASF57:
 8079 0927 63727970 		.ascii	"cryptoBase\000"
 8079      746F4261 
 8079      736500
 8080              	.LASF129:
 8081 0932 63707573 		.ascii	"cpussRam0Ctl0\000"
 8081      7352616D 
 8081      3043746C 
 8081      3000
 8082              	.LASF191:
 8083 0940 42797465 		.ascii	"BytesPerLine\000"
 8083      73506572 
 8083      4C696E65 
 8083      00
 8084              	.LASF330:
 8085 094d 4755495F 		.ascii	"GUI_Init\000"
 8085      496E6974 
 8085      00
 8086              	.LASF48:
 8087 0956 63707573 		.ascii	"cpussBase\000"
 8087      73426173 
 8087      6500
 8088              	.LASF251:
 8089 0960 4F505449 		.ascii	"OPTION_3_ETAT\000"
 8089      4F4E5F33 
 8089      5F455441 
 8089      5400
 8090              	.LASF87:
 8091 096e 666C6173 		.ascii	"flashWriteDelay\000"
 8091      68577269 
 8091      74654465 
ARM GAS  C:\Users\Mahrukh\AppData\Local\Temp\ccJcQtli.s 			page 174


 8091      6C617900 
 8092              	.LASF292:
 8093 097e 4755495F 		.ascii	"GUI_Font8_1\000"
 8093      466F6E74 
 8093      385F3100 
 8094              	.LASF225:
 8095 098a 70616645 		.ascii	"pafEncode\000"
 8095      6E636F64 
 8095      6500
 8096              	.LASF151:
 8097 0994 63795F73 		.ascii	"cy_stc_scb_spi_context_t\000"
 8097      74635F73 
 8097      63625F73 
 8097      70695F63 
 8097      6F6E7465 
 8098              	.LASF4:
 8099 09ad 5F5F696E 		.ascii	"__int16_t\000"
 8099      7431365F 
 8099      7400
 8100              	.LASF322:
 8101 09b7 4755495F 		.ascii	"GUI_DrawRect\000"
 8101      44726177 
 8101      52656374 
 8101      00
 8102              	.LASF214:
 8103 09c4 74474C5F 		.ascii	"tGL_DispLine\000"
 8103      44697370 
 8103      4C696E65 
 8103      00
 8104              	.LASF53:
 8105 09d1 6873696F 		.ascii	"hsiomBase\000"
 8105      6D426173 
 8105      6500
 8106              	.LASF325:
 8107 09db 4755495F 		.ascii	"GUI_Clear\000"
 8107      436C6561 
 8107      7200
 8108              	.LASF103:
 8109 09e5 70657269 		.ascii	"periTrGrOffset\000"
 8109      54724772 
 8109      4F666673 
 8109      657400
 8110              	.LASF23:
 8111 09f4 494E5452 		.ascii	"INTR\000"
 8111      00
 8112              	.LASF200:
 8113 09f9 4C617374 		.ascii	"Last\000"
 8113      00
 8114              	.LASF159:
 8115 09fe 72785269 		.ascii	"rxRingBufHead\000"
 8115      6E674275 
 8115      66486561 
 8115      6400
 8116              	.LASF69:
 8117 0a0c 63707573 		.ascii	"cpussDwChNr\000"
 8117      73447743 
 8117      684E7200 
ARM GAS  C:\Users\Mahrukh\AppData\Local\Temp\ccJcQtli.s 			page 175


 8118              	.LASF175:
 8119 0a18 72656C6F 		.ascii	"reloadInputMode\000"
 8119      6164496E 
 8119      7075744D 
 8119      6F646500 
 8120              	.LASF24:
 8121 0a28 494E5452 		.ascii	"INTR_MASK\000"
 8121      5F4D4153 
 8121      4B00
 8122              	.LASF173:
 8123 0a32 63617074 		.ascii	"captureInputMode\000"
 8123      75726549 
 8123      6E707574 
 8123      4D6F6465 
 8123      00
 8124              	.LASF316:
 8125 0a43 7461696C 		.ascii	"taille_rouge\000"
 8125      6C655F72 
 8125      6F756765 
 8125      00
 8126              	.LASF313:
 8127 0a50 616E6472 		.ascii	"andree\000"
 8127      656500
 8128              	.LASF216:
 8129 0a57 70664765 		.ascii	"pfGetLineLen\000"
 8129      744C696E 
 8129      654C656E 
 8129      00
 8130              	.LASF147:
 8131 0a64 74784275 		.ascii	"txBufSize\000"
 8131      6653697A 
 8131      6500
 8132              	.LASF67:
 8133 0a6e 63707573 		.ascii	"cpussIpcNr\000"
 8133      73497063 
 8133      4E7200
 8134              	.LASF194:
 8135 0a79 5953697A 		.ascii	"YSize\000"
 8135      6500
 8136              	.LASF210:
 8137 0a7f 43486569 		.ascii	"CHeight\000"
 8137      67687400 
 8138              	.LASF79:
 8139 0a87 70617373 		.ascii	"passSarChannels\000"
 8139      53617243 
 8139      68616E6E 
 8139      656C7300 
 8140              	.LASF233:
 8141 0a97 4755495F 		.ascii	"GUI_GETCHARINFO\000"
 8141      47455443 
 8141      48415249 
 8141      4E464F00 
 8142              	.LASF131:
 8143 0aa7 63707573 		.ascii	"cpussRam2Ctl0\000"
 8143      7352616D 
 8143      3243746C 
 8143      3000
ARM GAS  C:\Users\Mahrukh\AppData\Local\Temp\ccJcQtli.s 			page 176


 8144              	.LASF238:
 8145 0ab5 70765F65 		.ascii	"pv_eink_frame_data_t\000"
 8145      696E6B5F 
 8145      6672616D 
 8145      655F6461 
 8145      74615F74 
 8146              	.LASF240:
 8147 0aca 43595F45 		.ascii	"CY_EINK_PARTIAL\000"
 8147      494E4B5F 
 8147      50415254 
 8147      49414C00 
 8148              	.LASF246:
 8149 0ada 4D41494E 		.ascii	"MAIN_MENU\000"
 8149      5F4D454E 
 8149      5500
 8150              	.LASF146:
 8151 0ae4 74784275 		.ascii	"txBuf\000"
 8151      6600
 8152              	.LASF244:
 8153 0aea 5469636B 		.ascii	"TickType_t\000"
 8153      54797065 
 8153      5F7400
 8154              	.LASF88:
 8155 0af5 666C6173 		.ascii	"flashProgramDelay\000"
 8155      6850726F 
 8155      6772616D 
 8155      44656C61 
 8155      7900
 8156              	.LASF110:
 8157 0b07 70657269 		.ascii	"periDiv16CtlOffset\000"
 8157      44697631 
 8157      3643746C 
 8157      4F666673 
 8157      657400
 8158              	.LASF205:
 8159 0b1a 70547261 		.ascii	"pTrans\000"
 8159      6E7300
 8160              	.LASF212:
 8161 0b21 74475549 		.ascii	"tGUI_GetLineDistX\000"
 8161      5F476574 
 8161      4C696E65 
 8161      44697374 
 8161      5800
 8162              	.LASF6:
 8163 0b33 73686F72 		.ascii	"short unsigned int\000"
 8163      7420756E 
 8163      7369676E 
 8163      65642069 
 8163      6E7400
 8164              	.LASF157:
 8165 0b46 72785269 		.ascii	"rxRingBuf\000"
 8165      6E674275 
 8165      6600
 8166              	.LASF47:
 8167 0b50 6C6F6E67 		.ascii	"long double\000"
 8167      20646F75 
 8167      626C6500 
ARM GAS  C:\Users\Mahrukh\AppData\Local\Temp\ccJcQtli.s 			page 177


 8168              	.LASF326:
 8169 0b5c 73707269 		.ascii	"sprintf\000"
 8169      6E746600 
 8170              	.LASF16:
 8171 0b64 75696E74 		.ascii	"uint16_t\000"
 8171      31365F74 
 8171      00
 8172              	.LASF52:
 8173 0b6d 70726F74 		.ascii	"protBase\000"
 8173      42617365 
 8173      00
 8174              	.LASF43:
 8175 0b76 5644445F 		.ascii	"VDD_INTR_SET\000"
 8175      494E5452 
 8175      5F534554 
 8175      00
 8176              	.LASF166:
 8177 0b83 72756E4D 		.ascii	"runMode\000"
 8177      6F646500 
 8178              	.LASF102:
 8179 0b8b 70657269 		.ascii	"periTrCmdGrSelMsk\000"
 8179      5472436D 
 8179      64477253 
 8179      656C4D73 
 8179      6B00
 8180              	.LASF333:
 8181 0b9d 4755495F 		.ascii	"GUI_SetColor\000"
 8181      53657443 
 8181      6F6C6F72 
 8181      00
 8182              	.LASF76:
 8183 0baa 73727373 		.ascii	"srssNumHfroot\000"
 8183      4E756D48 
 8183      66726F6F 
 8183      7400
 8184              	.LASF183:
 8185 0bb8 63795F73 		.ascii	"cy_stc_tcpwm_counter_config_t\000"
 8185      74635F74 
 8185      6370776D 
 8185      5F636F75 
 8185      6E746572 
 8186              	.LASF209:
 8187 0bd6 4C486569 		.ascii	"LHeight\000"
 8187      67687400 
 8188              	.LASF92:
 8189 0bde 666C6173 		.ascii	"flashCtlMainWs2Freq\000"
 8189      6843746C 
 8189      4D61696E 
 8189      57733246 
 8189      72657100 
 8190              	.LASF254:
 8191 0bf2 464C4147 		.ascii	"FLAG1\000"
 8191      3100
 8192              	.LASF19:
 8193 0bf8 73697A65 		.ascii	"sizetype\000"
 8193      74797065 
 8193      00
ARM GAS  C:\Users\Mahrukh\AppData\Local\Temp\ccJcQtli.s 			page 178


 8194              	.LASF331:
 8195 0c01 43795F45 		.ascii	"Cy_EINK_Start\000"
 8195      494E4B5F 
 8195      53746172 
 8195      7400
 8196              	.LASF127:
 8197 0c0f 63707573 		.ascii	"cpussCm4NmiCtlOffset\000"
 8197      73436D34 
 8197      4E6D6943 
 8197      746C4F66 
 8197      66736574 
 8198              	.LASF168:
 8199 0c24 636F6D70 		.ascii	"compareOrCapture\000"
 8199      6172654F 
 8199      72436170 
 8199      74757265 
 8199      00
 8200              	.LASF109:
 8201 0c35 70657269 		.ascii	"periDiv8CtlOffset\000"
 8201      44697638 
 8201      43746C4F 
 8201      66667365 
 8201      7400
 8202              	.LASF297:
 8203 0c47 616C6172 		.ascii	"alarme_acc\000"
 8203      6D655F61 
 8203      636300
 8204              	.LASF0:
 8205 0c52 73686F72 		.ascii	"short int\000"
 8205      7420696E 
 8205      7400
 8206              	.LASF296:
 8207 0c5c 636F7572 		.ascii	"courant\000"
 8207      616E7400 
 8208              	.LASF219:
 8209 0c64 4755495F 		.ascii	"GUI_FONT\000"
 8209      464F4E54 
 8209      00
 8210              	.LASF171:
 8211 0c6d 656E6162 		.ascii	"enableCompareSwap\000"
 8211      6C65436F 
 8211      6D706172 
 8211      65537761 
 8211      7000
 8212              	.LASF236:
 8213 0c7f 7050726F 		.ascii	"pProp\000"
 8213      7000
 8214              	.LASF8:
 8215 0c85 6C6F6E67 		.ascii	"long int\000"
 8215      20696E74 
 8215      00
 8216              	.LASF280:
 8217 0c8e 706F735F 		.ascii	"pos_curseur\000"
 8217      63757273 
 8217      65757200 
 8218              	.LASF58:
 8219 0c9a 63707573 		.ascii	"cpussVersion\000"
ARM GAS  C:\Users\Mahrukh\AppData\Local\Temp\ccJcQtli.s 			page 179


 8219      73566572 
 8219      73696F6E 
 8219      00
 8220              	.LASF287:
 8221 0ca7 49544D5F 		.ascii	"ITM_RxBuffer\000"
 8221      52784275 
 8221      66666572 
 8221      00
 8222              	.LASF181:
 8223 0cb4 636F756E 		.ascii	"countInputMode\000"
 8223      74496E70 
 8223      75744D6F 
 8223      646500
 8224              	.LASF62:
 8225 0cc3 6770696F 		.ascii	"gpioVersion\000"
 8225      56657273 
 8225      696F6E00 
 8226              	.LASF252:
 8227 0ccf 6C6F6361 		.ascii	"location\000"
 8227      74696F6E 
 8227      00
 8228              	.LASF235:
 8229 0cd8 704D6F6E 		.ascii	"pMono\000"
 8229      6F00
 8230              	.LASF332:
 8231 0cde 43795F45 		.ascii	"Cy_EINK_Power\000"
 8231      494E4B5F 
 8231      506F7765 
 8231      7200
 8232              	.LASF61:
 8233 0cec 666C6173 		.ascii	"flashcVersion\000"
 8233      68635665 
 8233      7273696F 
 8233      6E00
 8234              	.LASF186:
 8235 0cfa 4C617374 		.ascii	"LastChar\000"
 8235      43686172 
 8235      00
 8236              	.LASF167:
 8237 0d03 636F756E 		.ascii	"countDirection\000"
 8237      74446972 
 8237      65637469 
 8237      6F6E00
 8238              	.LASF34:
 8239 0d12 4750494F 		.ascii	"GPIO_PRT_V1_Type\000"
 8239      5F505254 
 8239      5F56315F 
 8239      54797065 
 8239      00
 8240              	.LASF267:
 8241 0d23 55706461 		.ascii	"UpdateDisplay\000"
 8241      74654469 
 8241      73706C61 
 8241      7900
 8242              	.LASF135:
 8243 0d31 63686172 		.ascii	"char_t\000"
 8243      5F7400
ARM GAS  C:\Users\Mahrukh\AppData\Local\Temp\ccJcQtli.s 			page 180


 8244              	.LASF257:
 8245 0d38 464C4147 		.ascii	"FLAG_DEPART\000"
 8245      5F444550 
 8245      41525400 
 8246              	.LASF295:
 8247 0d44 4755495F 		.ascii	"GUI_Font32B_1\000"
 8247      466F6E74 
 8247      3332425F 
 8247      3100
 8248              	.LASF294:
 8249 0d52 4755495F 		.ascii	"GUI_Font16B_1\000"
 8249      466F6E74 
 8249      3136425F 
 8249      3100
 8250              	.LASF32:
 8251 0d60 4346475F 		.ascii	"CFG_IN_GPIO5V\000"
 8251      494E5F47 
 8251      50494F35 
 8251      5600
 8252              	.LASF318:
 8253 0d6e 4C43445F 		.ascii	"LCD_GetDisplayBuffer\000"
 8253      47657444 
 8253      6973706C 
 8253      61794275 
 8253      66666572 
 8254              	.LASF284:
 8255 0d83 44726177 		.ascii	"DrawOption3_inferieur\000"
 8255      4F707469 
 8255      6F6E335F 
 8255      696E6665 
 8255      72696575 
 8256              	.LASF161:
 8257 0d99 74784C65 		.ascii	"txLeftToTransmit\000"
 8257      6674546F 
 8257      5472616E 
 8257      736D6974 
 8257      00
 8258              	.LASF311:
 8259 0daa 76656374 		.ascii	"vecteurespacee\000"
 8259      65757265 
 8259      73706163 
 8259      656500
 8260              	.LASF22:
 8261 0db9 4F55545F 		.ascii	"OUT_INV\000"
 8261      494E5600 
 8262              	.LASF122:
 8263 0dc1 63707573 		.ascii	"cpussCm4PwrCtlOffset\000"
 8263      73436D34 
 8263      50777243 
 8263      746C4F66 
 8263      66736574 
 8264              	.LASF3:
 8265 0dd6 5F5F7569 		.ascii	"__uint8_t\000"
 8265      6E74385F 
 8265      7400
 8266              	.LASF262:
 8267 0de0 75706461 		.ascii	"updateMethod\000"
ARM GAS  C:\Users\Mahrukh\AppData\Local\Temp\ccJcQtli.s 			page 181


 8267      74654D65 
 8267      74686F64 
 8267      00
 8268              	.LASF217:
 8269 0ded 70664469 		.ascii	"pfDispLine\000"
 8269      73704C69 
 8269      6E6500
 8270              	.LASF283:
 8271 0df8 44726177 		.ascii	"DrawOption3_superieur\000"
 8271      4F707469 
 8271      6F6E335F 
 8271      73757065 
 8271      72696575 
 8272              	.LASF126:
 8273 0e0e 63707573 		.ascii	"cpussCm0NmiCtlOffset\000"
 8273      73436D30 
 8273      4E6D6943 
 8273      746C4F66 
 8273      66736574 
 8274              	.LASF119:
 8275 0e23 63707573 		.ascii	"cpussCm4ClockCtlOffset\000"
 8275      73436D34 
 8275      436C6F63 
 8275      6B43746C 
 8275      4F666673 
 8276              	.LASF25:
 8277 0e3a 494E5452 		.ascii	"INTR_MASKED\000"
 8277      5F4D4153 
 8277      4B454400 
 8278              	.LASF213:
 8279 0e46 74475549 		.ascii	"tGUI_GetLineLen\000"
 8279      5F476574 
 8279      4C696E65 
 8279      4C656E00 
 8280              	.LASF124:
 8281 0e56 63707573 		.ascii	"cpussTrimRomCtlOffset\000"
 8281      73547269 
 8281      6D526F6D 
 8281      43746C4F 
 8281      66667365 
 8282              	.LASF272:
 8283 0e6c 6D617869 		.ascii	"maximum\000"
 8283      6D756D00 
 8284              	.LASF63:
 8285 0e74 6873696F 		.ascii	"hsiomVersion\000"
 8285      6D566572 
 8285      73696F6E 
 8285      00
 8286              	.LASF10:
 8287 0e81 6C6F6E67 		.ascii	"long unsigned int\000"
 8287      20756E73 
 8287      69676E65 
 8287      6420696E 
 8287      7400
 8288              	.LASF128:
 8289 0e93 63707573 		.ascii	"cpussRomCtl\000"
 8289      73526F6D 
ARM GAS  C:\Users\Mahrukh\AppData\Local\Temp\ccJcQtli.s 			page 182


 8289      43746C00 
 8290              	.LASF137:
 8291 0e9f 666C6F61 		.ascii	"float\000"
 8291      7400
 8292              	.LASF184:
 8293 0ea5 4755495F 		.ascii	"GUI_FONT_TRANSLIST\000"
 8293      464F4E54 
 8293      5F545241 
 8293      4E534C49 
 8293      535400
 8294              	.LASF17:
 8295 0eb8 696E7433 		.ascii	"int32_t\000"
 8295      325F7400 
 8296              	.LASF174:
 8297 0ec0 63617074 		.ascii	"captureInput\000"
 8297      75726549 
 8297      6E707574 
 8297      00
 8298              	.LASF279:
 8299 0ecd 44726177 		.ascii	"DrawMenu\000"
 8299      4D656E75 
 8299      00
 8300              	.LASF121:
 8301 0ed6 63707573 		.ascii	"cpussCm0StatusOffset\000"
 8301      73436D30 
 8301      53746174 
 8301      75734F66 
 8301      66736574 
 8302              	.LASF298:
 8303 0eeb 616C6172 		.ascii	"alarme_FC\000"
 8303      6D655F46 
 8303      4300
 8304              	.LASF190:
 8305 0ef5 58446973 		.ascii	"XDist\000"
 8305      7400
 8306              	.LASF86:
 8307 0efb 666C6173 		.ascii	"flashPipeRequired\000"
 8307      68506970 
 8307      65526571 
 8307      75697265 
 8307      6400
 8308              	.LASF2:
 8309 0f0d 756E7369 		.ascii	"unsigned char\000"
 8309      676E6564 
 8309      20636861 
 8309      7200
 8310              	.LASF9:
 8311 0f1b 5F5F7569 		.ascii	"__uint32_t\000"
 8311      6E743332 
 8311      5F7400
 8312              	.LASF46:
 8313 0f26 4750494F 		.ascii	"GPIO_Type\000"
 8313      5F547970 
 8313      6500
 8314              	.LASF133:
 8315 0f30 6970634C 		.ascii	"ipcLockStatusOffset\000"
 8315      6F636B53 
ARM GAS  C:\Users\Mahrukh\AppData\Local\Temp\ccJcQtli.s 			page 183


 8315      74617475 
 8315      734F6666 
 8315      73657400 
 8316              	.LASF182:
 8317 0f44 636F756E 		.ascii	"countInput\000"
 8317      74496E70 
 8317      757400
 8318              	.LASF27:
 8319 0f4f 494E5452 		.ascii	"INTR_CFG\000"
 8319      5F434647 
 8319      00
 8320              	.LASF153:
 8321 0f58 63795F73 		.ascii	"cy_stc_scb_spi_context\000"
 8321      74635F73 
 8321      63625F73 
 8321      70695F63 
 8321      6F6E7465 
 8322              	.LASF89:
 8323 0f6f 666C6173 		.ascii	"flashEraseDelay\000"
 8323      68457261 
 8323      73654465 
 8323      6C617900 
 8324              	.LASF90:
 8325 0f7f 666C6173 		.ascii	"flashCtlMainWs0Freq\000"
 8325      6843746C 
 8325      4D61696E 
 8325      57733046 
 8325      72657100 
 8326              	.LASF338:
 8327 0f93 433A5C55 		.ascii	"C:\\Users\\Mahrukh\\OneDrive\\Documents\\ESSAI_3\\L"
 8327      73657273 
 8327      5C4D6168 
 8327      72756B68 
 8327      5C4F6E65 
 8328 0fc0 61626F72 		.ascii	"aboratoire3.cydsn\000"
 8328      61746F69 
 8328      7265332E 
 8328      63796473 
 8328      6E00
 8329              	.LASF83:
 8330 0fd2 70726F74 		.ascii	"protBusMasterMask\000"
 8330      4275734D 
 8330      61737465 
 8330      724D6173 
 8330      6B00
 8331              	.LASF327:
 8332 0fe4 4755495F 		.ascii	"GUI_SetTextAlign\000"
 8332      53657454 
 8332      65787441 
 8332      6C69676E 
 8332      00
 8333              	.LASF249:
 8334 0ff5 4F505449 		.ascii	"OPTION_3_superieur\000"
 8334      4F4E5F33 
 8334      5F737570 
 8334      65726965 
 8334      757200
ARM GAS  C:\Users\Mahrukh\AppData\Local\Temp\ccJcQtli.s 			page 184


 8335              	.LASF314:
 8336 1008 494E4652 		.ascii	"INFRAROUGE\000"
 8336      41524F55 
 8336      474500
 8337              	.LASF85:
 8338 1013 666C6173 		.ascii	"flashRwwRequired\000"
 8338      68527777 
 8338      52657175 
 8338      69726564 
 8338      00
 8339              	.LASF255:
 8340 1024 464C4147 		.ascii	"FLAG2\000"
 8340      3200
 8341              	.LASF256:
 8342 102a 464C4147 		.ascii	"FLAG3\000"
 8342      3300
 8343              	.LASF114:
 8344 1030 6770696F 		.ascii	"gpioPrtCfgOffset\000"
 8344      50727443 
 8344      66674F66 
 8344      66736574 
 8344      00
 8345              	.LASF312:
 8346 1041 79617373 		.ascii	"yassine\000"
 8346      696E6500 
 8347              	.LASF260:
 8348 1049 70696E4E 		.ascii	"pinNum\000"
 8348      756D00
 8349              	.LASF41:
 8350 1050 5644445F 		.ascii	"VDD_INTR_MASK\000"
 8350      494E5452 
 8350      5F4D4153 
 8350      4B00
 8351              	.LASF1:
 8352 105e 7369676E 		.ascii	"signed char\000"
 8352      65642063 
 8352      68617200 
 8353              	.LASF164:
 8354 106a 70657269 		.ascii	"period\000"
 8354      6F6400
 8355              	.LASF324:
 8356 1071 4755495F 		.ascii	"GUI_SetFont\000"
 8356      53657446 
 8356      6F6E7400 
 8357              	.LASF95:
 8358 107d 64774368 		.ascii	"dwChOffset\000"
 8358      4F666673 
 8358      657400
 8359              	.LASF68:
 8360 1088 63707573 		.ascii	"cpussIpcIrqNr\000"
 8360      73497063 
 8360      4972714E 
 8360      7200
 8361              	.LASF163:
 8362 1096 63795F73 		.ascii	"cy_stc_tcpwm_counter_config\000"
 8362      74635F74 
 8362      6370776D 
ARM GAS  C:\Users\Mahrukh\AppData\Local\Temp\ccJcQtli.s 			page 185


 8362      5F636F75 
 8362      6E746572 
 8363              	.LASF98:
 8364 10b2 64774368 		.ascii	"dwChCtlPreemptablePos\000"
 8364      43746C50 
 8364      7265656D 
 8364      70746162 
 8364      6C65506F 
 8365              	.LASF228:
 8366 10c8 594D6167 		.ascii	"YMag\000"
 8366      00
 8367              	.LASF189:
 8368 10cd 5853697A 		.ascii	"XSize\000"
 8368      6500
 8369              	.LASF340:
 8370 10d3 6D656D63 		.ascii	"memcpy\000"
 8370      707900
 8371              	.LASF120:
 8372 10da 63707573 		.ascii	"cpussCm4StatusOffset\000"
 8372      73436D34 
 8372      53746174 
 8372      75734F66 
 8372      66736574 
 8373              	.LASF134:
 8374 10ef 63795F73 		.ascii	"cy_stc_device_t\000"
 8374      74635F64 
 8374      65766963 
 8374      655F7400 
 8375              	.LASF299:
 8376 10ff 626F726E 		.ascii	"borne_inferieur\000"
 8376      655F696E 
 8376      66657269 
 8376      65757200 
 8377              	.LASF239:
 8378 110f 63795F65 		.ascii	"cy_eink_frame_t\000"
 8378      696E6B5F 
 8378      6672616D 
 8378      655F7400 
 8379              	.LASF309:
 8380 111f 73656C65 		.ascii	"selection_MENU\000"
 8380      6374696F 
 8380      6E5F4D45 
 8380      4E5500
 8381              	.LASF65:
 8382 112e 70657269 		.ascii	"periVersion\000"
 8382      56657273 
 8382      696F6E00 
 8383              	.LASF139:
 8384 113a 75696E74 		.ascii	"uint8\000"
 8384      3800
 8385              	.LASF138:
 8386 1140 646F7562 		.ascii	"double\000"
 8386      6C6500
 8387              	.LASF55:
 8388 1147 70617373 		.ascii	"passBase\000"
 8388      42617365 
 8388      00
ARM GAS  C:\Users\Mahrukh\AppData\Local\Temp\ccJcQtli.s 			page 186


 8389              	.LASF193:
 8390 1150 4755495F 		.ascii	"GUI_CHARINFO\000"
 8390      43484152 
 8390      494E464F 
 8390      00
 8391              	.LASF232:
 8392 115d 4755495F 		.ascii	"GUI_ISINFONT\000"
 8392      4953494E 
 8392      464F4E54 
 8392      00
 8393              	.LASF74:
 8394 116a 73727373 		.ascii	"srssNumClkpath\000"
 8394      4E756D43 
 8394      6C6B7061 
 8394      746800
 8395              	.LASF275:
 8396 1179 70617261 		.ascii	"param1\000"
 8396      6D3100
 8397              	.LASF276:
 8398 1180 70617261 		.ascii	"param2\000"
 8398      6D3200
 8399              	.LASF30:
 8400 1187 4346475F 		.ascii	"CFG_SIO\000"
 8400      53494F00 
 8401              	.LASF94:
 8402 118f 666C6173 		.ascii	"flashCtlMainWs4Freq\000"
 8402      6843746C 
 8402      4D61696E 
 8402      57733446 
 8402      72657100 
 8403              	.LASF270:
 8404 11a3 65737061 		.ascii	"espacement\000"
 8404      63656D65 
 8404      6E7400
 8405              	.LASF300:
 8406 11ae 626F726E 		.ascii	"borne_superieur\000"
 8406      655F7375 
 8406      70657269 
 8406      65757200 
 8407              	.LASF202:
 8408 11be 704E6578 		.ascii	"pNext\000"
 8408      7400
 8409              	.LASF250:
 8410 11c4 4F505449 		.ascii	"OPTION_3_inferieur\000"
 8410      4F4E5F33 
 8410      5F696E66 
 8410      65726965 
 8410      757200
 8411              	.LASF285:
 8412 11d7 44726177 		.ascii	"DrawOption3_ETAT\000"
 8412      4F707469 
 8412      6F6E335F 
 8412      45544154 
 8412      00
 8413              	.LASF64:
 8414 11e8 69706356 		.ascii	"ipcVersion\000"
 8414      65727369 
ARM GAS  C:\Users\Mahrukh\AppData\Local\Temp\ccJcQtli.s 			page 187


 8414      6F6E00
 8415              	.LASF237:
 8416 11f3 7050726F 		.ascii	"pPropExt\000"
 8416      70457874 
 8416      00
 8417              	.LASF101:
 8418 11fc 70657269 		.ascii	"periTrCmdOffset\000"
 8418      5472436D 
 8418      644F6666 
 8418      73657400 
 8419              	.LASF144:
 8420 120c 72784275 		.ascii	"rxBufSize\000"
 8420      6653697A 
 8420      6500
 8421              	.LASF178:
 8422 1216 73746172 		.ascii	"startInput\000"
 8422      74496E70 
 8422      757400
 8423              		.ident	"GCC: (GNU Tools for ARM Embedded Processors) 5.4.1 20160609 (release) [ARM/embedded-5-bran
