ARM GAS  C:\Users\Mahrukh\AppData\Local\Temp\ccJcQtli.s 			page 1


   1              		.syntax unified
   2              		.cpu cortex-m4
   3              		.eabi_attribute 27, 1
   4              		.fpu fpv4-sp-d16
   5              		.eabi_attribute 20, 1
   6              		.eabi_attribute 21, 1
   7              		.eabi_attribute 23, 3
   8              		.eabi_attribute 24, 1
   9              		.eabi_attribute 25, 1
  10              		.eabi_attribute 26, 1
  11              		.eabi_attribute 30, 1
  12              		.eabi_attribute 34, 1
  13              		.eabi_attribute 18, 4
  14              		.thumb
  15              		.syntax unified
  16              		.file	"DISPLAY.c"
  17              		.text
  18              	.Ltext0:
  19              		.cfi_sections	.debug_frame
  20              		.section	.text.UpdateDisplay,"ax",%progbits
  21              		.align	2
  22              		.global	UpdateDisplay
  23              		.thumb
  24              		.thumb_func
  25              		.type	UpdateDisplay, %function
  26              	UpdateDisplay:
  27              	.LFB604:
  28              		.file 1 "DISPLAY.c"
   1:DISPLAY.c     **** /* ========================================
   2:DISPLAY.c     ****  *
   3:DISPLAY.c     ****  * Copyright YOUR COMPANY, THE YEAR
   4:DISPLAY.c     ****  * All Rights Reserved
   5:DISPLAY.c     ****  * UNPUBLISHED, LICENSED SOFTWARE.
   6:DISPLAY.c     ****  *
   7:DISPLAY.c     ****  * CONFIDENTIAL AND PROPRIETARY INFORMATION
   8:DISPLAY.c     ****  * WHICH IS THE PROPERTY OF your company.
   9:DISPLAY.c     ****  *
  10:DISPLAY.c     ****  * ========================================
  11:DISPLAY.c     **** 
  12:DISPLAY.c     **** 
  13:DISPLAY.c     **** */
  14:DISPLAY.c     **** 
  15:DISPLAY.c     **** #include "CAPSENS.h"
  16:DISPLAY.c     **** #include "DISPLAY.h"
  17:DISPLAY.c     **** 
  18:DISPLAY.c     **** // Notons que nous n'avons pas d√©clar√© certaines fonctions de ce fichier dans le HEADERFILE DISPL
  19:DISPLAY.c     **** // utilit√©s n'est que dans le pr√©sent fichier. 
  20:DISPLAY.c     **** // Le principe de ma t√¢che d'affichage s'appuie sur les FLAGS. En effet, ayant en m√©moire la page
  21:DISPLAY.c     **** // et le bouton appuy√©e, il est possible de d√©terminer quel page il faudra afficher. Pour all√©ge
  22:DISPLAY.c     **** // qui permettent d'afficher les diff√©rentes page de mon interface. 
  23:DISPLAY.c     **** 
  24:DISPLAY.c     **** // Fonction qui permet de rafra√Æchir les modifications apport√©es √† l'√©cran 
  25:DISPLAY.c     **** void UpdateDisplay(cy_eink_update_t updateMethod, bool powerCycle)
  26:DISPLAY.c     **** {
  29              		.loc 1 26 0
  30              		.cfi_startproc
  31              		@ args = 0, pretend = 0, frame = 0
ARM GAS  C:\Users\Mahrukh\AppData\Local\Temp\ccJcQtli.s 			page 2


  32              		@ frame_needed = 0, uses_anonymous_args = 0
  33              	.LVL0:
  34 0000 F8B5     		push	{r3, r4, r5, r6, r7, lr}
  35              		.cfi_def_cfa_offset 24
  36              		.cfi_offset 3, -24
  37              		.cfi_offset 4, -20
  38              		.cfi_offset 5, -16
  39              		.cfi_offset 6, -12
  40              		.cfi_offset 7, -8
  41              		.cfi_offset 14, -4
  42 0002 0646     		mov	r6, r0
  43 0004 0F46     		mov	r7, r1
  27:DISPLAY.c     ****     cy_eink_frame_t* pEmwinBuffer;
  28:DISPLAY.c     ****     /* Get the pointer to Emwin's display buffer */
  29:DISPLAY.c     ****    pEmwinBuffer = (cy_eink_frame_t*)LCD_GetDisplayBuffer();
  44              		.loc 1 29 0
  45 0006 FFF7FEFF 		bl	LCD_GetDisplayBuffer
  46              	.LVL1:
  47 000a 0546     		mov	r5, r0
  48              	.LVL2:
  30:DISPLAY.c     ****     /* Update the EInk display */
  31:DISPLAY.c     ****     Cy_EINK_ShowFrame(imageBufferCache, pEmwinBuffer, updateMethod, powerCycle);
  49              		.loc 1 31 0
  50 000c 064C     		ldr	r4, .L3
  51 000e 3B46     		mov	r3, r7
  52 0010 3246     		mov	r2, r6
  53 0012 0146     		mov	r1, r0
  54 0014 2046     		mov	r0, r4
  55              	.LVL3:
  56 0016 FFF7FEFF 		bl	Cy_EINK_ShowFrame
  57              	.LVL4:
  32:DISPLAY.c     ****     /* Copy the EmWin display buffer to the imageBuffer cache*/
  33:DISPLAY.c     ****     memcpy(imageBufferCache, pEmwinBuffer, CY_EINK_FRAME_SIZE);
  58              		.loc 1 33 0
  59 001a 41F2B062 		movw	r2, #5808
  60 001e 2946     		mov	r1, r5
  61 0020 2046     		mov	r0, r4
  62 0022 FFF7FEFF 		bl	memcpy
  63              	.LVL5:
  64 0026 F8BD     		pop	{r3, r4, r5, r6, r7, pc}
  65              	.LVL6:
  66              	.L4:
  67              		.align	2
  68              	.L3:
  69 0028 00000000 		.word	imageBufferCache
  70              		.cfi_endproc
  71              	.LFE604:
  72              		.size	UpdateDisplay, .-UpdateDisplay
  73              		.section	.text.maximum_1,"ax",%progbits
  74              		.align	2
  75              		.global	maximum_1
  76              		.thumb
  77              		.thumb_func
  78              		.type	maximum_1, %function
  79              	maximum_1:
  80              	.LFB605:
  34:DISPLAY.c     **** }
ARM GAS  C:\Users\Mahrukh\AppData\Local\Temp\ccJcQtli.s 			page 3


  35:DISPLAY.c     **** 
  36:DISPLAY.c     **** //Fonctions qui permet de d√©terminer le maximum d'un vecteur de type uint32_t de taille n
  37:DISPLAY.c     **** uint32_t maximum_1(uint32_t arr[], int n){   
  81              		.loc 1 37 0
  82              		.cfi_startproc
  83              		@ args = 0, pretend = 0, frame = 0
  84              		@ frame_needed = 0, uses_anonymous_args = 0
  85              		@ link register save eliminated.
  86              	.LVL7:
  87 0000 10B4     		push	{r4}
  88              		.cfi_def_cfa_offset 4
  89              		.cfi_offset 4, -4
  90 0002 0446     		mov	r4, r0
  38:DISPLAY.c     ****     int i;
  39:DISPLAY.c     ****     // Initialize maximum element
  40:DISPLAY.c     ****     uint32_t max = arr[0];
  91              		.loc 1 40 0
  92 0004 0068     		ldr	r0, [r0]
  93              	.LVL8:
  41:DISPLAY.c     ****     // Traverse array elements from second and
  42:DISPLAY.c     ****     // compare every element with current max 
  43:DISPLAY.c     ****     for (i = 1; i < n; i++){
  94              		.loc 1 43 0
  95 0006 0123     		movs	r3, #1
  96 0008 05E0     		b	.L6
  97              	.LVL9:
  98              	.L8:
  44:DISPLAY.c     ****         if (arr[i] > max){
  99              		.loc 1 44 0
 100 000a 54F82320 		ldr	r2, [r4, r3, lsl #2]
 101 000e 9042     		cmp	r0, r2
 102 0010 00D2     		bcs	.L7
  45:DISPLAY.c     ****             max = arr[i];}}
 103              		.loc 1 45 0
 104 0012 1046     		mov	r0, r2
 105              	.LVL10:
 106              	.L7:
  43:DISPLAY.c     ****         if (arr[i] > max){
 107              		.loc 1 43 0 discriminator 2
 108 0014 0133     		adds	r3, r3, #1
 109              	.LVL11:
 110              	.L6:
  43:DISPLAY.c     ****         if (arr[i] > max){
 111              		.loc 1 43 0 is_stmt 0 discriminator 1
 112 0016 8B42     		cmp	r3, r1
 113 0018 F7DB     		blt	.L8
  46:DISPLAY.c     ****     return max;
  47:DISPLAY.c     **** }
 114              		.loc 1 47 0 is_stmt 1
 115 001a 5DF8044B 		ldr	r4, [sp], #4
 116              		.cfi_restore 4
 117              		.cfi_def_cfa_offset 0
 118              	.LVL12:
 119 001e 7047     		bx	lr
 120              		.cfi_endproc
 121              	.LFE605:
 122              		.size	maximum_1, .-maximum_1
ARM GAS  C:\Users\Mahrukh\AppData\Local\Temp\ccJcQtli.s 			page 4


 123              		.section	.text.minimum_1,"ax",%progbits
 124              		.align	2
 125              		.global	minimum_1
 126              		.thumb
 127              		.thumb_func
 128              		.type	minimum_1, %function
 129              	minimum_1:
 130              	.LFB606:
  48:DISPLAY.c     **** //Fonctions qui permet de d√©terminer le minimum d'un vecteur de type uint32_t de taille n
  49:DISPLAY.c     **** uint32_t minimum_1(uint32_t arr[], int n)      
  50:DISPLAY.c     **** {
 131              		.loc 1 50 0
 132              		.cfi_startproc
 133              		@ args = 0, pretend = 0, frame = 0
 134              		@ frame_needed = 0, uses_anonymous_args = 0
 135              		@ link register save eliminated.
 136              	.LVL13:
 137 0000 10B4     		push	{r4}
 138              		.cfi_def_cfa_offset 4
 139              		.cfi_offset 4, -4
 140 0002 0446     		mov	r4, r0
  51:DISPLAY.c     ****     int i;
  52:DISPLAY.c     ****     // Initialize maximum element
  53:DISPLAY.c     ****     uint32_t min = arr[0];
 141              		.loc 1 53 0
 142 0004 0068     		ldr	r0, [r0]
 143              	.LVL14:
  54:DISPLAY.c     ****     // Traverse array elements from second and
  55:DISPLAY.c     ****     // compare every element with current max 
  56:DISPLAY.c     ****     for (i = 1; i < n; i++){
 144              		.loc 1 56 0
 145 0006 0123     		movs	r3, #1
 146 0008 05E0     		b	.L12
 147              	.LVL15:
 148              	.L14:
  57:DISPLAY.c     ****         if (arr[i] < min){
 149              		.loc 1 57 0
 150 000a 54F82320 		ldr	r2, [r4, r3, lsl #2]
 151 000e 9042     		cmp	r0, r2
 152 0010 00D9     		bls	.L13
  58:DISPLAY.c     ****             min = arr[i];}}
 153              		.loc 1 58 0
 154 0012 1046     		mov	r0, r2
 155              	.LVL16:
 156              	.L13:
  56:DISPLAY.c     ****         if (arr[i] < min){
 157              		.loc 1 56 0 discriminator 2
 158 0014 0133     		adds	r3, r3, #1
 159              	.LVL17:
 160              	.L12:
  56:DISPLAY.c     ****         if (arr[i] < min){
 161              		.loc 1 56 0 is_stmt 0 discriminator 1
 162 0016 8B42     		cmp	r3, r1
 163 0018 F7DB     		blt	.L14
  59:DISPLAY.c     ****     return min;
  60:DISPLAY.c     **** }
 164              		.loc 1 60 0 is_stmt 1
ARM GAS  C:\Users\Mahrukh\AppData\Local\Temp\ccJcQtli.s 			page 5


 165 001a 5DF8044B 		ldr	r4, [sp], #4
 166              		.cfi_restore 4
 167              		.cfi_def_cfa_offset 0
 168              	.LVL18:
 169 001e 7047     		bx	lr
 170              		.cfi_endproc
 171              	.LFE606:
 172              		.size	minimum_1, .-minimum_1
 173              		.section	.text.drawGraph,"ax",%progbits
 174              		.align	2
 175              		.global	drawGraph
 176              		.thumb
 177              		.thumb_func
 178              		.type	drawGraph, %function
 179              	drawGraph:
 180              	.LFB607:
  61:DISPLAY.c     **** // Fonction qui permet d'afficher la courbe d'absoprtion voulue √† partir du signal filtr√© par l'e
  62:DISPLAY.c     **** // du traitement de signal. Cette fonction prends en param√®tre ce vecteur signal, un espacement ai
  63:DISPLAY.c     **** // taille du vecteur signal. Sachant que la fr√©quence d'√©chantillonage est grande, les donn√©es p
  64:DISPLAY.c     **** // trop proches et repr√©sente seulement un signal local. De ce fait, on introduit un espacement en
  65:DISPLAY.c     **** // √† afficher afin de visualier un signal √©largie. 
  66:DISPLAY.c     **** void drawGraph(uint32_t donnees[1300], uint8_t espacement, int size ){   //size est d√©clarer comme
 181              		.loc 1 66 0
 182              		.cfi_startproc
 183              		@ args = 0, pretend = 0, frame = 0
 184              		@ frame_needed = 0, uses_anonymous_args = 0
 185              	.LVL19:
 186 0000 2DE9F041 		push	{r4, r5, r6, r7, r8, lr}
 187              		.cfi_def_cfa_offset 24
 188              		.cfi_offset 4, -24
 189              		.cfi_offset 5, -20
 190              		.cfi_offset 6, -16
 191              		.cfi_offset 7, -12
 192              		.cfi_offset 8, -8
 193              		.cfi_offset 14, -4
 194 0004 0646     		mov	r6, r0
 195 0006 0F46     		mov	r7, r1
 196 0008 1446     		mov	r4, r2
  67:DISPLAY.c     ****     
  68:DISPLAY.c     ****     GUI_SetPenSize(1);
 197              		.loc 1 68 0
 198 000a 0120     		movs	r0, #1
 199              	.LVL20:
 200 000c FFF7FEFF 		bl	GUI_SetPenSize
 201              	.LVL21:
  69:DISPLAY.c     ****     
  70:DISPLAY.c     ****     // D√©termination du maximum et du minimum du signal. Notons que la fonction GUI_DrawGraph ne p
  71:DISPLAY.c     ****     // qu'un vecteur de type uint16_t. Donc, les donn√©es de celui-ci doivent √™tre compris dans l'
  72:DISPLAY.c     ****     //Toutefois, cela n'est pas le cas pour le vecteur du signal √† affich√©, sachant que les donn√
  73:DISPLAY.c     ****     // de 10^5. De ce fait, il est possible de divis√© ce signal par 5 afin de r√©duire ces valeurs
  74:DISPLAY.c     ****     // Ce changement ne comporte aucune perte de donn√©es, simplement une modification physique du 
  75:DISPLAY.c     ****    uint32_t maximum=0; 
  76:DISPLAY.c     ****    uint32_t minimum=0;
  77:DISPLAY.c     ****     
  78:DISPLAY.c     ****    maximum = (maximum_1(donnees, size))/5;
 202              		.loc 1 78 0
 203 0010 2146     		mov	r1, r4
ARM GAS  C:\Users\Mahrukh\AppData\Local\Temp\ccJcQtli.s 			page 6


 204 0012 3046     		mov	r0, r6
 205 0014 FFF7FEFF 		bl	maximum_1
 206              	.LVL22:
 207 0018 DFF8D080 		ldr	r8, .L25
 208 001c A8FB0035 		umull	r3, r5, r8, r0
 209 0020 AD08     		lsrs	r5, r5, #2
 210              	.LVL23:
  79:DISPLAY.c     ****    minimum= (minimum_1(donnees, size))/5; 
 211              		.loc 1 79 0
 212 0022 2146     		mov	r1, r4
 213 0024 3046     		mov	r0, r6
 214 0026 FFF7FEFF 		bl	minimum_1
 215              	.LVL24:
 216 002a A8FB0030 		umull	r3, r0, r8, r0
 217 002e 8008     		lsrs	r0, r0, #2
 218              	.LVL25:
 219              	.LBB14:
  80:DISPLAY.c     ****   
  81:DISPLAY.c     ****    //Modification des valeurs du vecteur signal afin de les adapter aux pixels de l'√©cran E-INK di
  82:DISPLAY.c     ****     
  83:DISPLAY.c     ****     for(int y=0;y<size;y++){
 220              		.loc 1 83 0
 221 0030 0021     		movs	r1, #0
 222 0032 10E0     		b	.L18
 223              	.LVL26:
 224              	.L19:
  84:DISPLAY.c     ****        data[y]=(((donnees[y]/5)-minimum)*(maximum-minimum))/(2*maximum);
 225              		.loc 1 84 0 discriminator 3
 226 0034 56F82130 		ldr	r3, [r6, r1, lsl #2]
 227 0038 2C4A     		ldr	r2, .L25
 228 003a A2FB0323 		umull	r2, r3, r2, r3
 229 003e C0EB9303 		rsb	r3, r0, r3, lsr #2
 230 0042 2A1A     		subs	r2, r5, r0
 231 0044 02FB03F3 		mul	r3, r2, r3
 232 0048 6A00     		lsls	r2, r5, #1
 233 004a B3FBF2F3 		udiv	r3, r3, r2
 234 004e 284A     		ldr	r2, .L25+4
 235 0050 22F81130 		strh	r3, [r2, r1, lsl #1]	@ movhi
  83:DISPLAY.c     ****        data[y]=(((donnees[y]/5)-minimum)*(maximum-minimum))/(2*maximum);
 236              		.loc 1 83 0 discriminator 3
 237 0054 0131     		adds	r1, r1, #1
 238              	.LVL27:
 239              	.L18:
  83:DISPLAY.c     ****        data[y]=(((donnees[y]/5)-minimum)*(maximum-minimum))/(2*maximum);
 240              		.loc 1 83 0 is_stmt 0 discriminator 1
 241 0056 A142     		cmp	r1, r4
 242 0058 ECDB     		blt	.L19
 243 005a 0023     		movs	r3, #0
 244 005c 1A46     		mov	r2, r3
 245 005e 07E0     		b	.L20
 246              	.LVL28:
 247              	.L21:
 248              	.LBE14:
 249              	.LBB15:
  85:DISPLAY.c     ****     }
  86:DISPLAY.c     ****     
  87:DISPLAY.c     ****     // Espacement des donn√©es √† afficher du vecteur signal afin d'obtenir un signal global 
ARM GAS  C:\Users\Mahrukh\AppData\Local\Temp\ccJcQtli.s 			page 7


  88:DISPLAY.c     ****     int a=0; 
  89:DISPLAY.c     ****         for (int b=0; b<size;  b+=espacement) {  
  90:DISPLAY.c     ****             vecteurespacee[a]= data[b]; 
 250              		.loc 1 90 0 is_stmt 1 discriminator 3
 251 0060 2349     		ldr	r1, .L25+4
 252 0062 31F91300 		ldrsh	r0, [r1, r3, lsl #1]
 253 0066 2349     		ldr	r1, .L25+8
 254 0068 21F81200 		strh	r0, [r1, r2, lsl #1]	@ movhi
  91:DISPLAY.c     ****             a++; 
 255              		.loc 1 91 0 discriminator 3
 256 006c 0132     		adds	r2, r2, #1
 257              	.LVL29:
  89:DISPLAY.c     ****             vecteurespacee[a]= data[b]; 
 258              		.loc 1 89 0 discriminator 3
 259 006e 3B44     		add	r3, r3, r7
 260              	.LVL30:
 261              	.L20:
  89:DISPLAY.c     ****             vecteurespacee[a]= data[b]; 
 262              		.loc 1 89 0 is_stmt 0 discriminator 1
 263 0070 A342     		cmp	r3, r4
 264 0072 F5DB     		blt	.L21
 265              	.LBE15:
  92:DISPLAY.c     ****             
  93:DISPLAY.c     ****         }
  94:DISPLAY.c     ****         
  95:DISPLAY.c     ****     // Affichage de la page principal
  96:DISPLAY.c     ****     GUI_DrawGraph(vecteurespacee, 250, 5,1); //250 est la taille du vecteurespacee, donc changer ce
 266              		.loc 1 96 0 is_stmt 1
 267 0074 0123     		movs	r3, #1
 268              	.LVL31:
 269 0076 0522     		movs	r2, #5
 270              	.LVL32:
 271 0078 FA21     		movs	r1, #250
 272 007a 1E48     		ldr	r0, .L25+8
 273 007c FFF7FEFF 		bl	GUI_DrawGraph
 274              	.LVL33:
  97:DISPLAY.c     ****     
  98:DISPLAY.c     ****     GUI_DrawRect(1,1,263,125);
 275              		.loc 1 98 0
 276 0080 7D23     		movs	r3, #125
 277 0082 40F20712 		movw	r2, #263
 278 0086 0121     		movs	r1, #1
 279 0088 0846     		mov	r0, r1
 280 008a FFF7FEFF 		bl	GUI_DrawRect
 281              	.LVL34:
  99:DISPLAY.c     ****     GUI_DrawRect(153,129,263,175);
 282              		.loc 1 99 0
 283 008e AF23     		movs	r3, #175
 284 0090 40F20712 		movw	r2, #263
 285 0094 8121     		movs	r1, #129
 286 0096 9920     		movs	r0, #153
 287 0098 FFF7FEFF 		bl	GUI_DrawRect
 288              	.LVL35:
 100:DISPLAY.c     ****     GUI_DispStringAt ("COURBE AFFICHEE:", 160, 133);
 289              		.loc 1 100 0
 290 009c 8522     		movs	r2, #133
 291 009e A021     		movs	r1, #160
ARM GAS  C:\Users\Mahrukh\AppData\Local\Temp\ccJcQtli.s 			page 8


 292 00a0 1548     		ldr	r0, .L25+12
 293 00a2 FFF7FEFF 		bl	GUI_DispStringAt
 294              	.LVL36:
 101:DISPLAY.c     ****     GUI_SetFont(GUI_FONT_16B_1);
 295              		.loc 1 101 0
 296 00a6 1548     		ldr	r0, .L25+16
 297 00a8 FFF7FEFF 		bl	GUI_SetFont
 298              	.LVL37:
 102:DISPLAY.c     ****     GUI_DispStringAt ("SPECTRE", 155, 143);
 299              		.loc 1 102 0
 300 00ac 8F22     		movs	r2, #143
 301 00ae 9B21     		movs	r1, #155
 302 00b0 1348     		ldr	r0, .L25+20
 303 00b2 FFF7FEFF 		bl	GUI_DispStringAt
 304              	.LVL38:
 103:DISPLAY.c     ****        
 104:DISPLAY.c     ****         if (currentScreen.TYPEGRAPH){GUI_DispStringAt ("INFRAROUGE", 155, 157);}
 305              		.loc 1 104 0
 306 00b6 134B     		ldr	r3, .L25+24
 307 00b8 5B79     		ldrb	r3, [r3, #5]	@ zero_extendqisi2
 308 00ba 13F0FF0F 		tst	r3, #255
 309 00be 04D0     		beq	.L22
 310              		.loc 1 104 0 is_stmt 0 discriminator 1
 311 00c0 9D22     		movs	r2, #157
 312 00c2 9B21     		movs	r1, #155
 313 00c4 1048     		ldr	r0, .L25+28
 314 00c6 FFF7FEFF 		bl	GUI_DispStringAt
 315              	.LVL39:
 316              	.L22:
 105:DISPLAY.c     ****         if (currentScreen.TYPEGRAPH==0) {GUI_DispStringAt ( "ROUGE", 155, 157);}
 317              		.loc 1 105 0 is_stmt 1
 318 00ca 0E4B     		ldr	r3, .L25+24
 319 00cc 5B79     		ldrb	r3, [r3, #5]	@ zero_extendqisi2
 320 00ce 13F0FF0F 		tst	r3, #255
 321 00d2 04D1     		bne	.L23
 322              		.loc 1 105 0 is_stmt 0 discriminator 1
 323 00d4 9D22     		movs	r2, #157
 324 00d6 9B21     		movs	r1, #155
 325 00d8 0C48     		ldr	r0, .L25+32
 326 00da FFF7FEFF 		bl	GUI_DispStringAt
 327              	.LVL40:
 328              	.L23:
 106:DISPLAY.c     ****     
 107:DISPLAY.c     ****     UpdateDisplay(CY_EINK_FULL_4STAGE, true);   
 329              		.loc 1 107 0 is_stmt 1
 330 00de 0121     		movs	r1, #1
 331 00e0 0846     		mov	r0, r1
 332 00e2 FFF7FEFF 		bl	UpdateDisplay
 333              	.LVL41:
 334 00e6 BDE8F081 		pop	{r4, r5, r6, r7, r8, pc}
 335              	.LVL42:
 336              	.L26:
 337 00ea 00BF     		.align	2
 338              	.L25:
 339 00ec CDCCCCCC 		.word	-858993459
 340 00f0 00000000 		.word	data
 341 00f4 00000000 		.word	vecteurespacee
ARM GAS  C:\Users\Mahrukh\AppData\Local\Temp\ccJcQtli.s 			page 9


 342 00f8 00000000 		.word	.LC0
 343 00fc 00000000 		.word	GUI_Font16B_1
 344 0100 14000000 		.word	.LC1
 345 0104 00000000 		.word	currentScreen
 346 0108 1C000000 		.word	.LC2
 347 010c 28000000 		.word	.LC3
 348              		.cfi_endproc
 349              	.LFE607:
 350              		.size	drawGraph, .-drawGraph
 351              		.section	.text.updateParameters,"ax",%progbits
 352              		.align	2
 353              		.global	updateParameters
 354              		.thumb
 355              		.thumb_func
 356              		.type	updateParameters, %function
 357              	updateParameters:
 358              	.LFB608:
 108:DISPLAY.c     ****     
 109:DISPLAY.c     **** }
 110:DISPLAY.c     **** 
 111:DISPLAY.c     **** // Fonction qui permet d'afficher les param√®tres de la fr√©quence cardiaque et le taux d'oxyg√®ne 
 112:DISPLAY.c     **** // sur la page principale 
 113:DISPLAY.c     **** void updateParameters(int param1, int param2){
 359              		.loc 1 113 0
 360              		.cfi_startproc
 361              		@ args = 0, pretend = 0, frame = 104
 362              		@ frame_needed = 0, uses_anonymous_args = 0
 363              	.LVL43:
 364 0000 30B5     		push	{r4, r5, lr}
 365              		.cfi_def_cfa_offset 12
 366              		.cfi_offset 4, -12
 367              		.cfi_offset 5, -8
 368              		.cfi_offset 14, -4
 369 0002 9BB0     		sub	sp, sp, #108
 370              		.cfi_def_cfa_offset 120
 371 0004 0546     		mov	r5, r0
 372 0006 0C46     		mov	r4, r1
 114:DISPLAY.c     ****     
 115:DISPLAY.c     ****     GUI_Clear(); 
 373              		.loc 1 115 0
 374 0008 FFF7FEFF 		bl	GUI_Clear
 375              	.LVL44:
 116:DISPLAY.c     ****     char frequence[50];
 117:DISPLAY.c     ****     char Saturation[50];
 118:DISPLAY.c     ****     sprintf(frequence,"Frequence cardiaque: %d ",param1);
 376              		.loc 1 118 0
 377 000c 2A46     		mov	r2, r5
 378 000e 1349     		ldr	r1, .L29
 379 0010 0DA8     		add	r0, sp, #52
 380 0012 FFF7FEFF 		bl	sprintf
 381              	.LVL45:
 119:DISPLAY.c     ****     sprintf(Saturation,"Taux d'oxygene: %d ",param2);
 382              		.loc 1 119 0
 383 0016 2246     		mov	r2, r4
 384 0018 1149     		ldr	r1, .L29+4
 385 001a 6846     		mov	r0, sp
 386 001c FFF7FEFF 		bl	sprintf
ARM GAS  C:\Users\Mahrukh\AppData\Local\Temp\ccJcQtli.s 			page 10


 387              	.LVL46:
 120:DISPLAY.c     ****     
 121:DISPLAY.c     ****     GUI_SetFont(GUI_FONT_8_1);
 388              		.loc 1 121 0
 389 0020 1048     		ldr	r0, .L29+8
 390 0022 FFF7FEFF 		bl	GUI_SetFont
 391              	.LVL47:
 122:DISPLAY.c     ****     GUI_DispStringAt(frequence, 3, 140); 
 392              		.loc 1 122 0
 393 0026 8C22     		movs	r2, #140
 394 0028 0321     		movs	r1, #3
 395 002a 0DA8     		add	r0, sp, #52
 396 002c FFF7FEFF 		bl	GUI_DispStringAt
 397              	.LVL48:
 123:DISPLAY.c     ****     GUI_DispStringAt("BPM ", 125, 140);     
 398              		.loc 1 123 0
 399 0030 8C22     		movs	r2, #140
 400 0032 7D21     		movs	r1, #125
 401 0034 0C48     		ldr	r0, .L29+12
 402 0036 FFF7FEFF 		bl	GUI_DispStringAt
 403              	.LVL49:
 124:DISPLAY.c     ****     GUI_DispStringAt(Saturation, 3, 160);
 404              		.loc 1 124 0
 405 003a A022     		movs	r2, #160
 406 003c 0321     		movs	r1, #3
 407 003e 6846     		mov	r0, sp
 408 0040 FFF7FEFF 		bl	GUI_DispStringAt
 409              	.LVL50:
 125:DISPLAY.c     ****     GUI_DispStringAt(" %", 98, 160);     
 410              		.loc 1 125 0
 411 0044 A022     		movs	r2, #160
 412 0046 6221     		movs	r1, #98
 413 0048 0848     		ldr	r0, .L29+16
 414 004a FFF7FEFF 		bl	GUI_DispStringAt
 415              	.LVL51:
 126:DISPLAY.c     ****     
 127:DISPLAY.c     ****     UpdateDisplay(CY_EINK_FULL_4STAGE, true);
 416              		.loc 1 127 0
 417 004e 0121     		movs	r1, #1
 418 0050 0846     		mov	r0, r1
 419 0052 FFF7FEFF 		bl	UpdateDisplay
 420              	.LVL52:
 128:DISPLAY.c     **** }
 421              		.loc 1 128 0
 422 0056 1BB0     		add	sp, sp, #108
 423              		.cfi_def_cfa_offset 12
 424              		@ sp needed
 425 0058 30BD     		pop	{r4, r5, pc}
 426              	.LVL53:
 427              	.L30:
 428 005a 00BF     		.align	2
 429              	.L29:
 430 005c 30000000 		.word	.LC4
 431 0060 4C000000 		.word	.LC5
 432 0064 00000000 		.word	GUI_Font8_1
 433 0068 60000000 		.word	.LC6
 434 006c 68000000 		.word	.LC7
ARM GAS  C:\Users\Mahrukh\AppData\Local\Temp\ccJcQtli.s 			page 11


 435              		.cfi_endproc
 436              	.LFE608:
 437              		.size	updateParameters, .-updateParameters
 438              		.section	.text.DrawMenu,"ax",%progbits
 439              		.align	2
 440              		.global	DrawMenu
 441              		.thumb
 442              		.thumb_func
 443              		.type	DrawMenu, %function
 444              	DrawMenu:
 445              	.LFB609:
 129:DISPLAY.c     **** 
 130:DISPLAY.c     **** // Fonction qui permet de tra√ßer la page MENU avec la position du curseur √† l'endroit d√©sir√© 
 131:DISPLAY.c     **** void DrawMenu ( uint8_t pos_curseur) { 
 446              		.loc 1 131 0
 447              		.cfi_startproc
 448              		@ args = 0, pretend = 0, frame = 0
 449              		@ frame_needed = 0, uses_anonymous_args = 0
 450              	.LVL54:
 451 0000 10B5     		push	{r4, lr}
 452              		.cfi_def_cfa_offset 8
 453              		.cfi_offset 4, -8
 454              		.cfi_offset 14, -4
 455 0002 0446     		mov	r4, r0
 132:DISPLAY.c     ****     
 133:DISPLAY.c     ****     GUI_Clear(); 
 456              		.loc 1 133 0
 457 0004 FFF7FEFF 		bl	GUI_Clear
 458              	.LVL55:
 134:DISPLAY.c     ****     GUI_SetFont(GUI_FONT_32B_1);
 459              		.loc 1 134 0
 460 0008 1848     		ldr	r0, .L33
 461 000a FFF7FEFF 		bl	GUI_SetFont
 462              	.LVL56:
 135:DISPLAY.c     ****     GUI_SetTextAlign(GUI_TA_CENTER);
 463              		.loc 1 135 0
 464 000e 0220     		movs	r0, #2
 465 0010 FFF7FEFF 		bl	GUI_SetTextAlign
 466              	.LVL57:
 136:DISPLAY.c     ****     GUI_DispStringAt("MENU", 132, 2);
 467              		.loc 1 136 0
 468 0014 0222     		movs	r2, #2
 469 0016 8421     		movs	r1, #132
 470 0018 1548     		ldr	r0, .L33+4
 471 001a FFF7FEFF 		bl	GUI_DispStringAt
 472              	.LVL58:
 137:DISPLAY.c     ****         GUI_SetFont(GUI_FONT_8_1);
 473              		.loc 1 137 0
 474 001e 1548     		ldr	r0, .L33+8
 475 0020 FFF7FEFF 		bl	GUI_SetFont
 476              	.LVL59:
 138:DISPLAY.c     ****     GUI_DispStringAt ("ETAT DE L'ALARME D'ACCELERATION", 15, 40);
 477              		.loc 1 138 0
 478 0024 2822     		movs	r2, #40
 479 0026 0F21     		movs	r1, #15
 480 0028 1348     		ldr	r0, .L33+12
 481 002a FFF7FEFF 		bl	GUI_DispStringAt
ARM GAS  C:\Users\Mahrukh\AppData\Local\Temp\ccJcQtli.s 			page 12


 482              	.LVL60:
 139:DISPLAY.c     ****     GUI_DispStringAt ("MODIFICATION DU COURANT DES LEDS", 15, 70);
 483              		.loc 1 139 0
 484 002e 4622     		movs	r2, #70
 485 0030 0F21     		movs	r1, #15
 486 0032 1248     		ldr	r0, .L33+16
 487 0034 FFF7FEFF 		bl	GUI_DispStringAt
 488              	.LVL61:
 140:DISPLAY.c     ****     GUI_DispStringAt ("BORNE SUPERIEUR- RYTHME CARDIAQUE", 15, 100); 
 489              		.loc 1 140 0
 490 0038 6422     		movs	r2, #100
 491 003a 0F21     		movs	r1, #15
 492 003c 1048     		ldr	r0, .L33+20
 493 003e FFF7FEFF 		bl	GUI_DispStringAt
 494              	.LVL62:
 141:DISPLAY.c     ****     GUI_DispStringAt ("BORNE INFERIEUR- RYTHME CARDIAQUE", 15, 130); 
 495              		.loc 1 141 0
 496 0042 8222     		movs	r2, #130
 497 0044 0F21     		movs	r1, #15
 498 0046 0F48     		ldr	r0, .L33+24
 499 0048 FFF7FEFF 		bl	GUI_DispStringAt
 500              	.LVL63:
 142:DISPLAY.c     ****     GUI_DispStringAt ("ETAT DE L'ALARME DE LA FC", 15, 160);
 501              		.loc 1 142 0
 502 004c A022     		movs	r2, #160
 503 004e 0F21     		movs	r1, #15
 504 0050 0D48     		ldr	r0, .L33+28
 505 0052 FFF7FEFF 		bl	GUI_DispStringAt
 506              	.LVL64:
 143:DISPLAY.c     ****     GUI_DrawCircle (4, pos_curseur+2, 3);
 507              		.loc 1 143 0
 508 0056 0322     		movs	r2, #3
 509 0058 A11C     		adds	r1, r4, #2
 510 005a 0420     		movs	r0, #4
 511 005c FFF7FEFF 		bl	GUI_DrawCircle
 512              	.LVL65:
 144:DISPLAY.c     ****     UpdateDisplay(CY_EINK_FULL_4STAGE, true);
 513              		.loc 1 144 0
 514 0060 0121     		movs	r1, #1
 515 0062 0846     		mov	r0, r1
 516 0064 FFF7FEFF 		bl	UpdateDisplay
 517              	.LVL66:
 518 0068 10BD     		pop	{r4, pc}
 519              	.L34:
 520 006a 00BF     		.align	2
 521              	.L33:
 522 006c 00000000 		.word	GUI_Font32B_1
 523 0070 6C000000 		.word	.LC8
 524 0074 00000000 		.word	GUI_Font8_1
 525 0078 74000000 		.word	.LC9
 526 007c 94000000 		.word	.LC10
 527 0080 B8000000 		.word	.LC11
 528 0084 DC000000 		.word	.LC12
 529 0088 00010000 		.word	.LC13
 530              		.cfi_endproc
 531              	.LFE609:
 532              		.size	DrawMenu, .-DrawMenu
ARM GAS  C:\Users\Mahrukh\AppData\Local\Temp\ccJcQtli.s 			page 13


 533              		.section	.text.DrawOption1,"ax",%progbits
 534              		.align	2
 535              		.global	DrawOption1
 536              		.thumb
 537              		.thumb_func
 538              		.type	DrawOption1, %function
 539              	DrawOption1:
 540              	.LFB610:
 145:DISPLAY.c     **** } 
 146:DISPLAY.c     **** // Fonction qui permet d'afficher l'OPTION 1 de MENU 
 147:DISPLAY.c     **** void DrawOption1 ()
 148:DISPLAY.c     **** {       
 541              		.loc 1 148 0
 542              		.cfi_startproc
 543              		@ args = 0, pretend = 0, frame = 0
 544              		@ frame_needed = 0, uses_anonymous_args = 0
 545 0000 10B5     		push	{r4, lr}
 546              		.cfi_def_cfa_offset 8
 547              		.cfi_offset 4, -8
 548              		.cfi_offset 14, -4
 149:DISPLAY.c     ****           GUI_Clear(); 
 549              		.loc 1 149 0
 550 0002 FFF7FEFF 		bl	GUI_Clear
 551              	.LVL67:
 150:DISPLAY.c     ****     GUI_SetFont(GUI_FONT_16_1);
 552              		.loc 1 150 0
 553 0006 164C     		ldr	r4, .L37
 554 0008 2046     		mov	r0, r4
 555 000a FFF7FEFF 		bl	GUI_SetFont
 556              	.LVL68:
 151:DISPLAY.c     ****     GUI_SetTextAlign(GUI_TA_CENTER);
 557              		.loc 1 151 0
 558 000e 0220     		movs	r0, #2
 559 0010 FFF7FEFF 		bl	GUI_SetTextAlign
 560              	.LVL69:
 152:DISPLAY.c     ****     GUI_DispStringAt("ALARME D'ACCELERATION", 132, 20);
 561              		.loc 1 152 0
 562 0014 1422     		movs	r2, #20
 563 0016 8421     		movs	r1, #132
 564 0018 1248     		ldr	r0, .L37+4
 565 001a FFF7FEFF 		bl	GUI_DispStringAt
 566              	.LVL70:
 153:DISPLAY.c     ****     GUI_DrawLine(48,34,215,34);
 567              		.loc 1 153 0
 568 001e 2223     		movs	r3, #34
 569 0020 D722     		movs	r2, #215
 570 0022 1946     		mov	r1, r3
 571 0024 3020     		movs	r0, #48
 572 0026 FFF7FEFF 		bl	GUI_DrawLine
 573              	.LVL71:
 154:DISPLAY.c     ****         GUI_SetFont(GUI_FONT_8_1);
 574              		.loc 1 154 0
 575 002a 0F48     		ldr	r0, .L37+8
 576 002c FFF7FEFF 		bl	GUI_SetFont
 577              	.LVL72:
 155:DISPLAY.c     ****     GUI_DispStringAt ("APPUYE SUR LE BOUTON 00 POUR ACTIVER L'ALARME", 10, 70);
 578              		.loc 1 155 0
ARM GAS  C:\Users\Mahrukh\AppData\Local\Temp\ccJcQtli.s 			page 14


 579 0030 4622     		movs	r2, #70
 580 0032 0A21     		movs	r1, #10
 581 0034 0D48     		ldr	r0, .L37+12
 582 0036 FFF7FEFF 		bl	GUI_DispStringAt
 583              	.LVL73:
 156:DISPLAY.c     ****     GUI_DispStringAt ("APPUYE SUR LE BOUTON 01 POUR DESACTIVER L'ALARME", 3, 100); 
 584              		.loc 1 156 0
 585 003a 6422     		movs	r2, #100
 586 003c 0321     		movs	r1, #3
 587 003e 0C48     		ldr	r0, .L37+16
 588 0040 FFF7FEFF 		bl	GUI_DispStringAt
 589              	.LVL74:
 157:DISPLAY.c     ****      GUI_DrawRect(7,120,230,160);
 590              		.loc 1 157 0
 591 0044 A023     		movs	r3, #160
 592 0046 E622     		movs	r2, #230
 593 0048 7821     		movs	r1, #120
 594 004a 0720     		movs	r0, #7
 595 004c FFF7FEFF 		bl	GUI_DrawRect
 596              	.LVL75:
 158:DISPLAY.c     ****      GUI_SetFont(GUI_FONT_16_1);
 597              		.loc 1 158 0
 598 0050 2046     		mov	r0, r4
 599 0052 FFF7FEFF 		bl	GUI_SetFont
 600              	.LVL76:
 159:DISPLAY.c     ****     UpdateDisplay(CY_EINK_FULL_4STAGE, true);
 601              		.loc 1 159 0
 602 0056 0121     		movs	r1, #1
 603 0058 0846     		mov	r0, r1
 604 005a FFF7FEFF 		bl	UpdateDisplay
 605              	.LVL77:
 606 005e 10BD     		pop	{r4, pc}
 607              	.L38:
 608              		.align	2
 609              	.L37:
 610 0060 00000000 		.word	GUI_Font16_1
 611 0064 1C010000 		.word	.LC14
 612 0068 00000000 		.word	GUI_Font8_1
 613 006c 34010000 		.word	.LC15
 614 0070 64010000 		.word	.LC16
 615              		.cfi_endproc
 616              	.LFE610:
 617              		.size	DrawOption1, .-DrawOption1
 618              		.section	.text.DrawOption2,"ax",%progbits
 619              		.align	2
 620              		.global	DrawOption2
 621              		.thumb
 622              		.thumb_func
 623              		.type	DrawOption2, %function
 624              	DrawOption2:
 625              	.LFB611:
 160:DISPLAY.c     **** } 
 161:DISPLAY.c     **** 
 162:DISPLAY.c     **** // Fonction qui permet d'afficher l'OPTION 2 du MENU
 163:DISPLAY.c     **** void DrawOption2 ()
 164:DISPLAY.c     **** {         GUI_Clear(); 
 626              		.loc 1 164 0
ARM GAS  C:\Users\Mahrukh\AppData\Local\Temp\ccJcQtli.s 			page 15


 627              		.cfi_startproc
 628              		@ args = 0, pretend = 0, frame = 0
 629              		@ frame_needed = 0, uses_anonymous_args = 0
 630 0000 10B5     		push	{r4, lr}
 631              		.cfi_def_cfa_offset 8
 632              		.cfi_offset 4, -8
 633              		.cfi_offset 14, -4
 634              		.loc 1 164 0
 635 0002 FFF7FEFF 		bl	GUI_Clear
 636              	.LVL78:
 165:DISPLAY.c     ****     GUI_SetFont(GUI_FONT_32B_1);
 637              		.loc 1 165 0
 638 0006 2348     		ldr	r0, .L41
 639 0008 FFF7FEFF 		bl	GUI_SetFont
 640              	.LVL79:
 166:DISPLAY.c     ****     GUI_SetTextAlign(GUI_TA_CENTER);
 641              		.loc 1 166 0
 642 000c 0220     		movs	r0, #2
 643 000e FFF7FEFF 		bl	GUI_SetTextAlign
 644              	.LVL80:
 167:DISPLAY.c     ****     GUI_DispStringAt("COURANT DELs", 132, 20);
 645              		.loc 1 167 0
 646 0012 1422     		movs	r2, #20
 647 0014 8421     		movs	r1, #132
 648 0016 2048     		ldr	r0, .L41+4
 649 0018 FFF7FEFF 		bl	GUI_DispStringAt
 650              	.LVL81:
 168:DISPLAY.c     ****     GUI_DrawLine(20,50,240,50);
 651              		.loc 1 168 0
 652 001c 3223     		movs	r3, #50
 653 001e F022     		movs	r2, #240
 654 0020 1946     		mov	r1, r3
 655 0022 1420     		movs	r0, #20
 656 0024 FFF7FEFF 		bl	GUI_DrawLine
 657              	.LVL82:
 169:DISPLAY.c     ****         GUI_SetFont(GUI_FONT_8_1);
 658              		.loc 1 169 0
 659 0028 1C48     		ldr	r0, .L41+8
 660 002a FFF7FEFF 		bl	GUI_SetFont
 661              	.LVL83:
 170:DISPLAY.c     ****        GUI_SetTextAlign(GUI_TA_CENTER);
 662              		.loc 1 170 0
 663 002e 0220     		movs	r0, #2
 664 0030 FFF7FEFF 		bl	GUI_SetTextAlign
 665              	.LVL84:
 171:DISPLAY.c     ****     GUI_DispStringAt ("LE COURANT CONFIGURE DES LEDS", 132, 70);
 666              		.loc 1 171 0
 667 0034 4622     		movs	r2, #70
 668 0036 8421     		movs	r1, #132
 669 0038 1948     		ldr	r0, .L41+12
 670 003a FFF7FEFF 		bl	GUI_DispStringAt
 671              	.LVL85:
 172:DISPLAY.c     ****     GUI_SetTextAlign(GUI_TA_CENTER);
 672              		.loc 1 172 0
 673 003e 0220     		movs	r0, #2
 674 0040 FFF7FEFF 		bl	GUI_SetTextAlign
 675              	.LVL86:
ARM GAS  C:\Users\Mahrukh\AppData\Local\Temp\ccJcQtli.s 			page 16


 173:DISPLAY.c     ****     GUI_DispStringAt ("DU CAPTEUR SPO2 MAX30102 EST:", 132, 80);
 676              		.loc 1 173 0
 677 0044 5022     		movs	r2, #80
 678 0046 8421     		movs	r1, #132
 679 0048 1648     		ldr	r0, .L41+16
 680 004a FFF7FEFF 		bl	GUI_DispStringAt
 681              	.LVL87:
 174:DISPLAY.c     ****     GUI_SetFont(GUI_FONT_16B_1);
 682              		.loc 1 174 0
 683 004e 1648     		ldr	r0, .L41+20
 684 0050 FFF7FEFF 		bl	GUI_SetFont
 685              	.LVL88:
 175:DISPLAY.c     ****     GUI_DrawLine(114,140,153,140);
 686              		.loc 1 175 0
 687 0054 8C23     		movs	r3, #140
 688 0056 9922     		movs	r2, #153
 689 0058 1946     		mov	r1, r3
 690 005a 7220     		movs	r0, #114
 691 005c FFF7FEFF 		bl	GUI_DrawLine
 692              	.LVL89:
 176:DISPLAY.c     ****    GUI_SetTextAlign(GUI_TA_CENTER);
 693              		.loc 1 176 0
 694 0060 0220     		movs	r0, #2
 695 0062 FFF7FEFF 		bl	GUI_SetTextAlign
 696              	.LVL90:
 177:DISPLAY.c     ****    sprintf(buffer,"%d\n\r",courant);
 697              		.loc 1 177 0
 698 0066 114B     		ldr	r3, .L41+24
 699 0068 1A78     		ldrb	r2, [r3]	@ zero_extendqisi2
 700 006a 114C     		ldr	r4, .L41+28
 701 006c 1149     		ldr	r1, .L41+32
 702 006e 2046     		mov	r0, r4
 703 0070 FFF7FEFF 		bl	sprintf
 704              	.LVL91:
 178:DISPLAY.c     ****      GUI_DispStringAt (buffer, 125, 120);
 705              		.loc 1 178 0
 706 0074 7822     		movs	r2, #120
 707 0076 7D21     		movs	r1, #125
 708 0078 2046     		mov	r0, r4
 709 007a FFF7FEFF 		bl	GUI_DispStringAt
 710              	.LVL92:
 179:DISPLAY.c     ****     GUI_DispStringAt ("mA", 132, 120);
 711              		.loc 1 179 0
 712 007e 7822     		movs	r2, #120
 713 0080 8421     		movs	r1, #132
 714 0082 0D48     		ldr	r0, .L41+36
 715 0084 FFF7FEFF 		bl	GUI_DispStringAt
 716              	.LVL93:
 180:DISPLAY.c     ****     UpdateDisplay(CY_EINK_FULL_4STAGE, true);
 717              		.loc 1 180 0
 718 0088 0121     		movs	r1, #1
 719 008a 0846     		mov	r0, r1
 720 008c FFF7FEFF 		bl	UpdateDisplay
 721              	.LVL94:
 722 0090 10BD     		pop	{r4, pc}
 723              	.L42:
 724 0092 00BF     		.align	2
ARM GAS  C:\Users\Mahrukh\AppData\Local\Temp\ccJcQtli.s 			page 17


 725              	.L41:
 726 0094 00000000 		.word	GUI_Font32B_1
 727 0098 98010000 		.word	.LC17
 728 009c 00000000 		.word	GUI_Font8_1
 729 00a0 A8010000 		.word	.LC18
 730 00a4 C8010000 		.word	.LC19
 731 00a8 00000000 		.word	GUI_Font16B_1
 732 00ac 00000000 		.word	courant
 733 00b0 00000000 		.word	buffer
 734 00b4 E8010000 		.word	.LC20
 735 00b8 F0010000 		.word	.LC21
 736              		.cfi_endproc
 737              	.LFE611:
 738              		.size	DrawOption2, .-DrawOption2
 739              		.section	.text.DrawOption3_superieur,"ax",%progbits
 740              		.align	2
 741              		.global	DrawOption3_superieur
 742              		.thumb
 743              		.thumb_func
 744              		.type	DrawOption3_superieur, %function
 745              	DrawOption3_superieur:
 746              	.LFB612:
 181:DISPLAY.c     **** }
 182:DISPLAY.c     **** // Fonction qui permet d'afficher l'OPTION du MENU qui permet de d√©finir la borne sup√©rieure 
 183:DISPLAY.c     **** // de l'intervall de la fr√©quence cardiaque desir√©e 
 184:DISPLAY.c     **** void DrawOption3_superieur (){    
 747              		.loc 1 184 0
 748              		.cfi_startproc
 749              		@ args = 0, pretend = 0, frame = 0
 750              		@ frame_needed = 0, uses_anonymous_args = 0
 751 0000 10B5     		push	{r4, lr}
 752              		.cfi_def_cfa_offset 8
 753              		.cfi_offset 4, -8
 754              		.cfi_offset 14, -4
 185:DISPLAY.c     ****    GUI_Clear(); 
 755              		.loc 1 185 0
 756 0002 FFF7FEFF 		bl	GUI_Clear
 757              	.LVL95:
 186:DISPLAY.c     ****     GUI_SetFont(GUI_FONT_8_1);
 758              		.loc 1 186 0
 759 0006 1D4C     		ldr	r4, .L45
 760 0008 2046     		mov	r0, r4
 761 000a FFF7FEFF 		bl	GUI_SetFont
 762              	.LVL96:
 187:DISPLAY.c     ****     GUI_SetTextAlign(GUI_TA_CENTER);
 763              		.loc 1 187 0
 764 000e 0220     		movs	r0, #2
 765 0010 FFF7FEFF 		bl	GUI_SetTextAlign
 766              	.LVL97:
 188:DISPLAY.c     ****     GUI_DispStringAt("DEFINITION DE L'INTERVALLE DE L'ALARME", 132, 20);
 767              		.loc 1 188 0
 768 0014 1422     		movs	r2, #20
 769 0016 8421     		movs	r1, #132
 770 0018 1948     		ldr	r0, .L45+4
 771 001a FFF7FEFF 		bl	GUI_DispStringAt
 772              	.LVL98:
 189:DISPLAY.c     ****     GUI_DrawLine(25,30,240,30);
ARM GAS  C:\Users\Mahrukh\AppData\Local\Temp\ccJcQtli.s 			page 18


 773              		.loc 1 189 0
 774 001e 1E23     		movs	r3, #30
 775 0020 F022     		movs	r2, #240
 776 0022 1946     		mov	r1, r3
 777 0024 1920     		movs	r0, #25
 778 0026 FFF7FEFF 		bl	GUI_DrawLine
 779              	.LVL99:
 190:DISPLAY.c     ****     GUI_SetFont(GUI_FONT_8_1);
 780              		.loc 1 190 0
 781 002a 2046     		mov	r0, r4
 782 002c FFF7FEFF 		bl	GUI_SetFont
 783              	.LVL100:
 191:DISPLAY.c     ****     GUI_DispStringAt ("DEFINIISSEZ LA BORNE SUPERIEUR DE LA FC", 10, 70);
 784              		.loc 1 191 0
 785 0030 4622     		movs	r2, #70
 786 0032 0A21     		movs	r1, #10
 787 0034 1348     		ldr	r0, .L45+8
 788 0036 FFF7FEFF 		bl	GUI_DispStringAt
 789              	.LVL101:
 192:DISPLAY.c     ****     GUI_SetFont(GUI_FONT_16_1);
 790              		.loc 1 192 0
 791 003a 1348     		ldr	r0, .L45+12
 792 003c FFF7FEFF 		bl	GUI_SetFont
 793              	.LVL102:
 193:DISPLAY.c     ****     GUI_DispStringAt ("BORNE SUPERIEUR: ", 10, 110);
 794              		.loc 1 193 0
 795 0040 6E22     		movs	r2, #110
 796 0042 0A21     		movs	r1, #10
 797 0044 1148     		ldr	r0, .L45+16
 798 0046 FFF7FEFF 		bl	GUI_DispStringAt
 799              	.LVL103:
 194:DISPLAY.c     ****     GUI_SetFont(GUI_FONT_32B_1);
 800              		.loc 1 194 0
 801 004a 1148     		ldr	r0, .L45+20
 802 004c FFF7FEFF 		bl	GUI_SetFont
 803              	.LVL104:
 195:DISPLAY.c     ****     sprintf(buffer,"%d\n\r",borne_superieur);
 804              		.loc 1 195 0
 805 0050 104C     		ldr	r4, .L45+24
 806 0052 114B     		ldr	r3, .L45+28
 807 0054 1A78     		ldrb	r2, [r3]	@ zero_extendqisi2
 808 0056 1149     		ldr	r1, .L45+32
 809 0058 2046     		mov	r0, r4
 810 005a FFF7FEFF 		bl	sprintf
 811              	.LVL105:
 196:DISPLAY.c     ****      GUI_DispStringAt (buffer, 139, 99);
 812              		.loc 1 196 0
 813 005e 6322     		movs	r2, #99
 814 0060 8B21     		movs	r1, #139
 815 0062 2046     		mov	r0, r4
 816 0064 FFF7FEFF 		bl	GUI_DispStringAt
 817              	.LVL106:
 197:DISPLAY.c     ****      GUI_DispStringAt ("BPM ", 187, 98);
 818              		.loc 1 197 0
 819 0068 6222     		movs	r2, #98
 820 006a BB21     		movs	r1, #187
 821 006c 0C48     		ldr	r0, .L45+36
ARM GAS  C:\Users\Mahrukh\AppData\Local\Temp\ccJcQtli.s 			page 19


 822 006e FFF7FEFF 		bl	GUI_DispStringAt
 823              	.LVL107:
 198:DISPLAY.c     ****      UpdateDisplay(CY_EINK_FULL_4STAGE, true); 
 824              		.loc 1 198 0
 825 0072 0121     		movs	r1, #1
 826 0074 0846     		mov	r0, r1
 827 0076 FFF7FEFF 		bl	UpdateDisplay
 828              	.LVL108:
 829 007a 10BD     		pop	{r4, pc}
 830              	.L46:
 831              		.align	2
 832              	.L45:
 833 007c 00000000 		.word	GUI_Font8_1
 834 0080 F4010000 		.word	.LC22
 835 0084 1C020000 		.word	.LC23
 836 0088 00000000 		.word	GUI_Font16_1
 837 008c 44020000 		.word	.LC24
 838 0090 00000000 		.word	GUI_Font32B_1
 839 0094 00000000 		.word	buffer
 840 0098 00000000 		.word	borne_superieur
 841 009c E8010000 		.word	.LC20
 842 00a0 60000000 		.word	.LC6
 843              		.cfi_endproc
 844              	.LFE612:
 845              		.size	DrawOption3_superieur, .-DrawOption3_superieur
 846              		.section	.text.DrawOption3_inferieur,"ax",%progbits
 847              		.align	2
 848              		.global	DrawOption3_inferieur
 849              		.thumb
 850              		.thumb_func
 851              		.type	DrawOption3_inferieur, %function
 852              	DrawOption3_inferieur:
 853              	.LFB613:
 199:DISPLAY.c     **** 
 200:DISPLAY.c     **** }
 201:DISPLAY.c     **** // Fonction qui permet d'afficher l'OPTION du MENU qui permet de d√©finir la borne sup√©rieure 
 202:DISPLAY.c     **** // de l'intervall de la fr√©quence cardiaque desir√©e 
 203:DISPLAY.c     **** void DrawOption3_inferieur (){    
 854              		.loc 1 203 0
 855              		.cfi_startproc
 856              		@ args = 0, pretend = 0, frame = 0
 857              		@ frame_needed = 0, uses_anonymous_args = 0
 858 0000 10B5     		push	{r4, lr}
 859              		.cfi_def_cfa_offset 8
 860              		.cfi_offset 4, -8
 861              		.cfi_offset 14, -4
 204:DISPLAY.c     ****   GUI_Clear(); 
 862              		.loc 1 204 0
 863 0002 FFF7FEFF 		bl	GUI_Clear
 864              	.LVL109:
 205:DISPLAY.c     ****     GUI_SetFont(GUI_FONT_8_1);
 865              		.loc 1 205 0
 866 0006 1D4C     		ldr	r4, .L49
 867 0008 2046     		mov	r0, r4
 868 000a FFF7FEFF 		bl	GUI_SetFont
 869              	.LVL110:
 206:DISPLAY.c     ****     GUI_SetTextAlign(GUI_TA_CENTER);
ARM GAS  C:\Users\Mahrukh\AppData\Local\Temp\ccJcQtli.s 			page 20


 870              		.loc 1 206 0
 871 000e 0220     		movs	r0, #2
 872 0010 FFF7FEFF 		bl	GUI_SetTextAlign
 873              	.LVL111:
 207:DISPLAY.c     ****     GUI_DispStringAt("DEFINITION DE L'INTERVALLE DE L'ALARME", 132, 20);
 874              		.loc 1 207 0
 875 0014 1422     		movs	r2, #20
 876 0016 8421     		movs	r1, #132
 877 0018 1948     		ldr	r0, .L49+4
 878 001a FFF7FEFF 		bl	GUI_DispStringAt
 879              	.LVL112:
 208:DISPLAY.c     ****     GUI_DrawLine(25,30,240,30);
 880              		.loc 1 208 0
 881 001e 1E23     		movs	r3, #30
 882 0020 F022     		movs	r2, #240
 883 0022 1946     		mov	r1, r3
 884 0024 1920     		movs	r0, #25
 885 0026 FFF7FEFF 		bl	GUI_DrawLine
 886              	.LVL113:
 209:DISPLAY.c     ****     GUI_SetFont(GUI_FONT_8_1);
 887              		.loc 1 209 0
 888 002a 2046     		mov	r0, r4
 889 002c FFF7FEFF 		bl	GUI_SetFont
 890              	.LVL114:
 210:DISPLAY.c     ****     GUI_DispStringAt ("DEFINIISSEZ LA BORNE INFERIEUR DE LA FC", 10, 70);
 891              		.loc 1 210 0
 892 0030 4622     		movs	r2, #70
 893 0032 0A21     		movs	r1, #10
 894 0034 1348     		ldr	r0, .L49+8
 895 0036 FFF7FEFF 		bl	GUI_DispStringAt
 896              	.LVL115:
 211:DISPLAY.c     ****     GUI_SetFont(GUI_FONT_16_1);
 897              		.loc 1 211 0
 898 003a 1348     		ldr	r0, .L49+12
 899 003c FFF7FEFF 		bl	GUI_SetFont
 900              	.LVL116:
 212:DISPLAY.c     ****     GUI_DispStringAt ("BORNE INFERIEUR: ", 10, 110);
 901              		.loc 1 212 0
 902 0040 6E22     		movs	r2, #110
 903 0042 0A21     		movs	r1, #10
 904 0044 1148     		ldr	r0, .L49+16
 905 0046 FFF7FEFF 		bl	GUI_DispStringAt
 906              	.LVL117:
 213:DISPLAY.c     ****     GUI_SetFont(GUI_FONT_32B_1);
 907              		.loc 1 213 0
 908 004a 1148     		ldr	r0, .L49+20
 909 004c FFF7FEFF 		bl	GUI_SetFont
 910              	.LVL118:
 214:DISPLAY.c     ****     sprintf(buffer,"%d\n\r",borne_inferieur);
 911              		.loc 1 214 0
 912 0050 104C     		ldr	r4, .L49+24
 913 0052 114B     		ldr	r3, .L49+28
 914 0054 1A78     		ldrb	r2, [r3]	@ zero_extendqisi2
 915 0056 1149     		ldr	r1, .L49+32
 916 0058 2046     		mov	r0, r4
 917 005a FFF7FEFF 		bl	sprintf
 918              	.LVL119:
ARM GAS  C:\Users\Mahrukh\AppData\Local\Temp\ccJcQtli.s 			page 21


 215:DISPLAY.c     ****      GUI_DispStringAt (buffer, 139, 99);
 919              		.loc 1 215 0
 920 005e 6322     		movs	r2, #99
 921 0060 8B21     		movs	r1, #139
 922 0062 2046     		mov	r0, r4
 923 0064 FFF7FEFF 		bl	GUI_DispStringAt
 924              	.LVL120:
 216:DISPLAY.c     ****      GUI_DispStringAt ("BPM ", 187, 98);
 925              		.loc 1 216 0
 926 0068 6222     		movs	r2, #98
 927 006a BB21     		movs	r1, #187
 928 006c 0C48     		ldr	r0, .L49+36
 929 006e FFF7FEFF 		bl	GUI_DispStringAt
 930              	.LVL121:
 217:DISPLAY.c     ****      UpdateDisplay(CY_EINK_FULL_4STAGE, true); 
 931              		.loc 1 217 0
 932 0072 0121     		movs	r1, #1
 933 0074 0846     		mov	r0, r1
 934 0076 FFF7FEFF 		bl	UpdateDisplay
 935              	.LVL122:
 936 007a 10BD     		pop	{r4, pc}
 937              	.L50:
 938              		.align	2
 939              	.L49:
 940 007c 00000000 		.word	GUI_Font8_1
 941 0080 F4010000 		.word	.LC22
 942 0084 58020000 		.word	.LC25
 943 0088 00000000 		.word	GUI_Font16_1
 944 008c 80020000 		.word	.LC26
 945 0090 00000000 		.word	GUI_Font32B_1
 946 0094 00000000 		.word	buffer
 947 0098 00000000 		.word	borne_inferieur
 948 009c E8010000 		.word	.LC20
 949 00a0 60000000 		.word	.LC6
 950              		.cfi_endproc
 951              	.LFE613:
 952              		.size	DrawOption3_inferieur, .-DrawOption3_inferieur
 953              		.section	.text.DrawOption3_ETAT,"ax",%progbits
 954              		.align	2
 955              		.global	DrawOption3_ETAT
 956              		.thumb
 957              		.thumb_func
 958              		.type	DrawOption3_ETAT, %function
 959              	DrawOption3_ETAT:
 960              	.LFB614:
 218:DISPLAY.c     **** }
 219:DISPLAY.c     **** // Fonction qui permet d'afficher l'OPTION du MENU qui permet de d√©finir l'√©tat de l'alarme de fr
 220:DISPLAY.c     **** void DrawOption3_ETAT ()
 221:DISPLAY.c     **** {       
 961              		.loc 1 221 0
 962              		.cfi_startproc
 963              		@ args = 0, pretend = 0, frame = 0
 964              		@ frame_needed = 0, uses_anonymous_args = 0
 965 0000 10B5     		push	{r4, lr}
 966              		.cfi_def_cfa_offset 8
 967              		.cfi_offset 4, -8
 968              		.cfi_offset 14, -4
ARM GAS  C:\Users\Mahrukh\AppData\Local\Temp\ccJcQtli.s 			page 22


 222:DISPLAY.c     ****           GUI_Clear(); 
 969              		.loc 1 222 0
 970 0002 FFF7FEFF 		bl	GUI_Clear
 971              	.LVL123:
 223:DISPLAY.c     ****     GUI_SetFont(GUI_FONT_16_1);
 972              		.loc 1 223 0
 973 0006 174C     		ldr	r4, .L53
 974 0008 2046     		mov	r0, r4
 975 000a FFF7FEFF 		bl	GUI_SetFont
 976              	.LVL124:
 224:DISPLAY.c     ****     GUI_SetTextAlign(GUI_TA_CENTER);
 977              		.loc 1 224 0
 978 000e 0220     		movs	r0, #2
 979 0010 FFF7FEFF 		bl	GUI_SetTextAlign
 980              	.LVL125:
 225:DISPLAY.c     ****     GUI_DispStringAt("ALARME DE LA FREQUENCE CARDIAQUE", 132, 20);
 981              		.loc 1 225 0
 982 0014 1422     		movs	r2, #20
 983 0016 8421     		movs	r1, #132
 984 0018 1348     		ldr	r0, .L53+4
 985 001a FFF7FEFF 		bl	GUI_DispStringAt
 986              	.LVL126:
 226:DISPLAY.c     ****     GUI_DrawLine(3,34,260,34);
 987              		.loc 1 226 0
 988 001e 2223     		movs	r3, #34
 989 0020 4FF48272 		mov	r2, #260
 990 0024 1946     		mov	r1, r3
 991 0026 0320     		movs	r0, #3
 992 0028 FFF7FEFF 		bl	GUI_DrawLine
 993              	.LVL127:
 227:DISPLAY.c     ****         GUI_SetFont(GUI_FONT_8_1);
 994              		.loc 1 227 0
 995 002c 0F48     		ldr	r0, .L53+8
 996 002e FFF7FEFF 		bl	GUI_SetFont
 997              	.LVL128:
 228:DISPLAY.c     ****     GUI_DispStringAt ("APPUYE SUR LE BOUTON 00 POUR ACTIVER L'ALARME", 10, 70);
 998              		.loc 1 228 0
 999 0032 4622     		movs	r2, #70
 1000 0034 0A21     		movs	r1, #10
 1001 0036 0E48     		ldr	r0, .L53+12
 1002 0038 FFF7FEFF 		bl	GUI_DispStringAt
 1003              	.LVL129:
 229:DISPLAY.c     ****     GUI_DispStringAt ("APPUYE SUR LE BOUTON 01 POUR DESACTIVER L'ALARME", 3, 100); 
 1004              		.loc 1 229 0
 1005 003c 6422     		movs	r2, #100
 1006 003e 0321     		movs	r1, #3
 1007 0040 0C48     		ldr	r0, .L53+16
 1008 0042 FFF7FEFF 		bl	GUI_DispStringAt
 1009              	.LVL130:
 230:DISPLAY.c     ****      GUI_DrawRect(7,120,230,160);
 1010              		.loc 1 230 0
 1011 0046 A023     		movs	r3, #160
 1012 0048 E622     		movs	r2, #230
 1013 004a 7821     		movs	r1, #120
 1014 004c 0720     		movs	r0, #7
 1015 004e FFF7FEFF 		bl	GUI_DrawRect
 1016              	.LVL131:
ARM GAS  C:\Users\Mahrukh\AppData\Local\Temp\ccJcQtli.s 			page 23


 231:DISPLAY.c     ****      GUI_SetFont(GUI_FONT_16_1);
 1017              		.loc 1 231 0
 1018 0052 2046     		mov	r0, r4
 1019 0054 FFF7FEFF 		bl	GUI_SetFont
 1020              	.LVL132:
 232:DISPLAY.c     ****     UpdateDisplay(CY_EINK_FULL_4STAGE, true);
 1021              		.loc 1 232 0
 1022 0058 0121     		movs	r1, #1
 1023 005a 0846     		mov	r0, r1
 1024 005c FFF7FEFF 		bl	UpdateDisplay
 1025              	.LVL133:
 1026 0060 10BD     		pop	{r4, pc}
 1027              	.L54:
 1028 0062 00BF     		.align	2
 1029              	.L53:
 1030 0064 00000000 		.word	GUI_Font16_1
 1031 0068 94020000 		.word	.LC27
 1032 006c 00000000 		.word	GUI_Font8_1
 1033 0070 34010000 		.word	.LC15
 1034 0074 64010000 		.word	.LC16
 1035              		.cfi_endproc
 1036              	.LFE614:
 1037              		.size	DrawOption3_ETAT, .-DrawOption3_ETAT
 1038              		.section	.text.display_task,"ax",%progbits
 1039              		.align	2
 1040              		.global	display_task
 1041              		.thumb
 1042              		.thumb_func
 1043              		.type	display_task, %function
 1044              	display_task:
 1045              	.LFB615:
 233:DISPLAY.c     **** } 
 234:DISPLAY.c     **** 
 235:DISPLAY.c     **** // La t√¢che d'affichage 
 236:DISPLAY.c     **** void display_task( void ) {
 1046              		.loc 1 236 0
 1047              		.cfi_startproc
 1048              		@ Volatile: function does not return.
 1049              		@ args = 0, pretend = 0, frame = 0
 1050              		@ frame_needed = 0, uses_anonymous_args = 0
 1051 0000 08B5     		push	{r3, lr}
 1052              		.cfi_def_cfa_offset 8
 1053              		.cfi_offset 3, -8
 1054              		.cfi_offset 14, -4
 237:DISPLAY.c     ****    
 238:DISPLAY.c     ****     // intialisation des param√®tres de l'affichahe sur l'√©cran E-INK display Shield Board CY8CKIT
 239:DISPLAY.c     ****     GUI_Init();
 1055              		.loc 1 239 0
 1056 0002 FFF7FEFF 		bl	GUI_Init
 1057              	.LVL134:
 240:DISPLAY.c     ****     Cy_EINK_Start(20);
 1058              		.loc 1 240 0
 1059 0006 1420     		movs	r0, #20
 1060 0008 FFF7FEFF 		bl	Cy_EINK_Start
 1061              	.LVL135:
 241:DISPLAY.c     ****     Cy_EINK_Power(1);
 1062              		.loc 1 241 0
ARM GAS  C:\Users\Mahrukh\AppData\Local\Temp\ccJcQtli.s 			page 24


 1063 000c 0120     		movs	r0, #1
 1064 000e FFF7FEFF 		bl	Cy_EINK_Power
 1065              	.LVL136:
 242:DISPLAY.c     ****     GUI_Clear(); 
 1066              		.loc 1 242 0
 1067 0012 FFF7FEFF 		bl	GUI_Clear
 1068              	.LVL137:
 243:DISPLAY.c     ****     GUI_SetColor(GUI_BLACK);
 1069              		.loc 1 243 0
 1070 0016 0020     		movs	r0, #0
 1071 0018 FFF7FEFF 		bl	GUI_SetColor
 1072              	.LVL138:
 244:DISPLAY.c     ****     GUI_SetBkColor(GUI_WHITE);
 1073              		.loc 1 244 0
 1074 001c 6FF07F40 		mvn	r0, #-16777216
 1075 0020 FFF7FEFF 		bl	GUI_SetBkColor
 1076              	.LVL139:
 245:DISPLAY.c     ****     GUI_SetPenSize(1);
 1077              		.loc 1 245 0
 1078 0024 0120     		movs	r0, #1
 1079 0026 FFF7FEFF 		bl	GUI_SetPenSize
 1080              	.LVL140:
 246:DISPLAY.c     ****     GUI_SetFont(GUI_FONT_8_1);
 1081              		.loc 1 246 0
 1082 002a 2948     		ldr	r0, .L92
 1083 002c FFF7FEFF 		bl	GUI_SetFont
 1084              	.LVL141:
 1085              	.L90:
 247:DISPLAY.c     ****         
 248:DISPLAY.c     ****     for (;;) {       
 249:DISPLAY.c     ****         
 250:DISPLAY.c     ****                 if (currentScreen.FLAG_DEPART) {
 1086              		.loc 1 250 0
 1087 0030 284B     		ldr	r3, .L92+4
 1088 0032 1B79     		ldrb	r3, [r3, #4]	@ zero_extendqisi2
 1089 0034 13F0FF0F 		tst	r3, #255
 1090 0038 1DD0     		beq	.L56
 251:DISPLAY.c     ****                              updateParameters(100,66); //valeurs test    
 1091              		.loc 1 251 0
 1092 003a 4221     		movs	r1, #66
 1093 003c 6420     		movs	r0, #100
 1094 003e FFF7FEFF 		bl	updateParameters
 1095              	.LVL142:
 252:DISPLAY.c     ****                              
 253:DISPLAY.c     ****                            if (currentScreen.TYPEGRAPH)                
 1096              		.loc 1 253 0
 1097 0042 244B     		ldr	r3, .L92+4
 1098 0044 5B79     		ldrb	r3, [r3, #5]	@ zero_extendqisi2
 1099 0046 13F0FF0F 		tst	r3, #255
 1100 004a 05D0     		beq	.L57
 254:DISPLAY.c     ****                                         {   
 255:DISPLAY.c     ****                                             drawGraph(INFRAROUGE, 3,taille_infrarouge) ;           
 1101              		.loc 1 255 0
 1102 004c 224B     		ldr	r3, .L92+8
 1103 004e 1A68     		ldr	r2, [r3]
 1104 0050 0321     		movs	r1, #3
 1105 0052 2248     		ldr	r0, .L92+12
ARM GAS  C:\Users\Mahrukh\AppData\Local\Temp\ccJcQtli.s 			page 25


 1106 0054 FFF7FEFF 		bl	drawGraph
 1107              	.LVL143:
 1108              	.L57:
 256:DISPLAY.c     ****                                         } 
 257:DISPLAY.c     ****                             if (currentScreen.TYPEGRAPH==0) 
 1109              		.loc 1 257 0
 1110 0058 1E4B     		ldr	r3, .L92+4
 1111 005a 5B79     		ldrb	r3, [r3, #5]	@ zero_extendqisi2
 1112 005c 13F0FF0F 		tst	r3, #255
 1113 0060 05D1     		bne	.L58
 258:DISPLAY.c     ****                                         {
 259:DISPLAY.c     ****                                            drawGraph(ROUGE, 3,taille_rouge ) ;     
 1114              		.loc 1 259 0
 1115 0062 1F4B     		ldr	r3, .L92+16
 1116 0064 1A68     		ldr	r2, [r3]
 1117 0066 0321     		movs	r1, #3
 1118 0068 1E48     		ldr	r0, .L92+20
 1119 006a FFF7FEFF 		bl	drawGraph
 1120              	.LVL144:
 1121              	.L58:
 260:DISPLAY.c     ****                                         } 
 261:DISPLAY.c     ****                             currentScreen.screen= PRINCIPAL_PAGE; 
 1122              		.loc 1 261 0
 1123 006e 194B     		ldr	r3, .L92+4
 1124 0070 0022     		movs	r2, #0
 1125 0072 1A70     		strb	r2, [r3]
 262:DISPLAY.c     ****                             currentScreen.FLAG_DEPART=0;        
 1126              		.loc 1 262 0
 1127 0074 1A71     		strb	r2, [r3, #4]
 1128              	.L56:
 263:DISPLAY.c     ****                  }  // √† l'appuie du bouton SW2, le type de courbe d'absorption est modifi√©e 
 264:DISPLAY.c     ****                 if (currentScreen.FLAG1==1 || currentScreen.FLAG3==1) {
 1129              		.loc 1 264 0
 1130 0076 174B     		ldr	r3, .L92+4
 1131 0078 5B78     		ldrb	r3, [r3, #1]	@ zero_extendqisi2
 1132 007a DBB2     		uxtb	r3, r3
 1133 007c 012B     		cmp	r3, #1
 1134 007e 04D0     		beq	.L59
 1135              		.loc 1 264 0 is_stmt 0 discriminator 1
 1136 0080 144B     		ldr	r3, .L92+4
 1137 0082 DB78     		ldrb	r3, [r3, #3]	@ zero_extendqisi2
 1138 0084 DBB2     		uxtb	r3, r3
 1139 0086 012B     		cmp	r3, #1
 1140 0088 15D1     		bne	.L60
 1141              	.L59:
 265:DISPLAY.c     ****                      
 266:DISPLAY.c     ****                      currentScreen.screen= MAIN_MENU; 
 1142              		.loc 1 266 0 is_stmt 1
 1143 008a 124C     		ldr	r4, .L92+4
 1144 008c 0123     		movs	r3, #1
 1145 008e 2370     		strb	r3, [r4]
 267:DISPLAY.c     ****                      postion_MENU=40;
 1146              		.loc 1 267 0
 1147 0090 2820     		movs	r0, #40
 1148 0092 154B     		ldr	r3, .L92+24
 1149 0094 1870     		strb	r0, [r3]
 268:DISPLAY.c     ****                     DrawMenu(postion_MENU);
ARM GAS  C:\Users\Mahrukh\AppData\Local\Temp\ccJcQtli.s 			page 26


 1150              		.loc 1 268 0
 1151 0096 FFF7FEFF 		bl	DrawMenu
 1152              	.LVL145:
 269:DISPLAY.c     ****                     if (currentScreen.FLAG1==1) {currentScreen.FLAG1=0;}
 1153              		.loc 1 269 0
 1154 009a 6378     		ldrb	r3, [r4, #1]	@ zero_extendqisi2
 1155 009c DBB2     		uxtb	r3, r3
 1156 009e 012B     		cmp	r3, #1
 1157 00a0 01D1     		bne	.L61
 1158              		.loc 1 269 0 is_stmt 0 discriminator 1
 1159 00a2 0022     		movs	r2, #0
 1160 00a4 6270     		strb	r2, [r4, #1]
 1161              	.L61:
 270:DISPLAY.c     ****                     if (currentScreen.FLAG3==1) {currentScreen.FLAG3=0;}
 1162              		.loc 1 270 0 is_stmt 1
 1163 00a6 0B4B     		ldr	r3, .L92+4
 1164 00a8 DB78     		ldrb	r3, [r3, #3]	@ zero_extendqisi2
 1165 00aa DBB2     		uxtb	r3, r3
 1166 00ac 012B     		cmp	r3, #1
 1167 00ae 02D1     		bne	.L60
 1168              		.loc 1 270 0 is_stmt 0 discriminator 1
 1169 00b0 0022     		movs	r2, #0
 1170 00b2 084B     		ldr	r3, .L92+4
 1171 00b4 DA70     		strb	r2, [r3, #3]
 1172              	.L60:
 271:DISPLAY.c     ****                 } // √† l'appuie du bouton SW2 ou le bouton 0 dans la page principale, la page du M
 272:DISPLAY.c     ****                 if (currentScreen.FLAG1==2)
 1173              		.loc 1 272 0 is_stmt 1
 1174 00b6 074B     		ldr	r3, .L92+4
 1175 00b8 5B78     		ldrb	r3, [r3, #1]	@ zero_extendqisi2
 1176 00ba DBB2     		uxtb	r3, r3
 1177 00bc 022B     		cmp	r3, #2
 1178 00be 1FD1     		bne	.L62
 273:DISPLAY.c     ****                 {
 274:DISPLAY.c     ****                     if (postion_MENU==160)
 1179              		.loc 1 274 0
 1180 00c0 094B     		ldr	r3, .L92+24
 1181 00c2 1B78     		ldrb	r3, [r3]	@ zero_extendqisi2
 1182 00c4 A02B     		cmp	r3, #160
 1183 00c6 11D1     		bne	.L63
 275:DISPLAY.c     ****                     {postion_MENU=40; }
 1184              		.loc 1 275 0
 1185 00c8 2822     		movs	r2, #40
 1186 00ca 074B     		ldr	r3, .L92+24
 1187 00cc 1A70     		strb	r2, [r3]
 1188 00ce 10E0     		b	.L64
 1189              	.L93:
 1190              		.align	2
 1191              	.L92:
 1192 00d0 00000000 		.word	GUI_Font8_1
 1193 00d4 00000000 		.word	currentScreen
 1194 00d8 00000000 		.word	taille_infrarouge
 1195 00dc 00000000 		.word	INFRAROUGE
 1196 00e0 00000000 		.word	taille_rouge
 1197 00e4 00000000 		.word	ROUGE
 1198 00e8 00000000 		.word	postion_MENU
 1199              	.L63:
ARM GAS  C:\Users\Mahrukh\AppData\Local\Temp\ccJcQtli.s 			page 27


 276:DISPLAY.c     ****                     else 
 277:DISPLAY.c     ****                     {postion_MENU= postion_MENU+30;} 
 1200              		.loc 1 277 0
 1201 00ec 1E33     		adds	r3, r3, #30
 1202 00ee A04A     		ldr	r2, .L94
 1203 00f0 1370     		strb	r3, [r2]
 1204              	.L64:
 278:DISPLAY.c     ****                     DrawMenu(postion_MENU); 
 1205              		.loc 1 278 0
 1206 00f2 9F4B     		ldr	r3, .L94
 1207 00f4 1878     		ldrb	r0, [r3]	@ zero_extendqisi2
 1208 00f6 FFF7FEFF 		bl	DrawMenu
 1209              	.LVL146:
 279:DISPLAY.c     ****                     currentScreen.FLAG1=0; 
 1210              		.loc 1 279 0
 1211 00fa 0022     		movs	r2, #0
 1212 00fc 9D4B     		ldr	r3, .L94+4
 1213 00fe 5A70     		strb	r2, [r3, #1]
 1214              	.L62:
 280:DISPLAY.c     ****                 } // √† l'appuie du bouton 0 dans la page de MENU, le curseur change de position ve
 281:DISPLAY.c     ****                 if (currentScreen.FLAG1== 3 || selection_MENU==1 || currentScreen.FLAG2== 3 )
 1215              		.loc 1 281 0
 1216 0100 9C4B     		ldr	r3, .L94+4
 1217 0102 5B78     		ldrb	r3, [r3, #1]	@ zero_extendqisi2
 1218 0104 DBB2     		uxtb	r3, r3
 1219 0106 032B     		cmp	r3, #3
 1220 0108 08D0     		beq	.L65
 1221              		.loc 1 281 0 is_stmt 0 discriminator 1
 1222 010a 9B4B     		ldr	r3, .L94+8
 1223 010c 1B78     		ldrb	r3, [r3]	@ zero_extendqisi2
 1224 010e 012B     		cmp	r3, #1
 1225 0110 04D0     		beq	.L65
 1226              		.loc 1 281 0 discriminator 2
 1227 0112 984B     		ldr	r3, .L94+4
 1228 0114 9B78     		ldrb	r3, [r3, #2]	@ zero_extendqisi2
 1229 0116 DBB2     		uxtb	r3, r3
 1230 0118 032B     		cmp	r3, #3
 1231 011a 3BD1     		bne	.L66
 1232              	.L65:
 282:DISPLAY.c     ****                 {
 283:DISPLAY.c     **** 
 284:DISPLAY.c     ****                     DrawOption1 (); 
 1233              		.loc 1 284 0 is_stmt 1
 1234 011c FFF7FEFF 		bl	DrawOption1
 1235              	.LVL147:
 285:DISPLAY.c     ****                    
 286:DISPLAY.c     ****                     //Activation  de l'alarme de l'acc√©l√©rom√®tre √† l'appuie du bouton 0 sur la 
 287:DISPLAY.c     ****                     //Permet la lecture des variables transmis par l'expert communication
 288:DISPLAY.c     ****                                         if  (currentScreen.FLAG1==3) {
 1236              		.loc 1 288 0
 1237 0120 944B     		ldr	r3, .L94+4
 1238 0122 5B78     		ldrb	r3, [r3, #1]	@ zero_extendqisi2
 1239 0124 DBB2     		uxtb	r3, r3
 1240 0126 032B     		cmp	r3, #3
 1241 0128 11D1     		bne	.L67
 289:DISPLAY.c     ****                                              alarme_acc= true; 
 1242              		.loc 1 289 0
ARM GAS  C:\Users\Mahrukh\AppData\Local\Temp\ccJcQtli.s 			page 28


 1243 012a 0124     		movs	r4, #1
 1244 012c 934B     		ldr	r3, .L94+12
 1245 012e 1C70     		strb	r4, [r3]
 290:DISPLAY.c     ****                                              GUI_SetFont(GUI_FONT_16B_1);
 1246              		.loc 1 290 0
 1247 0130 9348     		ldr	r0, .L94+16
 1248 0132 FFF7FEFF 		bl	GUI_SetFont
 1249              	.LVL148:
 291:DISPLAY.c     ****                                              GUI_DispStringAt ("L'alarme est activee ",25, 130); 
 1250              		.loc 1 291 0
 1251 0136 8222     		movs	r2, #130
 1252 0138 1921     		movs	r1, #25
 1253 013a 9248     		ldr	r0, .L94+20
 1254 013c FFF7FEFF 		bl	GUI_DispStringAt
 1255              	.LVL149:
 292:DISPLAY.c     ****                                                UpdateDisplay(CY_EINK_FULL_4STAGE, true);
 1256              		.loc 1 292 0
 1257 0140 2146     		mov	r1, r4
 1258 0142 2046     		mov	r0, r4
 1259 0144 FFF7FEFF 		bl	UpdateDisplay
 1260              	.LVL150:
 293:DISPLAY.c     ****                                             currentScreen.FLAG1=0; }
 1261              		.loc 1 293 0
 1262 0148 0022     		movs	r2, #0
 1263 014a 8A4B     		ldr	r3, .L94+4
 1264 014c 5A70     		strb	r2, [r3, #1]
 1265              	.L67:
 294:DISPLAY.c     ****                   //D√©sactivation  de l'alarme de l'acc√©l√©rom√®tre √† l'appuie du bouton 1 sur l
 295:DISPLAY.c     ****                   //Bloque la lecture des variables transmis par l'expert communication
 296:DISPLAY.c     ****                                         if  (currentScreen.FLAG2==3) { 
 1266              		.loc 1 296 0
 1267 014e 894B     		ldr	r3, .L94+4
 1268 0150 9B78     		ldrb	r3, [r3, #2]	@ zero_extendqisi2
 1269 0152 DBB2     		uxtb	r3, r3
 1270 0154 032B     		cmp	r3, #3
 1271 0156 13D1     		bne	.L68
 297:DISPLAY.c     ****                                              alarme_acc= false;
 1272              		.loc 1 297 0
 1273 0158 0024     		movs	r4, #0
 1274 015a 884B     		ldr	r3, .L94+12
 1275 015c 1C70     		strb	r4, [r3]
 1276              	.LVL151:
 1277              	.LBB16:
 1278              	.LBB17:
 1279              		.file 2 "Generated_Source\\PSoC6\\pdl\\drivers/peripheral/gpio/cy_gpio.h"
   1:Generated_Source\PSoC6\pdl\drivers/peripheral/gpio/cy_gpio.h **** /***************************************************************************//**
   2:Generated_Source\PSoC6\pdl\drivers/peripheral/gpio/cy_gpio.h **** * \file cy_gpio.h
   3:Generated_Source\PSoC6\pdl\drivers/peripheral/gpio/cy_gpio.h **** * \version 1.20
   4:Generated_Source\PSoC6\pdl\drivers/peripheral/gpio/cy_gpio.h **** *
   5:Generated_Source\PSoC6\pdl\drivers/peripheral/gpio/cy_gpio.h **** * Provides an API declaration of the GPIO driver
   6:Generated_Source\PSoC6\pdl\drivers/peripheral/gpio/cy_gpio.h **** *
   7:Generated_Source\PSoC6\pdl\drivers/peripheral/gpio/cy_gpio.h **** ********************************************************************************
   8:Generated_Source\PSoC6\pdl\drivers/peripheral/gpio/cy_gpio.h **** * \copyright
   9:Generated_Source\PSoC6\pdl\drivers/peripheral/gpio/cy_gpio.h **** * Copyright 2016-2018, Cypress Semiconductor Corporation. All rights reserved.
  10:Generated_Source\PSoC6\pdl\drivers/peripheral/gpio/cy_gpio.h **** * You may use this file only in accordance with the license, terms, conditions,
  11:Generated_Source\PSoC6\pdl\drivers/peripheral/gpio/cy_gpio.h **** * disclaimers, and limitations in the end user license agreement accompanying
  12:Generated_Source\PSoC6\pdl\drivers/peripheral/gpio/cy_gpio.h **** * the software package with which this file was provided.
ARM GAS  C:\Users\Mahrukh\AppData\Local\Temp\ccJcQtli.s 			page 29


  13:Generated_Source\PSoC6\pdl\drivers/peripheral/gpio/cy_gpio.h **** *******************************************************************************/
  14:Generated_Source\PSoC6\pdl\drivers/peripheral/gpio/cy_gpio.h **** 
  15:Generated_Source\PSoC6\pdl\drivers/peripheral/gpio/cy_gpio.h **** /**
  16:Generated_Source\PSoC6\pdl\drivers/peripheral/gpio/cy_gpio.h **** * \addtogroup group_gpio
  17:Generated_Source\PSoC6\pdl\drivers/peripheral/gpio/cy_gpio.h **** * \{
  18:Generated_Source\PSoC6\pdl\drivers/peripheral/gpio/cy_gpio.h **** * The GPIO driver provides an API to configure and access device Input/Output pins.
  19:Generated_Source\PSoC6\pdl\drivers/peripheral/gpio/cy_gpio.h **** *
  20:Generated_Source\PSoC6\pdl\drivers/peripheral/gpio/cy_gpio.h **** * The functions and other declarations used in this driver are in cy_gpio.h. 
  21:Generated_Source\PSoC6\pdl\drivers/peripheral/gpio/cy_gpio.h **** * You can include cy_pdl.h (ModusToolbox only) to get access to all functions 
  22:Generated_Source\PSoC6\pdl\drivers/peripheral/gpio/cy_gpio.h **** * and declarations in the PDL.
  23:Generated_Source\PSoC6\pdl\drivers/peripheral/gpio/cy_gpio.h **** *
  24:Generated_Source\PSoC6\pdl\drivers/peripheral/gpio/cy_gpio.h **** * IO pins include all general purpose types such as GPIO, SIO, HSIO, AUXIO, and
  25:Generated_Source\PSoC6\pdl\drivers/peripheral/gpio/cy_gpio.h **** * their variants.
  26:Generated_Source\PSoC6\pdl\drivers/peripheral/gpio/cy_gpio.h **** *
  27:Generated_Source\PSoC6\pdl\drivers/peripheral/gpio/cy_gpio.h **** * Initialization can be performed either at the port level or by configuring the
  28:Generated_Source\PSoC6\pdl\drivers/peripheral/gpio/cy_gpio.h **** * individual pins. For efficient use of code space, port
  29:Generated_Source\PSoC6\pdl\drivers/peripheral/gpio/cy_gpio.h **** * configuration should be used in the field. Refer to the product device header files 
  30:Generated_Source\PSoC6\pdl\drivers/peripheral/gpio/cy_gpio.h **** * for the list of supported ports and pins.
  31:Generated_Source\PSoC6\pdl\drivers/peripheral/gpio/cy_gpio.h **** * 
  32:Generated_Source\PSoC6\pdl\drivers/peripheral/gpio/cy_gpio.h **** * - Single pin configuration is performed by using \ref Cy_GPIO_Pin_FastInit 
  33:Generated_Source\PSoC6\pdl\drivers/peripheral/gpio/cy_gpio.h **** *   (provide specific values) or \ref Cy_GPIO_Pin_Init (provide a filled
  34:Generated_Source\PSoC6\pdl\drivers/peripheral/gpio/cy_gpio.h **** *   cy_stc_gpio_pin_config_t structure).
  35:Generated_Source\PSoC6\pdl\drivers/peripheral/gpio/cy_gpio.h **** * - An entire port can be configured using \ref Cy_GPIO_Port_Init. Provide a filled 
  36:Generated_Source\PSoC6\pdl\drivers/peripheral/gpio/cy_gpio.h **** *   cy_stc_gpio_prt_config_t structure. The values in the structure are 
  37:Generated_Source\PSoC6\pdl\drivers/peripheral/gpio/cy_gpio.h **** *   bitfields representing the desired value for each pin in the port.
  38:Generated_Source\PSoC6\pdl\drivers/peripheral/gpio/cy_gpio.h **** * - Pin configuration and management is based on the port address and pin number.
  39:Generated_Source\PSoC6\pdl\drivers/peripheral/gpio/cy_gpio.h **** *   \ref Cy_GPIO_PortToAddr function can optionally be used to calculate the port
  40:Generated_Source\PSoC6\pdl\drivers/peripheral/gpio/cy_gpio.h **** *   address from the port number at run-time.
  41:Generated_Source\PSoC6\pdl\drivers/peripheral/gpio/cy_gpio.h **** *
  42:Generated_Source\PSoC6\pdl\drivers/peripheral/gpio/cy_gpio.h **** * Once the pin/port initialization is complete, each pin can be accessed by 
  43:Generated_Source\PSoC6\pdl\drivers/peripheral/gpio/cy_gpio.h **** * specifying the port (GPIO_PRT_Type) and the pin (0-7) in the provided API 
  44:Generated_Source\PSoC6\pdl\drivers/peripheral/gpio/cy_gpio.h **** * functions.
  45:Generated_Source\PSoC6\pdl\drivers/peripheral/gpio/cy_gpio.h **** *
  46:Generated_Source\PSoC6\pdl\drivers/peripheral/gpio/cy_gpio.h **** * \section group_gpio_configuration Configuration Considerations
  47:Generated_Source\PSoC6\pdl\drivers/peripheral/gpio/cy_gpio.h **** *
  48:Generated_Source\PSoC6\pdl\drivers/peripheral/gpio/cy_gpio.h **** * 1. Pin multiplexing is controlled through the High-Speed IO Matrix (HSIOM) selection.
  49:Generated_Source\PSoC6\pdl\drivers/peripheral/gpio/cy_gpio.h **** *    This allows the pin to connect to signal sources/sinks throughout the device,
  50:Generated_Source\PSoC6\pdl\drivers/peripheral/gpio/cy_gpio.h **** *    as defined by the pin HSIOM selection options (en_hsiom_sel_t).
  51:Generated_Source\PSoC6\pdl\drivers/peripheral/gpio/cy_gpio.h **** * 2. All pins are initialized to High-Z drive mode with HSIOM connected to CPU (SW
  52:Generated_Source\PSoC6\pdl\drivers/peripheral/gpio/cy_gpio.h **** *    control digital pin only) at Power-On-Reset(POR).
  53:Generated_Source\PSoC6\pdl\drivers/peripheral/gpio/cy_gpio.h **** * 3. Some API functions perform read-modify-write operations on shared port
  54:Generated_Source\PSoC6\pdl\drivers/peripheral/gpio/cy_gpio.h **** *    registers. These functions are not thread safe and care must be taken when
  55:Generated_Source\PSoC6\pdl\drivers/peripheral/gpio/cy_gpio.h **** *    called by the application.
  56:Generated_Source\PSoC6\pdl\drivers/peripheral/gpio/cy_gpio.h **** * 4. Digital input buffer provides a high-impedance buffer for the external 
  57:Generated_Source\PSoC6\pdl\drivers/peripheral/gpio/cy_gpio.h **** *    digital input. The input buffer is connected to the HSIOM for routing to 
  58:Generated_Source\PSoC6\pdl\drivers/peripheral/gpio/cy_gpio.h **** *    the CPU port registers and selected peripheral. Enabling the input 
  59:Generated_Source\PSoC6\pdl\drivers/peripheral/gpio/cy_gpio.h **** *    buffer provides possibility to read the pin state via the CPU.
  60:Generated_Source\PSoC6\pdl\drivers/peripheral/gpio/cy_gpio.h **** *    If pin is connected to an analog signal, the input buffer should be 
  61:Generated_Source\PSoC6\pdl\drivers/peripheral/gpio/cy_gpio.h **** *    disabled to avoid crowbar currents. For more information refer to device 
  62:Generated_Source\PSoC6\pdl\drivers/peripheral/gpio/cy_gpio.h **** *    TRM and the device datasheet.
  63:Generated_Source\PSoC6\pdl\drivers/peripheral/gpio/cy_gpio.h **** *
  64:Generated_Source\PSoC6\pdl\drivers/peripheral/gpio/cy_gpio.h **** * Multiple pins on a port can be updated using direct port register writes with an
  65:Generated_Source\PSoC6\pdl\drivers/peripheral/gpio/cy_gpio.h **** * appropriate port mask. An example is shown below, highlighting the different ways of 
  66:Generated_Source\PSoC6\pdl\drivers/peripheral/gpio/cy_gpio.h **** * configuring Port 1 pins using:
  67:Generated_Source\PSoC6\pdl\drivers/peripheral/gpio/cy_gpio.h **** * 
  68:Generated_Source\PSoC6\pdl\drivers/peripheral/gpio/cy_gpio.h **** * - Port output data register
  69:Generated_Source\PSoC6\pdl\drivers/peripheral/gpio/cy_gpio.h **** * - Port output data set register
ARM GAS  C:\Users\Mahrukh\AppData\Local\Temp\ccJcQtli.s 			page 30


  70:Generated_Source\PSoC6\pdl\drivers/peripheral/gpio/cy_gpio.h **** * - Port output data clear register
  71:Generated_Source\PSoC6\pdl\drivers/peripheral/gpio/cy_gpio.h **** *
  72:Generated_Source\PSoC6\pdl\drivers/peripheral/gpio/cy_gpio.h **** * \snippet gpio/gpio_v1_10_sut_01.cydsn/main_cm4.c Cy_GPIO_Snippet
  73:Generated_Source\PSoC6\pdl\drivers/peripheral/gpio/cy_gpio.h **** *
  74:Generated_Source\PSoC6\pdl\drivers/peripheral/gpio/cy_gpio.h **** * \section group_gpio_more_information More Information
  75:Generated_Source\PSoC6\pdl\drivers/peripheral/gpio/cy_gpio.h **** *
  76:Generated_Source\PSoC6\pdl\drivers/peripheral/gpio/cy_gpio.h **** * Refer to the technical reference manual (TRM) and the device datasheet.
  77:Generated_Source\PSoC6\pdl\drivers/peripheral/gpio/cy_gpio.h **** *
  78:Generated_Source\PSoC6\pdl\drivers/peripheral/gpio/cy_gpio.h **** * \section group_gpio_MISRA MISRA-C Compliance
  79:Generated_Source\PSoC6\pdl\drivers/peripheral/gpio/cy_gpio.h **** * The GPIO driver has the following specific deviations:
  80:Generated_Source\PSoC6\pdl\drivers/peripheral/gpio/cy_gpio.h **** *
  81:Generated_Source\PSoC6\pdl\drivers/peripheral/gpio/cy_gpio.h **** * <table class="doxtable">
  82:Generated_Source\PSoC6\pdl\drivers/peripheral/gpio/cy_gpio.h **** *   <tr>
  83:Generated_Source\PSoC6\pdl\drivers/peripheral/gpio/cy_gpio.h **** *     <th>MISRA Rule</th>
  84:Generated_Source\PSoC6\pdl\drivers/peripheral/gpio/cy_gpio.h **** *     <th>Rule Class (Required/Advisory)</th>
  85:Generated_Source\PSoC6\pdl\drivers/peripheral/gpio/cy_gpio.h **** *     <th>Rule Description</th>
  86:Generated_Source\PSoC6\pdl\drivers/peripheral/gpio/cy_gpio.h **** *     <th>Description of Deviation(s)</th>
  87:Generated_Source\PSoC6\pdl\drivers/peripheral/gpio/cy_gpio.h **** *   </tr>
  88:Generated_Source\PSoC6\pdl\drivers/peripheral/gpio/cy_gpio.h **** *   <tr>
  89:Generated_Source\PSoC6\pdl\drivers/peripheral/gpio/cy_gpio.h **** *     <td>11.4</td>
  90:Generated_Source\PSoC6\pdl\drivers/peripheral/gpio/cy_gpio.h **** *     <td>A</td>
  91:Generated_Source\PSoC6\pdl\drivers/peripheral/gpio/cy_gpio.h **** *     <td>A cast should not be performed between a pointer to object type and
  92:Generated_Source\PSoC6\pdl\drivers/peripheral/gpio/cy_gpio.h **** *         a different pointer to object type.</td>
  93:Generated_Source\PSoC6\pdl\drivers/peripheral/gpio/cy_gpio.h **** *     <td> This code is safe because the elements of both GPIO_PRT_V1_Type and GPIO_PRT_V2_Type 
  94:Generated_Source\PSoC6\pdl\drivers/peripheral/gpio/cy_gpio.h **** *          types have identical alignment.</td>
  95:Generated_Source\PSoC6\pdl\drivers/peripheral/gpio/cy_gpio.h **** *   </tr>
  96:Generated_Source\PSoC6\pdl\drivers/peripheral/gpio/cy_gpio.h **** *   <tr>
  97:Generated_Source\PSoC6\pdl\drivers/peripheral/gpio/cy_gpio.h **** *     <td>16.7</td>
  98:Generated_Source\PSoC6\pdl\drivers/peripheral/gpio/cy_gpio.h **** *     <td>A</td>
  99:Generated_Source\PSoC6\pdl\drivers/peripheral/gpio/cy_gpio.h **** *     <td>A pointer parameter in a function prototype should be declared as pointer 
 100:Generated_Source\PSoC6\pdl\drivers/peripheral/gpio/cy_gpio.h **** *         to const if the pointer is not used to modify the addressed object.</td>
 101:Generated_Source\PSoC6\pdl\drivers/peripheral/gpio/cy_gpio.h **** *     <td>The objects pointed to by the base addresses of the GPIO port are not always modified.
 102:Generated_Source\PSoC6\pdl\drivers/peripheral/gpio/cy_gpio.h **** *         While a const qualifier can be used in select scenarios, it brings little benefit
 103:Generated_Source\PSoC6\pdl\drivers/peripheral/gpio/cy_gpio.h **** *         in adding this to the affected functions. </td>
 104:Generated_Source\PSoC6\pdl\drivers/peripheral/gpio/cy_gpio.h **** *   </tr>
 105:Generated_Source\PSoC6\pdl\drivers/peripheral/gpio/cy_gpio.h **** * </table>
 106:Generated_Source\PSoC6\pdl\drivers/peripheral/gpio/cy_gpio.h **** *
 107:Generated_Source\PSoC6\pdl\drivers/peripheral/gpio/cy_gpio.h **** * \section group_gpio_changelog Changelog
 108:Generated_Source\PSoC6\pdl\drivers/peripheral/gpio/cy_gpio.h **** * <table class="doxtable">
 109:Generated_Source\PSoC6\pdl\drivers/peripheral/gpio/cy_gpio.h **** *   <tr><th>Version</th><th>Changes</th><th>Reason for Change</th></tr>
 110:Generated_Source\PSoC6\pdl\drivers/peripheral/gpio/cy_gpio.h **** *   <tr>
 111:Generated_Source\PSoC6\pdl\drivers/peripheral/gpio/cy_gpio.h **** *     <td rowspan="3">1.20</td>
 112:Generated_Source\PSoC6\pdl\drivers/peripheral/gpio/cy_gpio.h **** *     <td>Flattened the organization of the driver source code into the single source directory and
 113:Generated_Source\PSoC6\pdl\drivers/peripheral/gpio/cy_gpio.h **** *     <td>Driver library directory-structure simplification.</td>
 114:Generated_Source\PSoC6\pdl\drivers/peripheral/gpio/cy_gpio.h **** *   </tr>
 115:Generated_Source\PSoC6\pdl\drivers/peripheral/gpio/cy_gpio.h **** *   <tr>
 116:Generated_Source\PSoC6\pdl\drivers/peripheral/gpio/cy_gpio.h **** *     <td>Added the functions for configuring the AMux bus splitter switch cells:
 117:Generated_Source\PSoC6\pdl\drivers/peripheral/gpio/cy_gpio.h **** *     - \ref Cy_GPIO_SetAmuxSplit
 118:Generated_Source\PSoC6\pdl\drivers/peripheral/gpio/cy_gpio.h **** *     - \ref Cy_GPIO_GetAmuxSplit
 119:Generated_Source\PSoC6\pdl\drivers/peripheral/gpio/cy_gpio.h **** *     </td>
 120:Generated_Source\PSoC6\pdl\drivers/peripheral/gpio/cy_gpio.h **** *     <td>Added a new functionality related to AMux bus.</td>
 121:Generated_Source\PSoC6\pdl\drivers/peripheral/gpio/cy_gpio.h **** *   </tr>
 122:Generated_Source\PSoC6\pdl\drivers/peripheral/gpio/cy_gpio.h **** *   <tr>
 123:Generated_Source\PSoC6\pdl\drivers/peripheral/gpio/cy_gpio.h **** *     <td>Added register access layer. Use register access macros instead
 124:Generated_Source\PSoC6\pdl\drivers/peripheral/gpio/cy_gpio.h **** *         of direct register access using dereferenced pointers.</td>
 125:Generated_Source\PSoC6\pdl\drivers/peripheral/gpio/cy_gpio.h **** *     <td>Makes register access device-independent, so that the PDL does 
 126:Generated_Source\PSoC6\pdl\drivers/peripheral/gpio/cy_gpio.h **** *         not need to be recompiled for each supported part number.</td>
ARM GAS  C:\Users\Mahrukh\AppData\Local\Temp\ccJcQtli.s 			page 31


 127:Generated_Source\PSoC6\pdl\drivers/peripheral/gpio/cy_gpio.h **** *   </tr>
 128:Generated_Source\PSoC6\pdl\drivers/peripheral/gpio/cy_gpio.h **** *   <tr>
 129:Generated_Source\PSoC6\pdl\drivers/peripheral/gpio/cy_gpio.h **** *     <td>1.10.1</td>
 130:Generated_Source\PSoC6\pdl\drivers/peripheral/gpio/cy_gpio.h **** *     <td>Updated description for the functions: \ref Cy_GPIO_GetInterruptStatus, 
 131:Generated_Source\PSoC6\pdl\drivers/peripheral/gpio/cy_gpio.h **** *         \ref Cy_GPIO_GetInterruptMask, \ref Cy_GPIO_GetInterruptStatusMasked.
 132:Generated_Source\PSoC6\pdl\drivers/peripheral/gpio/cy_gpio.h **** *
 133:Generated_Source\PSoC6\pdl\drivers/peripheral/gpio/cy_gpio.h **** *         Minor documentation edits.
 134:Generated_Source\PSoC6\pdl\drivers/peripheral/gpio/cy_gpio.h **** *     </td>
 135:Generated_Source\PSoC6\pdl\drivers/peripheral/gpio/cy_gpio.h **** *     <td>Documentation update and clarification</td>
 136:Generated_Source\PSoC6\pdl\drivers/peripheral/gpio/cy_gpio.h **** *   </tr>
 137:Generated_Source\PSoC6\pdl\drivers/peripheral/gpio/cy_gpio.h **** *   <tr>
 138:Generated_Source\PSoC6\pdl\drivers/peripheral/gpio/cy_gpio.h **** *     <td>1.10</td>
 139:Generated_Source\PSoC6\pdl\drivers/peripheral/gpio/cy_gpio.h **** *     <td>Added input parameter validation to the API functions</td>
 140:Generated_Source\PSoC6\pdl\drivers/peripheral/gpio/cy_gpio.h **** *     <td></td>
 141:Generated_Source\PSoC6\pdl\drivers/peripheral/gpio/cy_gpio.h **** *   </tr>
 142:Generated_Source\PSoC6\pdl\drivers/peripheral/gpio/cy_gpio.h **** *   <tr>
 143:Generated_Source\PSoC6\pdl\drivers/peripheral/gpio/cy_gpio.h **** *     <td>1.0</td>
 144:Generated_Source\PSoC6\pdl\drivers/peripheral/gpio/cy_gpio.h **** *     <td>Initial version</td>
 145:Generated_Source\PSoC6\pdl\drivers/peripheral/gpio/cy_gpio.h **** *     <td></td>
 146:Generated_Source\PSoC6\pdl\drivers/peripheral/gpio/cy_gpio.h **** *   </tr>
 147:Generated_Source\PSoC6\pdl\drivers/peripheral/gpio/cy_gpio.h **** * </table>
 148:Generated_Source\PSoC6\pdl\drivers/peripheral/gpio/cy_gpio.h **** *
 149:Generated_Source\PSoC6\pdl\drivers/peripheral/gpio/cy_gpio.h **** * \defgroup group_gpio_macros Macros
 150:Generated_Source\PSoC6\pdl\drivers/peripheral/gpio/cy_gpio.h **** * \defgroup group_gpio_functions Functions
 151:Generated_Source\PSoC6\pdl\drivers/peripheral/gpio/cy_gpio.h **** * \{
 152:Generated_Source\PSoC6\pdl\drivers/peripheral/gpio/cy_gpio.h **** *   \defgroup group_gpio_functions_init       Initialization Functions
 153:Generated_Source\PSoC6\pdl\drivers/peripheral/gpio/cy_gpio.h **** *   \defgroup group_gpio_functions_gpio       GPIO Functions
 154:Generated_Source\PSoC6\pdl\drivers/peripheral/gpio/cy_gpio.h **** *   \defgroup group_gpio_functions_sio        SIO Functions
 155:Generated_Source\PSoC6\pdl\drivers/peripheral/gpio/cy_gpio.h **** *   \defgroup group_gpio_functions_interrupt  Port Interrupt Functions
 156:Generated_Source\PSoC6\pdl\drivers/peripheral/gpio/cy_gpio.h **** * \}
 157:Generated_Source\PSoC6\pdl\drivers/peripheral/gpio/cy_gpio.h **** * \defgroup group_gpio_data_structures Data Structures
 158:Generated_Source\PSoC6\pdl\drivers/peripheral/gpio/cy_gpio.h **** * \defgroup group_gpio_enums Enumerated Types
 159:Generated_Source\PSoC6\pdl\drivers/peripheral/gpio/cy_gpio.h **** */
 160:Generated_Source\PSoC6\pdl\drivers/peripheral/gpio/cy_gpio.h **** 
 161:Generated_Source\PSoC6\pdl\drivers/peripheral/gpio/cy_gpio.h **** #if !defined(CY_GPIO_H)
 162:Generated_Source\PSoC6\pdl\drivers/peripheral/gpio/cy_gpio.h **** #define CY_GPIO_H
 163:Generated_Source\PSoC6\pdl\drivers/peripheral/gpio/cy_gpio.h **** 
 164:Generated_Source\PSoC6\pdl\drivers/peripheral/gpio/cy_gpio.h **** #include <stddef.h>
 165:Generated_Source\PSoC6\pdl\drivers/peripheral/gpio/cy_gpio.h **** #include "cy_device.h"
 166:Generated_Source\PSoC6\pdl\drivers/peripheral/gpio/cy_gpio.h **** #include "cy_device_headers.h"
 167:Generated_Source\PSoC6\pdl\drivers/peripheral/gpio/cy_gpio.h **** #include "cy_syslib.h"
 168:Generated_Source\PSoC6\pdl\drivers/peripheral/gpio/cy_gpio.h **** 
 169:Generated_Source\PSoC6\pdl\drivers/peripheral/gpio/cy_gpio.h **** #if defined(__cplusplus)
 170:Generated_Source\PSoC6\pdl\drivers/peripheral/gpio/cy_gpio.h **** extern "C" {
 171:Generated_Source\PSoC6\pdl\drivers/peripheral/gpio/cy_gpio.h **** #endif
 172:Generated_Source\PSoC6\pdl\drivers/peripheral/gpio/cy_gpio.h **** 
 173:Generated_Source\PSoC6\pdl\drivers/peripheral/gpio/cy_gpio.h **** /** \addtogroup group_gpio_macros
 174:Generated_Source\PSoC6\pdl\drivers/peripheral/gpio/cy_gpio.h **** * \{
 175:Generated_Source\PSoC6\pdl\drivers/peripheral/gpio/cy_gpio.h **** */
 176:Generated_Source\PSoC6\pdl\drivers/peripheral/gpio/cy_gpio.h **** 
 177:Generated_Source\PSoC6\pdl\drivers/peripheral/gpio/cy_gpio.h **** /** Driver major version */
 178:Generated_Source\PSoC6\pdl\drivers/peripheral/gpio/cy_gpio.h **** #define CY_GPIO_DRV_VERSION_MAJOR       1
 179:Generated_Source\PSoC6\pdl\drivers/peripheral/gpio/cy_gpio.h **** 
 180:Generated_Source\PSoC6\pdl\drivers/peripheral/gpio/cy_gpio.h **** /** Driver minor version */
 181:Generated_Source\PSoC6\pdl\drivers/peripheral/gpio/cy_gpio.h **** #define CY_GPIO_DRV_VERSION_MINOR       20
 182:Generated_Source\PSoC6\pdl\drivers/peripheral/gpio/cy_gpio.h **** 
 183:Generated_Source\PSoC6\pdl\drivers/peripheral/gpio/cy_gpio.h **** /** GPIO driver ID */
ARM GAS  C:\Users\Mahrukh\AppData\Local\Temp\ccJcQtli.s 			page 32


 184:Generated_Source\PSoC6\pdl\drivers/peripheral/gpio/cy_gpio.h **** #define CY_GPIO_ID CY_PDL_DRV_ID(0x16U)
 185:Generated_Source\PSoC6\pdl\drivers/peripheral/gpio/cy_gpio.h **** 
 186:Generated_Source\PSoC6\pdl\drivers/peripheral/gpio/cy_gpio.h **** /** \} group_gpio_macros */
 187:Generated_Source\PSoC6\pdl\drivers/peripheral/gpio/cy_gpio.h **** 
 188:Generated_Source\PSoC6\pdl\drivers/peripheral/gpio/cy_gpio.h **** 
 189:Generated_Source\PSoC6\pdl\drivers/peripheral/gpio/cy_gpio.h **** /***************************************
 190:Generated_Source\PSoC6\pdl\drivers/peripheral/gpio/cy_gpio.h **** *       Enumerations
 191:Generated_Source\PSoC6\pdl\drivers/peripheral/gpio/cy_gpio.h **** ***************************************/
 192:Generated_Source\PSoC6\pdl\drivers/peripheral/gpio/cy_gpio.h **** /**
 193:Generated_Source\PSoC6\pdl\drivers/peripheral/gpio/cy_gpio.h **** * \addtogroup group_gpio_enums
 194:Generated_Source\PSoC6\pdl\drivers/peripheral/gpio/cy_gpio.h **** * \{
 195:Generated_Source\PSoC6\pdl\drivers/peripheral/gpio/cy_gpio.h **** */
 196:Generated_Source\PSoC6\pdl\drivers/peripheral/gpio/cy_gpio.h **** 
 197:Generated_Source\PSoC6\pdl\drivers/peripheral/gpio/cy_gpio.h **** /** GPIO Driver error codes */
 198:Generated_Source\PSoC6\pdl\drivers/peripheral/gpio/cy_gpio.h **** typedef enum 
 199:Generated_Source\PSoC6\pdl\drivers/peripheral/gpio/cy_gpio.h **** {
 200:Generated_Source\PSoC6\pdl\drivers/peripheral/gpio/cy_gpio.h ****     CY_GPIO_SUCCESS   = 0x00U,                                    /**< Returned successful */
 201:Generated_Source\PSoC6\pdl\drivers/peripheral/gpio/cy_gpio.h ****     CY_GPIO_BAD_PARAM = CY_GPIO_ID | CY_PDL_STATUS_ERROR | 0x01U, /**< Bad parameter was passed */
 202:Generated_Source\PSoC6\pdl\drivers/peripheral/gpio/cy_gpio.h **** } cy_en_gpio_status_t;
 203:Generated_Source\PSoC6\pdl\drivers/peripheral/gpio/cy_gpio.h **** 
 204:Generated_Source\PSoC6\pdl\drivers/peripheral/gpio/cy_gpio.h **** /** AMux switch open/close config */
 205:Generated_Source\PSoC6\pdl\drivers/peripheral/gpio/cy_gpio.h **** typedef enum
 206:Generated_Source\PSoC6\pdl\drivers/peripheral/gpio/cy_gpio.h **** {
 207:Generated_Source\PSoC6\pdl\drivers/peripheral/gpio/cy_gpio.h ****     CY_GPIO_AMUX_OPENALL,   /**< Open ground switch. Open right switch. Open left switch */
 208:Generated_Source\PSoC6\pdl\drivers/peripheral/gpio/cy_gpio.h ****     CY_GPIO_AMUX_L,         /**< Open ground switch. Open right switch. Close left switch */
 209:Generated_Source\PSoC6\pdl\drivers/peripheral/gpio/cy_gpio.h ****     CY_GPIO_AMUX_R,         /**< Open ground switch. Close right switch. Open left switch */
 210:Generated_Source\PSoC6\pdl\drivers/peripheral/gpio/cy_gpio.h ****     CY_GPIO_AMUX_LR,        /**< Open ground switch. Close right switch. Close left switch */
 211:Generated_Source\PSoC6\pdl\drivers/peripheral/gpio/cy_gpio.h ****     CY_GPIO_AMUX_G,         /**< Close ground switch. Open right switch. Open left switch */
 212:Generated_Source\PSoC6\pdl\drivers/peripheral/gpio/cy_gpio.h ****     CY_GPIO_AMUX_GL,        /**< Close ground switch. Open right switch. Close left switch */
 213:Generated_Source\PSoC6\pdl\drivers/peripheral/gpio/cy_gpio.h ****     CY_GPIO_AMUX_GR,        /**< Close ground switch. Close right switch. Open left switch */
 214:Generated_Source\PSoC6\pdl\drivers/peripheral/gpio/cy_gpio.h ****     CY_GPIO_AMUX_GLR,       /**< Close ground switch. Close right switch. Close left switch */
 215:Generated_Source\PSoC6\pdl\drivers/peripheral/gpio/cy_gpio.h **** }cy_en_gpio_amuxconnect_t;
 216:Generated_Source\PSoC6\pdl\drivers/peripheral/gpio/cy_gpio.h **** 
 217:Generated_Source\PSoC6\pdl\drivers/peripheral/gpio/cy_gpio.h **** /**
 218:Generated_Source\PSoC6\pdl\drivers/peripheral/gpio/cy_gpio.h **** * AMux Bus selection
 219:Generated_Source\PSoC6\pdl\drivers/peripheral/gpio/cy_gpio.h **** */
 220:Generated_Source\PSoC6\pdl\drivers/peripheral/gpio/cy_gpio.h **** typedef enum
 221:Generated_Source\PSoC6\pdl\drivers/peripheral/gpio/cy_gpio.h **** {
 222:Generated_Source\PSoC6\pdl\drivers/peripheral/gpio/cy_gpio.h ****     CY_GPIO_AMUXBUSA,       /**< AMuxBus A */
 223:Generated_Source\PSoC6\pdl\drivers/peripheral/gpio/cy_gpio.h ****     CY_GPIO_AMUXBUSB        /**< AMuxBus B */
 224:Generated_Source\PSoC6\pdl\drivers/peripheral/gpio/cy_gpio.h **** }cy_en_gpio_amuxselect_t;
 225:Generated_Source\PSoC6\pdl\drivers/peripheral/gpio/cy_gpio.h **** 
 226:Generated_Source\PSoC6\pdl\drivers/peripheral/gpio/cy_gpio.h **** /** \} group_gpio_enums */
 227:Generated_Source\PSoC6\pdl\drivers/peripheral/gpio/cy_gpio.h **** 
 228:Generated_Source\PSoC6\pdl\drivers/peripheral/gpio/cy_gpio.h **** 
 229:Generated_Source\PSoC6\pdl\drivers/peripheral/gpio/cy_gpio.h **** /***************************************
 230:Generated_Source\PSoC6\pdl\drivers/peripheral/gpio/cy_gpio.h **** *       Configuration Structures
 231:Generated_Source\PSoC6\pdl\drivers/peripheral/gpio/cy_gpio.h **** ***************************************/
 232:Generated_Source\PSoC6\pdl\drivers/peripheral/gpio/cy_gpio.h **** 
 233:Generated_Source\PSoC6\pdl\drivers/peripheral/gpio/cy_gpio.h **** /**
 234:Generated_Source\PSoC6\pdl\drivers/peripheral/gpio/cy_gpio.h **** * \addtogroup group_gpio_data_structures
 235:Generated_Source\PSoC6\pdl\drivers/peripheral/gpio/cy_gpio.h **** * \{
 236:Generated_Source\PSoC6\pdl\drivers/peripheral/gpio/cy_gpio.h **** */
 237:Generated_Source\PSoC6\pdl\drivers/peripheral/gpio/cy_gpio.h **** 
 238:Generated_Source\PSoC6\pdl\drivers/peripheral/gpio/cy_gpio.h **** /** This structure is used to initialize a port of GPIO pins */
 239:Generated_Source\PSoC6\pdl\drivers/peripheral/gpio/cy_gpio.h **** typedef struct 
 240:Generated_Source\PSoC6\pdl\drivers/peripheral/gpio/cy_gpio.h **** {
ARM GAS  C:\Users\Mahrukh\AppData\Local\Temp\ccJcQtli.s 			page 33


 241:Generated_Source\PSoC6\pdl\drivers/peripheral/gpio/cy_gpio.h ****     uint32_t out;           /**< Initial output data for the IO pins in the port */
 242:Generated_Source\PSoC6\pdl\drivers/peripheral/gpio/cy_gpio.h ****     uint32_t intrMask;      /**< Interrupt enable mask for the port interrupt */
 243:Generated_Source\PSoC6\pdl\drivers/peripheral/gpio/cy_gpio.h ****     uint32_t intrCfg;       /**< Port pin interrupt edge detection configuration */
 244:Generated_Source\PSoC6\pdl\drivers/peripheral/gpio/cy_gpio.h ****     uint32_t cfg;           /**< Port pin drive modes and input buffer enable configuration */
 245:Generated_Source\PSoC6\pdl\drivers/peripheral/gpio/cy_gpio.h ****     uint32_t cfgIn;         /**< Port pin input buffer configuration */
 246:Generated_Source\PSoC6\pdl\drivers/peripheral/gpio/cy_gpio.h ****     uint32_t cfgOut;        /**< Port pin output buffer configuration */
 247:Generated_Source\PSoC6\pdl\drivers/peripheral/gpio/cy_gpio.h ****     uint32_t cfgSIO;        /**< Port SIO pins configuration */
 248:Generated_Source\PSoC6\pdl\drivers/peripheral/gpio/cy_gpio.h ****     uint32_t sel0Active;    /**< HSIOM selection for port pins 0,1,2,3 */
 249:Generated_Source\PSoC6\pdl\drivers/peripheral/gpio/cy_gpio.h ****     uint32_t sel1Active;    /**< HSIOM selection for port pins 4,5,6,7 */
 250:Generated_Source\PSoC6\pdl\drivers/peripheral/gpio/cy_gpio.h **** } cy_stc_gpio_prt_config_t;
 251:Generated_Source\PSoC6\pdl\drivers/peripheral/gpio/cy_gpio.h **** 
 252:Generated_Source\PSoC6\pdl\drivers/peripheral/gpio/cy_gpio.h **** /** This structure is used to initialize a single GPIO pin */
 253:Generated_Source\PSoC6\pdl\drivers/peripheral/gpio/cy_gpio.h **** typedef struct
 254:Generated_Source\PSoC6\pdl\drivers/peripheral/gpio/cy_gpio.h **** {
 255:Generated_Source\PSoC6\pdl\drivers/peripheral/gpio/cy_gpio.h ****     uint32_t outVal;         /**< Pin output state */
 256:Generated_Source\PSoC6\pdl\drivers/peripheral/gpio/cy_gpio.h ****     uint32_t driveMode;      /**< Drive mode */
 257:Generated_Source\PSoC6\pdl\drivers/peripheral/gpio/cy_gpio.h ****     en_hsiom_sel_t hsiom;    /**< HSIOM selection */
 258:Generated_Source\PSoC6\pdl\drivers/peripheral/gpio/cy_gpio.h ****     uint32_t intEdge;        /**< Interrupt Edge type */
 259:Generated_Source\PSoC6\pdl\drivers/peripheral/gpio/cy_gpio.h ****     uint32_t intMask;        /**< Interrupt enable mask */
 260:Generated_Source\PSoC6\pdl\drivers/peripheral/gpio/cy_gpio.h ****     uint32_t vtrip;          /**< Input buffer voltage trip type */
 261:Generated_Source\PSoC6\pdl\drivers/peripheral/gpio/cy_gpio.h ****     uint32_t slewRate;       /**< Output buffer slew rate */
 262:Generated_Source\PSoC6\pdl\drivers/peripheral/gpio/cy_gpio.h ****     uint32_t driveSel;       /**< Drive strength */
 263:Generated_Source\PSoC6\pdl\drivers/peripheral/gpio/cy_gpio.h ****     uint32_t vregEn;         /**< SIO pair output buffer mode */
 264:Generated_Source\PSoC6\pdl\drivers/peripheral/gpio/cy_gpio.h ****     uint32_t ibufMode;       /**< SIO pair input buffer mode */
 265:Generated_Source\PSoC6\pdl\drivers/peripheral/gpio/cy_gpio.h ****     uint32_t vtripSel;       /**< SIO pair input buffer trip point */
 266:Generated_Source\PSoC6\pdl\drivers/peripheral/gpio/cy_gpio.h ****     uint32_t vrefSel;        /**< SIO pair reference voltage for input buffer trip point */
 267:Generated_Source\PSoC6\pdl\drivers/peripheral/gpio/cy_gpio.h ****     uint32_t vohSel;         /**< SIO pair regulated voltage output level */
 268:Generated_Source\PSoC6\pdl\drivers/peripheral/gpio/cy_gpio.h **** } cy_stc_gpio_pin_config_t;
 269:Generated_Source\PSoC6\pdl\drivers/peripheral/gpio/cy_gpio.h **** 
 270:Generated_Source\PSoC6\pdl\drivers/peripheral/gpio/cy_gpio.h **** /** \} group_gpio_data_structures */
 271:Generated_Source\PSoC6\pdl\drivers/peripheral/gpio/cy_gpio.h **** 
 272:Generated_Source\PSoC6\pdl\drivers/peripheral/gpio/cy_gpio.h **** /***************************************
 273:Generated_Source\PSoC6\pdl\drivers/peripheral/gpio/cy_gpio.h **** *        Constants
 274:Generated_Source\PSoC6\pdl\drivers/peripheral/gpio/cy_gpio.h **** ***************************************/
 275:Generated_Source\PSoC6\pdl\drivers/peripheral/gpio/cy_gpio.h **** 
 276:Generated_Source\PSoC6\pdl\drivers/peripheral/gpio/cy_gpio.h **** /** \cond INTERNAL */
 277:Generated_Source\PSoC6\pdl\drivers/peripheral/gpio/cy_gpio.h **** 
 278:Generated_Source\PSoC6\pdl\drivers/peripheral/gpio/cy_gpio.h **** /* General Constants */
 279:Generated_Source\PSoC6\pdl\drivers/peripheral/gpio/cy_gpio.h **** #define CY_GPIO_PRT_HALF                       (4UL)      /**< Half-way point of a GPIO port */
 280:Generated_Source\PSoC6\pdl\drivers/peripheral/gpio/cy_gpio.h **** #define CY_GPIO_PRT_DEINIT                     (0UL)      /**< De-init value for port registers */
 281:Generated_Source\PSoC6\pdl\drivers/peripheral/gpio/cy_gpio.h **** 
 282:Generated_Source\PSoC6\pdl\drivers/peripheral/gpio/cy_gpio.h **** /* GPIO Masks */
 283:Generated_Source\PSoC6\pdl\drivers/peripheral/gpio/cy_gpio.h **** #define CY_GPIO_HSIOM_MASK                     (0x1FUL)   /**< HSIOM selection mask */
 284:Generated_Source\PSoC6\pdl\drivers/peripheral/gpio/cy_gpio.h **** #define CY_GPIO_OUT_MASK                       (0x01UL)   /**< Single pin mask for OUT register */
 285:Generated_Source\PSoC6\pdl\drivers/peripheral/gpio/cy_gpio.h **** #define CY_GPIO_IN_MASK                        (0x01UL)   /**< Single pin mask for IN register */
 286:Generated_Source\PSoC6\pdl\drivers/peripheral/gpio/cy_gpio.h **** #define CY_GPIO_CFG_DM_MASK                    (0x0FUL)   /**< Single pin mask for drive mode in CF
 287:Generated_Source\PSoC6\pdl\drivers/peripheral/gpio/cy_gpio.h **** #define CY_GPIO_CFG_IN_VTRIP_SEL_MASK          (0x01UL)   /**< Single pin mask for VTRIP selection 
 288:Generated_Source\PSoC6\pdl\drivers/peripheral/gpio/cy_gpio.h **** #define CY_GPIO_CFG_OUT_SLOW_MASK              (0x01UL)   /**< Single pin mask for slew rate in CFG
 289:Generated_Source\PSoC6\pdl\drivers/peripheral/gpio/cy_gpio.h **** #define CY_GPIO_CFG_OUT_DRIVE_SEL_MASK         (0x03UL)   /**< Single pin mask for drive strength i
 290:Generated_Source\PSoC6\pdl\drivers/peripheral/gpio/cy_gpio.h **** #define CY_GPIO_INTR_STATUS_MASK               (0x01UL)   /**< Single pin mask for interrupt status
 291:Generated_Source\PSoC6\pdl\drivers/peripheral/gpio/cy_gpio.h **** #define CY_GPIO_INTR_EN_MASK                   (0x01UL)   /**< Single pin mask for interrupt status
 292:Generated_Source\PSoC6\pdl\drivers/peripheral/gpio/cy_gpio.h **** #define CY_GPIO_INTR_MASKED_MASK               (0x01UL)   /**< Single pin mask for masked interrupt
 293:Generated_Source\PSoC6\pdl\drivers/peripheral/gpio/cy_gpio.h **** #define CY_GPIO_INTR_SET_MASK                  (0x01UL)   /**< Single pin mask for setting the inte
 294:Generated_Source\PSoC6\pdl\drivers/peripheral/gpio/cy_gpio.h **** #define CY_GPIO_INTR_EDGE_MASK                 (0x03UL)   /**< Single pin mask for interrupt edge t
 295:Generated_Source\PSoC6\pdl\drivers/peripheral/gpio/cy_gpio.h **** #define CY_GPIO_INTR_FLT_EDGE_MASK             (0x07UL)   /**< Single pin mask for setting filtered
 296:Generated_Source\PSoC6\pdl\drivers/peripheral/gpio/cy_gpio.h **** 
 297:Generated_Source\PSoC6\pdl\drivers/peripheral/gpio/cy_gpio.h **** /* SIO Masks */
ARM GAS  C:\Users\Mahrukh\AppData\Local\Temp\ccJcQtli.s 			page 34


 298:Generated_Source\PSoC6\pdl\drivers/peripheral/gpio/cy_gpio.h **** #define CY_GPIO_VREG_EN_MASK                   (0x01UL)   /**< Single SIO pin mask for voltage regu
 299:Generated_Source\PSoC6\pdl\drivers/peripheral/gpio/cy_gpio.h **** #define CY_GPIO_IBUF_MASK                      (0x01UL)   /**< Single SIO pin mask for input buffer
 300:Generated_Source\PSoC6\pdl\drivers/peripheral/gpio/cy_gpio.h **** #define CY_GPIO_IBUF_SHIFT                     (0x01UL)   /**< Single SIO pin shift for input buffe
 301:Generated_Source\PSoC6\pdl\drivers/peripheral/gpio/cy_gpio.h **** #define CY_GPIO_VTRIP_SEL_MASK                 (0x01UL)   /**< Single SIO pin mask for the input bu
 302:Generated_Source\PSoC6\pdl\drivers/peripheral/gpio/cy_gpio.h **** #define CY_GPIO_VTRIP_SEL_SHIFT                (0x02UL)   /**< Single SIO pin shift for the input b
 303:Generated_Source\PSoC6\pdl\drivers/peripheral/gpio/cy_gpio.h **** #define CY_GPIO_VREF_SEL_MASK                  (0x03UL)   /**< Single SIO pin mask for voltage refe
 304:Generated_Source\PSoC6\pdl\drivers/peripheral/gpio/cy_gpio.h **** #define CY_GPIO_VREF_SEL_SHIFT                 (0x03UL)   /**< Single SIO pin shift for voltage ref
 305:Generated_Source\PSoC6\pdl\drivers/peripheral/gpio/cy_gpio.h **** #define CY_GPIO_VOH_SEL_MASK                   (0x07UL)   /**< Single SIO pin mask for VOH */
 306:Generated_Source\PSoC6\pdl\drivers/peripheral/gpio/cy_gpio.h **** #define CY_GPIO_VOH_SEL_SHIFT                  (0x05UL)   /**< Single SIO pin shift for VOH */
 307:Generated_Source\PSoC6\pdl\drivers/peripheral/gpio/cy_gpio.h **** 
 308:Generated_Source\PSoC6\pdl\drivers/peripheral/gpio/cy_gpio.h **** /* Special mask for SIO pin pair setting */
 309:Generated_Source\PSoC6\pdl\drivers/peripheral/gpio/cy_gpio.h **** #define CY_GPIO_SIO_ODD_PIN_MASK               (0x00FEUL) /**< SIO pin pair selection mask */
 310:Generated_Source\PSoC6\pdl\drivers/peripheral/gpio/cy_gpio.h **** #define CY_GPIO_SIO_PIN_MASK                   (0x00FFUL) /**< SIO pin pair mask */
 311:Generated_Source\PSoC6\pdl\drivers/peripheral/gpio/cy_gpio.h **** 
 312:Generated_Source\PSoC6\pdl\drivers/peripheral/gpio/cy_gpio.h **** /* Offsets */
 313:Generated_Source\PSoC6\pdl\drivers/peripheral/gpio/cy_gpio.h **** #define CY_GPIO_HSIOM_OFFSET                   (3UL)      /**< Offset for HSIOM */
 314:Generated_Source\PSoC6\pdl\drivers/peripheral/gpio/cy_gpio.h **** #define CY_GPIO_DRIVE_MODE_OFFSET              (2UL)      /**< Offset for Drive mode */
 315:Generated_Source\PSoC6\pdl\drivers/peripheral/gpio/cy_gpio.h **** #define CY_GPIO_INBUF_OFFSET                   (3UL)      /**< Offset for input buffer */
 316:Generated_Source\PSoC6\pdl\drivers/peripheral/gpio/cy_gpio.h **** #define CY_GPIO_CFG_OUT_DRIVE_OFFSET           (16UL)     /**< Offset for drive strength */
 317:Generated_Source\PSoC6\pdl\drivers/peripheral/gpio/cy_gpio.h **** #define CY_GPIO_INTR_CFG_OFFSET                (1UL)      /**< Offset for interrupt config */
 318:Generated_Source\PSoC6\pdl\drivers/peripheral/gpio/cy_gpio.h **** #define CY_GPIO_INTR_FILT_OFFSET               (18UL)     /**< Offset for filtered interrupt config
 319:Generated_Source\PSoC6\pdl\drivers/peripheral/gpio/cy_gpio.h **** #define CY_GPIO_CFG_SIO_OFFSET                 (2UL)      /**< Offset for SIO config */
 320:Generated_Source\PSoC6\pdl\drivers/peripheral/gpio/cy_gpio.h **** 
 321:Generated_Source\PSoC6\pdl\drivers/peripheral/gpio/cy_gpio.h **** /* Parameter validation constants */
 322:Generated_Source\PSoC6\pdl\drivers/peripheral/gpio/cy_gpio.h **** #define CY_GPIO_PINS_MAX                       (8UL)      /**< Number of pins in the port */
 323:Generated_Source\PSoC6\pdl\drivers/peripheral/gpio/cy_gpio.h **** #define CY_GPIO_PRT_PINS_MASK                  (0x0000000FFUL)
 324:Generated_Source\PSoC6\pdl\drivers/peripheral/gpio/cy_gpio.h **** #define CY_GPIO_PRT_INTR_CFG_EDGE_SEL_MASK     (GPIO_PRT_INTR_CFG_EDGE0_SEL_Msk | \
 325:Generated_Source\PSoC6\pdl\drivers/peripheral/gpio/cy_gpio.h ****                                                 GPIO_PRT_INTR_CFG_EDGE1_SEL_Msk | \
 326:Generated_Source\PSoC6\pdl\drivers/peripheral/gpio/cy_gpio.h ****                                                 GPIO_PRT_INTR_CFG_EDGE2_SEL_Msk | \
 327:Generated_Source\PSoC6\pdl\drivers/peripheral/gpio/cy_gpio.h ****                                                 GPIO_PRT_INTR_CFG_EDGE3_SEL_Msk | \
 328:Generated_Source\PSoC6\pdl\drivers/peripheral/gpio/cy_gpio.h ****                                                 GPIO_PRT_INTR_CFG_EDGE4_SEL_Msk | \
 329:Generated_Source\PSoC6\pdl\drivers/peripheral/gpio/cy_gpio.h ****                                                 GPIO_PRT_INTR_CFG_EDGE5_SEL_Msk | \
 330:Generated_Source\PSoC6\pdl\drivers/peripheral/gpio/cy_gpio.h ****                                                 GPIO_PRT_INTR_CFG_EDGE6_SEL_Msk | \
 331:Generated_Source\PSoC6\pdl\drivers/peripheral/gpio/cy_gpio.h ****                                                 GPIO_PRT_INTR_CFG_EDGE7_SEL_Msk)
 332:Generated_Source\PSoC6\pdl\drivers/peripheral/gpio/cy_gpio.h **** #define CY_GPIO_PRT_INTR_CFG_RANGE_MASK        (CY_GPIO_PRT_INTR_CFG_EDGE_SEL_MASK | \
 333:Generated_Source\PSoC6\pdl\drivers/peripheral/gpio/cy_gpio.h ****                                                 GPIO_PRT_INTR_CFG_FLT_EDGE_SEL_Msk | \
 334:Generated_Source\PSoC6\pdl\drivers/peripheral/gpio/cy_gpio.h ****                                                 GPIO_PRT_INTR_CFG_FLT_SEL_Msk)
 335:Generated_Source\PSoC6\pdl\drivers/peripheral/gpio/cy_gpio.h **** #define CY_GPIO_PRT_INT_MASK_MASK              (0x0000001FFUL)
 336:Generated_Source\PSoC6\pdl\drivers/peripheral/gpio/cy_gpio.h **** #define CY_GPIO_PRT_SEL_ACTIVE_MASK            (0x1FFFFFFFUL)
 337:Generated_Source\PSoC6\pdl\drivers/peripheral/gpio/cy_gpio.h **** 
 338:Generated_Source\PSoC6\pdl\drivers/peripheral/gpio/cy_gpio.h **** #define GPIO_MAX_SPLIT_CELL_SEGMENTS           (9U)
 339:Generated_Source\PSoC6\pdl\drivers/peripheral/gpio/cy_gpio.h **** 
 340:Generated_Source\PSoC6\pdl\drivers/peripheral/gpio/cy_gpio.h **** /* Parameter validation macros */
 341:Generated_Source\PSoC6\pdl\drivers/peripheral/gpio/cy_gpio.h **** #define CY_GPIO_IS_PIN_VALID(pinNum)           (CY_GPIO_PINS_MAX > (pinNum))
 342:Generated_Source\PSoC6\pdl\drivers/peripheral/gpio/cy_gpio.h **** #define CY_GPIO_IS_FILTER_PIN_VALID(pinNum)    (CY_GPIO_PINS_MAX >= (pinNum))
 343:Generated_Source\PSoC6\pdl\drivers/peripheral/gpio/cy_gpio.h **** #define CY_GPIO_IS_VALUE_VALID(outVal)         (1UL >= (outVal))
 344:Generated_Source\PSoC6\pdl\drivers/peripheral/gpio/cy_gpio.h **** #define CY_GPIO_IS_DM_VALID(driveMode)         (0U == ((driveMode) & (uint32_t)~CY_GPIO_CFG_DM_MASK
 345:Generated_Source\PSoC6\pdl\drivers/peripheral/gpio/cy_gpio.h **** 
 346:Generated_Source\PSoC6\pdl\drivers/peripheral/gpio/cy_gpio.h **** #define CY_GPIO_IS_HSIOM_VALID(hsiom)          (0U == ((hsiom) & (uint32_t)~CY_GPIO_HSIOM_MASK))
 347:Generated_Source\PSoC6\pdl\drivers/peripheral/gpio/cy_gpio.h **** 
 348:Generated_Source\PSoC6\pdl\drivers/peripheral/gpio/cy_gpio.h **** #define CY_GPIO_IS_INT_EDGE_VALID(intEdge)     ((CY_GPIO_INTR_DISABLE  == (intEdge)) || \
 349:Generated_Source\PSoC6\pdl\drivers/peripheral/gpio/cy_gpio.h ****                                                 (CY_GPIO_INTR_RISING   == (intEdge)) || \
 350:Generated_Source\PSoC6\pdl\drivers/peripheral/gpio/cy_gpio.h ****                                                 (CY_GPIO_INTR_FALLING  == (intEdge)) || \
 351:Generated_Source\PSoC6\pdl\drivers/peripheral/gpio/cy_gpio.h ****                                                 (CY_GPIO_INTR_BOTH     == (intEdge)))
 352:Generated_Source\PSoC6\pdl\drivers/peripheral/gpio/cy_gpio.h **** 
 353:Generated_Source\PSoC6\pdl\drivers/peripheral/gpio/cy_gpio.h **** #define CY_GPIO_IS_DRIVE_SEL_VALID(driveSel)   ((CY_GPIO_DRIVE_FULL    == (driveSel)) || \
 354:Generated_Source\PSoC6\pdl\drivers/peripheral/gpio/cy_gpio.h ****                                                 (CY_GPIO_DRIVE_1_2     == (driveSel)) || \
ARM GAS  C:\Users\Mahrukh\AppData\Local\Temp\ccJcQtli.s 			page 35


 355:Generated_Source\PSoC6\pdl\drivers/peripheral/gpio/cy_gpio.h ****                                                 (CY_GPIO_DRIVE_1_4     == (driveSel)) || \
 356:Generated_Source\PSoC6\pdl\drivers/peripheral/gpio/cy_gpio.h ****                                                 (CY_GPIO_DRIVE_1_8     == (driveSel)))
 357:Generated_Source\PSoC6\pdl\drivers/peripheral/gpio/cy_gpio.h **** 
 358:Generated_Source\PSoC6\pdl\drivers/peripheral/gpio/cy_gpio.h **** #define CY_GPIO_IS_VREF_SEL_VALID(vrefSel)     ((CY_SIO_VREF_PINREF    == (vrefSel)) || \
 359:Generated_Source\PSoC6\pdl\drivers/peripheral/gpio/cy_gpio.h ****                                                 (CY_SIO_VREF_1_2V      == (vrefSel)) || \
 360:Generated_Source\PSoC6\pdl\drivers/peripheral/gpio/cy_gpio.h ****                                                 (CY_SIO_VREF_AMUX_A    == (vrefSel)) || \
 361:Generated_Source\PSoC6\pdl\drivers/peripheral/gpio/cy_gpio.h ****                                                 (CY_SIO_VREF_AMUX_B    == (vrefSel)))
 362:Generated_Source\PSoC6\pdl\drivers/peripheral/gpio/cy_gpio.h **** 
 363:Generated_Source\PSoC6\pdl\drivers/peripheral/gpio/cy_gpio.h **** #define CY_GPIO_IS_VOH_SEL_VALID(vrefSel)      ((CY_SIO_VOH_1_00       == (vrefSel)) || \
 364:Generated_Source\PSoC6\pdl\drivers/peripheral/gpio/cy_gpio.h ****                                                 (CY_SIO_VOH_1_25       == (vrefSel)) || \
 365:Generated_Source\PSoC6\pdl\drivers/peripheral/gpio/cy_gpio.h ****                                                 (CY_SIO_VOH_1_49       == (vrefSel)) || \
 366:Generated_Source\PSoC6\pdl\drivers/peripheral/gpio/cy_gpio.h ****                                                 (CY_SIO_VOH_1_67       == (vrefSel)) || \
 367:Generated_Source\PSoC6\pdl\drivers/peripheral/gpio/cy_gpio.h ****                                                 (CY_SIO_VOH_2_08       == (vrefSel)) || \
 368:Generated_Source\PSoC6\pdl\drivers/peripheral/gpio/cy_gpio.h ****                                                 (CY_SIO_VOH_2_50       == (vrefSel)) || \
 369:Generated_Source\PSoC6\pdl\drivers/peripheral/gpio/cy_gpio.h ****                                                 (CY_SIO_VOH_2_78       == (vrefSel)) || \
 370:Generated_Source\PSoC6\pdl\drivers/peripheral/gpio/cy_gpio.h ****                                                 (CY_SIO_VOH_4_16       == (vrefSel)))
 371:Generated_Source\PSoC6\pdl\drivers/peripheral/gpio/cy_gpio.h ****                    
 372:Generated_Source\PSoC6\pdl\drivers/peripheral/gpio/cy_gpio.h **** #define CY_GPIO_IS_PIN_BIT_VALID(pinBit)       (0U == ((pinBit) & (uint32_t)~CY_GPIO_PRT_PINS_MASK)
 373:Generated_Source\PSoC6\pdl\drivers/peripheral/gpio/cy_gpio.h **** #define CY_GPIO_IS_INTR_CFG_VALID(intrCfg)     (0U == ((intrCfg) & (uint32_t)~CY_GPIO_PRT_INTR_CFG_
 374:Generated_Source\PSoC6\pdl\drivers/peripheral/gpio/cy_gpio.h **** #define CY_GPIO_IS_INTR_MASK_VALID(intrMask)   (0U == ((intrMask) & (uint32_t)~CY_GPIO_PRT_INT_MASK
 375:Generated_Source\PSoC6\pdl\drivers/peripheral/gpio/cy_gpio.h **** #define CY_GPIO_IS_SEL_ACT_VALID(selActive)    (0U == ((selActive) & (uint32_t)~CY_GPIO_PRT_SEL_ACT
 376:Generated_Source\PSoC6\pdl\drivers/peripheral/gpio/cy_gpio.h **** 
 377:Generated_Source\PSoC6\pdl\drivers/peripheral/gpio/cy_gpio.h **** #define CY_GPIO_IS_AMUX_SPLIT_VALID(switchCtrl)       (((uint32_t) (switchCtrl)) < GPIO_MAX_SPLIT_C
 378:Generated_Source\PSoC6\pdl\drivers/peripheral/gpio/cy_gpio.h **** 
 379:Generated_Source\PSoC6\pdl\drivers/peripheral/gpio/cy_gpio.h **** #define CY_GPIO_IS_AMUX_CONNECT_VALID(amuxConnect)    ((CY_GPIO_AMUX_OPENALL == (amuxConnect)) || \
 380:Generated_Source\PSoC6\pdl\drivers/peripheral/gpio/cy_gpio.h ****                                                        (CY_GPIO_AMUX_L       == (amuxConnect)) || \
 381:Generated_Source\PSoC6\pdl\drivers/peripheral/gpio/cy_gpio.h ****                                                        (CY_GPIO_AMUX_R       == (amuxConnect)) || \
 382:Generated_Source\PSoC6\pdl\drivers/peripheral/gpio/cy_gpio.h ****                                                        (CY_GPIO_AMUX_LR      == (amuxConnect)) || \
 383:Generated_Source\PSoC6\pdl\drivers/peripheral/gpio/cy_gpio.h ****                                                        (CY_GPIO_AMUX_G       == (amuxConnect)) || \
 384:Generated_Source\PSoC6\pdl\drivers/peripheral/gpio/cy_gpio.h ****                                                        (CY_GPIO_AMUX_GL      == (amuxConnect)) || \
 385:Generated_Source\PSoC6\pdl\drivers/peripheral/gpio/cy_gpio.h ****                                                        (CY_GPIO_AMUX_GR      == (amuxConnect)) || \
 386:Generated_Source\PSoC6\pdl\drivers/peripheral/gpio/cy_gpio.h ****                                                        (CY_GPIO_AMUX_GLR     == (amuxConnect)))
 387:Generated_Source\PSoC6\pdl\drivers/peripheral/gpio/cy_gpio.h **** 
 388:Generated_Source\PSoC6\pdl\drivers/peripheral/gpio/cy_gpio.h **** #define CY_GPIO_IS_AMUX_SELECT_VALID(amuxBus)       ((CY_GPIO_AMUXBUSA       == (amuxBus)) || \
 389:Generated_Source\PSoC6\pdl\drivers/peripheral/gpio/cy_gpio.h ****                                                      (CY_GPIO_AMUXBUSB       == (amuxBus)))
 390:Generated_Source\PSoC6\pdl\drivers/peripheral/gpio/cy_gpio.h **** /** \endcond */
 391:Generated_Source\PSoC6\pdl\drivers/peripheral/gpio/cy_gpio.h **** 
 392:Generated_Source\PSoC6\pdl\drivers/peripheral/gpio/cy_gpio.h **** 
 393:Generated_Source\PSoC6\pdl\drivers/peripheral/gpio/cy_gpio.h **** /***************************************
 394:Generated_Source\PSoC6\pdl\drivers/peripheral/gpio/cy_gpio.h **** *        Function Constants
 395:Generated_Source\PSoC6\pdl\drivers/peripheral/gpio/cy_gpio.h **** ***************************************/
 396:Generated_Source\PSoC6\pdl\drivers/peripheral/gpio/cy_gpio.h **** 
 397:Generated_Source\PSoC6\pdl\drivers/peripheral/gpio/cy_gpio.h **** /**
 398:Generated_Source\PSoC6\pdl\drivers/peripheral/gpio/cy_gpio.h **** * \addtogroup group_gpio_macros
 399:Generated_Source\PSoC6\pdl\drivers/peripheral/gpio/cy_gpio.h **** * \{
 400:Generated_Source\PSoC6\pdl\drivers/peripheral/gpio/cy_gpio.h **** */
 401:Generated_Source\PSoC6\pdl\drivers/peripheral/gpio/cy_gpio.h **** 
 402:Generated_Source\PSoC6\pdl\drivers/peripheral/gpio/cy_gpio.h **** /**
 403:Generated_Source\PSoC6\pdl\drivers/peripheral/gpio/cy_gpio.h **** * \defgroup group_gpio_driveModes Pin drive mode
 404:Generated_Source\PSoC6\pdl\drivers/peripheral/gpio/cy_gpio.h **** * \{
 405:Generated_Source\PSoC6\pdl\drivers/peripheral/gpio/cy_gpio.h **** * Constants to be used for setting the drive mode of the pin.
 406:Generated_Source\PSoC6\pdl\drivers/peripheral/gpio/cy_gpio.h **** */
 407:Generated_Source\PSoC6\pdl\drivers/peripheral/gpio/cy_gpio.h **** #define CY_GPIO_DM_ANALOG                      (0x00UL) /**< Analog High-Z. Input buffer off */
 408:Generated_Source\PSoC6\pdl\drivers/peripheral/gpio/cy_gpio.h **** #define CY_GPIO_DM_PULLUP_IN_OFF               (0x02UL) /**< Resistive Pull-Up. Input buffer off */
 409:Generated_Source\PSoC6\pdl\drivers/peripheral/gpio/cy_gpio.h **** #define CY_GPIO_DM_PULLDOWN_IN_OFF             (0x03UL) /**< Resistive Pull-Down. Input buffer off 
 410:Generated_Source\PSoC6\pdl\drivers/peripheral/gpio/cy_gpio.h **** #define CY_GPIO_DM_OD_DRIVESLOW_IN_OFF         (0x04UL) /**< Open Drain, Drives Low. Input buffer o
 411:Generated_Source\PSoC6\pdl\drivers/peripheral/gpio/cy_gpio.h **** #define CY_GPIO_DM_OD_DRIVESHIGH_IN_OFF        (0x05UL) /**< Open Drain, Drives High. Input buffer 
ARM GAS  C:\Users\Mahrukh\AppData\Local\Temp\ccJcQtli.s 			page 36


 412:Generated_Source\PSoC6\pdl\drivers/peripheral/gpio/cy_gpio.h **** #define CY_GPIO_DM_STRONG_IN_OFF               (0x06UL) /**< Strong Drive. Input buffer off */
 413:Generated_Source\PSoC6\pdl\drivers/peripheral/gpio/cy_gpio.h **** #define CY_GPIO_DM_PULLUP_DOWN_IN_OFF          (0x07UL) /**< Resistive Pull-Up/Down. Input buffer o
 414:Generated_Source\PSoC6\pdl\drivers/peripheral/gpio/cy_gpio.h **** #define CY_GPIO_DM_HIGHZ                       (0x08UL) /**< Digital High-Z. Input buffer on */
 415:Generated_Source\PSoC6\pdl\drivers/peripheral/gpio/cy_gpio.h **** #define CY_GPIO_DM_PULLUP                      (0x0AUL) /**< Resistive Pull-Up. Input buffer on */
 416:Generated_Source\PSoC6\pdl\drivers/peripheral/gpio/cy_gpio.h **** #define CY_GPIO_DM_PULLDOWN                    (0x0BUL) /**< Resistive Pull-Down. Input buffer on *
 417:Generated_Source\PSoC6\pdl\drivers/peripheral/gpio/cy_gpio.h **** #define CY_GPIO_DM_OD_DRIVESLOW                (0x0CUL) /**< Open Drain, Drives Low. Input buffer o
 418:Generated_Source\PSoC6\pdl\drivers/peripheral/gpio/cy_gpio.h **** #define CY_GPIO_DM_OD_DRIVESHIGH               (0x0DUL) /**< Open Drain, Drives High. Input buffer 
 419:Generated_Source\PSoC6\pdl\drivers/peripheral/gpio/cy_gpio.h **** #define CY_GPIO_DM_STRONG                      (0x0EUL) /**< Strong Drive. Input buffer on */
 420:Generated_Source\PSoC6\pdl\drivers/peripheral/gpio/cy_gpio.h **** #define CY_GPIO_DM_PULLUP_DOWN                 (0x0FUL) /**< Resistive Pull-Up/Down. Input buffer o
 421:Generated_Source\PSoC6\pdl\drivers/peripheral/gpio/cy_gpio.h **** /** \} */
 422:Generated_Source\PSoC6\pdl\drivers/peripheral/gpio/cy_gpio.h **** 
 423:Generated_Source\PSoC6\pdl\drivers/peripheral/gpio/cy_gpio.h **** /**
 424:Generated_Source\PSoC6\pdl\drivers/peripheral/gpio/cy_gpio.h **** * \defgroup group_gpio_vtrip Voltage trip mode
 425:Generated_Source\PSoC6\pdl\drivers/peripheral/gpio/cy_gpio.h **** * \{
 426:Generated_Source\PSoC6\pdl\drivers/peripheral/gpio/cy_gpio.h **** * Constants to be used for setting the voltage trip type on the pin.
 427:Generated_Source\PSoC6\pdl\drivers/peripheral/gpio/cy_gpio.h **** */
 428:Generated_Source\PSoC6\pdl\drivers/peripheral/gpio/cy_gpio.h **** #define CY_GPIO_VTRIP_CMOS                     (0x00UL) /**< Input buffer compatible with CMOS and 
 429:Generated_Source\PSoC6\pdl\drivers/peripheral/gpio/cy_gpio.h **** #define CY_GPIO_VTRIP_TTL                      (0x01UL) /**< Input buffer compatible with TTL and M
 430:Generated_Source\PSoC6\pdl\drivers/peripheral/gpio/cy_gpio.h **** /** \} */
 431:Generated_Source\PSoC6\pdl\drivers/peripheral/gpio/cy_gpio.h **** 
 432:Generated_Source\PSoC6\pdl\drivers/peripheral/gpio/cy_gpio.h **** /**
 433:Generated_Source\PSoC6\pdl\drivers/peripheral/gpio/cy_gpio.h **** * \defgroup group_gpio_slewRate Slew Rate Mode
 434:Generated_Source\PSoC6\pdl\drivers/peripheral/gpio/cy_gpio.h **** * \{
 435:Generated_Source\PSoC6\pdl\drivers/peripheral/gpio/cy_gpio.h **** * Constants to be used for setting the slew rate of the pin.
 436:Generated_Source\PSoC6\pdl\drivers/peripheral/gpio/cy_gpio.h **** */
 437:Generated_Source\PSoC6\pdl\drivers/peripheral/gpio/cy_gpio.h **** #define CY_GPIO_SLEW_FAST                      (0x00UL) /**< Fast slew rate */
 438:Generated_Source\PSoC6\pdl\drivers/peripheral/gpio/cy_gpio.h **** #define CY_GPIO_SLEW_SLOW                      (0x01UL) /**< Slow slew rate */
 439:Generated_Source\PSoC6\pdl\drivers/peripheral/gpio/cy_gpio.h **** /** \} */
 440:Generated_Source\PSoC6\pdl\drivers/peripheral/gpio/cy_gpio.h **** 
 441:Generated_Source\PSoC6\pdl\drivers/peripheral/gpio/cy_gpio.h **** /**
 442:Generated_Source\PSoC6\pdl\drivers/peripheral/gpio/cy_gpio.h **** * \defgroup group_gpio_driveStrength Pin drive strength
 443:Generated_Source\PSoC6\pdl\drivers/peripheral/gpio/cy_gpio.h **** * \{
 444:Generated_Source\PSoC6\pdl\drivers/peripheral/gpio/cy_gpio.h **** * Constants to be used for setting the drive strength of the pin.
 445:Generated_Source\PSoC6\pdl\drivers/peripheral/gpio/cy_gpio.h **** */
 446:Generated_Source\PSoC6\pdl\drivers/peripheral/gpio/cy_gpio.h **** #define CY_GPIO_DRIVE_FULL                     (0x00UL) /**< Full drive strength: Max drive current
 447:Generated_Source\PSoC6\pdl\drivers/peripheral/gpio/cy_gpio.h **** #define CY_GPIO_DRIVE_1_2                      (0x01UL) /**< 1/2 drive strength: 1/2 drive current 
 448:Generated_Source\PSoC6\pdl\drivers/peripheral/gpio/cy_gpio.h **** #define CY_GPIO_DRIVE_1_4                      (0x02UL) /**< 1/4 drive strength: 1/4 drive current 
 449:Generated_Source\PSoC6\pdl\drivers/peripheral/gpio/cy_gpio.h **** #define CY_GPIO_DRIVE_1_8                      (0x03UL) /**< 1/8 drive strength: 1/8 drive current 
 450:Generated_Source\PSoC6\pdl\drivers/peripheral/gpio/cy_gpio.h **** /** \} */
 451:Generated_Source\PSoC6\pdl\drivers/peripheral/gpio/cy_gpio.h **** 
 452:Generated_Source\PSoC6\pdl\drivers/peripheral/gpio/cy_gpio.h **** /**
 453:Generated_Source\PSoC6\pdl\drivers/peripheral/gpio/cy_gpio.h **** * \defgroup group_gpio_interruptTrigger Interrupt trigger type
 454:Generated_Source\PSoC6\pdl\drivers/peripheral/gpio/cy_gpio.h **** * \{
 455:Generated_Source\PSoC6\pdl\drivers/peripheral/gpio/cy_gpio.h **** * Constants to be used for setting the interrupt trigger type on the pin.
 456:Generated_Source\PSoC6\pdl\drivers/peripheral/gpio/cy_gpio.h **** */
 457:Generated_Source\PSoC6\pdl\drivers/peripheral/gpio/cy_gpio.h **** #define CY_GPIO_INTR_DISABLE                   (0x00UL) /**< Disable the pin interrupt generation *
 458:Generated_Source\PSoC6\pdl\drivers/peripheral/gpio/cy_gpio.h **** #define CY_GPIO_INTR_RISING                    (0x01UL) /**< Rising-Edge interrupt */
 459:Generated_Source\PSoC6\pdl\drivers/peripheral/gpio/cy_gpio.h **** #define CY_GPIO_INTR_FALLING                   (0x02UL) /**< Falling-Edge interrupt */
 460:Generated_Source\PSoC6\pdl\drivers/peripheral/gpio/cy_gpio.h **** #define CY_GPIO_INTR_BOTH                      (0x03UL) /**< Both-Edge interrupt */
 461:Generated_Source\PSoC6\pdl\drivers/peripheral/gpio/cy_gpio.h **** /** \} */
 462:Generated_Source\PSoC6\pdl\drivers/peripheral/gpio/cy_gpio.h **** 
 463:Generated_Source\PSoC6\pdl\drivers/peripheral/gpio/cy_gpio.h **** /**
 464:Generated_Source\PSoC6\pdl\drivers/peripheral/gpio/cy_gpio.h **** * \defgroup group_gpio_sioVreg SIO output buffer mode
 465:Generated_Source\PSoC6\pdl\drivers/peripheral/gpio/cy_gpio.h **** * \{
 466:Generated_Source\PSoC6\pdl\drivers/peripheral/gpio/cy_gpio.h **** * Constants to be used for setting the SIO output buffer mode on the pin.
 467:Generated_Source\PSoC6\pdl\drivers/peripheral/gpio/cy_gpio.h **** */
 468:Generated_Source\PSoC6\pdl\drivers/peripheral/gpio/cy_gpio.h **** #define CY_SIO_VREG_UNREGULATED                (0x00UL) /**< Unregulated output buffer */
ARM GAS  C:\Users\Mahrukh\AppData\Local\Temp\ccJcQtli.s 			page 37


 469:Generated_Source\PSoC6\pdl\drivers/peripheral/gpio/cy_gpio.h **** #define CY_SIO_VREG_REGULATED                  (0x01UL) /**< Regulated output buffer */
 470:Generated_Source\PSoC6\pdl\drivers/peripheral/gpio/cy_gpio.h **** /** \} */
 471:Generated_Source\PSoC6\pdl\drivers/peripheral/gpio/cy_gpio.h **** 
 472:Generated_Source\PSoC6\pdl\drivers/peripheral/gpio/cy_gpio.h **** /**
 473:Generated_Source\PSoC6\pdl\drivers/peripheral/gpio/cy_gpio.h **** * \defgroup group_gpio_sioIbuf SIO input buffer mode
 474:Generated_Source\PSoC6\pdl\drivers/peripheral/gpio/cy_gpio.h **** * \{
 475:Generated_Source\PSoC6\pdl\drivers/peripheral/gpio/cy_gpio.h **** * Constants to be used for setting the SIO input buffer mode on the pin.
 476:Generated_Source\PSoC6\pdl\drivers/peripheral/gpio/cy_gpio.h **** */
 477:Generated_Source\PSoC6\pdl\drivers/peripheral/gpio/cy_gpio.h **** #define CY_SIO_IBUF_SINGLEENDED                (0x00UL) /**< Single ended input buffer */
 478:Generated_Source\PSoC6\pdl\drivers/peripheral/gpio/cy_gpio.h **** #define CY_SIO_IBUF_DIFFERENTIAL               (0x01UL) /**< Differential input buffer */
 479:Generated_Source\PSoC6\pdl\drivers/peripheral/gpio/cy_gpio.h **** /** \} */
 480:Generated_Source\PSoC6\pdl\drivers/peripheral/gpio/cy_gpio.h **** 
 481:Generated_Source\PSoC6\pdl\drivers/peripheral/gpio/cy_gpio.h **** /**
 482:Generated_Source\PSoC6\pdl\drivers/peripheral/gpio/cy_gpio.h **** * \defgroup group_gpio_sioVtrip SIO input buffer trip-point
 483:Generated_Source\PSoC6\pdl\drivers/peripheral/gpio/cy_gpio.h **** * \{
 484:Generated_Source\PSoC6\pdl\drivers/peripheral/gpio/cy_gpio.h **** * Constants to be used for setting the SIO input buffer trip-point of the pin.
 485:Generated_Source\PSoC6\pdl\drivers/peripheral/gpio/cy_gpio.h **** */
 486:Generated_Source\PSoC6\pdl\drivers/peripheral/gpio/cy_gpio.h **** #define CY_SIO_VTRIP_CMOS                      (0x00UL) /**< CMOS input buffer (single-ended) */
 487:Generated_Source\PSoC6\pdl\drivers/peripheral/gpio/cy_gpio.h **** #define CY_SIO_VTRIP_TTL                       (0x01UL) /**< TTL input buffer (single-ended) */
 488:Generated_Source\PSoC6\pdl\drivers/peripheral/gpio/cy_gpio.h **** #define CY_SIO_VTRIP_0_5VDDIO_0_5VOH           (0x00UL) /**< 0.5xVddio or 0.5xVoh (differential) */
 489:Generated_Source\PSoC6\pdl\drivers/peripheral/gpio/cy_gpio.h **** #define CY_SIO_VTRIP_0_4VDDIO_1_0VREF          (0x01UL) /**< 0.4xVddio or 0.4xVoh (differential) */
 490:Generated_Source\PSoC6\pdl\drivers/peripheral/gpio/cy_gpio.h **** /** \} */
 491:Generated_Source\PSoC6\pdl\drivers/peripheral/gpio/cy_gpio.h **** 
 492:Generated_Source\PSoC6\pdl\drivers/peripheral/gpio/cy_gpio.h **** /**
 493:Generated_Source\PSoC6\pdl\drivers/peripheral/gpio/cy_gpio.h **** * \defgroup group_gpio_sioVref SIO reference voltage for input buffer trip-point
 494:Generated_Source\PSoC6\pdl\drivers/peripheral/gpio/cy_gpio.h **** * \{
 495:Generated_Source\PSoC6\pdl\drivers/peripheral/gpio/cy_gpio.h **** * Constants to be used for setting the reference voltage of SIO input buffer trip-point.
 496:Generated_Source\PSoC6\pdl\drivers/peripheral/gpio/cy_gpio.h **** */
 497:Generated_Source\PSoC6\pdl\drivers/peripheral/gpio/cy_gpio.h **** #define CY_SIO_VREF_PINREF                     (0x00UL) /**< Vref from analog pin */
 498:Generated_Source\PSoC6\pdl\drivers/peripheral/gpio/cy_gpio.h **** #define CY_SIO_VREF_1_2V                       (0x01UL) /**< Vref from internal 1.2V reference */
 499:Generated_Source\PSoC6\pdl\drivers/peripheral/gpio/cy_gpio.h **** #define CY_SIO_VREF_AMUX_A                     (0x02UL) /**< Vref from AMUXBUS_A */
 500:Generated_Source\PSoC6\pdl\drivers/peripheral/gpio/cy_gpio.h **** #define CY_SIO_VREF_AMUX_B                     (0x03UL) /**< Vref from AMUXBUS_B */
 501:Generated_Source\PSoC6\pdl\drivers/peripheral/gpio/cy_gpio.h **** /** \} */
 502:Generated_Source\PSoC6\pdl\drivers/peripheral/gpio/cy_gpio.h **** 
 503:Generated_Source\PSoC6\pdl\drivers/peripheral/gpio/cy_gpio.h **** /**
 504:Generated_Source\PSoC6\pdl\drivers/peripheral/gpio/cy_gpio.h **** * \defgroup group_gpio_sioVoh Regulated output voltage level (Voh) and input buffer trip-point of a
 505:Generated_Source\PSoC6\pdl\drivers/peripheral/gpio/cy_gpio.h **** * \{
 506:Generated_Source\PSoC6\pdl\drivers/peripheral/gpio/cy_gpio.h **** * Constants to be used for setting the Voh and input buffer trip-point of an SIO pair
 507:Generated_Source\PSoC6\pdl\drivers/peripheral/gpio/cy_gpio.h **** */
 508:Generated_Source\PSoC6\pdl\drivers/peripheral/gpio/cy_gpio.h **** #define CY_SIO_VOH_1_00                        (0x00UL) /**< Voh = 1 x Reference */
 509:Generated_Source\PSoC6\pdl\drivers/peripheral/gpio/cy_gpio.h **** #define CY_SIO_VOH_1_25                        (0x01UL) /**< Voh = 1.25 x Reference */
 510:Generated_Source\PSoC6\pdl\drivers/peripheral/gpio/cy_gpio.h **** #define CY_SIO_VOH_1_49                        (0x02UL) /**< Voh = 1.49 x Reference */
 511:Generated_Source\PSoC6\pdl\drivers/peripheral/gpio/cy_gpio.h **** #define CY_SIO_VOH_1_67                        (0x03UL) /**< Voh = 1.67 x Reference */
 512:Generated_Source\PSoC6\pdl\drivers/peripheral/gpio/cy_gpio.h **** #define CY_SIO_VOH_2_08                        (0x04UL) /**< Voh = 2.08 x Reference */
 513:Generated_Source\PSoC6\pdl\drivers/peripheral/gpio/cy_gpio.h **** #define CY_SIO_VOH_2_50                        (0x05UL) /**< Voh = 2.50 x Reference */
 514:Generated_Source\PSoC6\pdl\drivers/peripheral/gpio/cy_gpio.h **** #define CY_SIO_VOH_2_78                        (0x06UL) /**< Voh = 2.78 x Reference */
 515:Generated_Source\PSoC6\pdl\drivers/peripheral/gpio/cy_gpio.h **** #define CY_SIO_VOH_4_16                        (0x07UL) /**< Voh = 4.16 x Reference */
 516:Generated_Source\PSoC6\pdl\drivers/peripheral/gpio/cy_gpio.h **** /** \} */
 517:Generated_Source\PSoC6\pdl\drivers/peripheral/gpio/cy_gpio.h **** 
 518:Generated_Source\PSoC6\pdl\drivers/peripheral/gpio/cy_gpio.h **** /** \} group_gpio_macros */
 519:Generated_Source\PSoC6\pdl\drivers/peripheral/gpio/cy_gpio.h **** 
 520:Generated_Source\PSoC6\pdl\drivers/peripheral/gpio/cy_gpio.h **** /***************************************
 521:Generated_Source\PSoC6\pdl\drivers/peripheral/gpio/cy_gpio.h **** *        Function Prototypes
 522:Generated_Source\PSoC6\pdl\drivers/peripheral/gpio/cy_gpio.h **** ***************************************/
 523:Generated_Source\PSoC6\pdl\drivers/peripheral/gpio/cy_gpio.h **** 
 524:Generated_Source\PSoC6\pdl\drivers/peripheral/gpio/cy_gpio.h **** /**
 525:Generated_Source\PSoC6\pdl\drivers/peripheral/gpio/cy_gpio.h **** * \addtogroup group_gpio_functions
ARM GAS  C:\Users\Mahrukh\AppData\Local\Temp\ccJcQtli.s 			page 38


 526:Generated_Source\PSoC6\pdl\drivers/peripheral/gpio/cy_gpio.h **** * \{
 527:Generated_Source\PSoC6\pdl\drivers/peripheral/gpio/cy_gpio.h **** */
 528:Generated_Source\PSoC6\pdl\drivers/peripheral/gpio/cy_gpio.h **** 
 529:Generated_Source\PSoC6\pdl\drivers/peripheral/gpio/cy_gpio.h **** /**
 530:Generated_Source\PSoC6\pdl\drivers/peripheral/gpio/cy_gpio.h **** * \addtogroup group_gpio_functions_init
 531:Generated_Source\PSoC6\pdl\drivers/peripheral/gpio/cy_gpio.h **** * \{
 532:Generated_Source\PSoC6\pdl\drivers/peripheral/gpio/cy_gpio.h **** */
 533:Generated_Source\PSoC6\pdl\drivers/peripheral/gpio/cy_gpio.h **** 
 534:Generated_Source\PSoC6\pdl\drivers/peripheral/gpio/cy_gpio.h **** cy_en_gpio_status_t Cy_GPIO_Pin_Init(GPIO_PRT_Type* base, uint32_t pinNum, const cy_stc_gpio_pin_co
 535:Generated_Source\PSoC6\pdl\drivers/peripheral/gpio/cy_gpio.h **** cy_en_gpio_status_t Cy_GPIO_Port_Init(GPIO_PRT_Type* base, const cy_stc_gpio_prt_config_t *config);
 536:Generated_Source\PSoC6\pdl\drivers/peripheral/gpio/cy_gpio.h **** void Cy_GPIO_Pin_FastInit(GPIO_PRT_Type* base, uint32_t pinNum, uint32_t driveMode, uint32_t outVal
 537:Generated_Source\PSoC6\pdl\drivers/peripheral/gpio/cy_gpio.h **** void Cy_GPIO_Port_Deinit(GPIO_PRT_Type* base);
 538:Generated_Source\PSoC6\pdl\drivers/peripheral/gpio/cy_gpio.h **** __STATIC_INLINE void Cy_GPIO_SetHSIOM(GPIO_PRT_Type* base, uint32_t pinNum, en_hsiom_sel_t value);
 539:Generated_Source\PSoC6\pdl\drivers/peripheral/gpio/cy_gpio.h **** __STATIC_INLINE en_hsiom_sel_t Cy_GPIO_GetHSIOM(GPIO_PRT_Type* base, uint32_t pinNum);
 540:Generated_Source\PSoC6\pdl\drivers/peripheral/gpio/cy_gpio.h **** __STATIC_INLINE GPIO_PRT_Type* Cy_GPIO_PortToAddr(uint32_t portNum);
 541:Generated_Source\PSoC6\pdl\drivers/peripheral/gpio/cy_gpio.h **** 
 542:Generated_Source\PSoC6\pdl\drivers/peripheral/gpio/cy_gpio.h **** /** \} group_gpio_functions_init */
 543:Generated_Source\PSoC6\pdl\drivers/peripheral/gpio/cy_gpio.h **** 
 544:Generated_Source\PSoC6\pdl\drivers/peripheral/gpio/cy_gpio.h **** /**
 545:Generated_Source\PSoC6\pdl\drivers/peripheral/gpio/cy_gpio.h **** * \addtogroup group_gpio_functions_gpio
 546:Generated_Source\PSoC6\pdl\drivers/peripheral/gpio/cy_gpio.h **** * \{
 547:Generated_Source\PSoC6\pdl\drivers/peripheral/gpio/cy_gpio.h **** */
 548:Generated_Source\PSoC6\pdl\drivers/peripheral/gpio/cy_gpio.h **** 
 549:Generated_Source\PSoC6\pdl\drivers/peripheral/gpio/cy_gpio.h **** void Cy_GPIO_SetAmuxSplit(cy_en_amux_split_t switchCtrl, cy_en_gpio_amuxconnect_t amuxConnect, cy_e
 550:Generated_Source\PSoC6\pdl\drivers/peripheral/gpio/cy_gpio.h **** cy_en_gpio_amuxconnect_t Cy_GPIO_GetAmuxSplit(cy_en_amux_split_t switchCtrl, cy_en_gpio_amuxselect_
 551:Generated_Source\PSoC6\pdl\drivers/peripheral/gpio/cy_gpio.h **** 
 552:Generated_Source\PSoC6\pdl\drivers/peripheral/gpio/cy_gpio.h **** __STATIC_INLINE uint32_t Cy_GPIO_Read(GPIO_PRT_Type* base, uint32_t pinNum);
 553:Generated_Source\PSoC6\pdl\drivers/peripheral/gpio/cy_gpio.h **** __STATIC_INLINE void Cy_GPIO_Write(GPIO_PRT_Type* base, uint32_t pinNum, uint32_t value);
 554:Generated_Source\PSoC6\pdl\drivers/peripheral/gpio/cy_gpio.h **** __STATIC_INLINE uint32_t Cy_GPIO_ReadOut(GPIO_PRT_Type* base, uint32_t pinNum);
 555:Generated_Source\PSoC6\pdl\drivers/peripheral/gpio/cy_gpio.h **** __STATIC_INLINE void Cy_GPIO_Set(GPIO_PRT_Type* base, uint32_t pinNum);
 556:Generated_Source\PSoC6\pdl\drivers/peripheral/gpio/cy_gpio.h **** __STATIC_INLINE void Cy_GPIO_Clr(GPIO_PRT_Type* base, uint32_t pinNum);
 557:Generated_Source\PSoC6\pdl\drivers/peripheral/gpio/cy_gpio.h **** __STATIC_INLINE void Cy_GPIO_Inv(GPIO_PRT_Type* base, uint32_t pinNum);
 558:Generated_Source\PSoC6\pdl\drivers/peripheral/gpio/cy_gpio.h **** __STATIC_INLINE void Cy_GPIO_SetDrivemode(GPIO_PRT_Type* base, uint32_t pinNum, uint32_t value);
 559:Generated_Source\PSoC6\pdl\drivers/peripheral/gpio/cy_gpio.h **** __STATIC_INLINE uint32_t Cy_GPIO_GetDrivemode(GPIO_PRT_Type* base, uint32_t pinNum);
 560:Generated_Source\PSoC6\pdl\drivers/peripheral/gpio/cy_gpio.h **** __STATIC_INLINE void Cy_GPIO_SetVtrip(GPIO_PRT_Type* base, uint32_t pinNum, uint32_t value);
 561:Generated_Source\PSoC6\pdl\drivers/peripheral/gpio/cy_gpio.h **** __STATIC_INLINE uint32_t Cy_GPIO_GetVtrip(GPIO_PRT_Type* base, uint32_t pinNum);
 562:Generated_Source\PSoC6\pdl\drivers/peripheral/gpio/cy_gpio.h **** __STATIC_INLINE void Cy_GPIO_SetSlewRate(GPIO_PRT_Type* base, uint32_t pinNum, uint32_t value);
 563:Generated_Source\PSoC6\pdl\drivers/peripheral/gpio/cy_gpio.h **** __STATIC_INLINE uint32_t Cy_GPIO_GetSlewRate(GPIO_PRT_Type* base, uint32_t pinNum);
 564:Generated_Source\PSoC6\pdl\drivers/peripheral/gpio/cy_gpio.h **** __STATIC_INLINE void Cy_GPIO_SetDriveSel(GPIO_PRT_Type* base, uint32_t pinNum, uint32_t value);
 565:Generated_Source\PSoC6\pdl\drivers/peripheral/gpio/cy_gpio.h **** __STATIC_INLINE uint32_t Cy_GPIO_GetDriveSel(GPIO_PRT_Type* base, uint32_t pinNum);
 566:Generated_Source\PSoC6\pdl\drivers/peripheral/gpio/cy_gpio.h **** 
 567:Generated_Source\PSoC6\pdl\drivers/peripheral/gpio/cy_gpio.h **** /** \} group_gpio_functions_gpio */
 568:Generated_Source\PSoC6\pdl\drivers/peripheral/gpio/cy_gpio.h **** 
 569:Generated_Source\PSoC6\pdl\drivers/peripheral/gpio/cy_gpio.h **** /**
 570:Generated_Source\PSoC6\pdl\drivers/peripheral/gpio/cy_gpio.h **** * \addtogroup group_gpio_functions_sio
 571:Generated_Source\PSoC6\pdl\drivers/peripheral/gpio/cy_gpio.h **** * \{
 572:Generated_Source\PSoC6\pdl\drivers/peripheral/gpio/cy_gpio.h **** */
 573:Generated_Source\PSoC6\pdl\drivers/peripheral/gpio/cy_gpio.h **** 
 574:Generated_Source\PSoC6\pdl\drivers/peripheral/gpio/cy_gpio.h **** __STATIC_INLINE void Cy_GPIO_SetVregEn(GPIO_PRT_Type* base, uint32_t pinNum, uint32_t value);
 575:Generated_Source\PSoC6\pdl\drivers/peripheral/gpio/cy_gpio.h **** __STATIC_INLINE uint32_t Cy_GPIO_GetVregEn(GPIO_PRT_Type* base, uint32_t pinNum);
 576:Generated_Source\PSoC6\pdl\drivers/peripheral/gpio/cy_gpio.h **** __STATIC_INLINE void Cy_GPIO_SetIbufMode(GPIO_PRT_Type* base, uint32_t pinNum, uint32_t value);
 577:Generated_Source\PSoC6\pdl\drivers/peripheral/gpio/cy_gpio.h **** __STATIC_INLINE uint32_t Cy_GPIO_GetIbufMode(GPIO_PRT_Type* base, uint32_t pinNum);
 578:Generated_Source\PSoC6\pdl\drivers/peripheral/gpio/cy_gpio.h **** __STATIC_INLINE void Cy_GPIO_SetVtripSel(GPIO_PRT_Type* base, uint32_t pinNum, uint32_t value);
 579:Generated_Source\PSoC6\pdl\drivers/peripheral/gpio/cy_gpio.h **** __STATIC_INLINE uint32_t Cy_GPIO_GetVtripSel(GPIO_PRT_Type* base, uint32_t pinNum);
 580:Generated_Source\PSoC6\pdl\drivers/peripheral/gpio/cy_gpio.h **** __STATIC_INLINE void Cy_GPIO_SetVrefSel(GPIO_PRT_Type* base, uint32_t pinNum, uint32_t value);
 581:Generated_Source\PSoC6\pdl\drivers/peripheral/gpio/cy_gpio.h **** __STATIC_INLINE uint32_t Cy_GPIO_GetVrefSel(GPIO_PRT_Type* base, uint32_t pinNum);
 582:Generated_Source\PSoC6\pdl\drivers/peripheral/gpio/cy_gpio.h **** __STATIC_INLINE void Cy_GPIO_SetVohSel(GPIO_PRT_Type* base, uint32_t pinNum, uint32_t value);
ARM GAS  C:\Users\Mahrukh\AppData\Local\Temp\ccJcQtli.s 			page 39


 583:Generated_Source\PSoC6\pdl\drivers/peripheral/gpio/cy_gpio.h **** __STATIC_INLINE uint32_t Cy_GPIO_GetVohSel(GPIO_PRT_Type* base, uint32_t pinNum);
 584:Generated_Source\PSoC6\pdl\drivers/peripheral/gpio/cy_gpio.h **** 
 585:Generated_Source\PSoC6\pdl\drivers/peripheral/gpio/cy_gpio.h **** /** \} group_gpio_functions_sio */
 586:Generated_Source\PSoC6\pdl\drivers/peripheral/gpio/cy_gpio.h **** 
 587:Generated_Source\PSoC6\pdl\drivers/peripheral/gpio/cy_gpio.h **** /**
 588:Generated_Source\PSoC6\pdl\drivers/peripheral/gpio/cy_gpio.h **** * \addtogroup group_gpio_functions_interrupt
 589:Generated_Source\PSoC6\pdl\drivers/peripheral/gpio/cy_gpio.h **** * \{
 590:Generated_Source\PSoC6\pdl\drivers/peripheral/gpio/cy_gpio.h **** */
 591:Generated_Source\PSoC6\pdl\drivers/peripheral/gpio/cy_gpio.h **** 
 592:Generated_Source\PSoC6\pdl\drivers/peripheral/gpio/cy_gpio.h **** __STATIC_INLINE uint32_t Cy_GPIO_GetInterruptStatus(GPIO_PRT_Type* base, uint32_t pinNum);
 593:Generated_Source\PSoC6\pdl\drivers/peripheral/gpio/cy_gpio.h **** __STATIC_INLINE void Cy_GPIO_ClearInterrupt(GPIO_PRT_Type* base, uint32_t pinNum);
 594:Generated_Source\PSoC6\pdl\drivers/peripheral/gpio/cy_gpio.h **** __STATIC_INLINE void Cy_GPIO_SetInterruptMask(GPIO_PRT_Type* base, uint32_t pinNum, uint32_t value)
 595:Generated_Source\PSoC6\pdl\drivers/peripheral/gpio/cy_gpio.h **** __STATIC_INLINE uint32_t Cy_GPIO_GetInterruptMask(GPIO_PRT_Type* base, uint32_t pinNum);
 596:Generated_Source\PSoC6\pdl\drivers/peripheral/gpio/cy_gpio.h **** __STATIC_INLINE uint32_t Cy_GPIO_GetInterruptStatusMasked(GPIO_PRT_Type* base, uint32_t pinNum);
 597:Generated_Source\PSoC6\pdl\drivers/peripheral/gpio/cy_gpio.h **** __STATIC_INLINE void Cy_GPIO_SetSwInterrupt(GPIO_PRT_Type* base, uint32_t pinNum);
 598:Generated_Source\PSoC6\pdl\drivers/peripheral/gpio/cy_gpio.h **** __STATIC_INLINE void Cy_GPIO_SetInterruptEdge(GPIO_PRT_Type* base, uint32_t pinNum, uint32_t value)
 599:Generated_Source\PSoC6\pdl\drivers/peripheral/gpio/cy_gpio.h **** __STATIC_INLINE uint32_t Cy_GPIO_GetInterruptEdge(GPIO_PRT_Type* base, uint32_t pinNum);
 600:Generated_Source\PSoC6\pdl\drivers/peripheral/gpio/cy_gpio.h **** __STATIC_INLINE void Cy_GPIO_SetFilter(GPIO_PRT_Type* base, uint32_t value);
 601:Generated_Source\PSoC6\pdl\drivers/peripheral/gpio/cy_gpio.h **** __STATIC_INLINE uint32_t Cy_GPIO_GetFilter(GPIO_PRT_Type* base);
 602:Generated_Source\PSoC6\pdl\drivers/peripheral/gpio/cy_gpio.h **** 
 603:Generated_Source\PSoC6\pdl\drivers/peripheral/gpio/cy_gpio.h **** __STATIC_INLINE uint32_t Cy_GPIO_GetInterruptCause0(void);
 604:Generated_Source\PSoC6\pdl\drivers/peripheral/gpio/cy_gpio.h **** __STATIC_INLINE uint32_t Cy_GPIO_GetInterruptCause1(void);
 605:Generated_Source\PSoC6\pdl\drivers/peripheral/gpio/cy_gpio.h **** __STATIC_INLINE uint32_t Cy_GPIO_GetInterruptCause2(void);
 606:Generated_Source\PSoC6\pdl\drivers/peripheral/gpio/cy_gpio.h **** __STATIC_INLINE uint32_t Cy_GPIO_GetInterruptCause3(void);
 607:Generated_Source\PSoC6\pdl\drivers/peripheral/gpio/cy_gpio.h **** 
 608:Generated_Source\PSoC6\pdl\drivers/peripheral/gpio/cy_gpio.h **** /** \} group_gpio_functions_interrupt */
 609:Generated_Source\PSoC6\pdl\drivers/peripheral/gpio/cy_gpio.h **** 
 610:Generated_Source\PSoC6\pdl\drivers/peripheral/gpio/cy_gpio.h **** 
 611:Generated_Source\PSoC6\pdl\drivers/peripheral/gpio/cy_gpio.h **** /**
 612:Generated_Source\PSoC6\pdl\drivers/peripheral/gpio/cy_gpio.h **** * \addtogroup group_gpio_functions_init
 613:Generated_Source\PSoC6\pdl\drivers/peripheral/gpio/cy_gpio.h **** * \{
 614:Generated_Source\PSoC6\pdl\drivers/peripheral/gpio/cy_gpio.h **** */
 615:Generated_Source\PSoC6\pdl\drivers/peripheral/gpio/cy_gpio.h **** 
 616:Generated_Source\PSoC6\pdl\drivers/peripheral/gpio/cy_gpio.h **** /*******************************************************************************
 617:Generated_Source\PSoC6\pdl\drivers/peripheral/gpio/cy_gpio.h **** * Function Name: Cy_GPIO_SetHSIOM
 618:Generated_Source\PSoC6\pdl\drivers/peripheral/gpio/cy_gpio.h **** ****************************************************************************//**
 619:Generated_Source\PSoC6\pdl\drivers/peripheral/gpio/cy_gpio.h **** *
 620:Generated_Source\PSoC6\pdl\drivers/peripheral/gpio/cy_gpio.h **** * Configures the HSIOM connection to the pin.
 621:Generated_Source\PSoC6\pdl\drivers/peripheral/gpio/cy_gpio.h **** *
 622:Generated_Source\PSoC6\pdl\drivers/peripheral/gpio/cy_gpio.h **** * Connects the specified High-Speed Input Output Multiplexer (HSIOM) selection
 623:Generated_Source\PSoC6\pdl\drivers/peripheral/gpio/cy_gpio.h **** * to the pin.
 624:Generated_Source\PSoC6\pdl\drivers/peripheral/gpio/cy_gpio.h **** *
 625:Generated_Source\PSoC6\pdl\drivers/peripheral/gpio/cy_gpio.h **** * \param base
 626:Generated_Source\PSoC6\pdl\drivers/peripheral/gpio/cy_gpio.h **** * Pointer to the pin's port register base address
 627:Generated_Source\PSoC6\pdl\drivers/peripheral/gpio/cy_gpio.h **** *
 628:Generated_Source\PSoC6\pdl\drivers/peripheral/gpio/cy_gpio.h **** * \param pinNum
 629:Generated_Source\PSoC6\pdl\drivers/peripheral/gpio/cy_gpio.h **** * Position of the pin bit-field within the port register
 630:Generated_Source\PSoC6\pdl\drivers/peripheral/gpio/cy_gpio.h **** *
 631:Generated_Source\PSoC6\pdl\drivers/peripheral/gpio/cy_gpio.h **** * \param value
 632:Generated_Source\PSoC6\pdl\drivers/peripheral/gpio/cy_gpio.h **** * HSIOM input selection
 633:Generated_Source\PSoC6\pdl\drivers/peripheral/gpio/cy_gpio.h **** *
 634:Generated_Source\PSoC6\pdl\drivers/peripheral/gpio/cy_gpio.h **** * \note 
 635:Generated_Source\PSoC6\pdl\drivers/peripheral/gpio/cy_gpio.h **** * This function modifies a port register in a read-modify-write operation. It is
 636:Generated_Source\PSoC6\pdl\drivers/peripheral/gpio/cy_gpio.h **** * not thread safe as the resource is shared among multiple pins on a port.
 637:Generated_Source\PSoC6\pdl\drivers/peripheral/gpio/cy_gpio.h **** *
 638:Generated_Source\PSoC6\pdl\drivers/peripheral/gpio/cy_gpio.h **** * \funcusage
 639:Generated_Source\PSoC6\pdl\drivers/peripheral/gpio/cy_gpio.h **** * \snippet gpio/gpio_v1_10_sut_01.cydsn/main_cm4.c snippet_Cy_GPIO_SetHSIOM
ARM GAS  C:\Users\Mahrukh\AppData\Local\Temp\ccJcQtli.s 			page 40


 640:Generated_Source\PSoC6\pdl\drivers/peripheral/gpio/cy_gpio.h **** *
 641:Generated_Source\PSoC6\pdl\drivers/peripheral/gpio/cy_gpio.h **** *******************************************************************************/
 642:Generated_Source\PSoC6\pdl\drivers/peripheral/gpio/cy_gpio.h **** __STATIC_INLINE void Cy_GPIO_SetHSIOM(GPIO_PRT_Type* base, uint32_t pinNum, en_hsiom_sel_t value)
 643:Generated_Source\PSoC6\pdl\drivers/peripheral/gpio/cy_gpio.h **** {
 644:Generated_Source\PSoC6\pdl\drivers/peripheral/gpio/cy_gpio.h ****     uint32_t portNum;
 645:Generated_Source\PSoC6\pdl\drivers/peripheral/gpio/cy_gpio.h ****     uint32_t tempReg;
 646:Generated_Source\PSoC6\pdl\drivers/peripheral/gpio/cy_gpio.h ****     HSIOM_PRT_V1_Type* portAddrHSIOM;
 647:Generated_Source\PSoC6\pdl\drivers/peripheral/gpio/cy_gpio.h **** 
 648:Generated_Source\PSoC6\pdl\drivers/peripheral/gpio/cy_gpio.h ****     CY_ASSERT_L2(CY_GPIO_IS_PIN_VALID(pinNum));
 649:Generated_Source\PSoC6\pdl\drivers/peripheral/gpio/cy_gpio.h ****     CY_ASSERT_L2(CY_GPIO_IS_HSIOM_VALID(value));
 650:Generated_Source\PSoC6\pdl\drivers/peripheral/gpio/cy_gpio.h **** 
 651:Generated_Source\PSoC6\pdl\drivers/peripheral/gpio/cy_gpio.h ****     portNum = ((uint32_t)(base) - CY_GPIO_BASE) / GPIO_PRT_SECTION_SIZE;
 652:Generated_Source\PSoC6\pdl\drivers/peripheral/gpio/cy_gpio.h ****     portAddrHSIOM = (HSIOM_PRT_V1_Type*)(CY_HSIOM_BASE + (HSIOM_PRT_SECTION_SIZE * portNum));
 653:Generated_Source\PSoC6\pdl\drivers/peripheral/gpio/cy_gpio.h **** 
 654:Generated_Source\PSoC6\pdl\drivers/peripheral/gpio/cy_gpio.h ****     if(pinNum < CY_GPIO_PRT_HALF)
 655:Generated_Source\PSoC6\pdl\drivers/peripheral/gpio/cy_gpio.h ****     {
 656:Generated_Source\PSoC6\pdl\drivers/peripheral/gpio/cy_gpio.h ****         tempReg = HSIOM_PRT_PORT_SEL0(portAddrHSIOM) & ~(CY_GPIO_HSIOM_MASK << (pinNum << CY_GPIO_H
 657:Generated_Source\PSoC6\pdl\drivers/peripheral/gpio/cy_gpio.h ****         HSIOM_PRT_PORT_SEL0(portAddrHSIOM) = tempReg | ((value & CY_GPIO_HSIOM_MASK) << (pinNum << 
 658:Generated_Source\PSoC6\pdl\drivers/peripheral/gpio/cy_gpio.h ****     }
 659:Generated_Source\PSoC6\pdl\drivers/peripheral/gpio/cy_gpio.h ****     else
 660:Generated_Source\PSoC6\pdl\drivers/peripheral/gpio/cy_gpio.h ****     {
 661:Generated_Source\PSoC6\pdl\drivers/peripheral/gpio/cy_gpio.h ****         pinNum -= CY_GPIO_PRT_HALF;
 662:Generated_Source\PSoC6\pdl\drivers/peripheral/gpio/cy_gpio.h ****         tempReg = HSIOM_PRT_PORT_SEL1(portAddrHSIOM) & ~(CY_GPIO_HSIOM_MASK << (pinNum << CY_GPIO_H
 663:Generated_Source\PSoC6\pdl\drivers/peripheral/gpio/cy_gpio.h ****         HSIOM_PRT_PORT_SEL1(portAddrHSIOM) = tempReg | ((value & CY_GPIO_HSIOM_MASK) << (pinNum << 
 664:Generated_Source\PSoC6\pdl\drivers/peripheral/gpio/cy_gpio.h ****     }
 665:Generated_Source\PSoC6\pdl\drivers/peripheral/gpio/cy_gpio.h **** }
 666:Generated_Source\PSoC6\pdl\drivers/peripheral/gpio/cy_gpio.h **** 
 667:Generated_Source\PSoC6\pdl\drivers/peripheral/gpio/cy_gpio.h **** 
 668:Generated_Source\PSoC6\pdl\drivers/peripheral/gpio/cy_gpio.h **** /*******************************************************************************
 669:Generated_Source\PSoC6\pdl\drivers/peripheral/gpio/cy_gpio.h **** * Function Name: Cy_GPIO_GetHSIOM
 670:Generated_Source\PSoC6\pdl\drivers/peripheral/gpio/cy_gpio.h **** ****************************************************************************//**
 671:Generated_Source\PSoC6\pdl\drivers/peripheral/gpio/cy_gpio.h **** *
 672:Generated_Source\PSoC6\pdl\drivers/peripheral/gpio/cy_gpio.h **** * Returns the current HSIOM multiplexer connection to the pin.
 673:Generated_Source\PSoC6\pdl\drivers/peripheral/gpio/cy_gpio.h **** *
 674:Generated_Source\PSoC6\pdl\drivers/peripheral/gpio/cy_gpio.h **** * \param base
 675:Generated_Source\PSoC6\pdl\drivers/peripheral/gpio/cy_gpio.h **** * Pointer to the pin's port register base address
 676:Generated_Source\PSoC6\pdl\drivers/peripheral/gpio/cy_gpio.h **** *
 677:Generated_Source\PSoC6\pdl\drivers/peripheral/gpio/cy_gpio.h **** * \param pinNum
 678:Generated_Source\PSoC6\pdl\drivers/peripheral/gpio/cy_gpio.h **** * Position of the pin bit-field within the port register
 679:Generated_Source\PSoC6\pdl\drivers/peripheral/gpio/cy_gpio.h **** *
 680:Generated_Source\PSoC6\pdl\drivers/peripheral/gpio/cy_gpio.h **** * \return
 681:Generated_Source\PSoC6\pdl\drivers/peripheral/gpio/cy_gpio.h **** * HSIOM input selection
 682:Generated_Source\PSoC6\pdl\drivers/peripheral/gpio/cy_gpio.h **** *
 683:Generated_Source\PSoC6\pdl\drivers/peripheral/gpio/cy_gpio.h **** * \funcusage
 684:Generated_Source\PSoC6\pdl\drivers/peripheral/gpio/cy_gpio.h **** * \snippet gpio/gpio_v1_10_sut_01.cydsn/main_cm4.c snippet_Cy_GPIO_SetHSIOM
 685:Generated_Source\PSoC6\pdl\drivers/peripheral/gpio/cy_gpio.h **** *
 686:Generated_Source\PSoC6\pdl\drivers/peripheral/gpio/cy_gpio.h **** *******************************************************************************/
 687:Generated_Source\PSoC6\pdl\drivers/peripheral/gpio/cy_gpio.h **** __STATIC_INLINE en_hsiom_sel_t Cy_GPIO_GetHSIOM(GPIO_PRT_Type* base, uint32_t pinNum)
 688:Generated_Source\PSoC6\pdl\drivers/peripheral/gpio/cy_gpio.h **** {
 689:Generated_Source\PSoC6\pdl\drivers/peripheral/gpio/cy_gpio.h ****     uint32_t returnValue;
 690:Generated_Source\PSoC6\pdl\drivers/peripheral/gpio/cy_gpio.h ****     uint32_t portNum;
 691:Generated_Source\PSoC6\pdl\drivers/peripheral/gpio/cy_gpio.h ****     HSIOM_PRT_V1_Type* portAddrHSIOM;
 692:Generated_Source\PSoC6\pdl\drivers/peripheral/gpio/cy_gpio.h ****     
 693:Generated_Source\PSoC6\pdl\drivers/peripheral/gpio/cy_gpio.h ****     CY_ASSERT_L2(CY_GPIO_IS_PIN_VALID(pinNum));
 694:Generated_Source\PSoC6\pdl\drivers/peripheral/gpio/cy_gpio.h **** 
 695:Generated_Source\PSoC6\pdl\drivers/peripheral/gpio/cy_gpio.h ****     portNum = ((uint32_t)(base) - CY_GPIO_BASE) / GPIO_PRT_SECTION_SIZE;
 696:Generated_Source\PSoC6\pdl\drivers/peripheral/gpio/cy_gpio.h ****     portAddrHSIOM = (HSIOM_PRT_V1_Type*)(CY_HSIOM_BASE + (HSIOM_PRT_SECTION_SIZE * portNum));
ARM GAS  C:\Users\Mahrukh\AppData\Local\Temp\ccJcQtli.s 			page 41


 697:Generated_Source\PSoC6\pdl\drivers/peripheral/gpio/cy_gpio.h **** 
 698:Generated_Source\PSoC6\pdl\drivers/peripheral/gpio/cy_gpio.h ****     if(pinNum < CY_GPIO_PRT_HALF)
 699:Generated_Source\PSoC6\pdl\drivers/peripheral/gpio/cy_gpio.h ****     {
 700:Generated_Source\PSoC6\pdl\drivers/peripheral/gpio/cy_gpio.h ****         returnValue = (HSIOM_PRT_PORT_SEL0(portAddrHSIOM) >> (pinNum << CY_GPIO_HSIOM_OFFSET)) & CY
 701:Generated_Source\PSoC6\pdl\drivers/peripheral/gpio/cy_gpio.h ****     }
 702:Generated_Source\PSoC6\pdl\drivers/peripheral/gpio/cy_gpio.h ****     else
 703:Generated_Source\PSoC6\pdl\drivers/peripheral/gpio/cy_gpio.h ****     {
 704:Generated_Source\PSoC6\pdl\drivers/peripheral/gpio/cy_gpio.h ****         pinNum -= CY_GPIO_PRT_HALF;
 705:Generated_Source\PSoC6\pdl\drivers/peripheral/gpio/cy_gpio.h ****         returnValue = (HSIOM_PRT_PORT_SEL1(portAddrHSIOM) >> (pinNum << CY_GPIO_HSIOM_OFFSET)) & CY
 706:Generated_Source\PSoC6\pdl\drivers/peripheral/gpio/cy_gpio.h ****     }
 707:Generated_Source\PSoC6\pdl\drivers/peripheral/gpio/cy_gpio.h **** 
 708:Generated_Source\PSoC6\pdl\drivers/peripheral/gpio/cy_gpio.h ****     return (en_hsiom_sel_t)returnValue;
 709:Generated_Source\PSoC6\pdl\drivers/peripheral/gpio/cy_gpio.h **** }
 710:Generated_Source\PSoC6\pdl\drivers/peripheral/gpio/cy_gpio.h **** 
 711:Generated_Source\PSoC6\pdl\drivers/peripheral/gpio/cy_gpio.h **** 
 712:Generated_Source\PSoC6\pdl\drivers/peripheral/gpio/cy_gpio.h **** /*******************************************************************************
 713:Generated_Source\PSoC6\pdl\drivers/peripheral/gpio/cy_gpio.h **** * Function Name: Cy_GPIO_PortToAddr
 714:Generated_Source\PSoC6\pdl\drivers/peripheral/gpio/cy_gpio.h **** ****************************************************************************//**
 715:Generated_Source\PSoC6\pdl\drivers/peripheral/gpio/cy_gpio.h **** *
 716:Generated_Source\PSoC6\pdl\drivers/peripheral/gpio/cy_gpio.h **** * Retrieves the port address based on the given port number.
 717:Generated_Source\PSoC6\pdl\drivers/peripheral/gpio/cy_gpio.h **** *
 718:Generated_Source\PSoC6\pdl\drivers/peripheral/gpio/cy_gpio.h **** * This is a helper function to calculate the port base address when given a port
 719:Generated_Source\PSoC6\pdl\drivers/peripheral/gpio/cy_gpio.h **** * number. It is to be used when pin access needs to be calculated at runtime.
 720:Generated_Source\PSoC6\pdl\drivers/peripheral/gpio/cy_gpio.h **** *
 721:Generated_Source\PSoC6\pdl\drivers/peripheral/gpio/cy_gpio.h **** * \param portNum
 722:Generated_Source\PSoC6\pdl\drivers/peripheral/gpio/cy_gpio.h **** * Port number
 723:Generated_Source\PSoC6\pdl\drivers/peripheral/gpio/cy_gpio.h **** *
 724:Generated_Source\PSoC6\pdl\drivers/peripheral/gpio/cy_gpio.h **** * \return
 725:Generated_Source\PSoC6\pdl\drivers/peripheral/gpio/cy_gpio.h **** * Base address of the port register structure
 726:Generated_Source\PSoC6\pdl\drivers/peripheral/gpio/cy_gpio.h **** *
 727:Generated_Source\PSoC6\pdl\drivers/peripheral/gpio/cy_gpio.h **** * \funcusage
 728:Generated_Source\PSoC6\pdl\drivers/peripheral/gpio/cy_gpio.h **** * \snippet gpio/gpio_v1_10_sut_01.cydsn/main_cm4.c snippet_Cy_GPIO_PortToAddr
 729:Generated_Source\PSoC6\pdl\drivers/peripheral/gpio/cy_gpio.h **** *
 730:Generated_Source\PSoC6\pdl\drivers/peripheral/gpio/cy_gpio.h **** *******************************************************************************/
 731:Generated_Source\PSoC6\pdl\drivers/peripheral/gpio/cy_gpio.h **** __STATIC_INLINE GPIO_PRT_Type* Cy_GPIO_PortToAddr(uint32_t portNum)
 732:Generated_Source\PSoC6\pdl\drivers/peripheral/gpio/cy_gpio.h **** {
 733:Generated_Source\PSoC6\pdl\drivers/peripheral/gpio/cy_gpio.h ****     GPIO_PRT_Type* portBase;
 734:Generated_Source\PSoC6\pdl\drivers/peripheral/gpio/cy_gpio.h ****     
 735:Generated_Source\PSoC6\pdl\drivers/peripheral/gpio/cy_gpio.h ****     if(portNum < (uint32_t)IOSS_GPIO_GPIO_PORT_NR)
 736:Generated_Source\PSoC6\pdl\drivers/peripheral/gpio/cy_gpio.h ****     {
 737:Generated_Source\PSoC6\pdl\drivers/peripheral/gpio/cy_gpio.h ****         portBase = (GPIO_PRT_Type *)(CY_GPIO_BASE + (GPIO_PRT_SECTION_SIZE * portNum));
 738:Generated_Source\PSoC6\pdl\drivers/peripheral/gpio/cy_gpio.h ****     }
 739:Generated_Source\PSoC6\pdl\drivers/peripheral/gpio/cy_gpio.h ****     else
 740:Generated_Source\PSoC6\pdl\drivers/peripheral/gpio/cy_gpio.h ****     {
 741:Generated_Source\PSoC6\pdl\drivers/peripheral/gpio/cy_gpio.h ****         /* Error: Return default base address */
 742:Generated_Source\PSoC6\pdl\drivers/peripheral/gpio/cy_gpio.h ****         portBase = (GPIO_PRT_Type *)(CY_GPIO_BASE);
 743:Generated_Source\PSoC6\pdl\drivers/peripheral/gpio/cy_gpio.h ****     }
 744:Generated_Source\PSoC6\pdl\drivers/peripheral/gpio/cy_gpio.h **** 
 745:Generated_Source\PSoC6\pdl\drivers/peripheral/gpio/cy_gpio.h ****     return (portBase);
 746:Generated_Source\PSoC6\pdl\drivers/peripheral/gpio/cy_gpio.h **** }
 747:Generated_Source\PSoC6\pdl\drivers/peripheral/gpio/cy_gpio.h **** 
 748:Generated_Source\PSoC6\pdl\drivers/peripheral/gpio/cy_gpio.h **** /** \} group_gpio_functions_init */
 749:Generated_Source\PSoC6\pdl\drivers/peripheral/gpio/cy_gpio.h **** 
 750:Generated_Source\PSoC6\pdl\drivers/peripheral/gpio/cy_gpio.h **** /**
 751:Generated_Source\PSoC6\pdl\drivers/peripheral/gpio/cy_gpio.h **** * \addtogroup group_gpio_functions_gpio
 752:Generated_Source\PSoC6\pdl\drivers/peripheral/gpio/cy_gpio.h **** * \{
 753:Generated_Source\PSoC6\pdl\drivers/peripheral/gpio/cy_gpio.h **** */
ARM GAS  C:\Users\Mahrukh\AppData\Local\Temp\ccJcQtli.s 			page 42


 754:Generated_Source\PSoC6\pdl\drivers/peripheral/gpio/cy_gpio.h **** 
 755:Generated_Source\PSoC6\pdl\drivers/peripheral/gpio/cy_gpio.h **** /*******************************************************************************
 756:Generated_Source\PSoC6\pdl\drivers/peripheral/gpio/cy_gpio.h **** * Function Name: Cy_GPIO_Read
 757:Generated_Source\PSoC6\pdl\drivers/peripheral/gpio/cy_gpio.h **** ****************************************************************************//**
 758:Generated_Source\PSoC6\pdl\drivers/peripheral/gpio/cy_gpio.h **** *
 759:Generated_Source\PSoC6\pdl\drivers/peripheral/gpio/cy_gpio.h **** * Reads the current logic level on the input buffer of the pin.
 760:Generated_Source\PSoC6\pdl\drivers/peripheral/gpio/cy_gpio.h **** *
 761:Generated_Source\PSoC6\pdl\drivers/peripheral/gpio/cy_gpio.h **** * \param base
 762:Generated_Source\PSoC6\pdl\drivers/peripheral/gpio/cy_gpio.h **** * Pointer to the pin's port register base address
 763:Generated_Source\PSoC6\pdl\drivers/peripheral/gpio/cy_gpio.h **** *
 764:Generated_Source\PSoC6\pdl\drivers/peripheral/gpio/cy_gpio.h **** * \param pinNum
 765:Generated_Source\PSoC6\pdl\drivers/peripheral/gpio/cy_gpio.h **** * Position of the pin bit-field within the port register.
 766:Generated_Source\PSoC6\pdl\drivers/peripheral/gpio/cy_gpio.h **** * Bit position 8 is the routed pin through the port glitch filter.
 767:Generated_Source\PSoC6\pdl\drivers/peripheral/gpio/cy_gpio.h **** *
 768:Generated_Source\PSoC6\pdl\drivers/peripheral/gpio/cy_gpio.h **** * \return
 769:Generated_Source\PSoC6\pdl\drivers/peripheral/gpio/cy_gpio.h **** * Logic level present on the pin
 770:Generated_Source\PSoC6\pdl\drivers/peripheral/gpio/cy_gpio.h **** *
 771:Generated_Source\PSoC6\pdl\drivers/peripheral/gpio/cy_gpio.h **** * \funcusage
 772:Generated_Source\PSoC6\pdl\drivers/peripheral/gpio/cy_gpio.h **** * \snippet gpio/gpio_v1_10_sut_01.cydsn/main_cm4.c snippet_Cy_GPIO_Read
 773:Generated_Source\PSoC6\pdl\drivers/peripheral/gpio/cy_gpio.h **** *
 774:Generated_Source\PSoC6\pdl\drivers/peripheral/gpio/cy_gpio.h **** *******************************************************************************/
 775:Generated_Source\PSoC6\pdl\drivers/peripheral/gpio/cy_gpio.h **** __STATIC_INLINE uint32_t Cy_GPIO_Read(GPIO_PRT_Type* base, uint32_t pinNum)
 776:Generated_Source\PSoC6\pdl\drivers/peripheral/gpio/cy_gpio.h **** {
 777:Generated_Source\PSoC6\pdl\drivers/peripheral/gpio/cy_gpio.h ****     CY_ASSERT_L2(CY_GPIO_IS_FILTER_PIN_VALID(pinNum));
 778:Generated_Source\PSoC6\pdl\drivers/peripheral/gpio/cy_gpio.h ****     
 779:Generated_Source\PSoC6\pdl\drivers/peripheral/gpio/cy_gpio.h ****     return (GPIO_PRT_IN(base) >> (pinNum)) & CY_GPIO_IN_MASK;
 780:Generated_Source\PSoC6\pdl\drivers/peripheral/gpio/cy_gpio.h **** }
 781:Generated_Source\PSoC6\pdl\drivers/peripheral/gpio/cy_gpio.h **** 
 782:Generated_Source\PSoC6\pdl\drivers/peripheral/gpio/cy_gpio.h **** 
 783:Generated_Source\PSoC6\pdl\drivers/peripheral/gpio/cy_gpio.h **** /*******************************************************************************
 784:Generated_Source\PSoC6\pdl\drivers/peripheral/gpio/cy_gpio.h **** * Function Name: Cy_GPIO_Write
 785:Generated_Source\PSoC6\pdl\drivers/peripheral/gpio/cy_gpio.h **** ****************************************************************************//**
 786:Generated_Source\PSoC6\pdl\drivers/peripheral/gpio/cy_gpio.h **** *
 787:Generated_Source\PSoC6\pdl\drivers/peripheral/gpio/cy_gpio.h **** * Write a logic 0 or logic 1 state to the output driver.
 788:Generated_Source\PSoC6\pdl\drivers/peripheral/gpio/cy_gpio.h **** *
 789:Generated_Source\PSoC6\pdl\drivers/peripheral/gpio/cy_gpio.h **** * This function should be used only for software driven pins. It does not have
 790:Generated_Source\PSoC6\pdl\drivers/peripheral/gpio/cy_gpio.h **** * any effect on peripheral driven pins.
 791:Generated_Source\PSoC6\pdl\drivers/peripheral/gpio/cy_gpio.h **** *
 792:Generated_Source\PSoC6\pdl\drivers/peripheral/gpio/cy_gpio.h **** * \param base
 793:Generated_Source\PSoC6\pdl\drivers/peripheral/gpio/cy_gpio.h **** * Pointer to the pin's port register base address
 794:Generated_Source\PSoC6\pdl\drivers/peripheral/gpio/cy_gpio.h **** *
 795:Generated_Source\PSoC6\pdl\drivers/peripheral/gpio/cy_gpio.h **** * \param pinNum
 796:Generated_Source\PSoC6\pdl\drivers/peripheral/gpio/cy_gpio.h **** * Position of the pin bit-field within the port register
 797:Generated_Source\PSoC6\pdl\drivers/peripheral/gpio/cy_gpio.h **** *
 798:Generated_Source\PSoC6\pdl\drivers/peripheral/gpio/cy_gpio.h **** * \param value
 799:Generated_Source\PSoC6\pdl\drivers/peripheral/gpio/cy_gpio.h **** * Logic level to drive out on the pin
 800:Generated_Source\PSoC6\pdl\drivers/peripheral/gpio/cy_gpio.h **** *
 801:Generated_Source\PSoC6\pdl\drivers/peripheral/gpio/cy_gpio.h **** * \funcusage
 802:Generated_Source\PSoC6\pdl\drivers/peripheral/gpio/cy_gpio.h **** * \snippet gpio/gpio_v1_10_sut_01.cydsn/main_cm4.c snippet_Cy_GPIO_Write
 803:Generated_Source\PSoC6\pdl\drivers/peripheral/gpio/cy_gpio.h **** *
 804:Generated_Source\PSoC6\pdl\drivers/peripheral/gpio/cy_gpio.h **** *******************************************************************************/
 805:Generated_Source\PSoC6\pdl\drivers/peripheral/gpio/cy_gpio.h **** __STATIC_INLINE void Cy_GPIO_Write(GPIO_PRT_Type* base, uint32_t pinNum, uint32_t value)
 806:Generated_Source\PSoC6\pdl\drivers/peripheral/gpio/cy_gpio.h **** {
 807:Generated_Source\PSoC6\pdl\drivers/peripheral/gpio/cy_gpio.h ****     CY_ASSERT_L2(CY_GPIO_IS_PIN_VALID(pinNum));
 808:Generated_Source\PSoC6\pdl\drivers/peripheral/gpio/cy_gpio.h ****     CY_ASSERT_L2(CY_GPIO_IS_VALUE_VALID(value));
 809:Generated_Source\PSoC6\pdl\drivers/peripheral/gpio/cy_gpio.h **** 
 810:Generated_Source\PSoC6\pdl\drivers/peripheral/gpio/cy_gpio.h ****     /* Thread-safe: Directly access the pin registers instead of base->OUT */
ARM GAS  C:\Users\Mahrukh\AppData\Local\Temp\ccJcQtli.s 			page 43


 811:Generated_Source\PSoC6\pdl\drivers/peripheral/gpio/cy_gpio.h ****     if(0UL == value)
 812:Generated_Source\PSoC6\pdl\drivers/peripheral/gpio/cy_gpio.h ****     {
 813:Generated_Source\PSoC6\pdl\drivers/peripheral/gpio/cy_gpio.h ****         GPIO_PRT_OUT_CLR(base) = CY_GPIO_OUT_MASK << pinNum;
 814:Generated_Source\PSoC6\pdl\drivers/peripheral/gpio/cy_gpio.h ****     }
 815:Generated_Source\PSoC6\pdl\drivers/peripheral/gpio/cy_gpio.h ****     else
 816:Generated_Source\PSoC6\pdl\drivers/peripheral/gpio/cy_gpio.h ****     {
 817:Generated_Source\PSoC6\pdl\drivers/peripheral/gpio/cy_gpio.h ****         GPIO_PRT_OUT_SET(base) = CY_GPIO_OUT_MASK << pinNum;
 1280              		.loc 2 817 0
 1281 015e 0222     		movs	r2, #2
 1282 0160 894B     		ldr	r3, .L94+24
 1283 0162 9A60     		str	r2, [r3, #8]
 1284              	.LVL152:
 1285              	.LBE17:
 1286              	.LBE16:
 298:DISPLAY.c     ****                                             Cy_GPIO_Write (Pin_ACC_0_PORT,Pin_ACC_0_NUM,1);
 299:DISPLAY.c     ****                                             GUI_SetFont(GUI_FONT_16B_1);
 1287              		.loc 1 299 0
 1288 0164 8648     		ldr	r0, .L94+16
 1289 0166 FFF7FEFF 		bl	GUI_SetFont
 1290              	.LVL153:
 300:DISPLAY.c     ****                                             GUI_DispStringAt ("L'alarme est desactivee", 25, 130);
 1291              		.loc 1 300 0
 1292 016a 8222     		movs	r2, #130
 1293 016c 1921     		movs	r1, #25
 1294 016e 8748     		ldr	r0, .L94+28
 1295 0170 FFF7FEFF 		bl	GUI_DispStringAt
 1296              	.LVL154:
 301:DISPLAY.c     ****                                                UpdateDisplay(CY_EINK_FULL_4STAGE, true);
 1297              		.loc 1 301 0
 1298 0174 0121     		movs	r1, #1
 1299 0176 0846     		mov	r0, r1
 1300 0178 FFF7FEFF 		bl	UpdateDisplay
 1301              	.LVL155:
 302:DISPLAY.c     ****                                             currentScreen.FLAG2=0; }
 1302              		.loc 1 302 0
 1303 017c 7D4B     		ldr	r3, .L94+4
 1304 017e 9C70     		strb	r4, [r3, #2]
 1305              	.L68:
 303:DISPLAY.c     ****                   //Affichage de l'OPTION 1  √† l'appuie du bouton 1 sur le MENU pour une position 
 304:DISPLAY.c     ****                                         if (selection_MENU==1) {
 1306              		.loc 1 304 0
 1307 0180 7D4B     		ldr	r3, .L94+8
 1308 0182 1B78     		ldrb	r3, [r3]	@ zero_extendqisi2
 1309 0184 012B     		cmp	r3, #1
 1310 0186 05D1     		bne	.L66
 305:DISPLAY.c     ****                                             currentScreen.screen= OPTION_1; 
 1311              		.loc 1 305 0
 1312 0188 0222     		movs	r2, #2
 1313 018a 7A4B     		ldr	r3, .L94+4
 1314 018c 1A70     		strb	r2, [r3]
 306:DISPLAY.c     ****                                             selection_MENU=0;}
 1315              		.loc 1 306 0
 1316 018e 0022     		movs	r2, #0
 1317 0190 794B     		ldr	r3, .L94+8
 1318 0192 1A70     		strb	r2, [r3]
 1319              	.L66:
 307:DISPLAY.c     **** 
ARM GAS  C:\Users\Mahrukh\AppData\Local\Temp\ccJcQtli.s 			page 44


 308:DISPLAY.c     ****                 } 
 309:DISPLAY.c     ****                 if (currentScreen.FLAG1==4 || currentScreen.FLAG2==4 || selection_MENU==2){       
 1320              		.loc 1 309 0
 1321 0194 774B     		ldr	r3, .L94+4
 1322 0196 5B78     		ldrb	r3, [r3, #1]	@ zero_extendqisi2
 1323 0198 DBB2     		uxtb	r3, r3
 1324 019a 042B     		cmp	r3, #4
 1325 019c 08D0     		beq	.L69
 1326              		.loc 1 309 0 is_stmt 0 discriminator 1
 1327 019e 754B     		ldr	r3, .L94+4
 1328 01a0 9B78     		ldrb	r3, [r3, #2]	@ zero_extendqisi2
 1329 01a2 DBB2     		uxtb	r3, r3
 1330 01a4 042B     		cmp	r3, #4
 1331 01a6 03D0     		beq	.L69
 1332              		.loc 1 309 0 discriminator 2
 1333 01a8 734B     		ldr	r3, .L94+8
 1334 01aa 1B78     		ldrb	r3, [r3]	@ zero_extendqisi2
 1335 01ac 022B     		cmp	r3, #2
 1336 01ae 1BD1     		bne	.L70
 1337              	.L69:
 310:DISPLAY.c     ****                     DrawOption2();
 1338              		.loc 1 310 0 is_stmt 1
 1339 01b0 FFF7FEFF 		bl	DrawOption2
 1340              	.LVL156:
 311:DISPLAY.c     ****                    
 312:DISPLAY.c     ****                                         if  (currentScreen.FLAG1==4) { currentScreen.FLAG1=0; } // 
 1341              		.loc 1 312 0
 1342 01b4 6F4B     		ldr	r3, .L94+4
 1343 01b6 5B78     		ldrb	r3, [r3, #1]	@ zero_extendqisi2
 1344 01b8 DBB2     		uxtb	r3, r3
 1345 01ba 042B     		cmp	r3, #4
 1346 01bc 02D1     		bne	.L71
 1347              		.loc 1 312 0 is_stmt 0 discriminator 1
 1348 01be 0022     		movs	r2, #0
 1349 01c0 6C4B     		ldr	r3, .L94+4
 1350 01c2 5A70     		strb	r2, [r3, #1]
 1351              	.L71:
 313:DISPLAY.c     ****                                         if  (currentScreen.FLAG2==4) { currentScreen.FLAG2=0; } // 
 1352              		.loc 1 313 0 is_stmt 1
 1353 01c4 6B4B     		ldr	r3, .L94+4
 1354 01c6 9B78     		ldrb	r3, [r3, #2]	@ zero_extendqisi2
 1355 01c8 DBB2     		uxtb	r3, r3
 1356 01ca 042B     		cmp	r3, #4
 1357 01cc 02D1     		bne	.L72
 1358              		.loc 1 313 0 is_stmt 0 discriminator 1
 1359 01ce 0022     		movs	r2, #0
 1360 01d0 684B     		ldr	r3, .L94+4
 1361 01d2 9A70     		strb	r2, [r3, #2]
 1362              	.L72:
 314:DISPLAY.c     ****                                         if (selection_MENU==2) {
 1363              		.loc 1 314 0 is_stmt 1
 1364 01d4 684B     		ldr	r3, .L94+8
 1365 01d6 1B78     		ldrb	r3, [r3]	@ zero_extendqisi2
 1366 01d8 022B     		cmp	r3, #2
 1367 01da 05D1     		bne	.L70
 315:DISPLAY.c     ****                                             currentScreen.screen= OPTION_2; 
 1368              		.loc 1 315 0
ARM GAS  C:\Users\Mahrukh\AppData\Local\Temp\ccJcQtli.s 			page 45


 1369 01dc 0322     		movs	r2, #3
 1370 01de 654B     		ldr	r3, .L94+4
 1371 01e0 1A70     		strb	r2, [r3]
 316:DISPLAY.c     ****                                             selection_MENU=0;} //Affichage de l'OPTION 2  √† l'appu
 1372              		.loc 1 316 0
 1373 01e2 0022     		movs	r2, #0
 1374 01e4 644B     		ldr	r3, .L94+8
 1375 01e6 1A70     		strb	r2, [r3]
 1376              	.L70:
 317:DISPLAY.c     ****                 } 
 318:DISPLAY.c     ****                 if (currentScreen.FLAG1==5 || currentScreen.FLAG2==5 || selection_MENU==3) {       
 1377              		.loc 1 318 0
 1378 01e8 624B     		ldr	r3, .L94+4
 1379 01ea 5B78     		ldrb	r3, [r3, #1]	@ zero_extendqisi2
 1380 01ec DBB2     		uxtb	r3, r3
 1381 01ee 052B     		cmp	r3, #5
 1382 01f0 08D0     		beq	.L73
 1383              		.loc 1 318 0 is_stmt 0 discriminator 1
 1384 01f2 604B     		ldr	r3, .L94+4
 1385 01f4 9B78     		ldrb	r3, [r3, #2]	@ zero_extendqisi2
 1386 01f6 DBB2     		uxtb	r3, r3
 1387 01f8 052B     		cmp	r3, #5
 1388 01fa 03D0     		beq	.L73
 1389              		.loc 1 318 0 discriminator 2
 1390 01fc 5E4B     		ldr	r3, .L94+8
 1391 01fe 1B78     		ldrb	r3, [r3]	@ zero_extendqisi2
 1392 0200 032B     		cmp	r3, #3
 1393 0202 1BD1     		bne	.L74
 1394              	.L73:
 319:DISPLAY.c     ****                     DrawOption3_superieur();
 1395              		.loc 1 319 0 is_stmt 1
 1396 0204 FFF7FEFF 		bl	DrawOption3_superieur
 1397              	.LVL157:
 320:DISPLAY.c     ****                    
 321:DISPLAY.c     ****                                         if  (currentScreen.FLAG1==5) { currentScreen.FLAG1=0; } // 
 1398              		.loc 1 321 0
 1399 0208 5A4B     		ldr	r3, .L94+4
 1400 020a 5B78     		ldrb	r3, [r3, #1]	@ zero_extendqisi2
 1401 020c DBB2     		uxtb	r3, r3
 1402 020e 052B     		cmp	r3, #5
 1403 0210 02D1     		bne	.L75
 1404              		.loc 1 321 0 is_stmt 0 discriminator 1
 1405 0212 0022     		movs	r2, #0
 1406 0214 574B     		ldr	r3, .L94+4
 1407 0216 5A70     		strb	r2, [r3, #1]
 1408              	.L75:
 322:DISPLAY.c     ****                                         if  (currentScreen.FLAG2==5) { currentScreen.FLAG2=0; } // 
 1409              		.loc 1 322 0 is_stmt 1
 1410 0218 564B     		ldr	r3, .L94+4
 1411 021a 9B78     		ldrb	r3, [r3, #2]	@ zero_extendqisi2
 1412 021c DBB2     		uxtb	r3, r3
 1413 021e 052B     		cmp	r3, #5
 1414 0220 02D1     		bne	.L76
 1415              		.loc 1 322 0 is_stmt 0 discriminator 1
 1416 0222 0022     		movs	r2, #0
 1417 0224 534B     		ldr	r3, .L94+4
 1418 0226 9A70     		strb	r2, [r3, #2]
ARM GAS  C:\Users\Mahrukh\AppData\Local\Temp\ccJcQtli.s 			page 46


 1419              	.L76:
 323:DISPLAY.c     ****                                         if (selection_MENU==3) {
 1420              		.loc 1 323 0 is_stmt 1
 1421 0228 534B     		ldr	r3, .L94+8
 1422 022a 1B78     		ldrb	r3, [r3]	@ zero_extendqisi2
 1423 022c 032B     		cmp	r3, #3
 1424 022e 05D1     		bne	.L74
 324:DISPLAY.c     **** 
 325:DISPLAY.c     ****                                             currentScreen.screen= OPTION_3_superieur;
 1425              		.loc 1 325 0
 1426 0230 0422     		movs	r2, #4
 1427 0232 504B     		ldr	r3, .L94+4
 1428 0234 1A70     		strb	r2, [r3]
 326:DISPLAY.c     ****                                             selection_MENU=0;} //Affichage de l'OPTION 3  √† l'appu
 1429              		.loc 1 326 0
 1430 0236 0022     		movs	r2, #0
 1431 0238 4F4B     		ldr	r3, .L94+8
 1432 023a 1A70     		strb	r2, [r3]
 1433              	.L74:
 327:DISPLAY.c     ****                 }
 328:DISPLAY.c     ****                 if (currentScreen.FLAG1==6 || currentScreen.FLAG2==6 || selection_MENU==4) {       
 1434              		.loc 1 328 0
 1435 023c 4D4B     		ldr	r3, .L94+4
 1436 023e 5B78     		ldrb	r3, [r3, #1]	@ zero_extendqisi2
 1437 0240 DBB2     		uxtb	r3, r3
 1438 0242 062B     		cmp	r3, #6
 1439 0244 08D0     		beq	.L77
 1440              		.loc 1 328 0 is_stmt 0 discriminator 1
 1441 0246 4B4B     		ldr	r3, .L94+4
 1442 0248 9B78     		ldrb	r3, [r3, #2]	@ zero_extendqisi2
 1443 024a DBB2     		uxtb	r3, r3
 1444 024c 062B     		cmp	r3, #6
 1445 024e 03D0     		beq	.L77
 1446              		.loc 1 328 0 discriminator 2
 1447 0250 494B     		ldr	r3, .L94+8
 1448 0252 1B78     		ldrb	r3, [r3]	@ zero_extendqisi2
 1449 0254 042B     		cmp	r3, #4
 1450 0256 1BD1     		bne	.L78
 1451              	.L77:
 329:DISPLAY.c     **** 
 330:DISPLAY.c     ****                     DrawOption3_inferieur();
 1452              		.loc 1 330 0 is_stmt 1
 1453 0258 FFF7FEFF 		bl	DrawOption3_inferieur
 1454              	.LVL158:
 331:DISPLAY.c     ****                     
 332:DISPLAY.c     ****                                         if  (currentScreen.FLAG1==6) { currentScreen.FLAG1=0; } // 
 1455              		.loc 1 332 0
 1456 025c 454B     		ldr	r3, .L94+4
 1457 025e 5B78     		ldrb	r3, [r3, #1]	@ zero_extendqisi2
 1458 0260 DBB2     		uxtb	r3, r3
 1459 0262 062B     		cmp	r3, #6
 1460 0264 02D1     		bne	.L79
 1461              		.loc 1 332 0 is_stmt 0 discriminator 1
 1462 0266 0022     		movs	r2, #0
 1463 0268 424B     		ldr	r3, .L94+4
 1464 026a 5A70     		strb	r2, [r3, #1]
 1465              	.L79:
ARM GAS  C:\Users\Mahrukh\AppData\Local\Temp\ccJcQtli.s 			page 47


 333:DISPLAY.c     ****                                         if  (currentScreen.FLAG2==6) { currentScreen.FLAG2=0; } // 
 1466              		.loc 1 333 0 is_stmt 1
 1467 026c 414B     		ldr	r3, .L94+4
 1468 026e 9B78     		ldrb	r3, [r3, #2]	@ zero_extendqisi2
 1469 0270 DBB2     		uxtb	r3, r3
 1470 0272 062B     		cmp	r3, #6
 1471 0274 02D1     		bne	.L80
 1472              		.loc 1 333 0 is_stmt 0 discriminator 1
 1473 0276 0022     		movs	r2, #0
 1474 0278 3E4B     		ldr	r3, .L94+4
 1475 027a 9A70     		strb	r2, [r3, #2]
 1476              	.L80:
 334:DISPLAY.c     ****                                         if (selection_MENU==4) {
 1477              		.loc 1 334 0 is_stmt 1
 1478 027c 3E4B     		ldr	r3, .L94+8
 1479 027e 1B78     		ldrb	r3, [r3]	@ zero_extendqisi2
 1480 0280 042B     		cmp	r3, #4
 1481 0282 05D1     		bne	.L78
 335:DISPLAY.c     ****                                             currentScreen.screen= OPTION_3_inferieur; 
 1482              		.loc 1 335 0
 1483 0284 0522     		movs	r2, #5
 1484 0286 3B4B     		ldr	r3, .L94+4
 1485 0288 1A70     		strb	r2, [r3]
 336:DISPLAY.c     ****                                             selection_MENU=0;} //Affichage de l'OPTION 4  √† l'appu
 1486              		.loc 1 336 0
 1487 028a 0022     		movs	r2, #0
 1488 028c 3A4B     		ldr	r3, .L94+8
 1489 028e 1A70     		strb	r2, [r3]
 1490              	.L78:
 337:DISPLAY.c     ****                 }
 338:DISPLAY.c     ****                 if (currentScreen.FLAG1==7 || currentScreen.FLAG2==7 || selection_MENU==5) {       
 1491              		.loc 1 338 0
 1492 0290 384B     		ldr	r3, .L94+4
 1493 0292 5B78     		ldrb	r3, [r3, #1]	@ zero_extendqisi2
 1494 0294 DBB2     		uxtb	r3, r3
 1495 0296 072B     		cmp	r3, #7
 1496 0298 08D0     		beq	.L81
 1497              		.loc 1 338 0 is_stmt 0 discriminator 1
 1498 029a 364B     		ldr	r3, .L94+4
 1499 029c 9B78     		ldrb	r3, [r3, #2]	@ zero_extendqisi2
 1500 029e DBB2     		uxtb	r3, r3
 1501 02a0 072B     		cmp	r3, #7
 1502 02a2 03D0     		beq	.L81
 1503              		.loc 1 338 0 discriminator 2
 1504 02a4 344B     		ldr	r3, .L94+8
 1505 02a6 1B78     		ldrb	r3, [r3]	@ zero_extendqisi2
 1506 02a8 052B     		cmp	r3, #5
 1507 02aa 3BD1     		bne	.L82
 1508              	.L81:
 339:DISPLAY.c     **** 
 340:DISPLAY.c     ****                     DrawOption3_ETAT();
 1509              		.loc 1 340 0 is_stmt 1
 1510 02ac FFF7FEFF 		bl	DrawOption3_ETAT
 1511              	.LVL159:
 341:DISPLAY.c     ****                     //Activation  de l'alarme de la FC √† l'appuie du bouton 0 sur la page de l'OPT
 342:DISPLAY.c     ****                     //Permet la comparaison de l'intervalle de FC d√©sir√©e et la FC pr√©lev√©e 
 343:DISPLAY.c     ****                                         if  (currentScreen.FLAG1==7) {
ARM GAS  C:\Users\Mahrukh\AppData\Local\Temp\ccJcQtli.s 			page 48


 1512              		.loc 1 343 0
 1513 02b0 304B     		ldr	r3, .L94+4
 1514 02b2 5B78     		ldrb	r3, [r3, #1]	@ zero_extendqisi2
 1515 02b4 DBB2     		uxtb	r3, r3
 1516 02b6 072B     		cmp	r3, #7
 1517 02b8 11D1     		bne	.L83
 344:DISPLAY.c     ****                                              alarme_FC= true; 
 1518              		.loc 1 344 0
 1519 02ba 0124     		movs	r4, #1
 1520 02bc 344B     		ldr	r3, .L94+32
 1521 02be 1C70     		strb	r4, [r3]
 345:DISPLAY.c     ****                                              GUI_SetFont(GUI_FONT_16B_1);
 1522              		.loc 1 345 0
 1523 02c0 2F48     		ldr	r0, .L94+16
 1524 02c2 FFF7FEFF 		bl	GUI_SetFont
 1525              	.LVL160:
 346:DISPLAY.c     ****                                              GUI_DispStringAt ("L'alarme est activee ",25, 130); 
 1526              		.loc 1 346 0
 1527 02c6 8222     		movs	r2, #130
 1528 02c8 1921     		movs	r1, #25
 1529 02ca 2E48     		ldr	r0, .L94+20
 1530 02cc FFF7FEFF 		bl	GUI_DispStringAt
 1531              	.LVL161:
 347:DISPLAY.c     ****                                                UpdateDisplay(CY_EINK_FULL_4STAGE, true);
 1532              		.loc 1 347 0
 1533 02d0 2146     		mov	r1, r4
 1534 02d2 2046     		mov	r0, r4
 1535 02d4 FFF7FEFF 		bl	UpdateDisplay
 1536              	.LVL162:
 348:DISPLAY.c     ****                                             currentScreen.FLAG1=0; }
 1537              		.loc 1 348 0
 1538 02d8 0022     		movs	r2, #0
 1539 02da 264B     		ldr	r3, .L94+4
 1540 02dc 5A70     		strb	r2, [r3, #1]
 1541              	.L83:
 349:DISPLAY.c     ****                     //D√©sactivation  de l'alarme de la FC √† l'appuie du bouton 1 sur la page de l
 350:DISPLAY.c     ****                     //Bloque la comparaison de l'intervalle de FC d√©sir√©e et la FC pr√©lev√©e 
 351:DISPLAY.c     ****                                         if  (currentScreen.FLAG2==7) { 
 1542              		.loc 1 351 0
 1543 02de 254B     		ldr	r3, .L94+4
 1544 02e0 9B78     		ldrb	r3, [r3, #2]	@ zero_extendqisi2
 1545 02e2 DBB2     		uxtb	r3, r3
 1546 02e4 072B     		cmp	r3, #7
 1547 02e6 13D1     		bne	.L84
 352:DISPLAY.c     ****                                              alarme_FC= false;
 1548              		.loc 1 352 0
 1549 02e8 0024     		movs	r4, #0
 1550 02ea 294B     		ldr	r3, .L94+32
 1551 02ec 1C70     		strb	r4, [r3]
 1552              	.LVL163:
 1553              	.LBB18:
 1554              	.LBB19:
 1555              		.loc 2 817 0
 1556 02ee 8022     		movs	r2, #128
 1557 02f0 284B     		ldr	r3, .L94+36
 1558 02f2 9A60     		str	r2, [r3, #8]
 1559              	.LVL164:
ARM GAS  C:\Users\Mahrukh\AppData\Local\Temp\ccJcQtli.s 			page 49


 1560              	.LBE19:
 1561              	.LBE18:
 353:DISPLAY.c     ****                                             Cy_GPIO_Write (Pin_FC_0_PORT,Pin_FC_0_NUM,1);
 354:DISPLAY.c     ****                                             GUI_SetFont(GUI_FONT_16B_1);
 1562              		.loc 1 354 0
 1563 02f4 2248     		ldr	r0, .L94+16
 1564 02f6 FFF7FEFF 		bl	GUI_SetFont
 1565              	.LVL165:
 355:DISPLAY.c     ****                                             GUI_DispStringAt ("L'alarme est desactivee", 25, 130);
 1566              		.loc 1 355 0
 1567 02fa 8222     		movs	r2, #130
 1568 02fc 1921     		movs	r1, #25
 1569 02fe 2348     		ldr	r0, .L94+28
 1570 0300 FFF7FEFF 		bl	GUI_DispStringAt
 1571              	.LVL166:
 356:DISPLAY.c     ****                                                UpdateDisplay(CY_EINK_FULL_4STAGE, true);
 1572              		.loc 1 356 0
 1573 0304 0121     		movs	r1, #1
 1574 0306 0846     		mov	r0, r1
 1575 0308 FFF7FEFF 		bl	UpdateDisplay
 1576              	.LVL167:
 357:DISPLAY.c     ****                                             currentScreen.FLAG2=0; }
 1577              		.loc 1 357 0
 1578 030c 194B     		ldr	r3, .L94+4
 1579 030e 9C70     		strb	r4, [r3, #2]
 1580              	.L84:
 358:DISPLAY.c     ****                       //Affichage de l'OPTION 5  √† l'appuie du bouton 1 sur le MENU pour une posit
 359:DISPLAY.c     ****                                         if (selection_MENU==5) {
 1581              		.loc 1 359 0
 1582 0310 194B     		ldr	r3, .L94+8
 1583 0312 1B78     		ldrb	r3, [r3]	@ zero_extendqisi2
 1584 0314 052B     		cmp	r3, #5
 1585 0316 05D1     		bne	.L82
 360:DISPLAY.c     ****                                             currentScreen.screen= OPTION_3_ETAT; 
 1586              		.loc 1 360 0
 1587 0318 0622     		movs	r2, #6
 1588 031a 164B     		ldr	r3, .L94+4
 1589 031c 1A70     		strb	r2, [r3]
 361:DISPLAY.c     ****                                             selection_MENU=0;}
 1590              		.loc 1 361 0
 1591 031e 0022     		movs	r2, #0
 1592 0320 154B     		ldr	r3, .L94+8
 1593 0322 1A70     		strb	r2, [r3]
 1594              	.L82:
 362:DISPLAY.c     ****                 }
 363:DISPLAY.c     ****                 
 364:DISPLAY.c     ****                 // Si l'alarme de l'acc√©l√©rom√®tre est activ√©e, on lit les donn√©es transmise pa
 365:DISPLAY.c     ****                 // si celle-ci s'enclenche ou pas 
 366:DISPLAY.c     ****                 if (alarme_acc) 
 1595              		.loc 1 366 0
 1596 0324 154B     		ldr	r3, .L94+12
 1597 0326 1B78     		ldrb	r3, [r3]	@ zero_extendqisi2
 1598 0328 4BB1     		cbz	r3, .L85
 367:DISPLAY.c     ****                 {
 368:DISPLAY.c     ****                     // signal venant de la communication qui permet d'indiquer s'il y a un mouvemen
 369:DISPLAY.c     ****                         if (yassine) {
 1599              		.loc 1 369 0
ARM GAS  C:\Users\Mahrukh\AppData\Local\Temp\ccJcQtli.s 			page 50


 1600 032a 1B4B     		ldr	r3, .L94+40
 1601 032c 1B78     		ldrb	r3, [r3]	@ zero_extendqisi2
 1602 032e 1BB1     		cbz	r3, .L86
 1603              	.LVL168:
 1604              	.LBB20:
 1605              	.LBB21:
 813:Generated_Source\PSoC6\pdl\drivers/peripheral/gpio/cy_gpio.h ****     }
 1606              		.loc 2 813 0
 1607 0330 0222     		movs	r2, #2
 1608 0332 154B     		ldr	r3, .L94+24
 1609 0334 5A60     		str	r2, [r3, #4]
 1610 0336 02E0     		b	.L85
 1611              	.LVL169:
 1612              	.L86:
 1613              	.LBE21:
 1614              	.LBE20:
 1615              	.LBB22:
 1616              	.LBB23:
 1617              		.loc 2 817 0
 1618 0338 0222     		movs	r2, #2
 1619 033a 134B     		ldr	r3, .L94+24
 1620 033c 9A60     		str	r2, [r3, #8]
 1621              	.LVL170:
 1622              	.L85:
 1623              	.LBE23:
 1624              	.LBE22:
 370:DISPLAY.c     ****                          Cy_GPIO_Write(Pin_ACC_0_PORT,Pin_ACC_0_NUM, 0);
 371:DISPLAY.c     ****                         }
 372:DISPLAY.c     ****                         else {Cy_GPIO_Write (Pin_ACC_0_PORT,Pin_ACC_0_NUM,1); }  
 373:DISPLAY.c     ****                 }
 374:DISPLAY.c     ****                 // Si l'alarme de la FC est activ√©e, on compare l'intervalle de FC √©tablie √† la 
 375:DISPLAY.c     ****                 // si l'alarme s'enclenche ou pas 
 376:DISPLAY.c     ****                if (alarme_FC) 
 1625              		.loc 1 376 0
 1626 033e 144B     		ldr	r3, .L94+32
 1627 0340 1B78     		ldrb	r3, [r3]	@ zero_extendqisi2
 1628 0342 83B1     		cbz	r3, .L87
 377:DISPLAY.c     ****                 {
 378:DISPLAY.c     ****                      
 379:DISPLAY.c     ****                         if (andree<borne_inferieur || andree>borne_superieur) {                    
 1629              		.loc 1 379 0
 1630 0344 154B     		ldr	r3, .L94+44
 1631 0346 1B78     		ldrb	r3, [r3]	@ zero_extendqisi2
 1632 0348 154A     		ldr	r2, .L94+48
 1633 034a 1278     		ldrb	r2, [r2]	@ zero_extendqisi2
 1634 034c 9342     		cmp	r3, r2
 1635 034e 03D3     		bcc	.L88
 1636              		.loc 1 379 0 is_stmt 0 discriminator 1
 1637 0350 144A     		ldr	r2, .L94+52
 1638 0352 1278     		ldrb	r2, [r2]	@ zero_extendqisi2
 1639 0354 9342     		cmp	r3, r2
 1640 0356 03D9     		bls	.L89
 1641              	.L88:
 1642              	.LVL171:
 1643              	.LBB24:
 1644              	.LBB25:
 813:Generated_Source\PSoC6\pdl\drivers/peripheral/gpio/cy_gpio.h ****     }
ARM GAS  C:\Users\Mahrukh\AppData\Local\Temp\ccJcQtli.s 			page 51


 1645              		.loc 2 813 0 is_stmt 1
 1646 0358 8022     		movs	r2, #128
 1647 035a 0E4B     		ldr	r3, .L94+36
 1648 035c 5A60     		str	r2, [r3, #4]
 1649 035e 02E0     		b	.L87
 1650              	.LVL172:
 1651              	.L89:
 1652              	.LBE25:
 1653              	.LBE24:
 1654              	.LBB26:
 1655              	.LBB27:
 1656              		.loc 2 817 0
 1657 0360 8022     		movs	r2, #128
 1658 0362 0C4B     		ldr	r3, .L94+36
 1659 0364 9A60     		str	r2, [r3, #8]
 1660              	.LVL173:
 1661              	.L87:
 1662              	.LBE27:
 1663              	.LBE26:
 380:DISPLAY.c     ****                          Cy_GPIO_Write(Pin_FC_0_PORT,Pin_FC_0_NUM, 0); 
 381:DISPLAY.c     ****                         }
 382:DISPLAY.c     ****                         else {Cy_GPIO_Write (Pin_FC_0_PORT,Pin_FC_0_NUM,1); }     
 383:DISPLAY.c     ****                 }
 384:DISPLAY.c     ****                
 385:DISPLAY.c     ****                  vTaskDelay(pdMS_TO_TICKS(350));
 1664              		.loc 1 385 0
 1665 0366 4FF4AF70 		mov	r0, #350
 1666 036a FFF7FEFF 		bl	vTaskDelay
 1667              	.LVL174:
 386:DISPLAY.c     ****         }
 1668              		.loc 1 386 0
 1669 036e 5FE6     		b	.L90
 1670              	.L95:
 1671              		.align	2
 1672              	.L94:
 1673 0370 00000000 		.word	postion_MENU
 1674 0374 00000000 		.word	currentScreen
 1675 0378 00000000 		.word	selection_MENU
 1676 037c 00000000 		.word	alarme_acc
 1677 0380 00000000 		.word	GUI_Font16B_1
 1678 0384 B8020000 		.word	.LC28
 1679 0388 80003240 		.word	1077018752
 1680 038c D0020000 		.word	.LC29
 1681 0390 00000000 		.word	alarme_FC
 1682 0394 80063240 		.word	1077020288
 1683 0398 00000000 		.word	yassine
 1684 039c 00000000 		.word	andree
 1685 03a0 00000000 		.word	borne_inferieur
 1686 03a4 00000000 		.word	borne_superieur
 1687              		.cfi_endproc
 1688              	.LFE615:
 1689              		.size	display_task, .-display_task
 1690              		.comm	ROUGE,4,4
 1691              		.comm	INFRAROUGE,4,4
 1692              		.comm	andree,1,1
 1693              		.comm	yassine,1,1
 1694              		.comm	vecteurespacee,500,4
ARM GAS  C:\Users\Mahrukh\AppData\Local\Temp\ccJcQtli.s 			page 52


 1695              		.comm	data,672,4
 1696              		.comm	selection_MENU,1,1
 1697              		.comm	postion_MENU,1,1
 1698              		.comm	currentScreen,6,4
 1699              		.comm	bouton,4,4
 1700              		.comm	etat,4,4
 1701              		.comm	imageBufferCache,5808,4
 1702              		.comm	buffer_1,100,4
 1703              		.comm	buffer_0,100,4
 1704              		.comm	buffer,100,4
 1705              		.comm	borne_superieur,1,1
 1706              		.comm	borne_inferieur,1,1
 1707              		.comm	alarme_FC,1,1
 1708              		.comm	alarme_acc,1,1
 1709              		.comm	courant,1,1
 1710              		.section	.rodata.str1.4,"aMS",%progbits,1
 1711              		.align	2
 1712              	.LC0:
 1713 0000 434F5552 		.ascii	"COURBE AFFICHEE:\000"
 1713      42452041 
 1713      46464943 
 1713      4845453A 
 1713      00
 1714 0011 000000   		.space	3
 1715              	.LC1:
 1716 0014 53504543 		.ascii	"SPECTRE\000"
 1716      54524500 
 1717              	.LC2:
 1718 001c 494E4652 		.ascii	"INFRAROUGE\000"
 1718      41524F55 
 1718      474500
 1719 0027 00       		.space	1
 1720              	.LC3:
 1721 0028 524F5547 		.ascii	"ROUGE\000"
 1721      4500
 1722 002e 0000     		.space	2
 1723              	.LC4:
 1724 0030 46726571 		.ascii	"Frequence cardiaque: %d \000"
 1724      75656E63 
 1724      65206361 
 1724      72646961 
 1724      7175653A 
 1725 0049 000000   		.space	3
 1726              	.LC5:
 1727 004c 54617578 		.ascii	"Taux d'oxygene: %d \000"
 1727      2064276F 
 1727      78796765 
 1727      6E653A20 
 1727      25642000 
 1728              	.LC6:
 1729 0060 42504D20 		.ascii	"BPM \000"
 1729      00
 1730 0065 000000   		.space	3
 1731              	.LC7:
 1732 0068 202500   		.ascii	" %\000"
 1733 006b 00       		.space	1
 1734              	.LC8:
ARM GAS  C:\Users\Mahrukh\AppData\Local\Temp\ccJcQtli.s 			page 53


 1735 006c 4D454E55 		.ascii	"MENU\000"
 1735      00
 1736 0071 000000   		.space	3
 1737              	.LC9:
 1738 0074 45544154 		.ascii	"ETAT DE L'ALARME D'ACCELERATION\000"
 1738      20444520 
 1738      4C27414C 
 1738      41524D45 
 1738      20442741 
 1739              	.LC10:
 1740 0094 4D4F4449 		.ascii	"MODIFICATION DU COURANT DES LEDS\000"
 1740      46494341 
 1740      54494F4E 
 1740      20445520 
 1740      434F5552 
 1741 00b5 000000   		.space	3
 1742              	.LC11:
 1743 00b8 424F524E 		.ascii	"BORNE SUPERIEUR- RYTHME CARDIAQUE\000"
 1743      45205355 
 1743      50455249 
 1743      4555522D 
 1743      20525954 
 1744 00da 0000     		.space	2
 1745              	.LC12:
 1746 00dc 424F524E 		.ascii	"BORNE INFERIEUR- RYTHME CARDIAQUE\000"
 1746      4520494E 
 1746      46455249 
 1746      4555522D 
 1746      20525954 
 1747 00fe 0000     		.space	2
 1748              	.LC13:
 1749 0100 45544154 		.ascii	"ETAT DE L'ALARME DE LA FC\000"
 1749      20444520 
 1749      4C27414C 
 1749      41524D45 
 1749      20444520 
 1750 011a 0000     		.space	2
 1751              	.LC14:
 1752 011c 414C4152 		.ascii	"ALARME D'ACCELERATION\000"
 1752      4D452044 
 1752      27414343 
 1752      454C4552 
 1752      4154494F 
 1753 0132 0000     		.space	2
 1754              	.LC15:
 1755 0134 41505055 		.ascii	"APPUYE SUR LE BOUTON 00 POUR ACTIVER L'ALARME\000"
 1755      59452053 
 1755      5552204C 
 1755      4520424F 
 1755      55544F4E 
 1756 0162 0000     		.space	2
 1757              	.LC16:
 1758 0164 41505055 		.ascii	"APPUYE SUR LE BOUTON 01 POUR DESACTIVER L'ALARME\000"
 1758      59452053 
 1758      5552204C 
 1758      4520424F 
 1758      55544F4E 
ARM GAS  C:\Users\Mahrukh\AppData\Local\Temp\ccJcQtli.s 			page 54


 1759 0195 000000   		.space	3
 1760              	.LC17:
 1761 0198 434F5552 		.ascii	"COURANT DELs\000"
 1761      414E5420 
 1761      44454C73 
 1761      00
 1762 01a5 000000   		.space	3
 1763              	.LC18:
 1764 01a8 4C452043 		.ascii	"LE COURANT CONFIGURE DES LEDS\000"
 1764      4F555241 
 1764      4E542043 
 1764      4F4E4649 
 1764      47555245 
 1765 01c6 0000     		.space	2
 1766              	.LC19:
 1767 01c8 44552043 		.ascii	"DU CAPTEUR SPO2 MAX30102 EST:\000"
 1767      41505445 
 1767      55522053 
 1767      504F3220 
 1767      4D415833 
 1768 01e6 0000     		.space	2
 1769              	.LC20:
 1770 01e8 25640A0D 		.ascii	"%d\012\015\000"
 1770      00
 1771 01ed 000000   		.space	3
 1772              	.LC21:
 1773 01f0 6D4100   		.ascii	"mA\000"
 1774 01f3 00       		.space	1
 1775              	.LC22:
 1776 01f4 44454649 		.ascii	"DEFINITION DE L'INTERVALLE DE L'ALARME\000"
 1776      4E495449 
 1776      4F4E2044 
 1776      45204C27 
 1776      494E5445 
 1777 021b 00       		.space	1
 1778              	.LC23:
 1779 021c 44454649 		.ascii	"DEFINIISSEZ LA BORNE SUPERIEUR DE LA FC\000"
 1779      4E494953 
 1779      53455A20 
 1779      4C412042 
 1779      4F524E45 
 1780              	.LC24:
 1781 0244 424F524E 		.ascii	"BORNE SUPERIEUR: \000"
 1781      45205355 
 1781      50455249 
 1781      4555523A 
 1781      2000
 1782 0256 0000     		.space	2
 1783              	.LC25:
 1784 0258 44454649 		.ascii	"DEFINIISSEZ LA BORNE INFERIEUR DE LA FC\000"
 1784      4E494953 
 1784      53455A20 
 1784      4C412042 
 1784      4F524E45 
 1785              	.LC26:
 1786 0280 424F524E 		.ascii	"BORNE INFERIEUR: \000"
 1786      4520494E 
ARM GAS  C:\Users\Mahrukh\AppData\Local\Temp\ccJcQtli.s 			page 55


 1786      46455249 
 1786      4555523A 
 1786      2000
 1787 0292 0000     		.space	2
 1788              	.LC27:
 1789 0294 414C4152 		.ascii	"ALARME DE LA FREQUENCE CARDIAQUE\000"
 1789      4D452044 
 1789      45204C41 
 1789      20465245 
 1789      5155454E 
 1790 02b5 000000   		.space	3
 1791              	.LC28:
 1792 02b8 4C27616C 		.ascii	"L'alarme est activee \000"
 1792      61726D65 
 1792      20657374 
 1792      20616374 
 1792      69766565 
 1793 02ce 0000     		.space	2
 1794              	.LC29:
 1795 02d0 4C27616C 		.ascii	"L'alarme est desactivee\000"
 1795      61726D65 
 1795      20657374 
 1795      20646573 
 1795      61637469 
 1796              		.text
 1797              	.Letext0:
 1798              		.file 3 "c:\\program files (x86)\\cypress\\psoc creator\\4.4\\psoc creator\\import\\gnu\\arm\\5.4.
 1799              		.file 4 "c:\\program files (x86)\\cypress\\psoc creator\\4.4\\psoc creator\\import\\gnu\\arm\\5.4.
 1800              		.file 5 "Generated_Source\\PSoC6\\pdl\\devices/psoc6/include/ip/cyip_gpio.h"
 1801              		.file 6 "Generated_Source\\PSoC6\\pdl\\devices/psoc6/include/psoc6_01_config.h"
 1802              		.file 7 "Generated_Source\\PSoC6\\pdl\\drivers/peripheral/device/cy_device.h"
 1803              		.file 8 "Generated_Source\\PSoC6\\pdl\\drivers/peripheral/syslib/cy_syslib.h"
 1804              		.file 9 "Generated_Source\\PSoC6\\pdl\\drivers/peripheral/scb/cy_scb_spi.h"
 1805              		.file 10 "Generated_Source\\PSoC6\\pdl\\drivers/peripheral/scb/cy_scb_uart.h"
 1806              		.file 11 "Generated_Source\\PSoC6\\pdl\\drivers/peripheral/tcpwm/cy_tcpwm_counter.h"
 1807              		.file 12 "Generated_Source\\PSoC6\\pdl\\middleware/emWin/code/include/GUI_Type.h"
 1808              		.file 13 ".\\eInk Library/pervasive_eink_hardware_driver.h"
 1809              		.file 14 ".\\eInk Library/cy_eink_library.h"
 1810              		.file 15 "Generated_Source\\PSoC6\\pdl\\rtos/FreeRTOS/10.0.1/Source/portable/GCC/CM4F/portmacro.h"
 1811              		.file 16 "DISPLAY.h"
 1812              		.file 17 ".\\CMSIS\\Core\\Include/core_cm4.h"
 1813              		.file 18 "Generated_Source\\PSoC6/CY_EINK_SPIM.h"
 1814              		.file 19 "Generated_Source\\PSoC6/CY_EINK_Timer.h"
 1815              		.file 20 "Generated_Source\\PSoC6/UART_1.h"
 1816              		.file 21 "Generated_Source\\PSoC6\\pdl\\middleware/emWin/code/include/GUI.h"
 1817              		.file 22 "CAPSENS.h"
 1818              		.file 23 "LCDConf.h"
 1819              		.file 24 "c:\\program files (x86)\\cypress\\psoc creator\\4.4\\psoc creator\\import\\gnu\\arm\\5.4
 1820              		.file 25 "Generated_Source\\PSoC6\\pdl\\rtos/FreeRTOS/10.0.1/Source/include/task.h"