ARM GAS  C:\Users\user\AppData\Local\Temp\ccN5MBUb.s 			page 1


   1              		.syntax unified
   2              		.cpu cortex-m4
   3              		.eabi_attribute 27, 1
   4              		.fpu fpv4-sp-d16
   5              		.eabi_attribute 20, 1
   6              		.eabi_attribute 21, 1
   7              		.eabi_attribute 23, 3
   8              		.eabi_attribute 24, 1
   9              		.eabi_attribute 25, 1
  10              		.eabi_attribute 26, 1
  11              		.eabi_attribute 30, 1
  12              		.eabi_attribute 34, 1
  13              		.eabi_attribute 18, 4
  14              		.thumb
  15              		.syntax unified
  16              		.file	"max30102.c"
  17              		.text
  18              	.Ltext0:
  19              		.cfi_sections	.debug_frame
  20              		.section	.text.ReadMAX30102,"ax",%progbits
  21              		.align	2
  22              		.global	ReadMAX30102
  23              		.thumb
  24              		.thumb_func
  25              		.type	ReadMAX30102, %function
  26              	ReadMAX30102:
  27              	.LFB541:
  28              		.file 1 "max30102.c"
   1:max30102.c    **** 
   2:max30102.c    **** #include "FreeRTOS.h"
   3:max30102.c    **** #include "task.h"
   4:max30102.c    **** #include <stdio.h>
   5:max30102.c    **** #include <stdbool.h>
   6:max30102.c    **** #include <stdlib.h>
   7:max30102.c    **** #include "bmi160.h"
   8:max30102.c    **** #include "max30102.h"
   9:max30102.c    **** #include "Declaration.h"
  10:max30102.c    **** 
  11:max30102.c    **** bool entree = false;
  12:max30102.c    **** uint8_t ReadMAX30102(uint8_t reg_adress)
  13:max30102.c    **** {
  29              		.loc 1 13 0
  30              		.cfi_startproc
  31              		@ args = 0, pretend = 0, frame = 8
  32              		@ frame_needed = 0, uses_anonymous_args = 0
  33              	.LVL0:
  34 0000 70B5     		push	{r4, r5, r6, lr}
  35              		.cfi_def_cfa_offset 16
  36              		.cfi_offset 4, -16
  37              		.cfi_offset 5, -12
  38              		.cfi_offset 6, -8
  39              		.cfi_offset 14, -4
  40 0002 84B0     		sub	sp, sp, #16
  41              		.cfi_def_cfa_offset 32
  42 0004 0646     		mov	r6, r0
  43              	.LVL1:
  44              	.LBB33:
ARM GAS  C:\Users\user\AppData\Local\Temp\ccN5MBUb.s 			page 2


  45              	.LBB34:
  46              		.file 2 "Generated_Source\\PSoC6/I2C_2.h"
   1:Generated_Source\PSoC6/I2C_2.h **** /***************************************************************************//**
   2:Generated_Source\PSoC6/I2C_2.h **** * \file I2C_2.c
   3:Generated_Source\PSoC6/I2C_2.h **** * \version 2.0
   4:Generated_Source\PSoC6/I2C_2.h **** *
   5:Generated_Source\PSoC6/I2C_2.h **** *  This file provides constants and parameter values for the I2C component.
   6:Generated_Source\PSoC6/I2C_2.h **** *
   7:Generated_Source\PSoC6/I2C_2.h **** ********************************************************************************
   8:Generated_Source\PSoC6/I2C_2.h **** * \copyright
   9:Generated_Source\PSoC6/I2C_2.h **** * Copyright 2016-2017, Cypress Semiconductor Corporation. All rights reserved.
  10:Generated_Source\PSoC6/I2C_2.h **** * You may use this file only in accordance with the license, terms, conditions,
  11:Generated_Source\PSoC6/I2C_2.h **** * disclaimers, and limitations in the end user license agreement accompanying
  12:Generated_Source\PSoC6/I2C_2.h **** * the software package with which this file was provided.
  13:Generated_Source\PSoC6/I2C_2.h **** *******************************************************************************/
  14:Generated_Source\PSoC6/I2C_2.h **** 
  15:Generated_Source\PSoC6/I2C_2.h **** #if !defined(I2C_2_CY_SCB_I2C_PDL_H)
  16:Generated_Source\PSoC6/I2C_2.h **** #define I2C_2_CY_SCB_I2C_PDL_H
  17:Generated_Source\PSoC6/I2C_2.h **** 
  18:Generated_Source\PSoC6/I2C_2.h **** #include "cyfitter.h"
  19:Generated_Source\PSoC6/I2C_2.h **** #include "scb/cy_scb_i2c.h"
  20:Generated_Source\PSoC6/I2C_2.h **** 
  21:Generated_Source\PSoC6/I2C_2.h **** #if defined(__cplusplus)
  22:Generated_Source\PSoC6/I2C_2.h **** extern "C" {
  23:Generated_Source\PSoC6/I2C_2.h **** #endif
  24:Generated_Source\PSoC6/I2C_2.h **** 
  25:Generated_Source\PSoC6/I2C_2.h **** /***************************************
  26:Generated_Source\PSoC6/I2C_2.h **** *   Initial Parameter Constants
  27:Generated_Source\PSoC6/I2C_2.h **** ****************************************/
  28:Generated_Source\PSoC6/I2C_2.h **** 
  29:Generated_Source\PSoC6/I2C_2.h **** #define I2C_2_MODE               (0x2U)
  30:Generated_Source\PSoC6/I2C_2.h **** #define I2C_2_MODE_SLAVE_MASK    (0x1U)
  31:Generated_Source\PSoC6/I2C_2.h **** #define I2C_2_MODE_MASTER_MASK   (0x2U)
  32:Generated_Source\PSoC6/I2C_2.h **** 
  33:Generated_Source\PSoC6/I2C_2.h **** #define I2C_2_ENABLE_SLAVE       (0UL != (I2C_2_MODE & I2C_2_MODE_SLAVE_MASK))
  34:Generated_Source\PSoC6/I2C_2.h **** #define I2C_2_ENABLE_MASTER      (0UL != (I2C_2_MODE & I2C_2_MODE_MASTER_MASK))
  35:Generated_Source\PSoC6/I2C_2.h **** #define I2C_2_MANUAL_SCL_CONTROL (0U)
  36:Generated_Source\PSoC6/I2C_2.h **** 
  37:Generated_Source\PSoC6/I2C_2.h **** 
  38:Generated_Source\PSoC6/I2C_2.h **** /***************************************
  39:Generated_Source\PSoC6/I2C_2.h **** *        Function Prototypes
  40:Generated_Source\PSoC6/I2C_2.h **** ***************************************/
  41:Generated_Source\PSoC6/I2C_2.h **** /**
  42:Generated_Source\PSoC6/I2C_2.h **** * \addtogroup group_general
  43:Generated_Source\PSoC6/I2C_2.h **** * @{
  44:Generated_Source\PSoC6/I2C_2.h **** */
  45:Generated_Source\PSoC6/I2C_2.h **** /* Component only APIs. */
  46:Generated_Source\PSoC6/I2C_2.h **** void I2C_2_Start(void);
  47:Generated_Source\PSoC6/I2C_2.h **** 
  48:Generated_Source\PSoC6/I2C_2.h **** /* Basic functions. */
  49:Generated_Source\PSoC6/I2C_2.h **** __STATIC_INLINE cy_en_scb_i2c_status_t I2C_2_Init(cy_stc_scb_i2c_config_t const *config);
  50:Generated_Source\PSoC6/I2C_2.h **** __STATIC_INLINE void I2C_2_DeInit (void);
  51:Generated_Source\PSoC6/I2C_2.h **** __STATIC_INLINE void I2C_2_Enable (void);
  52:Generated_Source\PSoC6/I2C_2.h **** __STATIC_INLINE void I2C_2_Disable(void);
  53:Generated_Source\PSoC6/I2C_2.h **** 
  54:Generated_Source\PSoC6/I2C_2.h **** /* Data rate configuration functions. */
  55:Generated_Source\PSoC6/I2C_2.h **** __STATIC_INLINE uint32_t I2C_2_SetDataRate(uint32_t dataRateHz, uint32_t scbClockHz);
ARM GAS  C:\Users\user\AppData\Local\Temp\ccN5MBUb.s 			page 3


  56:Generated_Source\PSoC6/I2C_2.h **** __STATIC_INLINE uint32_t I2C_2_GetDataRate(uint32_t scbClockHz);
  57:Generated_Source\PSoC6/I2C_2.h **** 
  58:Generated_Source\PSoC6/I2C_2.h **** /* Register callbacks. */
  59:Generated_Source\PSoC6/I2C_2.h **** __STATIC_INLINE void I2C_2_RegisterEventCallback(cy_cb_scb_i2c_handle_events_t callback);
  60:Generated_Source\PSoC6/I2C_2.h **** #if (I2C_2_ENABLE_SLAVE)
  61:Generated_Source\PSoC6/I2C_2.h **** __STATIC_INLINE void I2C_2_RegisterAddrCallback (cy_cb_scb_i2c_handle_addr_t callback);
  62:Generated_Source\PSoC6/I2C_2.h **** #endif /* (I2C_2_ENABLE_SLAVE) */
  63:Generated_Source\PSoC6/I2C_2.h **** 
  64:Generated_Source\PSoC6/I2C_2.h **** /* Configuration functions. */
  65:Generated_Source\PSoC6/I2C_2.h **** #if (I2C_2_ENABLE_SLAVE)
  66:Generated_Source\PSoC6/I2C_2.h **** __STATIC_INLINE void     I2C_2_SlaveSetAddress(uint8_t addr);
  67:Generated_Source\PSoC6/I2C_2.h **** __STATIC_INLINE uint32_t I2C_2_SlaveGetAddress(void);
  68:Generated_Source\PSoC6/I2C_2.h **** __STATIC_INLINE void     I2C_2_SlaveSetAddressMask(uint8_t addrMask);
  69:Generated_Source\PSoC6/I2C_2.h **** __STATIC_INLINE uint32_t I2C_2_SlaveGetAddressMask(void);
  70:Generated_Source\PSoC6/I2C_2.h **** #endif /* (I2C_2_ENABLE_SLAVE) */
  71:Generated_Source\PSoC6/I2C_2.h **** 
  72:Generated_Source\PSoC6/I2C_2.h **** #if (I2C_2_ENABLE_MASTER)
  73:Generated_Source\PSoC6/I2C_2.h **** __STATIC_INLINE void I2C_2_MasterSetLowPhaseDutyCycle (uint32_t clockCycles);
  74:Generated_Source\PSoC6/I2C_2.h **** __STATIC_INLINE void I2C_2_MasterSetHighPhaseDutyCycle(uint32_t clockCycles);
  75:Generated_Source\PSoC6/I2C_2.h **** #endif /* (I2C_2_ENABLE_MASTER) */
  76:Generated_Source\PSoC6/I2C_2.h **** 
  77:Generated_Source\PSoC6/I2C_2.h **** /* Bus status. */
  78:Generated_Source\PSoC6/I2C_2.h **** __STATIC_INLINE bool     I2C_2_IsBusBusy(void);
  79:Generated_Source\PSoC6/I2C_2.h **** 
  80:Generated_Source\PSoC6/I2C_2.h **** /* Slave functions. */
  81:Generated_Source\PSoC6/I2C_2.h **** #if (I2C_2_ENABLE_SLAVE)
  82:Generated_Source\PSoC6/I2C_2.h **** __STATIC_INLINE uint32_t I2C_2_SlaveGetStatus(void);
  83:Generated_Source\PSoC6/I2C_2.h **** 
  84:Generated_Source\PSoC6/I2C_2.h **** __STATIC_INLINE void     I2C_2_SlaveConfigReadBuf(uint8_t *buffer, uint32_t size);
  85:Generated_Source\PSoC6/I2C_2.h **** __STATIC_INLINE void     I2C_2_SlaveAbortRead(void);
  86:Generated_Source\PSoC6/I2C_2.h **** __STATIC_INLINE uint32_t I2C_2_SlaveGetReadTransferCount(void);
  87:Generated_Source\PSoC6/I2C_2.h **** __STATIC_INLINE uint32_t I2C_2_SlaveClearReadStatus(void);
  88:Generated_Source\PSoC6/I2C_2.h **** 
  89:Generated_Source\PSoC6/I2C_2.h **** __STATIC_INLINE void     I2C_2_SlaveConfigWriteBuf(uint8_t *buffer, uint32_t size);
  90:Generated_Source\PSoC6/I2C_2.h **** __STATIC_INLINE void     I2C_2_SlaveAbortWrite(void);
  91:Generated_Source\PSoC6/I2C_2.h **** __STATIC_INLINE uint32_t I2C_2_SlaveGetWriteTransferCount(void);
  92:Generated_Source\PSoC6/I2C_2.h **** __STATIC_INLINE uint32_t I2C_2_SlaveClearWriteStatus(void);
  93:Generated_Source\PSoC6/I2C_2.h **** #endif /* (I2C_2_ENABLE_SLAVE) */
  94:Generated_Source\PSoC6/I2C_2.h **** 
  95:Generated_Source\PSoC6/I2C_2.h **** /* Master interrupt processing functions. */
  96:Generated_Source\PSoC6/I2C_2.h **** #if (I2C_2_ENABLE_MASTER)
  97:Generated_Source\PSoC6/I2C_2.h **** __STATIC_INLINE uint32_t I2C_2_MasterGetStatus(void);
  98:Generated_Source\PSoC6/I2C_2.h **** 
  99:Generated_Source\PSoC6/I2C_2.h **** __STATIC_INLINE cy_en_scb_i2c_status_t I2C_2_MasterRead(cy_stc_scb_i2c_master_xfer_config_t *xferCo
 100:Generated_Source\PSoC6/I2C_2.h **** __STATIC_INLINE void I2C_2_MasterAbortRead(void);
 101:Generated_Source\PSoC6/I2C_2.h **** __STATIC_INLINE cy_en_scb_i2c_status_t I2C_2_MasterWrite(cy_stc_scb_i2c_master_xfer_config_t *xferC
 102:Generated_Source\PSoC6/I2C_2.h **** __STATIC_INLINE void I2C_2_MasterAbortWrite(void);
 103:Generated_Source\PSoC6/I2C_2.h **** __STATIC_INLINE uint32_t I2C_2_MasterGetTransferCount(void);
 104:Generated_Source\PSoC6/I2C_2.h **** 
 105:Generated_Source\PSoC6/I2C_2.h **** /* Master manual processing functions. */
 106:Generated_Source\PSoC6/I2C_2.h **** __STATIC_INLINE cy_en_scb_i2c_status_t I2C_2_MasterSendStart(uint32_t address, cy_en_scb_i2c_direct
 107:Generated_Source\PSoC6/I2C_2.h **** __STATIC_INLINE cy_en_scb_i2c_status_t I2C_2_MasterSendReStart(uint32_t address, cy_en_scb_i2c_dire
 108:Generated_Source\PSoC6/I2C_2.h **** __STATIC_INLINE cy_en_scb_i2c_status_t I2C_2_MasterSendStop(uint32_t timeoutMs);
 109:Generated_Source\PSoC6/I2C_2.h **** __STATIC_INLINE cy_en_scb_i2c_status_t I2C_2_MasterReadByte(cy_en_scb_i2c_command_t ackNack, uint8_
 110:Generated_Source\PSoC6/I2C_2.h **** __STATIC_INLINE cy_en_scb_i2c_status_t I2C_2_MasterWriteByte(uint8_t byte, uint32_t timeoutMs);
 111:Generated_Source\PSoC6/I2C_2.h **** #endif /* (I2C_2_ENABLE_MASTER) */
 112:Generated_Source\PSoC6/I2C_2.h **** 
ARM GAS  C:\Users\user\AppData\Local\Temp\ccN5MBUb.s 			page 4


 113:Generated_Source\PSoC6/I2C_2.h **** /* Interrupt handler. */
 114:Generated_Source\PSoC6/I2C_2.h **** __STATIC_INLINE void I2C_2_Interrupt(void);
 115:Generated_Source\PSoC6/I2C_2.h **** /** @} group_general */
 116:Generated_Source\PSoC6/I2C_2.h **** 
 117:Generated_Source\PSoC6/I2C_2.h **** 
 118:Generated_Source\PSoC6/I2C_2.h **** /***************************************
 119:Generated_Source\PSoC6/I2C_2.h **** *    Variables with External Linkage
 120:Generated_Source\PSoC6/I2C_2.h **** ***************************************/
 121:Generated_Source\PSoC6/I2C_2.h **** /**
 122:Generated_Source\PSoC6/I2C_2.h **** * \addtogroup group_globals
 123:Generated_Source\PSoC6/I2C_2.h **** * @{
 124:Generated_Source\PSoC6/I2C_2.h **** */
 125:Generated_Source\PSoC6/I2C_2.h **** extern uint8_t I2C_2_initVar;
 126:Generated_Source\PSoC6/I2C_2.h **** extern cy_stc_scb_i2c_config_t const I2C_2_config;
 127:Generated_Source\PSoC6/I2C_2.h **** extern cy_stc_scb_i2c_context_t I2C_2_context;
 128:Generated_Source\PSoC6/I2C_2.h **** /** @} group_globals */
 129:Generated_Source\PSoC6/I2C_2.h **** 
 130:Generated_Source\PSoC6/I2C_2.h **** 
 131:Generated_Source\PSoC6/I2C_2.h **** /***************************************
 132:Generated_Source\PSoC6/I2C_2.h **** *         Preprocessor Macros
 133:Generated_Source\PSoC6/I2C_2.h **** ***************************************/
 134:Generated_Source\PSoC6/I2C_2.h **** /**
 135:Generated_Source\PSoC6/I2C_2.h **** * \addtogroup group_macros
 136:Generated_Source\PSoC6/I2C_2.h **** * @{
 137:Generated_Source\PSoC6/I2C_2.h **** */
 138:Generated_Source\PSoC6/I2C_2.h **** /** The pointer to the base address of the SCB instance */
 139:Generated_Source\PSoC6/I2C_2.h **** #define I2C_2_HW     ((CySCB_Type *) I2C_2_SCB__HW)
 140:Generated_Source\PSoC6/I2C_2.h **** 
 141:Generated_Source\PSoC6/I2C_2.h **** /** The desired data rate in Hz */
 142:Generated_Source\PSoC6/I2C_2.h **** #define I2C_2_DATA_RATE_HZ      (100000U)
 143:Generated_Source\PSoC6/I2C_2.h **** 
 144:Generated_Source\PSoC6/I2C_2.h **** /** The frequency of the clock used by the Component in Hz */
 145:Generated_Source\PSoC6/I2C_2.h **** #define I2C_2_CLK_FREQ_HZ       (1562500U)
 146:Generated_Source\PSoC6/I2C_2.h **** 
 147:Generated_Source\PSoC6/I2C_2.h **** /** The number of Component clocks used by the master to generate the SCL
 148:Generated_Source\PSoC6/I2C_2.h **** * low phase. This number is calculated by GUI based on the selected data rate.
 149:Generated_Source\PSoC6/I2C_2.h **** */
 150:Generated_Source\PSoC6/I2C_2.h **** #define I2C_2_LOW_PHASE_DUTY_CYCLE   (8U)
 151:Generated_Source\PSoC6/I2C_2.h **** 
 152:Generated_Source\PSoC6/I2C_2.h **** /** The number of Component clocks used by the master to generate the SCL
 153:Generated_Source\PSoC6/I2C_2.h **** * high phase. This number is calculated by GUI based on the selected data rate.
 154:Generated_Source\PSoC6/I2C_2.h **** */
 155:Generated_Source\PSoC6/I2C_2.h **** #define I2C_2_HIGH_PHASE_DUTY_CYCLE  (8U)
 156:Generated_Source\PSoC6/I2C_2.h **** /** @} group_macros */
 157:Generated_Source\PSoC6/I2C_2.h **** 
 158:Generated_Source\PSoC6/I2C_2.h **** 
 159:Generated_Source\PSoC6/I2C_2.h **** /***************************************
 160:Generated_Source\PSoC6/I2C_2.h **** *    In-line Function Implementation
 161:Generated_Source\PSoC6/I2C_2.h **** ***************************************/
 162:Generated_Source\PSoC6/I2C_2.h **** 
 163:Generated_Source\PSoC6/I2C_2.h **** /*******************************************************************************
 164:Generated_Source\PSoC6/I2C_2.h **** * Function Name: I2C_2_Init
 165:Generated_Source\PSoC6/I2C_2.h **** ****************************************************************************//**
 166:Generated_Source\PSoC6/I2C_2.h **** *
 167:Generated_Source\PSoC6/I2C_2.h **** * Invokes the Cy_SCB_I2C_Init() PDL driver function.
 168:Generated_Source\PSoC6/I2C_2.h **** *
 169:Generated_Source\PSoC6/I2C_2.h **** *******************************************************************************/
ARM GAS  C:\Users\user\AppData\Local\Temp\ccN5MBUb.s 			page 5


 170:Generated_Source\PSoC6/I2C_2.h **** __STATIC_INLINE cy_en_scb_i2c_status_t I2C_2_Init(cy_stc_scb_i2c_config_t const *config)
 171:Generated_Source\PSoC6/I2C_2.h **** {
 172:Generated_Source\PSoC6/I2C_2.h ****     return Cy_SCB_I2C_Init(I2C_2_HW, config, &I2C_2_context);
 173:Generated_Source\PSoC6/I2C_2.h **** }
 174:Generated_Source\PSoC6/I2C_2.h **** 
 175:Generated_Source\PSoC6/I2C_2.h **** 
 176:Generated_Source\PSoC6/I2C_2.h **** /*******************************************************************************
 177:Generated_Source\PSoC6/I2C_2.h **** *  Function Name: I2C_2_DeInit
 178:Generated_Source\PSoC6/I2C_2.h **** ****************************************************************************//**
 179:Generated_Source\PSoC6/I2C_2.h **** *
 180:Generated_Source\PSoC6/I2C_2.h **** * Invokes the Cy_SCB_I2C_DeInit() PDL driver function.
 181:Generated_Source\PSoC6/I2C_2.h **** *
 182:Generated_Source\PSoC6/I2C_2.h **** *******************************************************************************/
 183:Generated_Source\PSoC6/I2C_2.h **** __STATIC_INLINE void I2C_2_DeInit(void)
 184:Generated_Source\PSoC6/I2C_2.h **** {
 185:Generated_Source\PSoC6/I2C_2.h ****     Cy_SCB_I2C_DeInit(I2C_2_HW);
 186:Generated_Source\PSoC6/I2C_2.h **** }
 187:Generated_Source\PSoC6/I2C_2.h **** 
 188:Generated_Source\PSoC6/I2C_2.h **** 
 189:Generated_Source\PSoC6/I2C_2.h **** /*******************************************************************************
 190:Generated_Source\PSoC6/I2C_2.h **** * Function Name: I2C_2_Enable
 191:Generated_Source\PSoC6/I2C_2.h **** ****************************************************************************//**
 192:Generated_Source\PSoC6/I2C_2.h **** *
 193:Generated_Source\PSoC6/I2C_2.h **** * Invokes the Cy_SCB_I2C_Enable() PDL driver function.
 194:Generated_Source\PSoC6/I2C_2.h **** *
 195:Generated_Source\PSoC6/I2C_2.h **** *******************************************************************************/
 196:Generated_Source\PSoC6/I2C_2.h **** __STATIC_INLINE void I2C_2_Enable(void)
 197:Generated_Source\PSoC6/I2C_2.h **** {
 198:Generated_Source\PSoC6/I2C_2.h ****     Cy_SCB_I2C_Enable(I2C_2_HW);
 199:Generated_Source\PSoC6/I2C_2.h **** }
 200:Generated_Source\PSoC6/I2C_2.h **** 
 201:Generated_Source\PSoC6/I2C_2.h **** 
 202:Generated_Source\PSoC6/I2C_2.h **** /*******************************************************************************
 203:Generated_Source\PSoC6/I2C_2.h **** * Function Name: I2C_2_Disable
 204:Generated_Source\PSoC6/I2C_2.h **** ****************************************************************************//**
 205:Generated_Source\PSoC6/I2C_2.h **** *
 206:Generated_Source\PSoC6/I2C_2.h **** * Invokes the Cy_SCB_I2C_Disable() PDL driver function.
 207:Generated_Source\PSoC6/I2C_2.h **** *
 208:Generated_Source\PSoC6/I2C_2.h **** *******************************************************************************/
 209:Generated_Source\PSoC6/I2C_2.h **** __STATIC_INLINE void I2C_2_Disable(void)
 210:Generated_Source\PSoC6/I2C_2.h **** {
 211:Generated_Source\PSoC6/I2C_2.h ****     Cy_SCB_I2C_Disable(I2C_2_HW, &I2C_2_context);
 212:Generated_Source\PSoC6/I2C_2.h **** }
 213:Generated_Source\PSoC6/I2C_2.h **** 
 214:Generated_Source\PSoC6/I2C_2.h **** 
 215:Generated_Source\PSoC6/I2C_2.h **** /*******************************************************************************
 216:Generated_Source\PSoC6/I2C_2.h **** * Function Name: I2C_2_SetDataRate
 217:Generated_Source\PSoC6/I2C_2.h **** ****************************************************************************//**
 218:Generated_Source\PSoC6/I2C_2.h **** *
 219:Generated_Source\PSoC6/I2C_2.h **** * Invokes the Cy_SCB_I2C_SetDataRate() PDL driver function.
 220:Generated_Source\PSoC6/I2C_2.h **** *
 221:Generated_Source\PSoC6/I2C_2.h **** *******************************************************************************/
 222:Generated_Source\PSoC6/I2C_2.h **** __STATIC_INLINE uint32_t I2C_2_SetDataRate(uint32_t dataRateHz, uint32_t scbClockHz)
 223:Generated_Source\PSoC6/I2C_2.h **** {
 224:Generated_Source\PSoC6/I2C_2.h ****     return Cy_SCB_I2C_SetDataRate(I2C_2_HW, dataRateHz, scbClockHz);
 225:Generated_Source\PSoC6/I2C_2.h **** }
 226:Generated_Source\PSoC6/I2C_2.h **** 
ARM GAS  C:\Users\user\AppData\Local\Temp\ccN5MBUb.s 			page 6


 227:Generated_Source\PSoC6/I2C_2.h **** 
 228:Generated_Source\PSoC6/I2C_2.h **** /*******************************************************************************
 229:Generated_Source\PSoC6/I2C_2.h **** * Function Name: I2C_2_GetDataRate
 230:Generated_Source\PSoC6/I2C_2.h **** ****************************************************************************//**
 231:Generated_Source\PSoC6/I2C_2.h **** *
 232:Generated_Source\PSoC6/I2C_2.h **** * Invokes the Cy_SCB_I2C_GetDataRate() PDL driver function.
 233:Generated_Source\PSoC6/I2C_2.h **** *
 234:Generated_Source\PSoC6/I2C_2.h **** *******************************************************************************/
 235:Generated_Source\PSoC6/I2C_2.h **** __STATIC_INLINE uint32_t I2C_2_GetDataRate(uint32_t scbClockHz)
 236:Generated_Source\PSoC6/I2C_2.h **** {
 237:Generated_Source\PSoC6/I2C_2.h ****     return Cy_SCB_I2C_GetDataRate(I2C_2_HW, scbClockHz);
 238:Generated_Source\PSoC6/I2C_2.h **** }
 239:Generated_Source\PSoC6/I2C_2.h **** 
 240:Generated_Source\PSoC6/I2C_2.h **** 
 241:Generated_Source\PSoC6/I2C_2.h **** /*******************************************************************************
 242:Generated_Source\PSoC6/I2C_2.h **** * Function Name: I2C_2_RegisterEventCallback
 243:Generated_Source\PSoC6/I2C_2.h **** ****************************************************************************//**
 244:Generated_Source\PSoC6/I2C_2.h **** *
 245:Generated_Source\PSoC6/I2C_2.h **** * Invokes the Cy_SCB_I2C_RegisterEventCallback() PDL driver function.
 246:Generated_Source\PSoC6/I2C_2.h **** *
 247:Generated_Source\PSoC6/I2C_2.h **** *******************************************************************************/
 248:Generated_Source\PSoC6/I2C_2.h **** __STATIC_INLINE void I2C_2_RegisterEventCallback(cy_cb_scb_i2c_handle_events_t callback)
 249:Generated_Source\PSoC6/I2C_2.h **** {
 250:Generated_Source\PSoC6/I2C_2.h ****     Cy_SCB_I2C_RegisterEventCallback(I2C_2_HW, callback, &I2C_2_context);
 251:Generated_Source\PSoC6/I2C_2.h **** }
 252:Generated_Source\PSoC6/I2C_2.h **** 
 253:Generated_Source\PSoC6/I2C_2.h **** 
 254:Generated_Source\PSoC6/I2C_2.h **** #if (I2C_2_ENABLE_SLAVE)
 255:Generated_Source\PSoC6/I2C_2.h **** /*******************************************************************************
 256:Generated_Source\PSoC6/I2C_2.h **** * Function Name: I2C_2_RegisterAddrCallback
 257:Generated_Source\PSoC6/I2C_2.h **** ****************************************************************************//**
 258:Generated_Source\PSoC6/I2C_2.h **** *
 259:Generated_Source\PSoC6/I2C_2.h **** * Invokes the Cy_SCB_I2C_RegisterAddrCallback() PDL driver function.
 260:Generated_Source\PSoC6/I2C_2.h **** *
 261:Generated_Source\PSoC6/I2C_2.h **** *******************************************************************************/
 262:Generated_Source\PSoC6/I2C_2.h **** __STATIC_INLINE void I2C_2_RegisterAddrCallback(cy_cb_scb_i2c_handle_addr_t callback)
 263:Generated_Source\PSoC6/I2C_2.h **** {
 264:Generated_Source\PSoC6/I2C_2.h ****     Cy_SCB_I2C_RegisterAddrCallback(I2C_2_HW, callback, &I2C_2_context);
 265:Generated_Source\PSoC6/I2C_2.h **** }
 266:Generated_Source\PSoC6/I2C_2.h **** #endif /* (I2C_2_ENABLE_SLAVE) */
 267:Generated_Source\PSoC6/I2C_2.h **** 
 268:Generated_Source\PSoC6/I2C_2.h **** 
 269:Generated_Source\PSoC6/I2C_2.h **** /*******************************************************************************
 270:Generated_Source\PSoC6/I2C_2.h **** * Function Name: I2C_2_IsBusBusy
 271:Generated_Source\PSoC6/I2C_2.h **** ****************************************************************************//**
 272:Generated_Source\PSoC6/I2C_2.h **** *
 273:Generated_Source\PSoC6/I2C_2.h **** * Invokes the Cy_SCB_I2C_IsBusBusy() PDL driver function.
 274:Generated_Source\PSoC6/I2C_2.h **** *
 275:Generated_Source\PSoC6/I2C_2.h **** *******************************************************************************/
 276:Generated_Source\PSoC6/I2C_2.h **** __STATIC_INLINE bool I2C_2_IsBusBusy(void)
 277:Generated_Source\PSoC6/I2C_2.h **** {
 278:Generated_Source\PSoC6/I2C_2.h ****     return Cy_SCB_I2C_IsBusBusy(I2C_2_HW);
 279:Generated_Source\PSoC6/I2C_2.h **** }
 280:Generated_Source\PSoC6/I2C_2.h **** 
 281:Generated_Source\PSoC6/I2C_2.h **** 
 282:Generated_Source\PSoC6/I2C_2.h **** #if (I2C_2_ENABLE_SLAVE)
 283:Generated_Source\PSoC6/I2C_2.h **** /*******************************************************************************
ARM GAS  C:\Users\user\AppData\Local\Temp\ccN5MBUb.s 			page 7


 284:Generated_Source\PSoC6/I2C_2.h **** * Function Name: I2C_2_SlaveSetAddress
 285:Generated_Source\PSoC6/I2C_2.h **** ****************************************************************************//**
 286:Generated_Source\PSoC6/I2C_2.h **** *
 287:Generated_Source\PSoC6/I2C_2.h **** * Invokes the Cy_SCB_I2C_SlaveGetAddress() PDL driver function.
 288:Generated_Source\PSoC6/I2C_2.h **** *
 289:Generated_Source\PSoC6/I2C_2.h **** *******************************************************************************/
 290:Generated_Source\PSoC6/I2C_2.h **** __STATIC_INLINE void I2C_2_SlaveSetAddress(uint8_t addr)
 291:Generated_Source\PSoC6/I2C_2.h **** {
 292:Generated_Source\PSoC6/I2C_2.h ****     Cy_SCB_I2C_SlaveSetAddress(I2C_2_HW, addr);
 293:Generated_Source\PSoC6/I2C_2.h **** }
 294:Generated_Source\PSoC6/I2C_2.h **** 
 295:Generated_Source\PSoC6/I2C_2.h **** 
 296:Generated_Source\PSoC6/I2C_2.h **** /*******************************************************************************
 297:Generated_Source\PSoC6/I2C_2.h **** * Function Name: I2C_2_SlaveGetAddress
 298:Generated_Source\PSoC6/I2C_2.h **** ****************************************************************************//**
 299:Generated_Source\PSoC6/I2C_2.h **** *
 300:Generated_Source\PSoC6/I2C_2.h **** * Invokes the Cy_SCB_I2C_SlaveGetAddress() PDL driver function.
 301:Generated_Source\PSoC6/I2C_2.h **** *
 302:Generated_Source\PSoC6/I2C_2.h **** *******************************************************************************/
 303:Generated_Source\PSoC6/I2C_2.h **** __STATIC_INLINE uint32_t I2C_2_SlaveGetAddress(void)
 304:Generated_Source\PSoC6/I2C_2.h **** {
 305:Generated_Source\PSoC6/I2C_2.h ****     return Cy_SCB_I2C_SlaveGetAddress(I2C_2_HW);
 306:Generated_Source\PSoC6/I2C_2.h **** }
 307:Generated_Source\PSoC6/I2C_2.h **** 
 308:Generated_Source\PSoC6/I2C_2.h **** 
 309:Generated_Source\PSoC6/I2C_2.h **** /*******************************************************************************
 310:Generated_Source\PSoC6/I2C_2.h **** * Function Name: I2C_2_SlaveSetAddressMask
 311:Generated_Source\PSoC6/I2C_2.h **** ****************************************************************************//**
 312:Generated_Source\PSoC6/I2C_2.h **** *
 313:Generated_Source\PSoC6/I2C_2.h **** * Invokes the Cy_SCB_I2C_SlaveSetAddressMask() PDL driver function.
 314:Generated_Source\PSoC6/I2C_2.h **** *
 315:Generated_Source\PSoC6/I2C_2.h **** *******************************************************************************/
 316:Generated_Source\PSoC6/I2C_2.h **** __STATIC_INLINE void I2C_2_SlaveSetAddressMask(uint8_t addrMask)
 317:Generated_Source\PSoC6/I2C_2.h **** {
 318:Generated_Source\PSoC6/I2C_2.h ****     Cy_SCB_I2C_SlaveSetAddressMask(I2C_2_HW, addrMask);
 319:Generated_Source\PSoC6/I2C_2.h **** }
 320:Generated_Source\PSoC6/I2C_2.h **** 
 321:Generated_Source\PSoC6/I2C_2.h **** 
 322:Generated_Source\PSoC6/I2C_2.h **** /*******************************************************************************
 323:Generated_Source\PSoC6/I2C_2.h **** * Function Name: I2C_2_SlaveGetAddressMask
 324:Generated_Source\PSoC6/I2C_2.h **** ****************************************************************************//**
 325:Generated_Source\PSoC6/I2C_2.h **** *
 326:Generated_Source\PSoC6/I2C_2.h **** * Invokes the Cy_SCB_I2C_SlaveGetAddressMask() PDL driver function.
 327:Generated_Source\PSoC6/I2C_2.h **** *
 328:Generated_Source\PSoC6/I2C_2.h **** *******************************************************************************/
 329:Generated_Source\PSoC6/I2C_2.h **** __STATIC_INLINE uint32_t I2C_2_SlaveGetAddressMask(void)
 330:Generated_Source\PSoC6/I2C_2.h **** {
 331:Generated_Source\PSoC6/I2C_2.h ****     return Cy_SCB_I2C_SlaveGetAddressMask(I2C_2_HW);
 332:Generated_Source\PSoC6/I2C_2.h **** }
 333:Generated_Source\PSoC6/I2C_2.h **** #endif /* (I2C_2_ENABLE_SLAVE) */
 334:Generated_Source\PSoC6/I2C_2.h **** 
 335:Generated_Source\PSoC6/I2C_2.h **** #if (I2C_2_ENABLE_MASTER)
 336:Generated_Source\PSoC6/I2C_2.h **** /*******************************************************************************
 337:Generated_Source\PSoC6/I2C_2.h **** * Function Name: I2C_2_MasterSetLowPhaseDutyCycle
 338:Generated_Source\PSoC6/I2C_2.h **** ****************************************************************************//**
 339:Generated_Source\PSoC6/I2C_2.h **** *
 340:Generated_Source\PSoC6/I2C_2.h **** * Invokes the Cy_SCB_I2C_MasterSetLowPhaseDutyCycle() PDL driver function.
ARM GAS  C:\Users\user\AppData\Local\Temp\ccN5MBUb.s 			page 8


 341:Generated_Source\PSoC6/I2C_2.h **** *
 342:Generated_Source\PSoC6/I2C_2.h **** *******************************************************************************/
 343:Generated_Source\PSoC6/I2C_2.h **** __STATIC_INLINE void I2C_2_MasterSetLowPhaseDutyCycle(uint32_t clockCycles)
 344:Generated_Source\PSoC6/I2C_2.h **** {
 345:Generated_Source\PSoC6/I2C_2.h ****     Cy_SCB_I2C_MasterSetLowPhaseDutyCycle(I2C_2_HW, clockCycles);
 346:Generated_Source\PSoC6/I2C_2.h **** }
 347:Generated_Source\PSoC6/I2C_2.h **** 
 348:Generated_Source\PSoC6/I2C_2.h **** 
 349:Generated_Source\PSoC6/I2C_2.h **** /*******************************************************************************
 350:Generated_Source\PSoC6/I2C_2.h **** * Function Name: I2C_2_MasterSetHighPhaseDutyCycle
 351:Generated_Source\PSoC6/I2C_2.h **** ****************************************************************************//**
 352:Generated_Source\PSoC6/I2C_2.h **** *
 353:Generated_Source\PSoC6/I2C_2.h **** * Invokes the Cy_SCB_I2C_MasterSetHighPhaseDutyCycle() PDL driver function.
 354:Generated_Source\PSoC6/I2C_2.h **** *
 355:Generated_Source\PSoC6/I2C_2.h **** *******************************************************************************/
 356:Generated_Source\PSoC6/I2C_2.h **** __STATIC_INLINE void I2C_2_MasterSetHighPhaseDutyCycle(uint32_t clockCycles)
 357:Generated_Source\PSoC6/I2C_2.h **** {
 358:Generated_Source\PSoC6/I2C_2.h ****     Cy_SCB_I2C_MasterSetHighPhaseDutyCycle(I2C_2_HW, clockCycles);
 359:Generated_Source\PSoC6/I2C_2.h **** }
 360:Generated_Source\PSoC6/I2C_2.h **** #endif /* (I2C_2_ENABLE_MASTER) */
 361:Generated_Source\PSoC6/I2C_2.h **** 
 362:Generated_Source\PSoC6/I2C_2.h **** 
 363:Generated_Source\PSoC6/I2C_2.h **** #if (I2C_2_ENABLE_SLAVE)
 364:Generated_Source\PSoC6/I2C_2.h **** /*******************************************************************************
 365:Generated_Source\PSoC6/I2C_2.h **** * Function Name: I2C_2_SlaveGetStatus
 366:Generated_Source\PSoC6/I2C_2.h **** ****************************************************************************//**
 367:Generated_Source\PSoC6/I2C_2.h **** *
 368:Generated_Source\PSoC6/I2C_2.h **** * Invokes the Cy_SCB_I2C_SlaveGetStatus() PDL driver function.
 369:Generated_Source\PSoC6/I2C_2.h **** *
 370:Generated_Source\PSoC6/I2C_2.h **** *******************************************************************************/
 371:Generated_Source\PSoC6/I2C_2.h **** __STATIC_INLINE uint32_t I2C_2_SlaveGetStatus(void)
 372:Generated_Source\PSoC6/I2C_2.h **** {
 373:Generated_Source\PSoC6/I2C_2.h ****     return Cy_SCB_I2C_SlaveGetStatus(I2C_2_HW, &I2C_2_context);
 374:Generated_Source\PSoC6/I2C_2.h **** }
 375:Generated_Source\PSoC6/I2C_2.h **** 
 376:Generated_Source\PSoC6/I2C_2.h **** 
 377:Generated_Source\PSoC6/I2C_2.h **** /*******************************************************************************
 378:Generated_Source\PSoC6/I2C_2.h **** * Function Name: I2C_2_SlaveConfigReadBuf
 379:Generated_Source\PSoC6/I2C_2.h **** ****************************************************************************//**
 380:Generated_Source\PSoC6/I2C_2.h **** *
 381:Generated_Source\PSoC6/I2C_2.h **** * Invokes the Cy_SCB_I2C_SlaveConfigReadBuf() PDL driver function.
 382:Generated_Source\PSoC6/I2C_2.h **** *
 383:Generated_Source\PSoC6/I2C_2.h **** *******************************************************************************/
 384:Generated_Source\PSoC6/I2C_2.h **** __STATIC_INLINE void I2C_2_SlaveConfigReadBuf(uint8_t *buffer, uint32_t size)
 385:Generated_Source\PSoC6/I2C_2.h **** {
 386:Generated_Source\PSoC6/I2C_2.h ****     Cy_SCB_I2C_SlaveConfigReadBuf(I2C_2_HW, buffer, size, &I2C_2_context);
 387:Generated_Source\PSoC6/I2C_2.h **** }
 388:Generated_Source\PSoC6/I2C_2.h **** 
 389:Generated_Source\PSoC6/I2C_2.h **** 
 390:Generated_Source\PSoC6/I2C_2.h **** /*******************************************************************************
 391:Generated_Source\PSoC6/I2C_2.h **** * Function Name: I2C_2_SlaveAbortRead
 392:Generated_Source\PSoC6/I2C_2.h **** ****************************************************************************//**
 393:Generated_Source\PSoC6/I2C_2.h **** *
 394:Generated_Source\PSoC6/I2C_2.h **** * Invokes the Cy_SCB_I2C_SlaveAbortRead() PDL driver function.
 395:Generated_Source\PSoC6/I2C_2.h **** *
 396:Generated_Source\PSoC6/I2C_2.h **** *******************************************************************************/
 397:Generated_Source\PSoC6/I2C_2.h **** __STATIC_INLINE void I2C_2_SlaveAbortRead(void)
ARM GAS  C:\Users\user\AppData\Local\Temp\ccN5MBUb.s 			page 9


 398:Generated_Source\PSoC6/I2C_2.h **** {
 399:Generated_Source\PSoC6/I2C_2.h ****     Cy_SCB_I2C_SlaveAbortRead(I2C_2_HW, &I2C_2_context);
 400:Generated_Source\PSoC6/I2C_2.h **** }
 401:Generated_Source\PSoC6/I2C_2.h **** 
 402:Generated_Source\PSoC6/I2C_2.h **** 
 403:Generated_Source\PSoC6/I2C_2.h **** /*******************************************************************************
 404:Generated_Source\PSoC6/I2C_2.h **** * Function Name: I2C_2_SlaveGetReadTransferCount
 405:Generated_Source\PSoC6/I2C_2.h **** ****************************************************************************//**
 406:Generated_Source\PSoC6/I2C_2.h **** *
 407:Generated_Source\PSoC6/I2C_2.h **** * Invokes the Cy_SCB_I2C_SlaveGetReadTransferCount() PDL driver function.
 408:Generated_Source\PSoC6/I2C_2.h **** *
 409:Generated_Source\PSoC6/I2C_2.h **** *******************************************************************************/
 410:Generated_Source\PSoC6/I2C_2.h **** __STATIC_INLINE uint32_t I2C_2_SlaveGetReadTransferCount(void)
 411:Generated_Source\PSoC6/I2C_2.h **** {
 412:Generated_Source\PSoC6/I2C_2.h ****     return Cy_SCB_I2C_SlaveGetReadTransferCount(I2C_2_HW, &I2C_2_context);
 413:Generated_Source\PSoC6/I2C_2.h **** }
 414:Generated_Source\PSoC6/I2C_2.h **** 
 415:Generated_Source\PSoC6/I2C_2.h **** 
 416:Generated_Source\PSoC6/I2C_2.h **** /*******************************************************************************
 417:Generated_Source\PSoC6/I2C_2.h **** * Function Name: I2C_2_SlaveClearReadStatus
 418:Generated_Source\PSoC6/I2C_2.h **** ****************************************************************************//**
 419:Generated_Source\PSoC6/I2C_2.h **** *
 420:Generated_Source\PSoC6/I2C_2.h **** * Invokes the Cy_SCB_I2C_SlaveClearReadStatus() PDL driver function.
 421:Generated_Source\PSoC6/I2C_2.h **** *
 422:Generated_Source\PSoC6/I2C_2.h **** *******************************************************************************/
 423:Generated_Source\PSoC6/I2C_2.h **** __STATIC_INLINE uint32_t I2C_2_SlaveClearReadStatus(void)
 424:Generated_Source\PSoC6/I2C_2.h **** {
 425:Generated_Source\PSoC6/I2C_2.h ****     return Cy_SCB_I2C_SlaveClearReadStatus(I2C_2_HW, &I2C_2_context);
 426:Generated_Source\PSoC6/I2C_2.h **** }
 427:Generated_Source\PSoC6/I2C_2.h **** 
 428:Generated_Source\PSoC6/I2C_2.h **** 
 429:Generated_Source\PSoC6/I2C_2.h **** /*******************************************************************************
 430:Generated_Source\PSoC6/I2C_2.h **** * Function Name: I2C_2_SlaveConfigWriteBuf
 431:Generated_Source\PSoC6/I2C_2.h **** ****************************************************************************//**
 432:Generated_Source\PSoC6/I2C_2.h **** *
 433:Generated_Source\PSoC6/I2C_2.h **** * Invokes the Cy_SCB_I2C_SlaveConfigWriteBuf() PDL driver function.
 434:Generated_Source\PSoC6/I2C_2.h **** *
 435:Generated_Source\PSoC6/I2C_2.h **** *******************************************************************************/
 436:Generated_Source\PSoC6/I2C_2.h **** __STATIC_INLINE void I2C_2_SlaveConfigWriteBuf(uint8_t *buffer, uint32_t size)
 437:Generated_Source\PSoC6/I2C_2.h **** {
 438:Generated_Source\PSoC6/I2C_2.h ****     Cy_SCB_I2C_SlaveConfigWriteBuf(I2C_2_HW, buffer, size, &I2C_2_context);
 439:Generated_Source\PSoC6/I2C_2.h **** }
 440:Generated_Source\PSoC6/I2C_2.h **** 
 441:Generated_Source\PSoC6/I2C_2.h **** 
 442:Generated_Source\PSoC6/I2C_2.h **** /*******************************************************************************
 443:Generated_Source\PSoC6/I2C_2.h **** * Function Name: I2C_2_SlaveAbortWrite
 444:Generated_Source\PSoC6/I2C_2.h **** ****************************************************************************//**
 445:Generated_Source\PSoC6/I2C_2.h **** *
 446:Generated_Source\PSoC6/I2C_2.h **** * Invokes the Cy_SCB_I2C_SlaveAbortWrite() PDL driver function.
 447:Generated_Source\PSoC6/I2C_2.h **** *
 448:Generated_Source\PSoC6/I2C_2.h **** *******************************************************************************/
 449:Generated_Source\PSoC6/I2C_2.h **** __STATIC_INLINE void I2C_2_SlaveAbortWrite(void)
 450:Generated_Source\PSoC6/I2C_2.h **** {
 451:Generated_Source\PSoC6/I2C_2.h ****     Cy_SCB_I2C_SlaveAbortWrite(I2C_2_HW, &I2C_2_context);
 452:Generated_Source\PSoC6/I2C_2.h **** }
 453:Generated_Source\PSoC6/I2C_2.h **** 
 454:Generated_Source\PSoC6/I2C_2.h **** 
ARM GAS  C:\Users\user\AppData\Local\Temp\ccN5MBUb.s 			page 10


 455:Generated_Source\PSoC6/I2C_2.h **** /*******************************************************************************
 456:Generated_Source\PSoC6/I2C_2.h **** * Function Name: I2C_2_SlaveGetWriteTransferCount
 457:Generated_Source\PSoC6/I2C_2.h **** ****************************************************************************//**
 458:Generated_Source\PSoC6/I2C_2.h **** *
 459:Generated_Source\PSoC6/I2C_2.h **** * Invokes the Cy_SCB_I2C_SlaveGetWriteTransferCount() PDL driver function.
 460:Generated_Source\PSoC6/I2C_2.h **** *
 461:Generated_Source\PSoC6/I2C_2.h **** *******************************************************************************/
 462:Generated_Source\PSoC6/I2C_2.h **** __STATIC_INLINE uint32_t I2C_2_SlaveGetWriteTransferCount(void)
 463:Generated_Source\PSoC6/I2C_2.h **** {
 464:Generated_Source\PSoC6/I2C_2.h ****     return Cy_SCB_I2C_SlaveGetWriteTransferCount(I2C_2_HW, &I2C_2_context);
 465:Generated_Source\PSoC6/I2C_2.h **** }
 466:Generated_Source\PSoC6/I2C_2.h **** 
 467:Generated_Source\PSoC6/I2C_2.h **** 
 468:Generated_Source\PSoC6/I2C_2.h **** /*******************************************************************************
 469:Generated_Source\PSoC6/I2C_2.h **** * Function Name: I2C_2_SlaveClearWriteStatus
 470:Generated_Source\PSoC6/I2C_2.h **** ****************************************************************************//**
 471:Generated_Source\PSoC6/I2C_2.h **** *
 472:Generated_Source\PSoC6/I2C_2.h **** * Invokes the Cy_SCB_I2C_SlaveClearWriteStatus() PDL driver function.
 473:Generated_Source\PSoC6/I2C_2.h **** *
 474:Generated_Source\PSoC6/I2C_2.h **** *******************************************************************************/
 475:Generated_Source\PSoC6/I2C_2.h **** __STATIC_INLINE uint32_t I2C_2_SlaveClearWriteStatus(void)
 476:Generated_Source\PSoC6/I2C_2.h **** {
 477:Generated_Source\PSoC6/I2C_2.h ****     return Cy_SCB_I2C_SlaveClearWriteStatus(I2C_2_HW, &I2C_2_context);
 478:Generated_Source\PSoC6/I2C_2.h **** }
 479:Generated_Source\PSoC6/I2C_2.h **** #endif /* (I2C_2_ENABLE_SLAVE) */
 480:Generated_Source\PSoC6/I2C_2.h **** 
 481:Generated_Source\PSoC6/I2C_2.h **** 
 482:Generated_Source\PSoC6/I2C_2.h **** #if (I2C_2_ENABLE_MASTER)
 483:Generated_Source\PSoC6/I2C_2.h **** /*******************************************************************************
 484:Generated_Source\PSoC6/I2C_2.h **** * Function Name: I2C_2_MasterGetStatus
 485:Generated_Source\PSoC6/I2C_2.h **** ****************************************************************************//**
 486:Generated_Source\PSoC6/I2C_2.h **** *
 487:Generated_Source\PSoC6/I2C_2.h **** * Invokes the Cy_SCB_I2C_MasterGetStatus() PDL driver function.
 488:Generated_Source\PSoC6/I2C_2.h **** *
 489:Generated_Source\PSoC6/I2C_2.h **** *******************************************************************************/
 490:Generated_Source\PSoC6/I2C_2.h **** __STATIC_INLINE uint32_t I2C_2_MasterGetStatus(void)
 491:Generated_Source\PSoC6/I2C_2.h **** {
 492:Generated_Source\PSoC6/I2C_2.h ****     return Cy_SCB_I2C_MasterGetStatus(I2C_2_HW, &I2C_2_context);
 493:Generated_Source\PSoC6/I2C_2.h **** }
 494:Generated_Source\PSoC6/I2C_2.h **** 
 495:Generated_Source\PSoC6/I2C_2.h **** 
 496:Generated_Source\PSoC6/I2C_2.h **** /*******************************************************************************
 497:Generated_Source\PSoC6/I2C_2.h **** * Function Name: I2C_2_MasterRead
 498:Generated_Source\PSoC6/I2C_2.h **** ****************************************************************************//**
 499:Generated_Source\PSoC6/I2C_2.h **** *
 500:Generated_Source\PSoC6/I2C_2.h **** * Invokes the Cy_SCB_I2C_MasterRead() PDL driver function.
 501:Generated_Source\PSoC6/I2C_2.h **** *
 502:Generated_Source\PSoC6/I2C_2.h **** *******************************************************************************/
 503:Generated_Source\PSoC6/I2C_2.h **** __STATIC_INLINE cy_en_scb_i2c_status_t I2C_2_MasterRead(cy_stc_scb_i2c_master_xfer_config_t *xferCo
 504:Generated_Source\PSoC6/I2C_2.h **** {
 505:Generated_Source\PSoC6/I2C_2.h ****     return Cy_SCB_I2C_MasterRead(I2C_2_HW, xferConfig, &I2C_2_context);
 506:Generated_Source\PSoC6/I2C_2.h **** }
 507:Generated_Source\PSoC6/I2C_2.h **** 
 508:Generated_Source\PSoC6/I2C_2.h **** 
 509:Generated_Source\PSoC6/I2C_2.h **** /*******************************************************************************
 510:Generated_Source\PSoC6/I2C_2.h **** * Function Name: I2C_2_MasterAbortRead
 511:Generated_Source\PSoC6/I2C_2.h **** ****************************************************************************//**
ARM GAS  C:\Users\user\AppData\Local\Temp\ccN5MBUb.s 			page 11


 512:Generated_Source\PSoC6/I2C_2.h **** *
 513:Generated_Source\PSoC6/I2C_2.h **** * Invokes the Cy_SCB_I2C_MasterAbortRead() PDL driver function.
 514:Generated_Source\PSoC6/I2C_2.h **** *
 515:Generated_Source\PSoC6/I2C_2.h **** ******************************************************************************/
 516:Generated_Source\PSoC6/I2C_2.h **** __STATIC_INLINE void I2C_2_MasterAbortRead(void)
 517:Generated_Source\PSoC6/I2C_2.h **** {
 518:Generated_Source\PSoC6/I2C_2.h ****     Cy_SCB_I2C_MasterAbortRead(I2C_2_HW, &I2C_2_context);
 519:Generated_Source\PSoC6/I2C_2.h **** }
 520:Generated_Source\PSoC6/I2C_2.h **** 
 521:Generated_Source\PSoC6/I2C_2.h **** 
 522:Generated_Source\PSoC6/I2C_2.h **** /*******************************************************************************
 523:Generated_Source\PSoC6/I2C_2.h **** * Function Name: I2C_2_MasterWrite
 524:Generated_Source\PSoC6/I2C_2.h **** ****************************************************************************//**
 525:Generated_Source\PSoC6/I2C_2.h **** *
 526:Generated_Source\PSoC6/I2C_2.h **** * Invokes the Cy_SCB_I2C_MasterWrite() PDL driver function.
 527:Generated_Source\PSoC6/I2C_2.h **** *
 528:Generated_Source\PSoC6/I2C_2.h **** *******************************************************************************/
 529:Generated_Source\PSoC6/I2C_2.h **** __STATIC_INLINE cy_en_scb_i2c_status_t I2C_2_MasterWrite(cy_stc_scb_i2c_master_xfer_config_t *xferC
 530:Generated_Source\PSoC6/I2C_2.h **** {
 531:Generated_Source\PSoC6/I2C_2.h ****     return Cy_SCB_I2C_MasterWrite(I2C_2_HW, xferConfig, &I2C_2_context);
 532:Generated_Source\PSoC6/I2C_2.h **** }
 533:Generated_Source\PSoC6/I2C_2.h **** 
 534:Generated_Source\PSoC6/I2C_2.h **** 
 535:Generated_Source\PSoC6/I2C_2.h **** /*******************************************************************************
 536:Generated_Source\PSoC6/I2C_2.h **** * Function Name: I2C_2_MasterAbortWrite
 537:Generated_Source\PSoC6/I2C_2.h **** ****************************************************************************//**
 538:Generated_Source\PSoC6/I2C_2.h **** *
 539:Generated_Source\PSoC6/I2C_2.h **** * Invokes the Cy_SCB_I2C_MasterAbortWrite() PDL driver function.
 540:Generated_Source\PSoC6/I2C_2.h **** *
 541:Generated_Source\PSoC6/I2C_2.h **** *******************************************************************************/
 542:Generated_Source\PSoC6/I2C_2.h **** __STATIC_INLINE void I2C_2_MasterAbortWrite(void)
 543:Generated_Source\PSoC6/I2C_2.h **** {
 544:Generated_Source\PSoC6/I2C_2.h ****     Cy_SCB_I2C_MasterAbortWrite(I2C_2_HW, &I2C_2_context);
 545:Generated_Source\PSoC6/I2C_2.h **** }
 546:Generated_Source\PSoC6/I2C_2.h **** 
 547:Generated_Source\PSoC6/I2C_2.h **** 
 548:Generated_Source\PSoC6/I2C_2.h **** /*******************************************************************************
 549:Generated_Source\PSoC6/I2C_2.h **** * Function Name: I2C_2_MasterGetTransferCount
 550:Generated_Source\PSoC6/I2C_2.h **** ****************************************************************************//**
 551:Generated_Source\PSoC6/I2C_2.h **** *
 552:Generated_Source\PSoC6/I2C_2.h **** * Invokes the Cy_SCB_I2C_MasterGetTransferCount() PDL driver function.
 553:Generated_Source\PSoC6/I2C_2.h **** *
 554:Generated_Source\PSoC6/I2C_2.h **** *******************************************************************************/
 555:Generated_Source\PSoC6/I2C_2.h **** __STATIC_INLINE uint32_t I2C_2_MasterGetTransferCount(void)
 556:Generated_Source\PSoC6/I2C_2.h **** {
 557:Generated_Source\PSoC6/I2C_2.h ****     return Cy_SCB_I2C_MasterGetTransferCount(I2C_2_HW, &I2C_2_context);
 558:Generated_Source\PSoC6/I2C_2.h **** }
 559:Generated_Source\PSoC6/I2C_2.h **** 
 560:Generated_Source\PSoC6/I2C_2.h **** 
 561:Generated_Source\PSoC6/I2C_2.h **** /*******************************************************************************
 562:Generated_Source\PSoC6/I2C_2.h **** * Function Name: I2C_2_MasterSendStart
 563:Generated_Source\PSoC6/I2C_2.h **** ****************************************************************************//**
 564:Generated_Source\PSoC6/I2C_2.h **** *
 565:Generated_Source\PSoC6/I2C_2.h **** * Invokes the Cy_SCB_I2C_MasterSendStart() PDL driver function.
 566:Generated_Source\PSoC6/I2C_2.h **** *
 567:Generated_Source\PSoC6/I2C_2.h **** *******************************************************************************/
 568:Generated_Source\PSoC6/I2C_2.h **** __STATIC_INLINE cy_en_scb_i2c_status_t I2C_2_MasterSendStart(uint32_t address, cy_en_scb_i2c_direct
ARM GAS  C:\Users\user\AppData\Local\Temp\ccN5MBUb.s 			page 12


 569:Generated_Source\PSoC6/I2C_2.h **** {
 570:Generated_Source\PSoC6/I2C_2.h ****     return Cy_SCB_I2C_MasterSendStart(I2C_2_HW, address, bitRnW, timeoutMs, &I2C_2_context);
  47              		.loc 2 570 0
  48 0006 144C     		ldr	r4, .L3
  49 0008 144D     		ldr	r5, .L3+4
  50 000a 0095     		str	r5, [sp]
  51 000c 6423     		movs	r3, #100
  52 000e 0022     		movs	r2, #0
  53 0010 5721     		movs	r1, #87
  54 0012 2046     		mov	r0, r4
  55              	.LVL2:
  56 0014 FFF7FEFF 		bl	Cy_SCB_I2C_MasterSendStart
  57              	.LVL3:
  58              	.LBE34:
  59              	.LBE33:
  60              	.LBB35:
  61              	.LBB36:
 571:Generated_Source\PSoC6/I2C_2.h **** }
 572:Generated_Source\PSoC6/I2C_2.h **** 
 573:Generated_Source\PSoC6/I2C_2.h **** 
 574:Generated_Source\PSoC6/I2C_2.h **** /*******************************************************************************
 575:Generated_Source\PSoC6/I2C_2.h **** * Function Name: I2C_2_MasterSendReStart
 576:Generated_Source\PSoC6/I2C_2.h **** ****************************************************************************//**
 577:Generated_Source\PSoC6/I2C_2.h **** *
 578:Generated_Source\PSoC6/I2C_2.h **** * Invokes the Cy_SCB_I2C_MasterSendReStart() PDL driver function.
 579:Generated_Source\PSoC6/I2C_2.h **** *
 580:Generated_Source\PSoC6/I2C_2.h **** *******************************************************************************/
 581:Generated_Source\PSoC6/I2C_2.h **** __STATIC_INLINE cy_en_scb_i2c_status_t I2C_2_MasterSendReStart(uint32_t address, cy_en_scb_i2c_dire
 582:Generated_Source\PSoC6/I2C_2.h **** {
 583:Generated_Source\PSoC6/I2C_2.h ****     return Cy_SCB_I2C_MasterSendReStart(I2C_2_HW, address, bitRnW, timeoutMs, &I2C_2_context);
 584:Generated_Source\PSoC6/I2C_2.h **** }
 585:Generated_Source\PSoC6/I2C_2.h **** 
 586:Generated_Source\PSoC6/I2C_2.h **** 
 587:Generated_Source\PSoC6/I2C_2.h **** /*******************************************************************************
 588:Generated_Source\PSoC6/I2C_2.h **** * Function Name: I2C_2_MasterSendStop
 589:Generated_Source\PSoC6/I2C_2.h **** ****************************************************************************//**
 590:Generated_Source\PSoC6/I2C_2.h **** *
 591:Generated_Source\PSoC6/I2C_2.h **** * Invokes the Cy_SCB_I2C_MasterSendStop() PDL driver function.
 592:Generated_Source\PSoC6/I2C_2.h **** *
 593:Generated_Source\PSoC6/I2C_2.h **** *******************************************************************************/
 594:Generated_Source\PSoC6/I2C_2.h **** __STATIC_INLINE cy_en_scb_i2c_status_t I2C_2_MasterSendStop(uint32_t timeoutMs)
 595:Generated_Source\PSoC6/I2C_2.h **** {
 596:Generated_Source\PSoC6/I2C_2.h ****     return Cy_SCB_I2C_MasterSendStop(I2C_2_HW, timeoutMs, &I2C_2_context);
 597:Generated_Source\PSoC6/I2C_2.h **** }
 598:Generated_Source\PSoC6/I2C_2.h **** 
 599:Generated_Source\PSoC6/I2C_2.h **** 
 600:Generated_Source\PSoC6/I2C_2.h **** /*******************************************************************************
 601:Generated_Source\PSoC6/I2C_2.h **** * Function Name: I2C_2_MasterReadByte
 602:Generated_Source\PSoC6/I2C_2.h **** ****************************************************************************//**
 603:Generated_Source\PSoC6/I2C_2.h **** *
 604:Generated_Source\PSoC6/I2C_2.h **** * Invokes the Cy_SCB_I2C_MasterReadByte() PDL driver function.
 605:Generated_Source\PSoC6/I2C_2.h **** *
 606:Generated_Source\PSoC6/I2C_2.h **** *******************************************************************************/
 607:Generated_Source\PSoC6/I2C_2.h **** __STATIC_INLINE cy_en_scb_i2c_status_t I2C_2_MasterReadByte(cy_en_scb_i2c_command_t ackNack, uint8_
 608:Generated_Source\PSoC6/I2C_2.h **** {
 609:Generated_Source\PSoC6/I2C_2.h ****     return Cy_SCB_I2C_MasterReadByte(I2C_2_HW, ackNack, byte, timeoutMs, &I2C_2_context);
 610:Generated_Source\PSoC6/I2C_2.h **** }
ARM GAS  C:\Users\user\AppData\Local\Temp\ccN5MBUb.s 			page 13


 611:Generated_Source\PSoC6/I2C_2.h **** 
 612:Generated_Source\PSoC6/I2C_2.h **** 
 613:Generated_Source\PSoC6/I2C_2.h **** /*******************************************************************************
 614:Generated_Source\PSoC6/I2C_2.h **** * Function Name: I2C_2_MasterWriteByte
 615:Generated_Source\PSoC6/I2C_2.h **** ****************************************************************************//**
 616:Generated_Source\PSoC6/I2C_2.h **** *
 617:Generated_Source\PSoC6/I2C_2.h **** * Invokes the Cy_SCB_I2C_MasterWriteByte() PDL driver function.
 618:Generated_Source\PSoC6/I2C_2.h **** *
 619:Generated_Source\PSoC6/I2C_2.h **** *******************************************************************************/
 620:Generated_Source\PSoC6/I2C_2.h **** __STATIC_INLINE cy_en_scb_i2c_status_t I2C_2_MasterWriteByte(uint8_t byte, uint32_t timeoutMs)
 621:Generated_Source\PSoC6/I2C_2.h **** {
 622:Generated_Source\PSoC6/I2C_2.h ****     return Cy_SCB_I2C_MasterWriteByte(I2C_2_HW, byte, timeoutMs, &I2C_2_context);
  62              		.loc 2 622 0
  63 0018 2B46     		mov	r3, r5
  64 001a 6422     		movs	r2, #100
  65 001c 3146     		mov	r1, r6
  66 001e 2046     		mov	r0, r4
  67 0020 FFF7FEFF 		bl	Cy_SCB_I2C_MasterWriteByte
  68              	.LVL4:
  69              	.LBE36:
  70              	.LBE35:
  71              	.LBB37:
  72              	.LBB38:
 583:Generated_Source\PSoC6/I2C_2.h **** }
  73              		.loc 2 583 0
  74 0024 0095     		str	r5, [sp]
  75 0026 6423     		movs	r3, #100
  76 0028 0122     		movs	r2, #1
  77 002a 5721     		movs	r1, #87
  78 002c 2046     		mov	r0, r4
  79 002e FFF7FEFF 		bl	Cy_SCB_I2C_MasterSendReStart
  80              	.LVL5:
  81              	.LBE38:
  82              	.LBE37:
  14:max30102.c    ****     I2C_2_MasterSendStart(I2C_ADDRESS,CY_SCB_I2C_WRITE_XFER,100); // I2C master envoie le dpart
  15:max30102.c    ****     I2C_2_MasterWriteByte(reg_adress,100); // on cris l'adress du registre dans lequel on veut 
  16:max30102.c    ****     I2C_2_MasterSendReStart(I2C_ADDRESS,CY_SCB_I2C_READ_XFER,100); // restart necessaire selon la d
  17:max30102.c    ****     uint8_t data = 0;
  83              		.loc 1 17 0
  84 0032 04AA     		add	r2, sp, #16
  85 0034 0023     		movs	r3, #0
  86 0036 02F8013D 		strb	r3, [r2, #-1]!
  87              	.LVL6:
  88              	.LBB39:
  89              	.LBB40:
 609:Generated_Source\PSoC6/I2C_2.h **** }
  90              		.loc 2 609 0
  91 003a 0095     		str	r5, [sp]
  92 003c 6423     		movs	r3, #100
  93 003e 0121     		movs	r1, #1
  94 0040 2046     		mov	r0, r4
  95 0042 FFF7FEFF 		bl	Cy_SCB_I2C_MasterReadByte
  96              	.LVL7:
  97              	.LBE40:
  98              	.LBE39:
  99              	.LBB41:
 100              	.LBB42:
ARM GAS  C:\Users\user\AppData\Local\Temp\ccN5MBUb.s 			page 14


 596:Generated_Source\PSoC6/I2C_2.h **** }
 101              		.loc 2 596 0
 102 0046 2A46     		mov	r2, r5
 103 0048 6421     		movs	r1, #100
 104 004a 2046     		mov	r0, r4
 105 004c FFF7FEFF 		bl	Cy_SCB_I2C_MasterSendStop
 106              	.LVL8:
 107              	.LBE42:
 108              	.LBE41:
  18:max30102.c    ****     I2C_2_MasterReadByte(CY_SCB_I2C_NAK,(uint8_t*)&data,100); // Lecture de la data
  19:max30102.c    ****     
  20:max30102.c    ****     I2C_2_MasterSendStop(100); // stop
  21:max30102.c    ****      
  22:max30102.c    ****     return data;
  23:max30102.c    ****     
  24:max30102.c    **** }
 109              		.loc 1 24 0
 110 0050 9DF80F00 		ldrb	r0, [sp, #15]	@ zero_extendqisi2
 111 0054 04B0     		add	sp, sp, #16
 112              		.cfi_def_cfa_offset 16
 113              		@ sp needed
 114 0056 70BD     		pop	{r4, r5, r6, pc}
 115              	.L4:
 116              		.align	2
 117              	.L3:
 118 0058 00006340 		.word	1080229888
 119 005c 00000000 		.word	I2C_2_context
 120              		.cfi_endproc
 121              	.LFE541:
 122              		.size	ReadMAX30102, .-ReadMAX30102
 123              		.section	.text.ReadBurstMAX30102,"ax",%progbits
 124              		.align	2
 125              		.global	ReadBurstMAX30102
 126              		.thumb
 127              		.thumb_func
 128              		.type	ReadBurstMAX30102, %function
 129              	ReadBurstMAX30102:
 130              	.LFB542:
  25:max30102.c    **** uint8_t ReadBurstMAX30102 ( uint8_t reg_adress, uint8_t *data, uint8_t lenght){
 131              		.loc 1 25 0
 132              		.cfi_startproc
 133              		@ args = 0, pretend = 0, frame = 0
 134              		@ frame_needed = 0, uses_anonymous_args = 0
 135              	.LVL9:
 136 0000 2DE9F041 		push	{r4, r5, r6, r7, r8, lr}
 137              		.cfi_def_cfa_offset 24
 138              		.cfi_offset 4, -24
 139              		.cfi_offset 5, -20
 140              		.cfi_offset 6, -16
 141              		.cfi_offset 7, -12
 142              		.cfi_offset 8, -8
 143              		.cfi_offset 14, -4
 144 0004 82B0     		sub	sp, sp, #8
 145              		.cfi_def_cfa_offset 32
 146 0006 8046     		mov	r8, r0
 147 0008 0E46     		mov	r6, r1
 148 000a 1546     		mov	r5, r2
ARM GAS  C:\Users\user\AppData\Local\Temp\ccN5MBUb.s 			page 15


 149              	.LVL10:
 150              	.LBB43:
 151              	.LBB44:
 570:Generated_Source\PSoC6/I2C_2.h **** }
 152              		.loc 2 570 0
 153 000c 1B4C     		ldr	r4, .L9
 154 000e 1C4F     		ldr	r7, .L9+4
 155 0010 0097     		str	r7, [sp]
 156 0012 6423     		movs	r3, #100
 157 0014 0022     		movs	r2, #0
 158              	.LVL11:
 159 0016 5721     		movs	r1, #87
 160              	.LVL12:
 161 0018 2046     		mov	r0, r4
 162              	.LVL13:
 163 001a FFF7FEFF 		bl	Cy_SCB_I2C_MasterSendStart
 164              	.LVL14:
 165              	.LBE44:
 166              	.LBE43:
 167              	.LBB45:
 168              	.LBB46:
 169              		.loc 2 622 0
 170 001e 3B46     		mov	r3, r7
 171 0020 6422     		movs	r2, #100
 172 0022 4146     		mov	r1, r8
 173 0024 2046     		mov	r0, r4
 174 0026 FFF7FEFF 		bl	Cy_SCB_I2C_MasterWriteByte
 175              	.LVL15:
 176              	.LBE46:
 177              	.LBE45:
 178              	.LBB47:
 179              	.LBB48:
 583:Generated_Source\PSoC6/I2C_2.h **** }
 180              		.loc 2 583 0
 181 002a 0097     		str	r7, [sp]
 182 002c 6423     		movs	r3, #100
 183 002e 0122     		movs	r2, #1
 184 0030 5721     		movs	r1, #87
 185 0032 2046     		mov	r0, r4
 186 0034 FFF7FEFF 		bl	Cy_SCB_I2C_MasterSendReStart
 187              	.LVL16:
 188              	.LBE48:
 189              	.LBE47:
 190              	.LBB49:
  26:max30102.c    **** 
  27:max30102.c    ****     I2C_2_MasterSendStart(I2C_ADDRESS,CY_SCB_I2C_WRITE_XFER,100); // I2C master envoie le dpart
  28:max30102.c    ****     I2C_2_MasterWriteByte(reg_adress,100); // on cris l'adress du registre dans lequel on veut 
  29:max30102.c    ****     I2C_2_MasterSendReStart(I2C_ADDRESS,CY_SCB_I2C_READ_XFER,100);
  30:max30102.c    ****     
  31:max30102.c    ****     for ( int i = 0; i<lenght-1;i++)
 191              		.loc 1 31 0
 192 0038 0024     		movs	r4, #0
 193 003a 08E0     		b	.L6
 194              	.LVL17:
 195              	.L7:
 196              	.LBB50:
 197              	.LBB51:
ARM GAS  C:\Users\user\AppData\Local\Temp\ccN5MBUb.s 			page 16


 609:Generated_Source\PSoC6/I2C_2.h **** }
 198              		.loc 2 609 0 discriminator 3
 199 003c 104B     		ldr	r3, .L9+4
 200 003e 0093     		str	r3, [sp]
 201 0040 6423     		movs	r3, #100
 202 0042 3219     		adds	r2, r6, r4
 203              	.LVL18:
 204 0044 0021     		movs	r1, #0
 205 0046 0D48     		ldr	r0, .L9
 206 0048 FFF7FEFF 		bl	Cy_SCB_I2C_MasterReadByte
 207              	.LVL19:
 208              	.LBE51:
 209              	.LBE50:
 210              		.loc 1 31 0 discriminator 3
 211 004c 0134     		adds	r4, r4, #1
 212              	.LVL20:
 213              	.L6:
 214              		.loc 1 31 0 is_stmt 0 discriminator 1
 215 004e 6B1E     		subs	r3, r5, #1
 216 0050 9C42     		cmp	r4, r3
 217 0052 F3DB     		blt	.L7
 218              	.LBE49:
  32:max30102.c    ****     {
  33:max30102.c    ****         I2C_2_MasterReadByte(CY_SCB_I2C_ACK,(uint8_t*)&data[i],100); // Lecture des datas et stocka
  34:max30102.c    ****     }
  35:max30102.c    ****     
  36:max30102.c    ****     I2C_2_MasterReadByte(CY_SCB_I2C_NAK,(uint8_t*)&data[lenght-1],100);
 219              		.loc 1 36 0 is_stmt 1
 220 0054 1A46     		mov	r2, r3
 221              	.LVL21:
 222              	.LBB52:
 223              	.LBB53:
 609:Generated_Source\PSoC6/I2C_2.h **** }
 224              		.loc 2 609 0
 225 0056 094C     		ldr	r4, .L9
 226              	.LVL22:
 227 0058 094D     		ldr	r5, .L9+4
 228 005a 0095     		str	r5, [sp]
 229 005c 6423     		movs	r3, #100
 230 005e 3244     		add	r2, r2, r6
 231              	.LVL23:
 232 0060 0121     		movs	r1, #1
 233 0062 2046     		mov	r0, r4
 234 0064 FFF7FEFF 		bl	Cy_SCB_I2C_MasterReadByte
 235              	.LVL24:
 236              	.LBE53:
 237              	.LBE52:
 238              	.LBB54:
 239              	.LBB55:
 596:Generated_Source\PSoC6/I2C_2.h **** }
 240              		.loc 2 596 0
 241 0068 2A46     		mov	r2, r5
 242 006a 6421     		movs	r1, #100
 243 006c 2046     		mov	r0, r4
 244 006e FFF7FEFF 		bl	Cy_SCB_I2C_MasterSendStop
 245              	.LVL25:
 246              	.LBE55:
ARM GAS  C:\Users\user\AppData\Local\Temp\ccN5MBUb.s 			page 17


 247              	.LBE54:
  37:max30102.c    ****     I2C_2_MasterSendStop(100); // stop
  38:max30102.c    **** return 0;
  39:max30102.c    **** }  
 248              		.loc 1 39 0
 249 0072 0020     		movs	r0, #0
 250 0074 02B0     		add	sp, sp, #8
 251              		.cfi_def_cfa_offset 24
 252              		@ sp needed
 253 0076 BDE8F081 		pop	{r4, r5, r6, r7, r8, pc}
 254              	.LVL26:
 255              	.L10:
 256 007a 00BF     		.align	2
 257              	.L9:
 258 007c 00006340 		.word	1080229888
 259 0080 00000000 		.word	I2C_2_context
 260              		.cfi_endproc
 261              	.LFE542:
 262              		.size	ReadBurstMAX30102, .-ReadBurstMAX30102
 263              		.section	.text.WriteMAX30102,"ax",%progbits
 264              		.align	2
 265              		.global	WriteMAX30102
 266              		.thumb
 267              		.thumb_func
 268              		.type	WriteMAX30102, %function
 269              	WriteMAX30102:
 270              	.LFB543:
  40:max30102.c    ****     
  41:max30102.c    **** uint8_t WriteMAX30102(uint8_t reg_adress,uint8_t data)
  42:max30102.c    **** {
 271              		.loc 1 42 0
 272              		.cfi_startproc
 273              		@ args = 0, pretend = 0, frame = 0
 274              		@ frame_needed = 0, uses_anonymous_args = 0
 275              	.LVL27:
 276 0000 F0B5     		push	{r4, r5, r6, r7, lr}
 277              		.cfi_def_cfa_offset 20
 278              		.cfi_offset 4, -20
 279              		.cfi_offset 5, -16
 280              		.cfi_offset 6, -12
 281              		.cfi_offset 7, -8
 282              		.cfi_offset 14, -4
 283 0002 83B0     		sub	sp, sp, #12
 284              		.cfi_def_cfa_offset 32
 285 0004 0746     		mov	r7, r0
 286 0006 0E46     		mov	r6, r1
 287              	.LVL28:
 288              	.LBB56:
 289              	.LBB57:
 570:Generated_Source\PSoC6/I2C_2.h **** }
 290              		.loc 2 570 0
 291 0008 0E4C     		ldr	r4, .L13
 292 000a 0F4D     		ldr	r5, .L13+4
 293 000c 0095     		str	r5, [sp]
 294 000e 6423     		movs	r3, #100
 295 0010 0022     		movs	r2, #0
 296 0012 5721     		movs	r1, #87
ARM GAS  C:\Users\user\AppData\Local\Temp\ccN5MBUb.s 			page 18


 297              	.LVL29:
 298 0014 2046     		mov	r0, r4
 299              	.LVL30:
 300 0016 FFF7FEFF 		bl	Cy_SCB_I2C_MasterSendStart
 301              	.LVL31:
 302              	.LBE57:
 303              	.LBE56:
 304              	.LBB58:
 305              	.LBB59:
 306              		.loc 2 622 0
 307 001a 2B46     		mov	r3, r5
 308 001c 6422     		movs	r2, #100
 309 001e 3946     		mov	r1, r7
 310 0020 2046     		mov	r0, r4
 311 0022 FFF7FEFF 		bl	Cy_SCB_I2C_MasterWriteByte
 312              	.LVL32:
 313              	.LBE59:
 314              	.LBE58:
 315              	.LBB60:
 316              	.LBB61:
 317 0026 2B46     		mov	r3, r5
 318 0028 6422     		movs	r2, #100
 319 002a 3146     		mov	r1, r6
 320 002c 2046     		mov	r0, r4
 321 002e FFF7FEFF 		bl	Cy_SCB_I2C_MasterWriteByte
 322              	.LVL33:
 323              	.LBE61:
 324              	.LBE60:
 325              	.LBB62:
 326              	.LBB63:
 596:Generated_Source\PSoC6/I2C_2.h **** }
 327              		.loc 2 596 0
 328 0032 2A46     		mov	r2, r5
 329 0034 6421     		movs	r1, #100
 330 0036 2046     		mov	r0, r4
 331 0038 FFF7FEFF 		bl	Cy_SCB_I2C_MasterSendStop
 332              	.LVL34:
 333              	.LBE63:
 334              	.LBE62:
  43:max30102.c    ****     I2C_2_MasterSendStart(I2C_ADDRESS,CY_SCB_I2C_WRITE_XFER,100); // Start envoyer par l'I2C maitre
  44:max30102.c    ****     I2C_2_MasterWriteByte(reg_adress,100); // on cris l'adress du registre dans lequel on veut 
  45:max30102.c    ****     I2C_2_MasterWriteByte(data,100); // on cris la data
  46:max30102.c    ****     I2C_2_MasterSendStop(100); // stop
  47:max30102.c    **** return 0;
  48:max30102.c    **** }
 335              		.loc 1 48 0
 336 003c 0020     		movs	r0, #0
 337 003e 03B0     		add	sp, sp, #12
 338              		.cfi_def_cfa_offset 20
 339              		@ sp needed
 340 0040 F0BD     		pop	{r4, r5, r6, r7, pc}
 341              	.L14:
 342 0042 00BF     		.align	2
 343              	.L13:
 344 0044 00006340 		.word	1080229888
 345 0048 00000000 		.word	I2C_2_context
 346              		.cfi_endproc
ARM GAS  C:\Users\user\AppData\Local\Temp\ccN5MBUb.s 			page 19


 347              	.LFE543:
 348              		.size	WriteMAX30102, .-WriteMAX30102
 349              		.section	.text.GetValue_FIFO,"ax",%progbits
 350              		.align	2
 351              		.global	GetValue_FIFO
 352              		.thumb
 353              		.thumb_func
 354              		.type	GetValue_FIFO, %function
 355              	GetValue_FIFO:
 356              	.LFB544:
  49:max30102.c    **** 
  50:max30102.c    **** 
  51:max30102.c    **** 
  52:max30102.c    **** 
  53:max30102.c    **** void GetValue_FIFO ( uint32_t *RedLed, uint32_t *LedIr){ 
 357              		.loc 1 53 0
 358              		.cfi_startproc
 359              		@ args = 0, pretend = 0, frame = 8
 360              		@ frame_needed = 0, uses_anonymous_args = 0
 361              	.LVL35:
 362 0000 30B5     		push	{r4, r5, lr}
 363              		.cfi_def_cfa_offset 12
 364              		.cfi_offset 4, -12
 365              		.cfi_offset 5, -8
 366              		.cfi_offset 14, -4
 367 0002 83B0     		sub	sp, sp, #12
 368              		.cfi_def_cfa_offset 24
 369 0004 0546     		mov	r5, r0
 370 0006 0C46     		mov	r4, r1
  54:max30102.c    **** /* 
  55:max30102.c    ****     La lecture dans le FIFO_DATA n'incremente pas l'adresse du registre, on peut dont readburst dan
  56:max30102.c    ****     celui-ci pour obtenir tout les bytes souhaits en une lecture. Chacun des chantillons est co
  57:max30102.c    ****     donc sur 3 bytes avec les 6 bytes du premier bytes mis a 0.
  58:max30102.c    ****     
  59:max30102.c    ****     */
  60:max30102.c    **** 
  61:max30102.c    **** uint8_t stockage[6];  // initialisation du vecteur de stockage
  62:max30102.c    **** ReadBurstMAX30102( REG_FIFO_DATA,stockage,6);// lecture des 6 bytes contenant les echantillons du c
 371              		.loc 1 62 0
 372 0008 0622     		movs	r2, #6
 373 000a 6946     		mov	r1, sp
 374              	.LVL36:
 375 000c 0720     		movs	r0, #7
 376              	.LVL37:
 377 000e FFF7FEFF 		bl	ReadBurstMAX30102
 378              	.LVL38:
  63:max30102.c    **** 
  64:max30102.c    **** *RedLed = ((0b00000011&stockage[0])<<16)+(stockage[1]<<8)+stockage[2]; // obtentions des 3 premier 
 379              		.loc 1 64 0
 380 0012 9DF80030 		ldrb	r3, [sp]	@ zero_extendqisi2
 381 0016 1B04     		lsls	r3, r3, #16
 382 0018 03F44033 		and	r3, r3, #196608
 383 001c 9DF80120 		ldrb	r2, [sp, #1]	@ zero_extendqisi2
 384 0020 03EB0223 		add	r3, r3, r2, lsl #8
 385 0024 9DF80220 		ldrb	r2, [sp, #2]	@ zero_extendqisi2
 386 0028 1344     		add	r3, r3, r2
 387 002a 2B60     		str	r3, [r5]
ARM GAS  C:\Users\user\AppData\Local\Temp\ccN5MBUb.s 			page 20


  65:max30102.c    **** 
  66:max30102.c    **** *LedIr = ((0b00000011&stockage[3])<<16)+(stockage[4]<<8)+stockage[5]; // obtentions des 3 derniers 
 388              		.loc 1 66 0
 389 002c 9DF80330 		ldrb	r3, [sp, #3]	@ zero_extendqisi2
 390 0030 1B04     		lsls	r3, r3, #16
 391 0032 03F44033 		and	r3, r3, #196608
 392 0036 9DF80420 		ldrb	r2, [sp, #4]	@ zero_extendqisi2
 393 003a 03EB0223 		add	r3, r3, r2, lsl #8
 394 003e 9DF80520 		ldrb	r2, [sp, #5]	@ zero_extendqisi2
 395 0042 1344     		add	r3, r3, r2
 396 0044 2360     		str	r3, [r4]
  67:max30102.c    **** 
  68:max30102.c    **** };
 397              		.loc 1 68 0
 398 0046 03B0     		add	sp, sp, #12
 399              		.cfi_def_cfa_offset 12
 400              		@ sp needed
 401 0048 30BD     		pop	{r4, r5, pc}
 402              		.cfi_endproc
 403              	.LFE544:
 404              		.size	GetValue_FIFO, .-GetValue_FIFO
 405 004a 00BF     		.section	.text.GetCurrentRED,"ax",%progbits
 406              		.align	2
 407              		.global	GetCurrentRED
 408              		.thumb
 409              		.thumb_func
 410              		.type	GetCurrentRED, %function
 411              	GetCurrentRED:
 412              	.LFB545:
  69:max30102.c    **** 
  70:max30102.c    **** 
  71:max30102.c    **** uint8_t GetCurrentRED(void){
 413              		.loc 1 71 0
 414              		.cfi_startproc
 415              		@ args = 0, pretend = 0, frame = 0
 416              		@ frame_needed = 0, uses_anonymous_args = 0
 417 0000 08B5     		push	{r3, lr}
 418              		.cfi_def_cfa_offset 8
 419              		.cfi_offset 3, -8
 420              		.cfi_offset 14, -4
  72:max30102.c    ****     
  73:max30102.c    ****     uint8_t CurrentValue = ReadMAX30102(REG_LED1_PA); // Lecture dans le registre de la valeur du c
 421              		.loc 1 73 0
 422 0002 0C20     		movs	r0, #12
 423 0004 FFF7FEFF 		bl	ReadMAX30102
 424              	.LVL39:
  74:max30102.c    ****     return CurrentValue;
  75:max30102.c    ****     
  76:max30102.c    **** }uint8_t GetCurrentIR(void){
 425              		.loc 1 76 0
 426 0008 08BD     		pop	{r3, pc}
 427              		.cfi_endproc
 428              	.LFE545:
 429              		.size	GetCurrentRED, .-GetCurrentRED
 430 000a 00BF     		.section	.text.GetCurrentIR,"ax",%progbits
 431              		.align	2
 432              		.global	GetCurrentIR
ARM GAS  C:\Users\user\AppData\Local\Temp\ccN5MBUb.s 			page 21


 433              		.thumb
 434              		.thumb_func
 435              		.type	GetCurrentIR, %function
 436              	GetCurrentIR:
 437              	.LFB546:
 438              		.loc 1 76 0
 439              		.cfi_startproc
 440              		@ args = 0, pretend = 0, frame = 0
 441              		@ frame_needed = 0, uses_anonymous_args = 0
 442 0000 08B5     		push	{r3, lr}
 443              		.cfi_def_cfa_offset 8
 444              		.cfi_offset 3, -8
 445              		.cfi_offset 14, -4
  77:max30102.c    ****     
  78:max30102.c    ****     
  79:max30102.c    ****     uint8_t CurrentValue = ReadMAX30102(REG_LED2_PA); // Lecture dans le registre de la valeur du c
 446              		.loc 1 79 0
 447 0002 0D20     		movs	r0, #13
 448 0004 FFF7FEFF 		bl	ReadMAX30102
 449              	.LVL40:
  80:max30102.c    ****     return CurrentValue;
  81:max30102.c    **** }
 450              		.loc 1 81 0
 451 0008 08BD     		pop	{r3, pc}
 452              		.cfi_endproc
 453              	.LFE546:
 454              		.size	GetCurrentIR, .-GetCurrentIR
 455 000a 00BF     		.section	.text.ChangeCurrentLEDRed,"ax",%progbits
 456              		.align	2
 457              		.global	ChangeCurrentLEDRed
 458              		.thumb
 459              		.thumb_func
 460              		.type	ChangeCurrentLEDRed, %function
 461              	ChangeCurrentLEDRed:
 462              	.LFB547:
  82:max30102.c    **** 
  83:max30102.c    **** void ChangeCurrentLEDRed ( uint8_t CurrentWanted ){
 463              		.loc 1 83 0
 464              		.cfi_startproc
 465              		@ args = 0, pretend = 0, frame = 0
 466              		@ frame_needed = 0, uses_anonymous_args = 0
 467              	.LVL41:
 468 0000 08B5     		push	{r3, lr}
 469              		.cfi_def_cfa_offset 8
 470              		.cfi_offset 3, -8
 471              		.cfi_offset 14, -4
  84:max30102.c    ****     
  85:max30102.c    **** WriteMAX30102 (REG_LED1_PA,CurrentWanted); // criture dans le registre du courant de la led rouge
 472              		.loc 1 85 0
 473 0002 0146     		mov	r1, r0
 474 0004 0C20     		movs	r0, #12
 475              	.LVL42:
 476 0006 FFF7FEFF 		bl	WriteMAX30102
 477              	.LVL43:
 478 000a 08BD     		pop	{r3, pc}
 479              		.cfi_endproc
 480              	.LFE547:
ARM GAS  C:\Users\user\AppData\Local\Temp\ccN5MBUb.s 			page 22


 481              		.size	ChangeCurrentLEDRed, .-ChangeCurrentLEDRed
 482              		.section	.text.ChangeCurrentLEDIr,"ax",%progbits
 483              		.align	2
 484              		.global	ChangeCurrentLEDIr
 485              		.thumb
 486              		.thumb_func
 487              		.type	ChangeCurrentLEDIr, %function
 488              	ChangeCurrentLEDIr:
 489              	.LFB548:
  86:max30102.c    **** }
  87:max30102.c    **** 
  88:max30102.c    **** void ChangeCurrentLEDIr ( uint8_t CurrentWanted ){
 490              		.loc 1 88 0
 491              		.cfi_startproc
 492              		@ args = 0, pretend = 0, frame = 0
 493              		@ frame_needed = 0, uses_anonymous_args = 0
 494              	.LVL44:
 495 0000 08B5     		push	{r3, lr}
 496              		.cfi_def_cfa_offset 8
 497              		.cfi_offset 3, -8
 498              		.cfi_offset 14, -4
  89:max30102.c    **** 
  90:max30102.c    **** WriteMAX30102 (REG_LED2_PA,CurrentWanted);// criture dans le registre du courant de la led rouge 
 499              		.loc 1 90 0
 500 0002 0146     		mov	r1, r0
 501 0004 0D20     		movs	r0, #13
 502              	.LVL45:
 503 0006 FFF7FEFF 		bl	WriteMAX30102
 504              	.LVL46:
 505 000a 08BD     		pop	{r3, pc}
 506              		.cfi_endproc
 507              	.LFE548:
 508              		.size	ChangeCurrentLEDIr, .-ChangeCurrentLEDIr
 509              		.section	.text.Max30102Init,"ax",%progbits
 510              		.align	2
 511              		.global	Max30102Init
 512              		.thumb
 513              		.thumb_func
 514              		.type	Max30102Init, %function
 515              	Max30102Init:
 516              	.LFB549:
  91:max30102.c    **** }
  92:max30102.c    **** void Max30102Init(void){
 517              		.loc 1 92 0
 518              		.cfi_startproc
 519              		@ args = 0, pretend = 0, frame = 0
 520              		@ frame_needed = 0, uses_anonymous_args = 0
 521 0000 08B5     		push	{r3, lr}
 522              		.cfi_def_cfa_offset 8
 523              		.cfi_offset 3, -8
 524              		.cfi_offset 14, -4
  93:max30102.c    ****     
  94:max30102.c    ****     // Initialisation du  MAX30102
  95:max30102.c    ****     //Paramtre d'interruption
  96:max30102.c    ****     
  97:max30102.c    ****     // 0bXYZOOOOW -- 1 on - 0 off -- X  A_FULL - Y - PPG_RDY - O - Ne pas crire dedans - W -  PWR
  98:max30102.c    ****     WriteMAX30102(REG_INTR_ENABLE_1,0b01000000); 
ARM GAS  C:\Users\user\AppData\Local\Temp\ccN5MBUb.s 			page 23


 525              		.loc 1 98 0
 526 0002 4021     		movs	r1, #64
 527 0004 0220     		movs	r0, #2
 528 0006 FFF7FEFF 		bl	WriteMAX30102
 529              	.LVL47:
  99:max30102.c    ****     
 100:max30102.c    ****     // FIFO_WR_PTR
 101:max30102.c    ****     WriteMAX30102(REG_FIFO_WR_PTR,0b00000000); 
 530              		.loc 1 101 0
 531 000a 0021     		movs	r1, #0
 532 000c 0420     		movs	r0, #4
 533 000e FFF7FEFF 		bl	WriteMAX30102
 534              	.LVL48:
 102:max30102.c    ****     
 103:max30102.c    ****     // FIFO_RD_PTR[4;0]
 104:max30102.c    ****     WriteMAX30102(REG_FIFO_RD_PTR,0b00000000);
 535              		.loc 1 104 0
 536 0012 0021     		movs	r1, #0
 537 0014 0620     		movs	r0, #6
 538 0016 FFF7FEFF 		bl	WriteMAX30102
 539              	.LVL49:
 105:max30102.c    ****     
 106:max30102.c    ****     // Fifo Config 
 107:max30102.c    ****     WriteMAX30102(REG_FIFO_CONFIG,0b00011110); 
 540              		.loc 1 107 0
 541 001a 1E21     		movs	r1, #30
 542 001c 0820     		movs	r0, #8
 543 001e FFF7FEFF 		bl	WriteMAX30102
 544              	.LVL50:
 108:max30102.c    ****     //0bXXXYZZZZ -- X SMP_AVE - Y FIFO_ROLLOVER_EN - Z FIFO_A_FULL 
 109:max30102.c    ****     
 110:max30102.c    ****     // Mode config 
 111:max30102.c    ****     WriteMAX30102(REG_MODE_CONFIG, 0b00000011);
 545              		.loc 1 111 0
 546 0022 0321     		movs	r1, #3
 547 0024 0920     		movs	r0, #9
 548 0026 FFF7FEFF 		bl	WriteMAX30102
 549              	.LVL51:
 112:max30102.c    ****     // 0bXYOOOZZZ -- X SHDN - Y - RESET - Z mode
 113:max30102.c    ****     
 114:max30102.c    ****     
 115:max30102.c    ****     //SpO2 config 
 116:max30102.c    ****     WriteMAX30102(REG_SPO2_CONFIG,0b01101001); // 0bZYYXXXAA - Z(null) - Y (range control) - X (sam
 550              		.loc 1 116 0
 551 002a 6921     		movs	r1, #105
 552 002c 0A20     		movs	r0, #10
 553 002e FFF7FEFF 		bl	WriteMAX30102
 554              	.LVL52:
 117:max30102.c    ****     
 118:max30102.c    ****     
 119:max30102.c    ****     // LED1&2 at 19 mA 
 120:max30102.c    ****     WriteMAX30102(REG_LED1_PA,0x5F);
 555              		.loc 1 120 0
 556 0032 5F21     		movs	r1, #95
 557 0034 0C20     		movs	r0, #12
 558 0036 FFF7FEFF 		bl	WriteMAX30102
 559              	.LVL53:
ARM GAS  C:\Users\user\AppData\Local\Temp\ccN5MBUb.s 			page 24


 121:max30102.c    ****     WriteMAX30102(REG_LED2_PA,0x5F);
 560              		.loc 1 121 0
 561 003a 5F21     		movs	r1, #95
 562 003c 0D20     		movs	r0, #13
 563 003e FFF7FEFF 		bl	WriteMAX30102
 564              	.LVL54:
 565 0042 08BD     		pop	{r3, pc}
 566              		.cfi_endproc
 567              	.LFE549:
 568              		.size	Max30102Init, .-Max30102Init
 569              		.section	.text.TaskReadingSample,"ax",%progbits
 570              		.align	2
 571              		.global	TaskReadingSample
 572              		.thumb
 573              		.thumb_func
 574              		.type	TaskReadingSample, %function
 575              	TaskReadingSample:
 576              	.LFB550:
 122:max30102.c    ****    
 123:max30102.c    **** }
 124:max30102.c    **** 
 125:max30102.c    **** void TaskReadingSample(void*arg){
 577              		.loc 1 125 0
 578              		.cfi_startproc
 579              		@ args = 0, pretend = 0, frame = 8
 580              		@ frame_needed = 0, uses_anonymous_args = 0
 581              	.LVL55:
 582 0000 10B5     		push	{r4, lr}
 583              		.cfi_def_cfa_offset 8
 584              		.cfi_offset 4, -8
 585              		.cfi_offset 14, -4
 586 0002 82B0     		sub	sp, sp, #8
 587              		.cfi_def_cfa_offset 16
 126:max30102.c    ****     
 127:max30102.c    ****     (void)arg;
 128:max30102.c    ****     I2C_2_Start(); // initialisation du I2C
 588              		.loc 1 128 0
 589 0004 FFF7FEFF 		bl	I2C_2_Start
 590              	.LVL56:
 129:max30102.c    ****     Max30102Init(); // initialisation du MAX30102
 591              		.loc 1 129 0
 592 0008 FFF7FEFF 		bl	Max30102Init
 593              	.LVL57:
 130:max30102.c    ****     
 131:max30102.c    ****     int indexBuffer = 0;
 594              		.loc 1 131 0
 595 000c 0024     		movs	r4, #0
 596              	.LVL58:
 597              	.L29:
 132:max30102.c    ****     
 133:max30102.c    ****     uint32_t IR_stockage,Red_stockage; 
 134:max30102.c    ****     uint32_t *ptrRED=&Red_stockage,
 135:max30102.c    ****              *ptrIR=&IR_stockage;
 136:max30102.c    ****    
 137:max30102.c    ****     for(;;){
 138:max30102.c    ****         if(!entree){
 598              		.loc 1 138 0
ARM GAS  C:\Users\user\AppData\Local\Temp\ccN5MBUb.s 			page 25


 599 000e 154B     		ldr	r3, .L31
 600 0010 1B78     		ldrb	r3, [r3]	@ zero_extendqisi2
 601 0012 13BB     		cbnz	r3, .L28
 139:max30102.c    ****             GetValue_FIFO(ptrRED,ptrIR); // lecture des chantillons
 602              		.loc 1 139 0
 603 0014 01A9     		add	r1, sp, #4
 604              	.LVL59:
 605 0016 6846     		mov	r0, sp
 606 0018 FFF7FEFF 		bl	GetValue_FIFO
 607              	.LVL60:
 140:max30102.c    ****           
 141:max30102.c    ****             dataSpo2[RED][RAW][indexBuffer] = (float) *ptrRED; // stockage des echantillons rouges 
 608              		.loc 1 141 0
 609 001c DDED007A 		vldr.32	s15, [sp]	@ int
 610 0020 F8EE677A 		vcvt.f32.u32	s15, s15
 611 0024 104B     		ldr	r3, .L31+4
 612 0026 03EB8402 		add	r2, r3, r4, lsl #2
 613 002a C2ED007A 		vstr.32	s15, [r2]
 142:max30102.c    ****             dataSpo2[IR][RAW][indexBuffer] = (float) *ptrIR; // stockage des echantillons infraroug
 614              		.loc 1 142 0
 615 002e DDED017A 		vldr.32	s15, [sp, #4]	@ int
 616 0032 F8EE677A 		vcvt.f32.u32	s15, s15
 617 0036 04F6B832 		addw	r2, r4, #3000
 618 003a 03EB8203 		add	r3, r3, r2, lsl #2
 619 003e C3ED007A 		vstr.32	s15, [r3]
 143:max30102.c    ****             indexBuffer++;
 620              		.loc 1 143 0
 621 0042 0134     		adds	r4, r4, #1
 622              	.LVL61:
 144:max30102.c    ****             printf("%d \r\n",*ptrRED);
 623              		.loc 1 144 0
 624 0044 0099     		ldr	r1, [sp]
 625 0046 0948     		ldr	r0, .L31+8
 626 0048 FFF7FEFF 		bl	printf
 627              	.LVL62:
 145:max30102.c    ****             if( indexBuffer == BUFFER_LENGTH){ // Buffer est rempli
 628              		.loc 1 145 0
 629 004c B4F57A7F 		cmp	r4, #1000
 630 0050 03D1     		bne	.L28
 631              	.LVL63:
 146:max30102.c    ****                 indexBuffer = 0;// l'index d'ecriture est remis a 0 
 147:max30102.c    ****                 entree= true; //  le signal pour le traitement est enclanch
 632              		.loc 1 147 0
 633 0052 0122     		movs	r2, #1
 634 0054 034B     		ldr	r3, .L31
 635 0056 1A70     		strb	r2, [r3]
 146:max30102.c    ****                 indexBuffer = 0;// l'index d'ecriture est remis a 0 
 636              		.loc 1 146 0
 637 0058 0024     		movs	r4, #0
 638              	.LVL64:
 639              	.L28:
 148:max30102.c    ****                 
 149:max30102.c    ****             } 
 150:max30102.c    ****         }      
 151:max30102.c    ****     vTaskDelay(pdMS_TO_TICKS(5));
 640              		.loc 1 151 0
 641 005a 0520     		movs	r0, #5
ARM GAS  C:\Users\user\AppData\Local\Temp\ccN5MBUb.s 			page 26


 642 005c FFF7FEFF 		bl	vTaskDelay
 643              	.LVL65:
 152:max30102.c    ****     }
 644              		.loc 1 152 0
 645 0060 D5E7     		b	.L29
 646              	.L32:
 647 0062 00BF     		.align	2
 648              	.L31:
 649 0064 00000000 		.word	.LANCHOR0
 650 0068 00000000 		.word	dataSpo2
 651 006c 00000000 		.word	.LC0
 652              		.cfi_endproc
 653              	.LFE550:
 654              		.size	TaskReadingSample, .-TaskReadingSample
 655              		.section	.text.resetMax,"ax",%progbits
 656              		.align	2
 657              		.global	resetMax
 658              		.thumb
 659              		.thumb_func
 660              		.type	resetMax, %function
 661              	resetMax:
 662              	.LFB551:
 153:max30102.c    **** }
 154:max30102.c    ****     
 155:max30102.c    **** 
 156:max30102.c    **** void resetMax(void){
 663              		.loc 1 156 0
 664              		.cfi_startproc
 665              		@ args = 0, pretend = 0, frame = 0
 666              		@ frame_needed = 0, uses_anonymous_args = 0
 667 0000 08B5     		push	{r3, lr}
 668              		.cfi_def_cfa_offset 8
 669              		.cfi_offset 3, -8
 670              		.cfi_offset 14, -4
 157:max30102.c    ****     
 158:max30102.c    ****  WriteMAX30102(REG_MODE_CONFIG,0b01000000);
 671              		.loc 1 158 0
 672 0002 4021     		movs	r1, #64
 673 0004 0920     		movs	r0, #9
 674 0006 FFF7FEFF 		bl	WriteMAX30102
 675              	.LVL66:
 676 000a 08BD     		pop	{r3, pc}
 677              		.cfi_endproc
 678              	.LFE551:
 679              		.size	resetMax, .-resetMax
 680              		.global	entree
 681              		.comm	AlarmeBMI160,1,1
 682              		.comm	BPM,1,1
 683              		.comm	pourcentageSpO2,4,4
 684              		.comm	dataSpo2,24000,4
 685              		.comm	indexBuffer,4,4
 686              		.section	.rodata.str1.4,"aMS",%progbits,1
 687              		.align	2
 688              	.LC0:
 689 0000 2564200D 		.ascii	"%d \015\012\000"
 689      0A00
 690              		.bss
ARM GAS  C:\Users\user\AppData\Local\Temp\ccN5MBUb.s 			page 27


 691              		.set	.LANCHOR0,. + 0
 692              		.type	entree, %object
 693              		.size	entree, 1
 694              	entree:
 695 0000 00       		.space	1
 696              		.text
 697              	.Letext0:
 698              		.file 3 "c:\\program files (x86)\\cypress\\psoc creator\\4.4\\psoc creator\\import\\gnu\\arm\\5.4.
 699              		.file 4 "c:\\program files (x86)\\cypress\\psoc creator\\4.4\\psoc creator\\import\\gnu\\arm\\5.4.
 700              		.file 5 "Generated_Source\\PSoC6\\pdl\\drivers/peripheral/device/cy_device.h"
 701              		.file 6 "Generated_Source\\PSoC6\\pdl\\devices/psoc6/include/ip/cyip_scb.h"
 702              		.file 7 "Generated_Source\\PSoC6\\pdl\\devices/psoc6/include/psoc6_01_config.h"
 703              		.file 8 "Generated_Source\\PSoC6\\pdl\\drivers/peripheral/syslib/cy_syslib.h"
 704              		.file 9 "Generated_Source\\PSoC6\\pdl\\rtos/FreeRTOS/10.0.1/Source/portable/GCC/CM4F/portmacro.h"
 705              		.file 10 "Generated_Source\\PSoC6\\pdl\\drivers/peripheral/scb/cy_scb_i2c.h"
 706              		.file 11 "Generated_Source\\PSoC6\\pdl\\drivers/peripheral/scb/cy_scb_uart.h"
 707              		.file 12 "Generated_Source\\PSoC6\\pdl\\cmsis/include/core_cm4.h"
 708              		.file 13 "Generated_Source\\PSoC6/I2C_1.h"
 709              		.file 14 "Generated_Source\\PSoC6/UART_1.h"
 710              		.file 15 "Declaration.h"
 711              		.file 16 "c:\\program files (x86)\\cypress\\psoc creator\\4.4\\psoc creator\\import\\gnu\\arm\\5.4
 712              		.file 17 "Generated_Source\\PSoC6\\pdl\\rtos/FreeRTOS/10.0.1/Source/include/task.h"