ARM GAS  C:\Users\user\AppData\Local\Temp\ccAMomq7.s 			page 1


   1              		.syntax unified
   2              		.cpu cortex-m4
   3              		.eabi_attribute 27, 1
   4              		.fpu fpv4-sp-d16
   5              		.eabi_attribute 20, 1
   6              		.eabi_attribute 21, 1
   7              		.eabi_attribute 23, 3
   8              		.eabi_attribute 24, 1
   9              		.eabi_attribute 25, 1
  10              		.eabi_attribute 26, 1
  11              		.eabi_attribute 30, 1
  12              		.eabi_attribute 34, 1
  13              		.eabi_attribute 18, 4
  14              		.thumb
  15              		.syntax unified
  16              		.file	"TraitementdeSignal.c"
  17              		.text
  18              	.Ltext0:
  19              		.cfi_sections	.debug_frame
  20              		.section	.text.FiltreLowPass,"ax",%progbits
  21              		.align	2
  22              		.global	FiltreLowPass
  23              		.thumb
  24              		.thumb_func
  25              		.type	FiltreLowPass, %function
  26              	FiltreLowPass:
  27              	.LFB518:
  28              		.file 1 "TraitementdeSignal.c"
   1:TraitementdeSignal.c **** /* ========================================
   2:TraitementdeSignal.c ****  *
   3:TraitementdeSignal.c ****  * Copyright YOUR COMPANY, THE YEAR
   4:TraitementdeSignal.c ****  * All Rights Reserved
   5:TraitementdeSignal.c ****  * UNPUBLISHED, LICENSED SOFTWARE.
   6:TraitementdeSignal.c ****  *
   7:TraitementdeSignal.c ****  * CONFIDENTIAL AND PROPRIETARY INFORMATION
   8:TraitementdeSignal.c ****  * WHICH IS THE PROPERTY OF your company.
   9:TraitementdeSignal.c ****  *
  10:TraitementdeSignal.c ****  * ========================================
  11:TraitementdeSignal.c **** */
  12:TraitementdeSignal.c **** #include "TraitementdeSignal.h"
  13:TraitementdeSignal.c **** 
  14:TraitementdeSignal.c ****  bool entree = true;
  15:TraitementdeSignal.c **** 
  16:TraitementdeSignal.c **** uint32_t blockSize=BLOCK_SIZE;
  17:TraitementdeSignal.c **** uint32_t numBlocks=TEST_LENGTH_SAMPLES/BLOCK_SIZE;
  18:TraitementdeSignal.c **** 
  19:TraitementdeSignal.c **** // Low pass pour avoir le DC
  20:TraitementdeSignal.c **** void FiltreLowPass(float* buffer ,float* filteredSignal) {
  29              		.loc 1 20 0
  30              		.cfi_startproc
  31              		@ args = 0, pretend = 0, frame = 16
  32              		@ frame_needed = 0, uses_anonymous_args = 0
  33              	.LVL0:
  34 0000 70B5     		push	{r4, r5, r6, lr}
  35              		.cfi_def_cfa_offset 16
  36              		.cfi_offset 4, -16
  37              		.cfi_offset 5, -12
ARM GAS  C:\Users\user\AppData\Local\Temp\ccAMomq7.s 			page 2


  38              		.cfi_offset 6, -8
  39              		.cfi_offset 14, -4
  40 0002 86B0     		sub	sp, sp, #24
  41              		.cfi_def_cfa_offset 40
  42 0004 0546     		mov	r5, r0
  43 0006 0E46     		mov	r6, r1
  21:TraitementdeSignal.c ****     
  22:TraitementdeSignal.c ****     //uint32_t compteur;
  23:TraitementdeSignal.c ****     arm_fir_instance_f32 S;
  24:TraitementdeSignal.c ****     arm_fir_init_f32(&S,NUM_TAPS,(float32_t *) &firCoeffs32_LowPass[0],&firStateF32[0],blockSize);
  44              		.loc 1 24 0
  45 0008 084C     		ldr	r4, .L3
  46 000a 2368     		ldr	r3, [r4]
  47 000c 0093     		str	r3, [sp]
  48 000e 084B     		ldr	r3, .L3+4
  49 0010 084A     		ldr	r2, .L3+8
  50 0012 0B21     		movs	r1, #11
  51              	.LVL1:
  52 0014 03A8     		add	r0, sp, #12
  53              	.LVL2:
  54 0016 FFF7FEFF 		bl	arm_fir_init_f32
  55              	.LVL3:
  25:TraitementdeSignal.c ****     arm_fir_f32(&S,buffer,filteredSignal,blockSize);
  56              		.loc 1 25 0
  57 001a 2368     		ldr	r3, [r4]
  58 001c 3246     		mov	r2, r6
  59 001e 2946     		mov	r1, r5
  60 0020 03A8     		add	r0, sp, #12
  61 0022 FFF7FEFF 		bl	arm_fir_f32
  62              	.LVL4:
  26:TraitementdeSignal.c ****     
  27:TraitementdeSignal.c **** }
  63              		.loc 1 27 0
  64 0026 06B0     		add	sp, sp, #24
  65              		.cfi_def_cfa_offset 16
  66              		@ sp needed
  67 0028 70BD     		pop	{r4, r5, r6, pc}
  68              	.LVL5:
  69              	.L4:
  70 002a 00BF     		.align	2
  71              	.L3:
  72 002c 00000000 		.word	.LANCHOR1
  73 0030 00000000 		.word	.LANCHOR0
  74 0034 00000000 		.word	firCoeffs32_LowPass
  75              		.cfi_endproc
  76              	.LFE518:
  77              		.size	FiltreLowPass, .-FiltreLowPass
  78              		.section	.text.FiltreHighPass,"ax",%progbits
  79              		.align	2
  80              		.global	FiltreHighPass
  81              		.thumb
  82              		.thumb_func
  83              		.type	FiltreHighPass, %function
  84              	FiltreHighPass:
  85              	.LFB519:
  28:TraitementdeSignal.c ****     
  29:TraitementdeSignal.c **** // high pass pour avoir le AC
ARM GAS  C:\Users\user\AppData\Local\Temp\ccAMomq7.s 			page 3


  30:TraitementdeSignal.c **** void FiltreHighPass(float* buffer ,float* filteredSignal) {
  86              		.loc 1 30 0
  87              		.cfi_startproc
  88              		@ args = 0, pretend = 0, frame = 16
  89              		@ frame_needed = 0, uses_anonymous_args = 0
  90              	.LVL6:
  91 0000 70B5     		push	{r4, r5, r6, lr}
  92              		.cfi_def_cfa_offset 16
  93              		.cfi_offset 4, -16
  94              		.cfi_offset 5, -12
  95              		.cfi_offset 6, -8
  96              		.cfi_offset 14, -4
  97 0002 86B0     		sub	sp, sp, #24
  98              		.cfi_def_cfa_offset 40
  99 0004 0546     		mov	r5, r0
 100 0006 0E46     		mov	r6, r1
  31:TraitementdeSignal.c ****     
  32:TraitementdeSignal.c ****     //uint32_t compteur;
  33:TraitementdeSignal.c ****     arm_fir_instance_f32 S;
  34:TraitementdeSignal.c ****     arm_fir_init_f32(&S,NUM_TAPS,(float32_t *) & firCoeffs32_HighPass[0],&firStateF32[0],blockSize)
 101              		.loc 1 34 0
 102 0008 084C     		ldr	r4, .L7
 103 000a 2368     		ldr	r3, [r4]
 104 000c 0093     		str	r3, [sp]
 105 000e 084B     		ldr	r3, .L7+4
 106 0010 084A     		ldr	r2, .L7+8
 107 0012 0B21     		movs	r1, #11
 108              	.LVL7:
 109 0014 03A8     		add	r0, sp, #12
 110              	.LVL8:
 111 0016 FFF7FEFF 		bl	arm_fir_init_f32
 112              	.LVL9:
  35:TraitementdeSignal.c ****     arm_fir_f32(&S,buffer,filteredSignal,blockSize);
 113              		.loc 1 35 0
 114 001a 2368     		ldr	r3, [r4]
 115 001c 3246     		mov	r2, r6
 116 001e 2946     		mov	r1, r5
 117 0020 03A8     		add	r0, sp, #12
 118 0022 FFF7FEFF 		bl	arm_fir_f32
 119              	.LVL10:
  36:TraitementdeSignal.c **** 
  37:TraitementdeSignal.c **** }
 120              		.loc 1 37 0
 121 0026 06B0     		add	sp, sp, #24
 122              		.cfi_def_cfa_offset 16
 123              		@ sp needed
 124 0028 70BD     		pop	{r4, r5, r6, pc}
 125              	.LVL11:
 126              	.L8:
 127 002a 00BF     		.align	2
 128              	.L7:
 129 002c 00000000 		.word	.LANCHOR1
 130 0030 00000000 		.word	.LANCHOR0
 131 0034 00000000 		.word	firCoeffs32_HighPass
 132              		.cfi_endproc
 133              	.LFE519:
 134              		.size	FiltreHighPass, .-FiltreHighPass
ARM GAS  C:\Users\user\AppData\Local\Temp\ccAMomq7.s 			page 4


 135              		.section	.text.trouverZero,"ax",%progbits
 136              		.align	2
 137              		.global	trouverZero
 138              		.thumb
 139              		.thumb_func
 140              		.type	trouverZero, %function
 141              	trouverZero:
 142              	.LFB520:
  38:TraitementdeSignal.c **** 
  39:TraitementdeSignal.c **** void trouverZero(int* ZeroI, int* ZeroF, int* nZero){
 143              		.loc 1 39 0
 144              		.cfi_startproc
 145              		@ args = 0, pretend = 0, frame = 0
 146              		@ frame_needed = 0, uses_anonymous_args = 0
 147              		@ link register save eliminated.
 148              	.LVL12:
 149 0000 30B4     		push	{r4, r5}
 150              		.cfi_def_cfa_offset 8
 151              		.cfi_offset 4, -8
 152              		.cfi_offset 5, -4
 153              	.LVL13:
 154              	.LBB2:
  40:TraitementdeSignal.c ****     
  41:TraitementdeSignal.c ****     for ( int i= 0; i < BUFFER_LENGTH-1; i++){
 155              		.loc 1 41 0
 156 0002 0023     		movs	r3, #0
 157 0004 21E0     		b	.L10
 158              	.LVL14:
 159              	.L15:
  42:TraitementdeSignal.c ****         
  43:TraitementdeSignal.c ****     if ( dataSpo2[RED][AC][i] <0 && dataSpo2[RED][AC][i+1] > 0){
 160              		.loc 1 43 0
 161 0006 03F57A74 		add	r4, r3, #1000
 162 000a 134D     		ldr	r5, .L19
 163 000c 05EB8404 		add	r4, r5, r4, lsl #2
 164 0010 D4ED007A 		vldr.32	s15, [r4]
 165 0014 F5EEC07A 		vcmpe.f32	s15, #0
 166 0018 F1EE10FA 		vmrs	APSR_nzcv, FPSCR
 167 001c 14D5     		bpl	.L11
 168              		.loc 1 43 0 is_stmt 0 discriminator 1
 169 001e 03F2E934 		addw	r4, r3, #1001
 170 0022 05EB8404 		add	r4, r5, r4, lsl #2
 171 0026 D4ED007A 		vldr.32	s15, [r4]
 172 002a F5EEC07A 		vcmpe.f32	s15, #0
 173 002e F1EE10FA 		vmrs	APSR_nzcv, FPSCR
 174 0032 09DD     		ble	.L11
  44:TraitementdeSignal.c ****         
  45:TraitementdeSignal.c ****         (*nZero)++;
 175              		.loc 1 45 0 is_stmt 1
 176 0034 1468     		ldr	r4, [r2]
 177 0036 0134     		adds	r4, r4, #1
 178 0038 1460     		str	r4, [r2]
  46:TraitementdeSignal.c ****        
  47:TraitementdeSignal.c ****             if((*nZero) == 1){
 179              		.loc 1 47 0
 180 003a 012C     		cmp	r4, #1
 181 003c 00D1     		bne	.L14
ARM GAS  C:\Users\user\AppData\Local\Temp\ccAMomq7.s 			page 5


  48:TraitementdeSignal.c ****                
  49:TraitementdeSignal.c ****                 *ZeroI = i;
 182              		.loc 1 49 0
 183 003e 0360     		str	r3, [r0]
 184              	.L14:
  50:TraitementdeSignal.c ****             }
  51:TraitementdeSignal.c ****             if( (*nZero) > 1){
 185              		.loc 1 51 0
 186 0040 1468     		ldr	r4, [r2]
 187 0042 012C     		cmp	r4, #1
 188 0044 00DD     		ble	.L11
  52:TraitementdeSignal.c ****                 
  53:TraitementdeSignal.c ****                 *ZeroF = i;
 189              		.loc 1 53 0
 190 0046 0B60     		str	r3, [r1]
 191              	.L11:
  41:TraitementdeSignal.c ****         
 192              		.loc 1 41 0 discriminator 2
 193 0048 0133     		adds	r3, r3, #1
 194              	.LVL15:
 195              	.L10:
  41:TraitementdeSignal.c ****         
 196              		.loc 1 41 0 is_stmt 0 discriminator 1
 197 004a 40F2E634 		movw	r4, #998
 198 004e A342     		cmp	r3, r4
 199 0050 D9DD     		ble	.L15
 200              	.LBE2:
  54:TraitementdeSignal.c ****             }
  55:TraitementdeSignal.c ****         }
  56:TraitementdeSignal.c ****     }
  57:TraitementdeSignal.c **** }
 201              		.loc 1 57 0 is_stmt 1
 202 0052 30BC     		pop	{r4, r5}
 203              		.cfi_restore 5
 204              		.cfi_restore 4
 205              		.cfi_def_cfa_offset 0
 206 0054 7047     		bx	lr
 207              	.L20:
 208 0056 00BF     		.align	2
 209              	.L19:
 210 0058 00000000 		.word	dataSpo2
 211              		.cfi_endproc
 212              	.LFE520:
 213              		.size	trouverZero, .-trouverZero
 214              		.global	__aeabi_i2d
 215              		.global	__aeabi_d2uiz
 216              		.section	.text.calculBPM,"ax",%progbits
 217              		.align	2
 218              		.global	calculBPM
 219              		.thumb
 220              		.thumb_func
 221              		.type	calculBPM, %function
 222              	calculBPM:
 223              	.LFB521:
  58:TraitementdeSignal.c **** 
  59:TraitementdeSignal.c ****  uint8_t calculBPM(void){
 224              		.loc 1 59 0
ARM GAS  C:\Users\user\AppData\Local\Temp\ccAMomq7.s 			page 6


 225              		.cfi_startproc
 226              		@ args = 0, pretend = 0, frame = 16
 227              		@ frame_needed = 0, uses_anonymous_args = 0
 228 0000 00B5     		push	{lr}
 229              		.cfi_def_cfa_offset 4
 230              		.cfi_offset 14, -4
 231 0002 85B0     		sub	sp, sp, #20
 232              		.cfi_def_cfa_offset 24
  60:TraitementdeSignal.c ****     
  61:TraitementdeSignal.c ****     int ZeroIni = 0,
 233              		.loc 1 61 0
 234 0004 0023     		movs	r3, #0
 235 0006 0393     		str	r3, [sp, #12]
  62:TraitementdeSignal.c ****         ZeroFin = 0,
 236              		.loc 1 62 0
 237 0008 0293     		str	r3, [sp, #8]
  63:TraitementdeSignal.c ****         nbrZero = 0;
 238              		.loc 1 63 0
 239 000a 04AA     		add	r2, sp, #16
 240 000c 42F80C3D 		str	r3, [r2, #-12]!
  64:TraitementdeSignal.c ****     
  65:TraitementdeSignal.c ****         trouverZero(&ZeroIni,&ZeroFin,&nbrZero);
 241              		.loc 1 65 0
 242 0010 02A9     		add	r1, sp, #8
 243 0012 03A8     		add	r0, sp, #12
 244 0014 FFF7FEFF 		bl	trouverZero
 245              	.LVL16:
  66:TraitementdeSignal.c ****         
  67:TraitementdeSignal.c ****          BPM = round (60*(nbrZero-1)*FREQUENCE_ECH/(ZeroFin-ZeroIni));
 246              		.loc 1 67 0
 247 0018 0198     		ldr	r0, [sp, #4]
 248 001a 0138     		subs	r0, r0, #1
 249 001c 43F69823 		movw	r3, #15000
 250 0020 03FB00F0 		mul	r0, r3, r0
 251 0024 039A     		ldr	r2, [sp, #12]
 252 0026 029B     		ldr	r3, [sp, #8]
 253 0028 9B1A     		subs	r3, r3, r2
 254 002a 90FBF3F0 		sdiv	r0, r0, r3
 255 002e FFF7FEFF 		bl	__aeabi_i2d
 256              	.LVL17:
 257 0032 FFF7FEFF 		bl	round
 258              	.LVL18:
 259 0036 FFF7FEFF 		bl	__aeabi_d2uiz
 260              	.LVL19:
 261 003a C0B2     		uxtb	r0, r0
 262 003c 024B     		ldr	r3, .L23
 263 003e 1870     		strb	r0, [r3]
  68:TraitementdeSignal.c ****        return BPM;
 264              		.loc 1 68 0
 265 0040 1878     		ldrb	r0, [r3]	@ zero_extendqisi2
  69:TraitementdeSignal.c **** }
 266              		.loc 1 69 0
 267 0042 05B0     		add	sp, sp, #20
 268              		.cfi_def_cfa_offset 4
 269              		@ sp needed
 270 0044 5DF804FB 		ldr	pc, [sp], #4
 271              	.L24:
ARM GAS  C:\Users\user\AppData\Local\Temp\ccAMomq7.s 			page 7


 272              		.align	2
 273              	.L23:
 274 0048 00000000 		.word	BPM
 275              		.cfi_endproc
 276              	.LFE521:
 277              		.size	calculBPM, .-calculBPM
 278              		.global	__aeabi_f2d
 279              		.global	__aeabi_ddiv
 280              		.global	__aeabi_dmul
 281              		.global	__aeabi_dadd
 282              		.global	__aeabi_d2f
 283              		.section	.text.calculSPO2,"ax",%progbits
 284              		.align	2
 285              		.global	calculSPO2
 286              		.thumb
 287              		.thumb_func
 288              		.type	calculSPO2, %function
 289              	calculSPO2:
 290              	.LFB522:
  70:TraitementdeSignal.c **** 
  71:TraitementdeSignal.c **** float calculSPO2(void){
 291              		.loc 1 71 0
 292              		.cfi_startproc
 293              		@ args = 0, pretend = 0, frame = 40
 294              		@ frame_needed = 0, uses_anonymous_args = 0
 295 0000 2DE9F043 		push	{r4, r5, r6, r7, r8, r9, lr}
 296              		.cfi_def_cfa_offset 28
 297              		.cfi_offset 4, -28
 298              		.cfi_offset 5, -24
 299              		.cfi_offset 6, -20
 300              		.cfi_offset 7, -16
 301              		.cfi_offset 8, -12
 302              		.cfi_offset 9, -8
 303              		.cfi_offset 14, -4
 304 0004 8BB0     		sub	sp, sp, #44
 305              		.cfi_def_cfa_offset 72
 306              	.LVL20:
  72:TraitementdeSignal.c ****     
  73:TraitementdeSignal.c ****        double ratio = 0,
  74:TraitementdeSignal.c ****               RedAC=0,
  75:TraitementdeSignal.c ****               IrAC=0;
  76:TraitementdeSignal.c ****         float32_t MaxRedAC=0.0,
 307              		.loc 1 76 0
 308 0006 0023     		movs	r3, #0
 309 0008 0993     		str	r3, [sp, #36]	@ float
  77:TraitementdeSignal.c ****                   MinRedAC=0.0,
 310              		.loc 1 77 0
 311 000a 0893     		str	r3, [sp, #32]	@ float
  78:TraitementdeSignal.c ****                   MaxIrAC=0.0,
 312              		.loc 1 78 0
 313 000c 0793     		str	r3, [sp, #28]	@ float
  79:TraitementdeSignal.c ****                   MinIrAC=0.0,
 314              		.loc 1 79 0
 315 000e 0693     		str	r3, [sp, #24]	@ float
  80:TraitementdeSignal.c ****                   moyenneRedDC=0.0,
 316              		.loc 1 80 0
 317 0010 0593     		str	r3, [sp, #20]	@ float
ARM GAS  C:\Users\user\AppData\Local\Temp\ccAMomq7.s 			page 8


  81:TraitementdeSignal.c ****                   moyenneIrDC=0.0;
 318              		.loc 1 81 0
 319 0012 0493     		str	r3, [sp, #16]	@ float
  82:TraitementdeSignal.c ****     
  83:TraitementdeSignal.c ****         uint32_t indexMaxRedAC=0,
 320              		.loc 1 83 0
 321 0014 0023     		movs	r3, #0
 322 0016 0393     		str	r3, [sp, #12]
  84:TraitementdeSignal.c ****                  indexMaxIrAC=0,
 323              		.loc 1 84 0
 324 0018 0293     		str	r3, [sp, #8]
  85:TraitementdeSignal.c ****                  indexMinRedAC=0,
 325              		.loc 1 85 0
 326 001a 0193     		str	r3, [sp, #4]
  86:TraitementdeSignal.c ****                  indexMinIrAC=0;
 327              		.loc 1 86 0
 328 001c 0093     		str	r3, [sp]
  87:TraitementdeSignal.c ****                   
  88:TraitementdeSignal.c ****                 
  89:TraitementdeSignal.c ****                 
  90:TraitementdeSignal.c ****                 
  91:TraitementdeSignal.c ****     
  92:TraitementdeSignal.c ****     arm_max_f32(dataSpo2[RED][AC],BUFFER_LENGTH,&MaxRedAC,&indexMaxRedAC);
 329              		.loc 1 92 0
 330 001e 484C     		ldr	r4, .L27+16
 331 0020 03AB     		add	r3, sp, #12
 332 0022 09AA     		add	r2, sp, #36
 333 0024 4FF47A71 		mov	r1, #1000
 334 0028 2046     		mov	r0, r4
 335 002a FFF7FEFF 		bl	arm_max_f32
 336              	.LVL21:
  93:TraitementdeSignal.c ****     arm_max_f32(dataSpo2[IR][AC],BUFFER_LENGTH,&MaxIrAC,&indexMaxIrAC);
 337              		.loc 1 93 0
 338 002e 454D     		ldr	r5, .L27+20
 339 0030 02AB     		add	r3, sp, #8
 340 0032 07AA     		add	r2, sp, #28
 341 0034 4FF47A71 		mov	r1, #1000
 342 0038 2846     		mov	r0, r5
 343 003a FFF7FEFF 		bl	arm_max_f32
 344              	.LVL22:
  94:TraitementdeSignal.c ****     arm_min_f32(dataSpo2[RED][AC],BUFFER_LENGTH,&MinRedAC,&indexMinRedAC);
 345              		.loc 1 94 0
 346 003e 01AB     		add	r3, sp, #4
 347 0040 08AA     		add	r2, sp, #32
 348 0042 4FF47A71 		mov	r1, #1000
 349 0046 2046     		mov	r0, r4
 350 0048 FFF7FEFF 		bl	arm_min_f32
 351              	.LVL23:
  95:TraitementdeSignal.c ****     arm_min_f32(dataSpo2[IR][AC],BUFFER_LENGTH,&MinIrAC,&indexMinIrAC);
 352              		.loc 1 95 0
 353 004c 6B46     		mov	r3, sp
 354 004e 06AA     		add	r2, sp, #24
 355 0050 4FF47A71 		mov	r1, #1000
 356 0054 2846     		mov	r0, r5
 357 0056 FFF7FEFF 		bl	arm_min_f32
 358              	.LVL24:
  96:TraitementdeSignal.c ****     
ARM GAS  C:\Users\user\AppData\Local\Temp\ccAMomq7.s 			page 9


  97:TraitementdeSignal.c ****     
  98:TraitementdeSignal.c ****     RedAC = MaxRedAC - MinRedAC;
 359              		.loc 1 98 0
 360 005a DDED087A 		vldr.32	s15, [sp, #32]
 361 005e 9DED097A 		vldr.32	s14, [sp, #36]
 362 0062 77EE677A 		vsub.f32	s15, s14, s15
 363 0066 17EE900A 		vmov	r0, s15
 364 006a FFF7FEFF 		bl	__aeabi_f2d
 365              	.LVL25:
 366 006e 8046     		mov	r8, r0
 367 0070 8946     		mov	r9, r1
 368              	.LVL26:
  99:TraitementdeSignal.c ****     IrAC = MaxIrAC - MinIrAC;
 369              		.loc 1 99 0
 370 0072 DDED067A 		vldr.32	s15, [sp, #24]
 371 0076 9DED077A 		vldr.32	s14, [sp, #28]
 372 007a 77EE677A 		vsub.f32	s15, s14, s15
 373 007e 17EE900A 		vmov	r0, s15
 374 0082 FFF7FEFF 		bl	__aeabi_f2d
 375              	.LVL27:
 376 0086 0646     		mov	r6, r0
 377 0088 0F46     		mov	r7, r1
 378              	.LVL28:
 100:TraitementdeSignal.c ****     
 101:TraitementdeSignal.c ****      arm_mean_f32(dataSpo2[RED][DC],BUFFER_LENGTH,&moyenneRedDC);
 379              		.loc 1 101 0
 380 008a 05AA     		add	r2, sp, #20
 381 008c 4FF47A71 		mov	r1, #1000
 382 0090 04F57A60 		add	r0, r4, #4000
 383 0094 FFF7FEFF 		bl	arm_mean_f32
 384              	.LVL29:
 102:TraitementdeSignal.c ****      arm_mean_f32(dataSpo2[IR][DC],BUFFER_LENGTH,&moyenneIrDC);
 385              		.loc 1 102 0
 386 0098 04AA     		add	r2, sp, #16
 387 009a 4FF47A71 		mov	r1, #1000
 388 009e 04F57A50 		add	r0, r4, #16000
 389 00a2 FFF7FEFF 		bl	arm_mean_f32
 390              	.LVL30:
 103:TraitementdeSignal.c ****     
 104:TraitementdeSignal.c ****  ratio = (RedAC/moyenneRedDC)/(IrAC/moyenneIrDC); 
 391              		.loc 1 104 0
 392 00a6 0598     		ldr	r0, [sp, #20]	@ float
 393 00a8 FFF7FEFF 		bl	__aeabi_f2d
 394              	.LVL31:
 395 00ac 0246     		mov	r2, r0
 396 00ae 0B46     		mov	r3, r1
 397 00b0 4046     		mov	r0, r8
 398 00b2 4946     		mov	r1, r9
 399 00b4 FFF7FEFF 		bl	__aeabi_ddiv
 400              	.LVL32:
 401 00b8 0446     		mov	r4, r0
 402 00ba 0D46     		mov	r5, r1
 403 00bc 0498     		ldr	r0, [sp, #16]	@ float
 404 00be FFF7FEFF 		bl	__aeabi_f2d
 405              	.LVL33:
 406 00c2 0246     		mov	r2, r0
 407 00c4 0B46     		mov	r3, r1
ARM GAS  C:\Users\user\AppData\Local\Temp\ccAMomq7.s 			page 10


 408 00c6 3046     		mov	r0, r6
 409 00c8 3946     		mov	r1, r7
 410 00ca FFF7FEFF 		bl	__aeabi_ddiv
 411              	.LVL34:
 412 00ce 0246     		mov	r2, r0
 413 00d0 0B46     		mov	r3, r1
 414 00d2 2046     		mov	r0, r4
 415 00d4 2946     		mov	r1, r5
 416 00d6 FFF7FEFF 		bl	__aeabi_ddiv
 417              	.LVL35:
 418 00da 0446     		mov	r4, r0
 419 00dc 0D46     		mov	r5, r1
 420              	.LVL36:
 105:TraitementdeSignal.c ****                         
 106:TraitementdeSignal.c ****  pourcentageSpO2 = round(-45.060*(ratio*ratio) +30.354*ratio + 110);
 421              		.loc 1 106 0
 422 00de 0246     		mov	r2, r0
 423 00e0 0B46     		mov	r3, r1
 424 00e2 FFF7FEFF 		bl	__aeabi_dmul
 425              	.LVL37:
 426 00e6 12A3     		adr	r3, .L27
 427 00e8 D3E90023 		ldrd	r2, [r3]
 428 00ec FFF7FEFF 		bl	__aeabi_dmul
 429              	.LVL38:
 430 00f0 0646     		mov	r6, r0
 431              	.LVL39:
 432 00f2 0F46     		mov	r7, r1
 433 00f4 10A3     		adr	r3, .L27+8
 434 00f6 D3E90023 		ldrd	r2, [r3]
 435 00fa 2046     		mov	r0, r4
 436 00fc 2946     		mov	r1, r5
 437 00fe FFF7FEFF 		bl	__aeabi_dmul
 438              	.LVL40:
 439 0102 0246     		mov	r2, r0
 440 0104 0B46     		mov	r3, r1
 441 0106 3046     		mov	r0, r6
 442 0108 3946     		mov	r1, r7
 443 010a FFF7FEFF 		bl	__aeabi_dadd
 444              	.LVL41:
 445 010e 0022     		movs	r2, #0
 446 0110 0D4B     		ldr	r3, .L27+24
 447 0112 FFF7FEFF 		bl	__aeabi_dadd
 448              	.LVL42:
 449 0116 FFF7FEFF 		bl	round
 450              	.LVL43:
 451 011a FFF7FEFF 		bl	__aeabi_d2f
 452              	.LVL44:
 453 011e 0B4B     		ldr	r3, .L27+28
 454 0120 1860     		str	r0, [r3]	@ float
 107:TraitementdeSignal.c ****                
 108:TraitementdeSignal.c ****         
 109:TraitementdeSignal.c ****         return  pourcentageSpO2; // on retourne le sp02
 455              		.loc 1 109 0
 456 0122 1868     		ldr	r0, [r3]	@ float
 110:TraitementdeSignal.c **** 
 111:TraitementdeSignal.c **** }
 457              		.loc 1 111 0
ARM GAS  C:\Users\user\AppData\Local\Temp\ccAMomq7.s 			page 11


 458 0124 0BB0     		add	sp, sp, #44
 459              		.cfi_def_cfa_offset 28
 460              		@ sp needed
 461 0126 BDE8F083 		pop	{r4, r5, r6, r7, r8, r9, pc}
 462              	.LVL45:
 463              	.L28:
 464 012a 00BFAFF3 		.align	3
 464      0080
 465              	.L27:
 466 0130 48E17A14 		.word	343597384
 467 0134 AE8746C0 		.word	-1069119570
 468 0138 B4C876BE 		.word	-1099511628
 469 013c 9F5A3E40 		.word	1077828255
 470 0140 A00F0000 		.word	dataSpo2+4000
 471 0144 803E0000 		.word	dataSpo2+16000
 472 0148 00805B40 		.word	1079738368
 473 014c 00000000 		.word	pourcentageSpO2
 474              		.cfi_endproc
 475              	.LFE522:
 476              		.size	calculSPO2, .-calculSPO2
 477              		.section	.text.filtrage,"ax",%progbits
 478              		.align	2
 479              		.global	filtrage
 480              		.thumb
 481              		.thumb_func
 482              		.type	filtrage, %function
 483              	filtrage:
 484              	.LFB523:
 112:TraitementdeSignal.c **** 
 113:TraitementdeSignal.c **** void filtrage(uint16_t index){
 485              		.loc 1 113 0
 486              		.cfi_startproc
 487              		@ args = 0, pretend = 0, frame = 0
 488              		@ frame_needed = 0, uses_anonymous_args = 0
 489              	.LVL46:
 490 0000 70B5     		push	{r4, r5, r6, lr}
 491              		.cfi_def_cfa_offset 16
 492              		.cfi_offset 4, -16
 493              		.cfi_offset 5, -12
 494              		.cfi_offset 6, -8
 495              		.cfi_offset 14, -4
 496 0002 0446     		mov	r4, r0
 114:TraitementdeSignal.c ****         
 115:TraitementdeSignal.c ****     
 116:TraitementdeSignal.c ****         //RED
 117:TraitementdeSignal.c ****         FiltreLowPass(&dataSpo2[RED][RAW][index],&dataSpo2[RED][DC][index]);
 497              		.loc 1 117 0
 498 0004 00F5FA65 		add	r5, r0, #2000
 499 0008 114E     		ldr	r6, .L31
 500 000a 06EB8505 		add	r5, r6, r5, lsl #2
 501 000e 2946     		mov	r1, r5
 502 0010 06EB8000 		add	r0, r6, r0, lsl #2
 503              	.LVL47:
 504 0014 FFF7FEFF 		bl	FiltreLowPass
 505              	.LVL48:
 118:TraitementdeSignal.c ****         FiltreHighPass(&dataSpo2[RED][DC][index],&dataSpo2[RED][AC][index]);
 506              		.loc 1 118 0
ARM GAS  C:\Users\user\AppData\Local\Temp\ccAMomq7.s 			page 12


 507 0018 04F57A71 		add	r1, r4, #1000
 508 001c 06EB8101 		add	r1, r6, r1, lsl #2
 509 0020 2846     		mov	r0, r5
 510 0022 FFF7FEFF 		bl	FiltreHighPass
 511              	.LVL49:
 119:TraitementdeSignal.c ****         
 120:TraitementdeSignal.c ****         //IR
 121:TraitementdeSignal.c ****         FiltreLowPass(&dataSpo2[IR][RAW][index],&dataSpo2[IR][DC][index]);
 512              		.loc 1 121 0
 513 0026 04F59C50 		add	r0, r4, #4992
 514 002a 0830     		adds	r0, r0, #8
 515 002c 06EB8005 		add	r5, r6, r0, lsl #2
 516 0030 04F6B830 		addw	r0, r4, #3000
 517 0034 2946     		mov	r1, r5
 518 0036 06EB8000 		add	r0, r6, r0, lsl #2
 519 003a FFF7FEFF 		bl	FiltreLowPass
 520              	.LVL50:
 122:TraitementdeSignal.c ****         FiltreHighPass(&dataSpo2[IR][DC][index],&dataSpo2[IR][AC][index]);
 521              		.loc 1 122 0
 522 003e 04F57A61 		add	r1, r4, #4000
 523 0042 06EB8101 		add	r1, r6, r1, lsl #2
 524 0046 2846     		mov	r0, r5
 525 0048 FFF7FEFF 		bl	FiltreHighPass
 526              	.LVL51:
 527 004c 70BD     		pop	{r4, r5, r6, pc}
 528              	.L32:
 529 004e 00BF     		.align	2
 530              	.L31:
 531 0050 00000000 		.word	dataSpo2
 532              		.cfi_endproc
 533              	.LFE523:
 534              		.size	filtrage, .-filtrage
 535              		.section	.text.TraitementSignal,"ax",%progbits
 536              		.align	2
 537              		.global	TraitementSignal
 538              		.thumb
 539              		.thumb_func
 540              		.type	TraitementSignal, %function
 541              	TraitementSignal:
 542              	.LFB524:
 123:TraitementdeSignal.c **** 
 124:TraitementdeSignal.c **** }
 125:TraitementdeSignal.c **** 
 126:TraitementdeSignal.c **** void TraitementSignal( void*arg){ // cette tache a moins de priorité que la tache d'ecriture pour 
 543              		.loc 1 126 0
 544              		.cfi_startproc
 545              		@ args = 0, pretend = 0, frame = 8
 546              		@ frame_needed = 0, uses_anonymous_args = 0
 547              	.LVL52:
 548 0000 10B5     		push	{r4, lr}
 549              		.cfi_def_cfa_offset 8
 550              		.cfi_offset 4, -8
 551              		.cfi_offset 14, -4
 552 0002 82B0     		sub	sp, sp, #8
 553              		.cfi_def_cfa_offset 16
 554              	.LVL53:
 127:TraitementdeSignal.c **** 
ARM GAS  C:\Users\user\AppData\Local\Temp\ccAMomq7.s 			page 13


 128:TraitementdeSignal.c ****     (void)arg;
 129:TraitementdeSignal.c ****     uint16_t indexLecture = 0;
 555              		.loc 1 129 0
 556 0004 0024     		movs	r4, #0
 557              	.LVL54:
 558              	.L38:
 130:TraitementdeSignal.c ****      float32_t moyenneRED,
 131:TraitementdeSignal.c ****             moyenneIR;
 132:TraitementdeSignal.c ****   
 133:TraitementdeSignal.c ****     for(;;)
 134:TraitementdeSignal.c ****     {
 135:TraitementdeSignal.c ****       
 136:TraitementdeSignal.c ****         
 137:TraitementdeSignal.c ****         //a chaque 5 seconde (donc a chaque 1000 nouvelles donnees)
 138:TraitementdeSignal.c ****         if(((indexLecture)%(BUFFER_LENGTH))==0 && indexLecture < BUFFER_LENGTH && entree == true )
 559              		.loc 1 138 0
 560 0006 304B     		ldr	r3, .L40
 561 0008 A3FB0423 		umull	r2, r3, r3, r4
 562 000c 9B09     		lsrs	r3, r3, #6
 563 000e 4FF47A72 		mov	r2, #1000
 564 0012 02FB1343 		mls	r3, r2, r3, r4
 565 0016 9BB2     		uxth	r3, r3
 566 0018 002B     		cmp	r3, #0
 567 001a 48D1     		bne	.L34
 568              		.loc 1 138 0 is_stmt 0 discriminator 1
 569 001c 9442     		cmp	r4, r2
 570 001e 46D2     		bcs	.L34
 571              		.loc 1 138 0 discriminator 2
 572 0020 2A4B     		ldr	r3, .L40+4
 573 0022 1B79     		ldrb	r3, [r3, #4]	@ zero_extendqisi2
 574 0024 002B     		cmp	r3, #0
 575 0026 42D0     		beq	.L34
 139:TraitementdeSignal.c ****         {
 140:TraitementdeSignal.c ****               
 141:TraitementdeSignal.c ****                 //Filtrage
 142:TraitementdeSignal.c ****             
 143:TraitementdeSignal.c ****                 filtrage(indexLecture);
 576              		.loc 1 143 0 is_stmt 1
 577 0028 2046     		mov	r0, r4
 578 002a FFF7FEFF 		bl	filtrage
 579              	.LVL55:
 144:TraitementdeSignal.c **** 
 145:TraitementdeSignal.c ****                 //Centrer en 0
 146:TraitementdeSignal.c ****             arm_mean_f32(dataSpo2[RED][AC],BUFFER_LENGTH,&moyenneRED);
 580              		.loc 1 146 0
 581 002e 01AA     		add	r2, sp, #4
 582 0030 4FF47A71 		mov	r1, #1000
 583 0034 2648     		ldr	r0, .L40+8
 584 0036 FFF7FEFF 		bl	arm_mean_f32
 585              	.LVL56:
 147:TraitementdeSignal.c ****             arm_mean_f32(dataSpo2[IR][AC],BUFFER_LENGTH,&moyenneIR);
 586              		.loc 1 147 0
 587 003a 6A46     		mov	r2, sp
 588 003c 4FF47A71 		mov	r1, #1000
 589 0040 2448     		ldr	r0, .L40+12
 590 0042 FFF7FEFF 		bl	arm_mean_f32
 591              	.LVL57:
ARM GAS  C:\Users\user\AppData\Local\Temp\ccAMomq7.s 			page 14


 592              	.LBB3:
 148:TraitementdeSignal.c **** 
 149:TraitementdeSignal.c ****             for ( int i = 0; i < BUFFER_LENGTH; i++){ 
 593              		.loc 1 149 0
 594 0046 0022     		movs	r2, #0
 595 0048 19E0     		b	.L35
 596              	.LVL58:
 597              	.L36:
 150:TraitementdeSignal.c ****                 
 151:TraitementdeSignal.c ****                 dataSpo2[RED][AC][i] -= moyenneRED;
 598              		.loc 1 151 0 discriminator 3
 599 004a 234B     		ldr	r3, .L40+16
 600 004c 02F57A71 		add	r1, r2, #1000
 601 0050 03EB8101 		add	r1, r3, r1, lsl #2
 602 0054 D1ED007A 		vldr.32	s15, [r1]
 603 0058 9DED017A 		vldr.32	s14, [sp, #4]
 604 005c 77EEC77A 		vsub.f32	s15, s15, s14
 605 0060 C1ED007A 		vstr.32	s15, [r1]
 152:TraitementdeSignal.c ****                 dataSpo2[IR][AC][i] -=  moyenneIR;
 606              		.loc 1 152 0 discriminator 3
 607 0064 02F57A61 		add	r1, r2, #4000
 608 0068 03EB8103 		add	r3, r3, r1, lsl #2
 609 006c D3ED007A 		vldr.32	s15, [r3]
 610 0070 9DED007A 		vldr.32	s14, [sp]
 611 0074 77EEC77A 		vsub.f32	s15, s15, s14
 612 0078 C3ED007A 		vstr.32	s15, [r3]
 149:TraitementdeSignal.c ****                 
 613              		.loc 1 149 0 discriminator 3
 614 007c 0132     		adds	r2, r2, #1
 615              	.LVL59:
 616              	.L35:
 149:TraitementdeSignal.c ****                 
 617              		.loc 1 149 0 is_stmt 0 discriminator 1
 618 007e B2F57A7F 		cmp	r2, #1000
 619 0082 E2DB     		blt	.L36
 620              	.LBE3:
 153:TraitementdeSignal.c ****             }
 154:TraitementdeSignal.c ****             
 155:TraitementdeSignal.c ****             //calculer BPM
 156:TraitementdeSignal.c ****             
 157:TraitementdeSignal.c ****             BPM = calculBPM();         
 621              		.loc 1 157 0 is_stmt 1
 622 0084 FFF7FEFF 		bl	calculBPM
 623              	.LVL60:
 624 0088 144B     		ldr	r3, .L40+20
 625 008a 1870     		strb	r0, [r3]
 158:TraitementdeSignal.c ****             printf("BPM : %d \r\n" , BPM);
 626              		.loc 1 158 0
 627 008c 1978     		ldrb	r1, [r3]	@ zero_extendqisi2
 628 008e 1448     		ldr	r0, .L40+24
 629 0090 FFF7FEFF 		bl	printf
 630              	.LVL61:
 159:TraitementdeSignal.c ****             
 160:TraitementdeSignal.c ****             //calculer  SpO2
 161:TraitementdeSignal.c ****             pourcentageSpO2 = calculSPO2();
 631              		.loc 1 161 0
 632 0094 FFF7FEFF 		bl	calculSPO2
ARM GAS  C:\Users\user\AppData\Local\Temp\ccAMomq7.s 			page 15


 633              	.LVL62:
 634 0098 124B     		ldr	r3, .L40+28
 635 009a 1860     		str	r0, [r3]	@ float
 162:TraitementdeSignal.c ****             printf("pourcentageSPO2 : %lu \r\n" , (long unsigned) pourcentageSpO2);
 636              		.loc 1 162 0
 637 009c D3ED007A 		vldr.32	s15, [r3]
 638 00a0 FCEEE77A 		vcvt.u32.f32	s15, s15
 639 00a4 17EE901A 		vmov	r1, s15	@ int
 640 00a8 0F48     		ldr	r0, .L40+32
 641 00aa FFF7FEFF 		bl	printf
 642              	.LVL63:
 643              	.L34:
 163:TraitementdeSignal.c **** 
 164:TraitementdeSignal.c ****           
 165:TraitementdeSignal.c ****         }
 166:TraitementdeSignal.c ****         
 167:TraitementdeSignal.c ****             indexLecture++;
 644              		.loc 1 167 0
 645 00ae 0134     		adds	r4, r4, #1
 646              	.LVL64:
 647 00b0 A4B2     		uxth	r4, r4
 648              	.LVL65:
 168:TraitementdeSignal.c ****             if(indexLecture == BUFFER_LENGTH){
 649              		.loc 1 168 0
 650 00b2 B4F57A7F 		cmp	r4, #1000
 651 00b6 02D1     		bne	.L37
 652              	.LVL66:
 169:TraitementdeSignal.c ****                 indexLecture = 0;  
 170:TraitementdeSignal.c ****              entree = false; 
 653              		.loc 1 170 0
 654 00b8 0024     		movs	r4, #0
 655 00ba 044B     		ldr	r3, .L40+4
 656 00bc 1C71     		strb	r4, [r3, #4]
 657              	.LVL67:
 658              	.L37:
 171:TraitementdeSignal.c **** 
 172:TraitementdeSignal.c ****             }
 173:TraitementdeSignal.c ****         
 174:TraitementdeSignal.c ****             
 175:TraitementdeSignal.c ****         vTaskDelay(pdMS_TO_TICKS(1));
 659              		.loc 1 175 0
 660 00be 0120     		movs	r0, #1
 661 00c0 FFF7FEFF 		bl	vTaskDelay
 662              	.LVL68:
 176:TraitementdeSignal.c ****        
 177:TraitementdeSignal.c ****     }
 663              		.loc 1 177 0
 664 00c4 9FE7     		b	.L38
 665              	.L41:
 666 00c6 00BF     		.align	2
 667              	.L40:
 668 00c8 D34D6210 		.word	274877907
 669 00cc 00000000 		.word	.LANCHOR1
 670 00d0 A00F0000 		.word	dataSpo2+4000
 671 00d4 803E0000 		.word	dataSpo2+16000
 672 00d8 00000000 		.word	dataSpo2
 673 00dc 00000000 		.word	BPM
ARM GAS  C:\Users\user\AppData\Local\Temp\ccAMomq7.s 			page 16


 674 00e0 00000000 		.word	.LC0
 675 00e4 00000000 		.word	pourcentageSpO2
 676 00e8 0C000000 		.word	.LC1
 677              		.cfi_endproc
 678              	.LFE524:
 679              		.size	TraitementSignal, .-TraitementSignal
 680              		.global	numBlocks
 681              		.global	blockSize
 682              		.comm	firCoeffs32_HighPass,44,4
 683              		.comm	firCoeffs32_LowPass,44,4
 684              		.global	entree
 685              		.comm	AlarmeBMI160,1,1
 686              		.comm	BPM,1,1
 687              		.comm	pourcentageSpO2,4,4
 688              		.comm	dataSpo2,24000,4
 689              		.comm	indexBuffer,4,4
 690              		.data
 691              		.align	2
 692              		.set	.LANCHOR1,. + 0
 693              		.type	blockSize, %object
 694              		.size	blockSize, 4
 695              	blockSize:
 696 0000 E8030000 		.word	1000
 697              		.type	entree, %object
 698              		.size	entree, 1
 699              	entree:
 700 0004 01       		.byte	1
 701 0005 000000   		.space	3
 702              		.type	numBlocks, %object
 703              		.size	numBlocks, 4
 704              	numBlocks:
 705 0008 01000000 		.word	1
 706              		.section	.rodata.str1.4,"aMS",%progbits,1
 707              		.align	2
 708              	.LC0:
 709 0000 42504D20 		.ascii	"BPM : %d \015\012\000"
 709      3A202564 
 709      200D0A00 
 710              	.LC1:
 711 000c 706F7572 		.ascii	"pourcentageSPO2 : %lu \015\012\000"
 711      63656E74 
 711      61676553 
 711      504F3220 
 711      3A20256C 
 712              		.bss
 713              		.align	2
 714              		.set	.LANCHOR0,. + 0
 715              		.type	firStateF32, %object
 716              		.size	firStateF32, 4040
 717              	firStateF32:
 718 0000 00000000 		.space	4040
 718      00000000 
 718      00000000 
 718      00000000 
 718      00000000 
 719              		.text
 720              	.Letext0:
ARM GAS  C:\Users\user\AppData\Local\Temp\ccAMomq7.s 			page 17


 721              		.file 2 "c:\\program files (x86)\\cypress\\psoc creator\\4.4\\psoc creator\\import\\gnu\\arm\\5.4.
 722              		.file 3 "c:\\program files (x86)\\cypress\\psoc creator\\4.4\\psoc creator\\import\\gnu\\arm\\5.4.
 723              		.file 4 "Generated_Source\\PSoC6\\pdl\\drivers/peripheral/device/cy_device.h"
 724              		.file 5 "Generated_Source\\PSoC6\\pdl\\drivers/peripheral/syslib/cy_syslib.h"
 725              		.file 6 "Generated_Source\\PSoC6\\pdl\\drivers/peripheral/scb/cy_scb_uart.h"
 726              		.file 7 ".\\CMSIS\\DSP\\Include/arm_math.h"
 727              		.file 8 "Generated_Source\\PSoC6\\pdl\\rtos/FreeRTOS/10.0.1/Source/portable/GCC/CM4F/portmacro.h"
 728              		.file 9 "TraitementdeSignal.h"
 729              		.file 10 ".\\CMSIS\\Core\\Include/core_cm4.h"
 730              		.file 11 "Generated_Source\\PSoC6/UART_1.h"
 731              		.file 12 "Declaration.h"
 732              		.file 13 "c:\\program files (x86)\\cypress\\psoc creator\\4.4\\psoc creator\\import\\gnu\\arm\\5.4
 733              		.file 14 "c:\\program files (x86)\\cypress\\psoc creator\\4.4\\psoc creator\\import\\gnu\\arm\\5.4
 734              		.file 15 "Generated_Source\\PSoC6\\pdl\\rtos/FreeRTOS/10.0.1/Source/include/task.h"