ARM GAS  C:\Users\user\AppData\Local\Temp\cc0N1rlz.s 			page 1


   1              		.syntax unified
   2              		.cpu cortex-m0plus
   3              		.fpu softvfp
   4              		.eabi_attribute 20, 1
   5              		.eabi_attribute 21, 1
   6              		.eabi_attribute 23, 3
   7              		.eabi_attribute 24, 1
   8              		.eabi_attribute 25, 1
   9              		.eabi_attribute 26, 1
  10              		.eabi_attribute 30, 1
  11              		.eabi_attribute 34, 0
  12              		.eabi_attribute 18, 4
  13              		.thumb
  14              		.syntax unified
  15              		.file	"CapSense_Filter.c"
  16              		.text
  17              	.Ltext0:
  18              		.cfi_sections	.debug_frame
  19              		.section	.text.CapSense_FtInitializeBaselineChannel,"ax",%progbits
  20              		.align	2
  21              		.global	CapSense_FtInitializeBaselineChannel
  22              		.code	16
  23              		.thumb_func
  24              		.type	CapSense_FtInitializeBaselineChannel, %function
  25              	CapSense_FtInitializeBaselineChannel:
  26              	.LFB54:
  27              		.file 1 "Generated_Source\\PSoC6\\CapSense_Filter.c"
   1:Generated_Source\PSoC6/CapSense_Filter.c **** /***************************************************************************//**
   2:Generated_Source\PSoC6/CapSense_Filter.c **** * \file CapSense_Filter.c
   3:Generated_Source\PSoC6/CapSense_Filter.c **** * \version 3.0
   4:Generated_Source\PSoC6/CapSense_Filter.c **** *
   5:Generated_Source\PSoC6/CapSense_Filter.c **** * \brief
   6:Generated_Source\PSoC6/CapSense_Filter.c **** *   This file contains the implementation source code to implement all
   7:Generated_Source\PSoC6/CapSense_Filter.c **** *   firmware filters.
   8:Generated_Source\PSoC6/CapSense_Filter.c **** *
   9:Generated_Source\PSoC6/CapSense_Filter.c **** * \see CapSense v3.0 Datasheet
  10:Generated_Source\PSoC6/CapSense_Filter.c **** *
  11:Generated_Source\PSoC6/CapSense_Filter.c **** *//*****************************************************************************
  12:Generated_Source\PSoC6/CapSense_Filter.c **** * Copyright (2016-2017), Cypress Semiconductor Corporation.
  13:Generated_Source\PSoC6/CapSense_Filter.c **** ********************************************************************************
  14:Generated_Source\PSoC6/CapSense_Filter.c **** * This software is owned by Cypress Semiconductor Corporation (Cypress) and is
  15:Generated_Source\PSoC6/CapSense_Filter.c **** * protected by and subject to worldwide patent protection (United States and
  16:Generated_Source\PSoC6/CapSense_Filter.c **** * foreign), United States copyright laws and international treaty provisions.
  17:Generated_Source\PSoC6/CapSense_Filter.c **** * Cypress hereby grants to licensee a personal, non-exclusive, non-transferable
  18:Generated_Source\PSoC6/CapSense_Filter.c **** * license to copy, use, modify, create derivative works of, and compile the
  19:Generated_Source\PSoC6/CapSense_Filter.c **** * Cypress Source Code and derivative works for the sole purpose of creating
  20:Generated_Source\PSoC6/CapSense_Filter.c **** * custom software in support of licensee product to be used only in conjunction
  21:Generated_Source\PSoC6/CapSense_Filter.c **** * with a Cypress integrated circuit as specified in the applicable agreement.
  22:Generated_Source\PSoC6/CapSense_Filter.c **** * Any reproduction, modification, translation, compilation, or representation of
  23:Generated_Source\PSoC6/CapSense_Filter.c **** * this software except as specified above is prohibited without the express
  24:Generated_Source\PSoC6/CapSense_Filter.c **** * written permission of Cypress.
  25:Generated_Source\PSoC6/CapSense_Filter.c **** *
  26:Generated_Source\PSoC6/CapSense_Filter.c **** * Disclaimer: CYPRESS MAKES NO WARRANTY OF ANY KIND, EXPRESS OR IMPLIED, WITH
  27:Generated_Source\PSoC6/CapSense_Filter.c **** * REGARD TO THIS MATERIAL, INCLUDING, BUT NOT LIMITED TO, THE IMPLIED
  28:Generated_Source\PSoC6/CapSense_Filter.c **** * WARRANTIES OF MERCHANTABILITY AND FITNESS FOR A PARTICULAR PURPOSE.
  29:Generated_Source\PSoC6/CapSense_Filter.c **** * Cypress reserves the right to make changes without further notice to the
  30:Generated_Source\PSoC6/CapSense_Filter.c **** * materials described herein. Cypress does not assume any liability arising out
ARM GAS  C:\Users\user\AppData\Local\Temp\cc0N1rlz.s 			page 2


  31:Generated_Source\PSoC6/CapSense_Filter.c **** * of the application or use of any product or circuit described herein. Cypress
  32:Generated_Source\PSoC6/CapSense_Filter.c **** * does not authorize its products for use as critical components in life-support
  33:Generated_Source\PSoC6/CapSense_Filter.c **** * systems where a malfunction or failure may reasonably be expected to result in
  34:Generated_Source\PSoC6/CapSense_Filter.c **** * significant injury to the user. The inclusion of Cypress' product in a life-
  35:Generated_Source\PSoC6/CapSense_Filter.c **** * support systems application implies that the manufacturer assumes all risk of
  36:Generated_Source\PSoC6/CapSense_Filter.c **** * such use and in doing so indemnifies Cypress against all charges. Use may be
  37:Generated_Source\PSoC6/CapSense_Filter.c **** * limited by and subject to the applicable Cypress software license agreement.
  38:Generated_Source\PSoC6/CapSense_Filter.c **** *******************************************************************************/
  39:Generated_Source\PSoC6/CapSense_Filter.c **** 
  40:Generated_Source\PSoC6/CapSense_Filter.c **** #include "stddef.h"
  41:Generated_Source\PSoC6/CapSense_Filter.c **** #include "CapSense_Filter.h"
  42:Generated_Source\PSoC6/CapSense_Filter.c **** #include "CapSense_Configuration.h"
  43:Generated_Source\PSoC6/CapSense_Filter.c **** 
  44:Generated_Source\PSoC6/CapSense_Filter.c **** #if (0 != (CapSense_CSD_AUTOTUNE & CapSense_CSD_SS_TH_EN))
  45:Generated_Source\PSoC6/CapSense_Filter.c ****     #include "CapSense_SmartSense_LL.h"
  46:Generated_Source\PSoC6/CapSense_Filter.c **** #endif /* (0 != (CapSense_CSD_AUTOTUNE & CapSense_CSD_SS_TH_EN)) */
  47:Generated_Source\PSoC6/CapSense_Filter.c **** 
  48:Generated_Source\PSoC6/CapSense_Filter.c **** #if (CapSense_ENABLE == CapSense_SELF_TEST_EN)
  49:Generated_Source\PSoC6/CapSense_Filter.c ****     #include "CapSense_SelfTest.h"
  50:Generated_Source\PSoC6/CapSense_Filter.c **** #endif
  51:Generated_Source\PSoC6/CapSense_Filter.c **** 
  52:Generated_Source\PSoC6/CapSense_Filter.c **** /*******************************************************************************
  53:Generated_Source\PSoC6/CapSense_Filter.c **** * Function Name: CapSense_FtInitialize
  54:Generated_Source\PSoC6/CapSense_Filter.c **** ****************************************************************************//**
  55:Generated_Source\PSoC6/CapSense_Filter.c **** *
  56:Generated_Source\PSoC6/CapSense_Filter.c **** * \brief
  57:Generated_Source\PSoC6/CapSense_Filter.c **** *    Initializes all the firmware filter history, except the baseline filter.
  58:Generated_Source\PSoC6/CapSense_Filter.c **** *
  59:Generated_Source\PSoC6/CapSense_Filter.c **** * \details
  60:Generated_Source\PSoC6/CapSense_Filter.c **** *    Initializes all the firmware filter history, except the baseline filter.
  61:Generated_Source\PSoC6/CapSense_Filter.c **** *
  62:Generated_Source\PSoC6/CapSense_Filter.c **** *******************************************************************************/
  63:Generated_Source\PSoC6/CapSense_Filter.c **** void CapSense_FtInitialize(void)
  64:Generated_Source\PSoC6/CapSense_Filter.c **** {
  65:Generated_Source\PSoC6/CapSense_Filter.c ****     #if ((CapSense_ENABLE == CapSense_RC_FILTER_EN) || \
  66:Generated_Source\PSoC6/CapSense_Filter.c ****          (0u != (CapSense_CSD_AUTOTUNE & CapSense_CSD_SS_TH_EN)))
  67:Generated_Source\PSoC6/CapSense_Filter.c ****         CapSense_InitializeAllFilters();
  68:Generated_Source\PSoC6/CapSense_Filter.c ****     #endif /* ((CapSense_ENABLE == CapSense_RC_FILTER_EN) || \
  69:Generated_Source\PSoC6/CapSense_Filter.c ****                (0u != (CapSense_CSD_AUTOTUNE & CapSense_CSD_SS_TH_EN))) */
  70:Generated_Source\PSoC6/CapSense_Filter.c **** }
  71:Generated_Source\PSoC6/CapSense_Filter.c **** 
  72:Generated_Source\PSoC6/CapSense_Filter.c **** 
  73:Generated_Source\PSoC6/CapSense_Filter.c **** /*******************************************************************************
  74:Generated_Source\PSoC6/CapSense_Filter.c **** * Function Name: CapSense_UpdateAllBaselines
  75:Generated_Source\PSoC6/CapSense_Filter.c **** ****************************************************************************//**
  76:Generated_Source\PSoC6/CapSense_Filter.c **** *
  77:Generated_Source\PSoC6/CapSense_Filter.c **** * \brief
  78:Generated_Source\PSoC6/CapSense_Filter.c **** *  Updates the baseline for all the sensors in all the widgets.
  79:Generated_Source\PSoC6/CapSense_Filter.c **** *
  80:Generated_Source\PSoC6/CapSense_Filter.c **** * \details
  81:Generated_Source\PSoC6/CapSense_Filter.c **** *  Updates the baseline for all the sensors in all the widgets. Baseline updating is a
  82:Generated_Source\PSoC6/CapSense_Filter.c **** *  part of data processing performed by the process functions. So, no need to
  83:Generated_Source\PSoC6/CapSense_Filter.c **** *  call this function except a specific process flow is implemented.
  84:Generated_Source\PSoC6/CapSense_Filter.c **** *
  85:Generated_Source\PSoC6/CapSense_Filter.c **** *  This function ignores the value of the wdgtEnable register. Multiple calling
  86:Generated_Source\PSoC6/CapSense_Filter.c **** *  of this function (or any other function with a baseline updating task)
  87:Generated_Source\PSoC6/CapSense_Filter.c **** *  without scanning leads to unexpected behavior.
ARM GAS  C:\Users\user\AppData\Local\Temp\cc0N1rlz.s 			page 3


  88:Generated_Source\PSoC6/CapSense_Filter.c **** *
  89:Generated_Source\PSoC6/CapSense_Filter.c **** *  If the Self-test library is enabled, this function executes the baseline duplication
  90:Generated_Source\PSoC6/CapSense_Filter.c **** *  test. Refer to CapSense_CheckBaselineDuplication() for details.
  91:Generated_Source\PSoC6/CapSense_Filter.c **** *
  92:Generated_Source\PSoC6/CapSense_Filter.c **** * \return
  93:Generated_Source\PSoC6/CapSense_Filter.c **** *  Returns the status of the update baseline operation of all the widgets:
  94:Generated_Source\PSoC6/CapSense_Filter.c **** *  - CY_RET_SUCCESS - The operation is successfully completed.
  95:Generated_Source\PSoC6/CapSense_Filter.c **** *  - CY_RET_BAD_DATA - The baseline processing failed.
  96:Generated_Source\PSoC6/CapSense_Filter.c **** *
  97:Generated_Source\PSoC6/CapSense_Filter.c **** *******************************************************************************/
  98:Generated_Source\PSoC6/CapSense_Filter.c **** cy_status CapSense_UpdateAllBaselines(void)
  99:Generated_Source\PSoC6/CapSense_Filter.c **** {
 100:Generated_Source\PSoC6/CapSense_Filter.c ****     uint32 widgetId;
 101:Generated_Source\PSoC6/CapSense_Filter.c ****     cy_status bslnStatus = CY_RET_SUCCESS;
 102:Generated_Source\PSoC6/CapSense_Filter.c **** 
 103:Generated_Source\PSoC6/CapSense_Filter.c ****     for(widgetId = CapSense_TOTAL_WIDGETS; widgetId-- > 0u;)
 104:Generated_Source\PSoC6/CapSense_Filter.c ****     {
 105:Generated_Source\PSoC6/CapSense_Filter.c ****         bslnStatus |= CapSense_UpdateWidgetBaseline(widgetId);
 106:Generated_Source\PSoC6/CapSense_Filter.c ****     }
 107:Generated_Source\PSoC6/CapSense_Filter.c **** 
 108:Generated_Source\PSoC6/CapSense_Filter.c ****     return(bslnStatus);
 109:Generated_Source\PSoC6/CapSense_Filter.c **** }
 110:Generated_Source\PSoC6/CapSense_Filter.c **** 
 111:Generated_Source\PSoC6/CapSense_Filter.c **** 
 112:Generated_Source\PSoC6/CapSense_Filter.c **** /*******************************************************************************
 113:Generated_Source\PSoC6/CapSense_Filter.c **** * Function Name: CapSense_UpdateWidgetBaseline
 114:Generated_Source\PSoC6/CapSense_Filter.c **** ****************************************************************************//**
 115:Generated_Source\PSoC6/CapSense_Filter.c **** *
 116:Generated_Source\PSoC6/CapSense_Filter.c **** * \brief
 117:Generated_Source\PSoC6/CapSense_Filter.c **** *  Updates the baselines for all the sensors in a widget specified by the input parameter.
 118:Generated_Source\PSoC6/CapSense_Filter.c **** *
 119:Generated_Source\PSoC6/CapSense_Filter.c **** * \details
 120:Generated_Source\PSoC6/CapSense_Filter.c **** *  This function performs exactly the same tasks as
 121:Generated_Source\PSoC6/CapSense_Filter.c **** *  CapSense_UpdateAllBaselines() but only for a specified widget.
 122:Generated_Source\PSoC6/CapSense_Filter.c **** *
 123:Generated_Source\PSoC6/CapSense_Filter.c **** *  This function ignores the value of the wdgtEnable register. Multiple calling
 124:Generated_Source\PSoC6/CapSense_Filter.c **** *  of this function (or any other function with a baseline updating task)
 125:Generated_Source\PSoC6/CapSense_Filter.c **** *  without scanning leads to unexpected behavior.
 126:Generated_Source\PSoC6/CapSense_Filter.c **** *
 127:Generated_Source\PSoC6/CapSense_Filter.c **** *  If the Self-test library is enabled, this function executes the baseline duplication
 128:Generated_Source\PSoC6/CapSense_Filter.c **** *  test. Refer to CapSense_CheckBaselineDuplication() for details.
 129:Generated_Source\PSoC6/CapSense_Filter.c **** *
 130:Generated_Source\PSoC6/CapSense_Filter.c **** * \param widgetId
 131:Generated_Source\PSoC6/CapSense_Filter.c **** *  Specifies the ID number of the widget to update the baseline of all the sensors
 132:Generated_Source\PSoC6/CapSense_Filter.c **** *  in the widget.
 133:Generated_Source\PSoC6/CapSense_Filter.c **** *  A macro for the widget ID can be found in the
 134:Generated_Source\PSoC6/CapSense_Filter.c **** *  CapSense Configuration header file defined as
 135:Generated_Source\PSoC6/CapSense_Filter.c **** *  CapSense_<WidgetName>_WDGT_ID.
 136:Generated_Source\PSoC6/CapSense_Filter.c **** *
 137:Generated_Source\PSoC6/CapSense_Filter.c **** * \return
 138:Generated_Source\PSoC6/CapSense_Filter.c **** *  Returns the status of the specified widget update baseline operation:
 139:Generated_Source\PSoC6/CapSense_Filter.c **** *  - CY_RET_SUCCESS - The operation is successfully completed.
 140:Generated_Source\PSoC6/CapSense_Filter.c **** *  - CY_RET_BAD_DATA - The baseline processing failed.
 141:Generated_Source\PSoC6/CapSense_Filter.c **** *
 142:Generated_Source\PSoC6/CapSense_Filter.c **** *******************************************************************************/
 143:Generated_Source\PSoC6/CapSense_Filter.c **** cy_status CapSense_UpdateWidgetBaseline(uint32 widgetId)
 144:Generated_Source\PSoC6/CapSense_Filter.c **** {
ARM GAS  C:\Users\user\AppData\Local\Temp\cc0N1rlz.s 			page 4


 145:Generated_Source\PSoC6/CapSense_Filter.c ****     uint32 sensorId;
 146:Generated_Source\PSoC6/CapSense_Filter.c ****     uint32 sensorsNumber;
 147:Generated_Source\PSoC6/CapSense_Filter.c **** 
 148:Generated_Source\PSoC6/CapSense_Filter.c ****     CapSense_FLASH_WD_STRUCT const *ptrWidget = &CapSense_dsFlash.wdgtArray[widgetId];
 149:Generated_Source\PSoC6/CapSense_Filter.c ****     cy_status bslnStatus = CY_RET_SUCCESS;
 150:Generated_Source\PSoC6/CapSense_Filter.c **** 
 151:Generated_Source\PSoC6/CapSense_Filter.c ****     /* Find total amount of sensors in specified widget */
 152:Generated_Source\PSoC6/CapSense_Filter.c ****     sensorsNumber = CapSense_GET_SNS_CNT_BY_PTR(ptrWidget);
 153:Generated_Source\PSoC6/CapSense_Filter.c **** 
 154:Generated_Source\PSoC6/CapSense_Filter.c ****     for(sensorId = sensorsNumber; sensorId-- > 0u;)
 155:Generated_Source\PSoC6/CapSense_Filter.c ****     {
 156:Generated_Source\PSoC6/CapSense_Filter.c ****         bslnStatus |= CapSense_UpdateSensorBaseline(widgetId, sensorId);
 157:Generated_Source\PSoC6/CapSense_Filter.c ****     }
 158:Generated_Source\PSoC6/CapSense_Filter.c **** 
 159:Generated_Source\PSoC6/CapSense_Filter.c ****     return(bslnStatus);
 160:Generated_Source\PSoC6/CapSense_Filter.c **** }
 161:Generated_Source\PSoC6/CapSense_Filter.c **** 
 162:Generated_Source\PSoC6/CapSense_Filter.c **** 
 163:Generated_Source\PSoC6/CapSense_Filter.c **** /*******************************************************************************
 164:Generated_Source\PSoC6/CapSense_Filter.c **** * Function Name: CapSense_UpdateSensorBaseline
 165:Generated_Source\PSoC6/CapSense_Filter.c **** ****************************************************************************//**
 166:Generated_Source\PSoC6/CapSense_Filter.c **** *
 167:Generated_Source\PSoC6/CapSense_Filter.c **** * \brief
 168:Generated_Source\PSoC6/CapSense_Filter.c **** *  Updates the baseline for a sensor in a widget specified by the input parameters.
 169:Generated_Source\PSoC6/CapSense_Filter.c **** *
 170:Generated_Source\PSoC6/CapSense_Filter.c **** * \details
 171:Generated_Source\PSoC6/CapSense_Filter.c **** *  This function performs exactly the same tasks as
 172:Generated_Source\PSoC6/CapSense_Filter.c **** *  CapSense_UpdateAllBaselines() and
 173:Generated_Source\PSoC6/CapSense_Filter.c **** *  CapSense_UpdateWidgetBaseline() but only for a specified sensor.
 174:Generated_Source\PSoC6/CapSense_Filter.c **** *
 175:Generated_Source\PSoC6/CapSense_Filter.c **** *  This function ignores the value of the wdgtEnable register. Multiple calling
 176:Generated_Source\PSoC6/CapSense_Filter.c **** *  of this function (or any other function with a baseline updating task)
 177:Generated_Source\PSoC6/CapSense_Filter.c **** *  without scanning leads to unexpected behavior.
 178:Generated_Source\PSoC6/CapSense_Filter.c **** *
 179:Generated_Source\PSoC6/CapSense_Filter.c **** *  If the Self-test library is enabled, this function executes the baseline duplication
 180:Generated_Source\PSoC6/CapSense_Filter.c **** *  test. Refer to CapSense_CheckBaselineDuplication() for details.
 181:Generated_Source\PSoC6/CapSense_Filter.c **** *
 182:Generated_Source\PSoC6/CapSense_Filter.c **** * \param   widgetId
 183:Generated_Source\PSoC6/CapSense_Filter.c **** *  Specifies the ID number of the widget to update the baseline of the sensor
 184:Generated_Source\PSoC6/CapSense_Filter.c **** *  specified by the sensorId argument.
 185:Generated_Source\PSoC6/CapSense_Filter.c **** *  A macro for the widget ID can be found in the CapSense Configuration header
 186:Generated_Source\PSoC6/CapSense_Filter.c **** *  file defined as CapSense_<WidgetName>_WDGT_ID.
 187:Generated_Source\PSoC6/CapSense_Filter.c **** *
 188:Generated_Source\PSoC6/CapSense_Filter.c **** * \param   sensorId
 189:Generated_Source\PSoC6/CapSense_Filter.c **** *  Specifies the ID number of the sensor within the widget to update its baseline.
 190:Generated_Source\PSoC6/CapSense_Filter.c **** *  A macro for the sensor ID within a specified widget can be found in the
 191:Generated_Source\PSoC6/CapSense_Filter.c **** *  CapSense Configuration header file defined as
 192:Generated_Source\PSoC6/CapSense_Filter.c **** *  CapSense_<WidgetName>_SNS<SensorNumber>_ID.
 193:Generated_Source\PSoC6/CapSense_Filter.c **** *
 194:Generated_Source\PSoC6/CapSense_Filter.c **** * \return
 195:Generated_Source\PSoC6/CapSense_Filter.c **** *  Returns the status of the specified sensor update baseline operation:
 196:Generated_Source\PSoC6/CapSense_Filter.c **** *  - CY_RET_SUCCESS - The operation is successfully completed.
 197:Generated_Source\PSoC6/CapSense_Filter.c **** *  - CY_RET_BAD_DATA - The baseline processing failed.
 198:Generated_Source\PSoC6/CapSense_Filter.c **** *
 199:Generated_Source\PSoC6/CapSense_Filter.c **** *******************************************************************************/
 200:Generated_Source\PSoC6/CapSense_Filter.c **** cy_status CapSense_UpdateSensorBaseline(uint32 widgetId, uint32 sensorId)
 201:Generated_Source\PSoC6/CapSense_Filter.c **** {
ARM GAS  C:\Users\user\AppData\Local\Temp\cc0N1rlz.s 			page 5


 202:Generated_Source\PSoC6/CapSense_Filter.c ****     uint32 result = CY_RET_SUCCESS;
 203:Generated_Source\PSoC6/CapSense_Filter.c **** 
 204:Generated_Source\PSoC6/CapSense_Filter.c ****     CapSense_RAM_SNS_STRUCT *ptrSensor = NULL;
 205:Generated_Source\PSoC6/CapSense_Filter.c ****     CapSense_FLASH_WD_STRUCT const *ptrWidget = &CapSense_dsFlash.wdgtArray[widgetId];
 206:Generated_Source\PSoC6/CapSense_Filter.c ****     CapSense_RAM_WD_BASE_STRUCT *ptrWidgetRam = (CapSense_RAM_WD_BASE_STRUCT *)ptrWidget->ptr2WdgtR
 207:Generated_Source\PSoC6/CapSense_Filter.c **** 
 208:Generated_Source\PSoC6/CapSense_Filter.c ****     /* Find pointer to specified sensor object */
 209:Generated_Source\PSoC6/CapSense_Filter.c ****     ptrSensor = ptrWidget->ptr2SnsRam;
 210:Generated_Source\PSoC6/CapSense_Filter.c ****     ptrSensor = &ptrSensor[sensorId];
 211:Generated_Source\PSoC6/CapSense_Filter.c ****     result = CapSense_FtUpdateBaseline(ptrWidgetRam, ptrSensor, (uint32)ptrWidget->wdgtType);
 212:Generated_Source\PSoC6/CapSense_Filter.c **** 
 213:Generated_Source\PSoC6/CapSense_Filter.c ****     #if (CapSense_ENABLE == CapSense_TST_BSLN_DUPLICATION_EN)
 214:Generated_Source\PSoC6/CapSense_Filter.c ****         if (CY_RET_SUCCESS != result)
 215:Generated_Source\PSoC6/CapSense_Filter.c ****         {
 216:Generated_Source\PSoC6/CapSense_Filter.c ****             result = CY_RET_BAD_DATA;
 217:Generated_Source\PSoC6/CapSense_Filter.c ****             CapSense_UpdateTestResultBaselineDuplication(widgetId, sensorId);
 218:Generated_Source\PSoC6/CapSense_Filter.c ****         }
 219:Generated_Source\PSoC6/CapSense_Filter.c ****     #endif /* (CapSense_ENABLE == CapSense_TST_BSLN_DUPLICATION_EN) */
 220:Generated_Source\PSoC6/CapSense_Filter.c **** 
 221:Generated_Source\PSoC6/CapSense_Filter.c ****     return result;
 222:Generated_Source\PSoC6/CapSense_Filter.c **** }
 223:Generated_Source\PSoC6/CapSense_Filter.c **** 
 224:Generated_Source\PSoC6/CapSense_Filter.c **** /*******************************************************************************
 225:Generated_Source\PSoC6/CapSense_Filter.c **** * Function Name: CapSense_FtUpdateBaseline
 226:Generated_Source\PSoC6/CapSense_Filter.c **** ****************************************************************************//**
 227:Generated_Source\PSoC6/CapSense_Filter.c **** *
 228:Generated_Source\PSoC6/CapSense_Filter.c **** * \brief
 229:Generated_Source\PSoC6/CapSense_Filter.c **** *  Updates the baseline for a sensor specified by an input parameter.
 230:Generated_Source\PSoC6/CapSense_Filter.c **** *
 231:Generated_Source\PSoC6/CapSense_Filter.c **** * \details
 232:Generated_Source\PSoC6/CapSense_Filter.c **** *  Check a matching of present baseline and its inverse duplication. If they
 233:Generated_Source\PSoC6/CapSense_Filter.c **** *  match then updates the baseline for a sensor specified by an input parameter.
 234:Generated_Source\PSoC6/CapSense_Filter.c **** *  If don't match the function return CapSense_TST_BSLN_DUPLICATION
 235:Generated_Source\PSoC6/CapSense_Filter.c **** *  result and don't update baseline.
 236:Generated_Source\PSoC6/CapSense_Filter.c **** *
 237:Generated_Source\PSoC6/CapSense_Filter.c **** * \param    ptrWidgetRam
 238:Generated_Source\PSoC6/CapSense_Filter.c **** *  The pointer to the widget RAM structure where all the widget parameters
 239:Generated_Source\PSoC6/CapSense_Filter.c **** *  are stored.
 240:Generated_Source\PSoC6/CapSense_Filter.c **** *
 241:Generated_Source\PSoC6/CapSense_Filter.c **** * \param    ptrSensor
 242:Generated_Source\PSoC6/CapSense_Filter.c **** *  The pointer to the sensor RAM structure where all the sensor parameters
 243:Generated_Source\PSoC6/CapSense_Filter.c **** *  are stored.
 244:Generated_Source\PSoC6/CapSense_Filter.c **** *
 245:Generated_Source\PSoC6/CapSense_Filter.c **** * \param    wdType
 246:Generated_Source\PSoC6/CapSense_Filter.c **** *  Specifies the type of a widget.
 247:Generated_Source\PSoC6/CapSense_Filter.c **** *
 248:Generated_Source\PSoC6/CapSense_Filter.c **** * \return
 249:Generated_Source\PSoC6/CapSense_Filter.c **** *  Returns a status indicating whether the baseline has been updated:
 250:Generated_Source\PSoC6/CapSense_Filter.c **** *  - CY_RET_SUCCESS if baseline updating was successful;
 251:Generated_Source\PSoC6/CapSense_Filter.c **** *  - CapSense_PROCESS_BASELINE_FAILED if present sensor's any channel
 252:Generated_Source\PSoC6/CapSense_Filter.c **** *    baseline and its inversion doesn't matched
 253:Generated_Source\PSoC6/CapSense_Filter.c **** *
 254:Generated_Source\PSoC6/CapSense_Filter.c **** *******************************************************************************/
 255:Generated_Source\PSoC6/CapSense_Filter.c **** uint32 CapSense_FtUpdateBaseline(
 256:Generated_Source\PSoC6/CapSense_Filter.c ****                                 CapSense_RAM_WD_BASE_STRUCT *ptrWidgetRam,
 257:Generated_Source\PSoC6/CapSense_Filter.c ****                                 CapSense_RAM_SNS_STRUCT *ptrSensor,
 258:Generated_Source\PSoC6/CapSense_Filter.c ****                                 uint32 wdType)
ARM GAS  C:\Users\user\AppData\Local\Temp\cc0N1rlz.s 			page 6


 259:Generated_Source\PSoC6/CapSense_Filter.c **** {
 260:Generated_Source\PSoC6/CapSense_Filter.c ****     uint32 sign;
 261:Generated_Source\PSoC6/CapSense_Filter.c ****     uint32 difference;
 262:Generated_Source\PSoC6/CapSense_Filter.c ****     uint32 freqChannel;
 263:Generated_Source\PSoC6/CapSense_Filter.c ****     uint32 baselineCoeff;
 264:Generated_Source\PSoC6/CapSense_Filter.c ****     uint32 result = CY_RET_SUCCESS;
 265:Generated_Source\PSoC6/CapSense_Filter.c **** 
 266:Generated_Source\PSoC6/CapSense_Filter.c ****     #if (CapSense_TOTAL_WIDGETS)
 267:Generated_Source\PSoC6/CapSense_Filter.c ****         uint32 history;
 268:Generated_Source\PSoC6/CapSense_Filter.c ****     #endif /* (CapSense_TOTAL_WIDGETS) */
 269:Generated_Source\PSoC6/CapSense_Filter.c **** 
 270:Generated_Source\PSoC6/CapSense_Filter.c ****     /* Apply baseline to every channel in sensor */
 271:Generated_Source\PSoC6/CapSense_Filter.c ****     for(freqChannel = CapSense_NUM_SCAN_FREQS; freqChannel-- > 0u;)
 272:Generated_Source\PSoC6/CapSense_Filter.c ****     {
 273:Generated_Source\PSoC6/CapSense_Filter.c ****         #if (CapSense_ENABLE == CapSense_TST_BSLN_DUPLICATION_EN)
 274:Generated_Source\PSoC6/CapSense_Filter.c ****             if (ptrSensor->bslnInv[freqChannel] != ((uint16) ~(ptrSensor->bsln[freqChannel])))
 275:Generated_Source\PSoC6/CapSense_Filter.c ****             {
 276:Generated_Source\PSoC6/CapSense_Filter.c ****                 result = CapSense_PROCESS_BASELINE_FAILED;
 277:Generated_Source\PSoC6/CapSense_Filter.c ****             }
 278:Generated_Source\PSoC6/CapSense_Filter.c ****             else
 279:Generated_Source\PSoC6/CapSense_Filter.c ****             {
 280:Generated_Source\PSoC6/CapSense_Filter.c ****         #endif /* (CapSense_ENABLE == CapSense_TST_BSLN_DUPLICATION_EN) */
 281:Generated_Source\PSoC6/CapSense_Filter.c **** 
 282:Generated_Source\PSoC6/CapSense_Filter.c ****         /* Calculate signal value and its sign */
 283:Generated_Source\PSoC6/CapSense_Filter.c ****         if(ptrSensor->raw[freqChannel] >= ptrSensor->bsln[freqChannel])
 284:Generated_Source\PSoC6/CapSense_Filter.c ****         {
 285:Generated_Source\PSoC6/CapSense_Filter.c ****             difference = (uint32)ptrSensor->raw[freqChannel] - (uint32)ptrSensor->bsln[freqChannel]
 286:Generated_Source\PSoC6/CapSense_Filter.c ****             sign = 1u;
 287:Generated_Source\PSoC6/CapSense_Filter.c ****             ptrSensor->negBslnRstCnt[freqChannel] = 0u;
 288:Generated_Source\PSoC6/CapSense_Filter.c ****         }
 289:Generated_Source\PSoC6/CapSense_Filter.c ****         else
 290:Generated_Source\PSoC6/CapSense_Filter.c ****         {
 291:Generated_Source\PSoC6/CapSense_Filter.c ****             difference = (uint32)ptrSensor->bsln[freqChannel] - (uint32)ptrSensor->raw[freqChannel]
 292:Generated_Source\PSoC6/CapSense_Filter.c ****             sign = 0u;
 293:Generated_Source\PSoC6/CapSense_Filter.c ****         }
 294:Generated_Source\PSoC6/CapSense_Filter.c **** 
 295:Generated_Source\PSoC6/CapSense_Filter.c ****         /* Reset baseline if condition is met */
 296:Generated_Source\PSoC6/CapSense_Filter.c ****         if((sign == 0u) && (difference > (uint32) ptrWidgetRam->nNoiseTh))
 297:Generated_Source\PSoC6/CapSense_Filter.c ****         {
 298:Generated_Source\PSoC6/CapSense_Filter.c ****             if(ptrSensor->negBslnRstCnt[freqChannel] >= ptrWidgetRam->lowBslnRst)
 299:Generated_Source\PSoC6/CapSense_Filter.c ****             {
 300:Generated_Source\PSoC6/CapSense_Filter.c ****                 CapSense_FtInitializeBaselineChannel(ptrSensor, wdType, freqChannel);
 301:Generated_Source\PSoC6/CapSense_Filter.c ****             }
 302:Generated_Source\PSoC6/CapSense_Filter.c ****             else
 303:Generated_Source\PSoC6/CapSense_Filter.c ****             {
 304:Generated_Source\PSoC6/CapSense_Filter.c ****                 ptrSensor->negBslnRstCnt[freqChannel]++;
 305:Generated_Source\PSoC6/CapSense_Filter.c ****             }
 306:Generated_Source\PSoC6/CapSense_Filter.c ****         }
 307:Generated_Source\PSoC6/CapSense_Filter.c ****         else
 308:Generated_Source\PSoC6/CapSense_Filter.c ****         {
 309:Generated_Source\PSoC6/CapSense_Filter.c ****             #if (!CapSense_SENSOR_AUTO_RESET_EN)
 310:Generated_Source\PSoC6/CapSense_Filter.c ****                 /* Update baseline only if signal is in range between noiseThreshold and negativeno
 311:Generated_Source\PSoC6/CapSense_Filter.c ****                 if ((difference <= (uint32)ptrWidgetRam->noiseTh) ||
 312:Generated_Source\PSoC6/CapSense_Filter.c ****                     ((difference <= (uint32) ptrWidgetRam->nNoiseTh) && (sign == 0u)))
 313:Generated_Source\PSoC6/CapSense_Filter.c ****                 {
 314:Generated_Source\PSoC6/CapSense_Filter.c ****             #endif /* (CapSense_CSD_AUTO_RESET == CapSense_CSD_AUTO_RESET_DISABLE) */
 315:Generated_Source\PSoC6/CapSense_Filter.c **** 
ARM GAS  C:\Users\user\AppData\Local\Temp\cc0N1rlz.s 			page 7


 316:Generated_Source\PSoC6/CapSense_Filter.c ****             #if (CapSense_BASELINE_TYPE == CapSense_IIR_BASELINE)
 317:Generated_Source\PSoC6/CapSense_Filter.c ****                 /* Calculate baseline value */
 318:Generated_Source\PSoC6/CapSense_Filter.c ****                 if ((CapSense_WD_TYPE_ENUM)wdType != CapSense_WD_PROXIMITY_E)
 319:Generated_Source\PSoC6/CapSense_Filter.c ****                 {
 320:Generated_Source\PSoC6/CapSense_Filter.c ****                     #if (CapSense_REGULAR_SENSOR_EN)
 321:Generated_Source\PSoC6/CapSense_Filter.c ****                         #if (CapSense_REGULAR_IIR_BL_TYPE == CapSense_IIR_FILTER_PERFORMANCE)
 322:Generated_Source\PSoC6/CapSense_Filter.c ****                             history = (uint32) ptrSensor->bsln[freqChannel] << 8u;
 323:Generated_Source\PSoC6/CapSense_Filter.c ****                             history |= ptrSensor->bslnExt[freqChannel];
 324:Generated_Source\PSoC6/CapSense_Filter.c ****                         #else
 325:Generated_Source\PSoC6/CapSense_Filter.c ****                             history = ptrSensor->bsln[freqChannel];
 326:Generated_Source\PSoC6/CapSense_Filter.c ****                         #endif /* (CapSense_REGULAR_IIR_BL_TYPE == CapSense_IIR_FILTER_PERFORMANCE)
 327:Generated_Source\PSoC6/CapSense_Filter.c **** 
 328:Generated_Source\PSoC6/CapSense_Filter.c ****                         #if (CapSense_ENABLE == CapSense_WD_BSLN_COEFF_EN)
 329:Generated_Source\PSoC6/CapSense_Filter.c ****                             baselineCoeff = ptrWidgetRam->bslnCoeff;
 330:Generated_Source\PSoC6/CapSense_Filter.c ****                         #else /* (CapSense_ENABLE == CapSense_WD_BSLN_COEFF_EN) */
 331:Generated_Source\PSoC6/CapSense_Filter.c ****                             baselineCoeff = CapSense_REGULAR_IIR_BL_N;
 332:Generated_Source\PSoC6/CapSense_Filter.c ****                         #endif /* (CapSense_ENABLE == CapSense_WD_BSLN_COEFF_EN) */
 333:Generated_Source\PSoC6/CapSense_Filter.c **** 
 334:Generated_Source\PSoC6/CapSense_Filter.c ****                         history =  CapSense_FtIIR1stOrder(
 335:Generated_Source\PSoC6/CapSense_Filter.c ****                                         (uint32)ptrSensor->raw[freqChannel],
 336:Generated_Source\PSoC6/CapSense_Filter.c ****                                         history, baselineCoeff,
 337:Generated_Source\PSoC6/CapSense_Filter.c ****                                         CapSense_REGULAR_IIR_BL_SHIFT);
 338:Generated_Source\PSoC6/CapSense_Filter.c **** 
 339:Generated_Source\PSoC6/CapSense_Filter.c ****                         #if (CapSense_REGULAR_IIR_BL_TYPE == CapSense_IIR_FILTER_PERFORMANCE)
 340:Generated_Source\PSoC6/CapSense_Filter.c ****                                     ptrSensor->bsln[freqChannel] = CY_LO16(history >> 8u);
 341:Generated_Source\PSoC6/CapSense_Filter.c ****                                     ptrSensor->bslnExt[freqChannel] = CY_LO8(history);
 342:Generated_Source\PSoC6/CapSense_Filter.c ****                         #else
 343:Generated_Source\PSoC6/CapSense_Filter.c ****                                     ptrSensor->bsln[freqChannel] = CY_LO16(history);
 344:Generated_Source\PSoC6/CapSense_Filter.c ****                         #endif /* (CapSense_REGULAR_IIR_BL_TYPE == CapSense_IIR_FILTER_PERFORMANCE)
 345:Generated_Source\PSoC6/CapSense_Filter.c ****                     #endif /* (CapSense_REGULAR_SENSOR_EN) */
 346:Generated_Source\PSoC6/CapSense_Filter.c ****                 }
 347:Generated_Source\PSoC6/CapSense_Filter.c ****                 else
 348:Generated_Source\PSoC6/CapSense_Filter.c ****                 {
 349:Generated_Source\PSoC6/CapSense_Filter.c ****                     #if (CapSense_PROXIMITY_SENSOR_EN)
 350:Generated_Source\PSoC6/CapSense_Filter.c ****                         #if (CapSense_PROX_IIR_BL_TYPE == CapSense_IIR_FILTER_PERFORMANCE)
 351:Generated_Source\PSoC6/CapSense_Filter.c ****                             history = (uint32) ptrSensor->bsln[freqChannel] << 8u;
 352:Generated_Source\PSoC6/CapSense_Filter.c ****                             history |= ptrSensor->bslnExt[freqChannel];
 353:Generated_Source\PSoC6/CapSense_Filter.c ****                         #else
 354:Generated_Source\PSoC6/CapSense_Filter.c ****                             history = (uint32) ptrSensor->bsln[freqChannel];
 355:Generated_Source\PSoC6/CapSense_Filter.c ****                         #endif /* (CapSense_PROX_IIR_BL_TYPE == CapSense_IIR_FILTER_PERFORMANCE) */
 356:Generated_Source\PSoC6/CapSense_Filter.c **** 
 357:Generated_Source\PSoC6/CapSense_Filter.c ****                         #if (CapSense_ENABLE == CapSense_WD_BSLN_COEFF_EN)
 358:Generated_Source\PSoC6/CapSense_Filter.c ****                             baselineCoeff = ptrWidgetRam->bslnCoeff;
 359:Generated_Source\PSoC6/CapSense_Filter.c ****                         #else /* (CapSense_ENABLE == CapSense_WD_BSLN_COEFF_EN) */
 360:Generated_Source\PSoC6/CapSense_Filter.c ****                             baselineCoeff = CapSense_PROX_IIR_BL_N;
 361:Generated_Source\PSoC6/CapSense_Filter.c ****                         #endif /* (CapSense_ENABLE == CapSense_WD_BSLN_COEFF_EN) */
 362:Generated_Source\PSoC6/CapSense_Filter.c **** 
 363:Generated_Source\PSoC6/CapSense_Filter.c ****                         history = CapSense_FtIIR1stOrder(
 364:Generated_Source\PSoC6/CapSense_Filter.c ****                                         (uint32)ptrSensor->raw[freqChannel],
 365:Generated_Source\PSoC6/CapSense_Filter.c ****                                         history, baselineCoeff,
 366:Generated_Source\PSoC6/CapSense_Filter.c ****                                         CapSense_PROX_IIR_BL_SHIFT);
 367:Generated_Source\PSoC6/CapSense_Filter.c **** 
 368:Generated_Source\PSoC6/CapSense_Filter.c ****                         #if (CapSense_PROX_IIR_BL_TYPE == CapSense_IIR_FILTER_PERFORMANCE)
 369:Generated_Source\PSoC6/CapSense_Filter.c ****                                     ptrSensor->bsln[freqChannel] = CY_LO16(history >> 8u);
 370:Generated_Source\PSoC6/CapSense_Filter.c ****                                     ptrSensor->bslnExt[freqChannel] = CY_LO8(history);
 371:Generated_Source\PSoC6/CapSense_Filter.c ****                         #else
 372:Generated_Source\PSoC6/CapSense_Filter.c ****                                     ptrSensor->bsln[freqChannel] = CY_LO16(history);
ARM GAS  C:\Users\user\AppData\Local\Temp\cc0N1rlz.s 			page 8


 373:Generated_Source\PSoC6/CapSense_Filter.c ****                         #endif /* (CapSense_PROX_IIR_BL_TYPE == CapSense_IIR_FILTER_PERFORMANCE) */
 374:Generated_Source\PSoC6/CapSense_Filter.c ****                     #endif /* (CapSense_PROX_SENSOR_EN) */
 375:Generated_Source\PSoC6/CapSense_Filter.c ****                 }
 376:Generated_Source\PSoC6/CapSense_Filter.c ****             #else /* (CapSense_CSD_BASELINE_TYPE == CapSense_IIR_BASELINE) */
 377:Generated_Source\PSoC6/CapSense_Filter.c **** 
 378:Generated_Source\PSoC6/CapSense_Filter.c ****                 /******************************************************************
 379:Generated_Source\PSoC6/CapSense_Filter.c ****                 * This is the place where the bucket algorithm should be implemented.
 380:Generated_Source\PSoC6/CapSense_Filter.c ****                 * The bucket method will be implemented in future Component version.
 381:Generated_Source\PSoC6/CapSense_Filter.c ****                 *******************************************************************/
 382:Generated_Source\PSoC6/CapSense_Filter.c **** 
 383:Generated_Source\PSoC6/CapSense_Filter.c ****             #endif /* (CapSense_CSD_BASELINE_TYPE == CapSense_IIR_BASELINE) */
 384:Generated_Source\PSoC6/CapSense_Filter.c **** 
 385:Generated_Source\PSoC6/CapSense_Filter.c ****             #if (!CapSense_SENSOR_AUTO_RESET_EN)
 386:Generated_Source\PSoC6/CapSense_Filter.c ****                 }
 387:Generated_Source\PSoC6/CapSense_Filter.c ****             #endif /* (!CapSense_SENSOR_AUTO_RESET_EN) */
 388:Generated_Source\PSoC6/CapSense_Filter.c ****         }
 389:Generated_Source\PSoC6/CapSense_Filter.c **** 
 390:Generated_Source\PSoC6/CapSense_Filter.c ****         #if (CapSense_ENABLE == CapSense_TST_BSLN_DUPLICATION_EN)
 391:Generated_Source\PSoC6/CapSense_Filter.c ****             /* Update baseline inversion of every channel in sensor */
 392:Generated_Source\PSoC6/CapSense_Filter.c ****             ptrSensor->bslnInv[freqChannel] = ~(ptrSensor->bsln[freqChannel]);
 393:Generated_Source\PSoC6/CapSense_Filter.c ****             }
 394:Generated_Source\PSoC6/CapSense_Filter.c ****         #endif /* (CapSense_ENABLE == CapSense_TST_BSLN_DUPLICATION_EN) */
 395:Generated_Source\PSoC6/CapSense_Filter.c **** 
 396:Generated_Source\PSoC6/CapSense_Filter.c ****     }
 397:Generated_Source\PSoC6/CapSense_Filter.c ****     return result;
 398:Generated_Source\PSoC6/CapSense_Filter.c **** }
 399:Generated_Source\PSoC6/CapSense_Filter.c **** 
 400:Generated_Source\PSoC6/CapSense_Filter.c **** 
 401:Generated_Source\PSoC6/CapSense_Filter.c **** /*******************************************************************************
 402:Generated_Source\PSoC6/CapSense_Filter.c **** * Function Name: CapSense_InitializeAllBaselines
 403:Generated_Source\PSoC6/CapSense_Filter.c **** ****************************************************************************//**
 404:Generated_Source\PSoC6/CapSense_Filter.c **** *
 405:Generated_Source\PSoC6/CapSense_Filter.c **** * \brief
 406:Generated_Source\PSoC6/CapSense_Filter.c **** *  Initializes (or re-initializes) the baselines of all the sensors of all the widgets.
 407:Generated_Source\PSoC6/CapSense_Filter.c **** *
 408:Generated_Source\PSoC6/CapSense_Filter.c **** * \details
 409:Generated_Source\PSoC6/CapSense_Filter.c **** *  Initializes the baseline for all the sensors of all the widgets. Also, this function
 410:Generated_Source\PSoC6/CapSense_Filter.c **** *  can be used to re-initialize baselines. CapSense_Start() calls this
 411:Generated_Source\PSoC6/CapSense_Filter.c **** *  API as part of CapSense operation initialization.
 412:Generated_Source\PSoC6/CapSense_Filter.c **** *  
 413:Generated_Source\PSoC6/CapSense_Filter.c **** *  If any raw count filter is enabled, make sure the raw count filter history is 
 414:Generated_Source\PSoC6/CapSense_Filter.c **** *  initialized as well using one of these functions:
 415:Generated_Source\PSoC6/CapSense_Filter.c **** *  - CapSense_InitializeAllFilters().
 416:Generated_Source\PSoC6/CapSense_Filter.c **** *  - CapSense_InitializeWidgetFilter().
 417:Generated_Source\PSoC6/CapSense_Filter.c **** *
 418:Generated_Source\PSoC6/CapSense_Filter.c **** *******************************************************************************/
 419:Generated_Source\PSoC6/CapSense_Filter.c **** void CapSense_InitializeAllBaselines(void)
 420:Generated_Source\PSoC6/CapSense_Filter.c **** {
 421:Generated_Source\PSoC6/CapSense_Filter.c ****     uint32 widgetId;
 422:Generated_Source\PSoC6/CapSense_Filter.c **** 
 423:Generated_Source\PSoC6/CapSense_Filter.c ****     for(widgetId = CapSense_TOTAL_WIDGETS; widgetId-- > 0u;)
 424:Generated_Source\PSoC6/CapSense_Filter.c ****     {
 425:Generated_Source\PSoC6/CapSense_Filter.c ****         CapSense_InitializeWidgetBaseline(widgetId);
 426:Generated_Source\PSoC6/CapSense_Filter.c ****     }
 427:Generated_Source\PSoC6/CapSense_Filter.c **** }
 428:Generated_Source\PSoC6/CapSense_Filter.c **** 
 429:Generated_Source\PSoC6/CapSense_Filter.c **** 
ARM GAS  C:\Users\user\AppData\Local\Temp\cc0N1rlz.s 			page 9


 430:Generated_Source\PSoC6/CapSense_Filter.c **** /*******************************************************************************
 431:Generated_Source\PSoC6/CapSense_Filter.c **** * Function Name: CapSense_InitializeWidgetBaseline
 432:Generated_Source\PSoC6/CapSense_Filter.c **** ****************************************************************************//**
 433:Generated_Source\PSoC6/CapSense_Filter.c **** *
 434:Generated_Source\PSoC6/CapSense_Filter.c **** * \brief
 435:Generated_Source\PSoC6/CapSense_Filter.c **** *  Initializes (or re-initializes) the baselines of all the sensors in a widget
 436:Generated_Source\PSoC6/CapSense_Filter.c **** *  specified by the input parameter.
 437:Generated_Source\PSoC6/CapSense_Filter.c **** *
 438:Generated_Source\PSoC6/CapSense_Filter.c **** * \details
 439:Generated_Source\PSoC6/CapSense_Filter.c **** *  Initializes (or re-initializes) the baseline for all the sensors of the
 440:Generated_Source\PSoC6/CapSense_Filter.c **** *  specified widget.
 441:Generated_Source\PSoC6/CapSense_Filter.c **** *  
 442:Generated_Source\PSoC6/CapSense_Filter.c **** *  If any raw count filter is enabled, make sure the raw count filter history is 
 443:Generated_Source\PSoC6/CapSense_Filter.c **** *  initialized as well using one of these functions:
 444:Generated_Source\PSoC6/CapSense_Filter.c **** *  - CapSense_InitializeAllFilters().
 445:Generated_Source\PSoC6/CapSense_Filter.c **** *  - CapSense_InitializeWidgetFilter().
 446:Generated_Source\PSoC6/CapSense_Filter.c **** *
 447:Generated_Source\PSoC6/CapSense_Filter.c **** * \param  widgetId
 448:Generated_Source\PSoC6/CapSense_Filter.c **** *  Specifies the ID number of a widget to initialize the baseline of all the sensors
 449:Generated_Source\PSoC6/CapSense_Filter.c **** *  in the widget.
 450:Generated_Source\PSoC6/CapSense_Filter.c **** *  A macro for the widget ID can be found in the
 451:Generated_Source\PSoC6/CapSense_Filter.c **** *  CapSense Configuration header file defined as
 452:Generated_Source\PSoC6/CapSense_Filter.c **** *  CapSense_<WidgetName>_WDGT_ID.
 453:Generated_Source\PSoC6/CapSense_Filter.c **** *
 454:Generated_Source\PSoC6/CapSense_Filter.c **** *******************************************************************************/
 455:Generated_Source\PSoC6/CapSense_Filter.c **** void CapSense_InitializeWidgetBaseline(uint32 widgetId)
 456:Generated_Source\PSoC6/CapSense_Filter.c **** {
 457:Generated_Source\PSoC6/CapSense_Filter.c ****     uint32 sensorId;
 458:Generated_Source\PSoC6/CapSense_Filter.c ****     uint32 sensorsNumber;
 459:Generated_Source\PSoC6/CapSense_Filter.c **** 
 460:Generated_Source\PSoC6/CapSense_Filter.c ****     CapSense_FLASH_WD_STRUCT const *ptrWidget = &CapSense_dsFlash.wdgtArray[widgetId];
 461:Generated_Source\PSoC6/CapSense_Filter.c **** 
 462:Generated_Source\PSoC6/CapSense_Filter.c ****     /* Find total amount of sensors in specified widget */
 463:Generated_Source\PSoC6/CapSense_Filter.c ****     sensorsNumber = CapSense_GET_SNS_CNT_BY_PTR(ptrWidget);
 464:Generated_Source\PSoC6/CapSense_Filter.c **** 
 465:Generated_Source\PSoC6/CapSense_Filter.c ****     for(sensorId = sensorsNumber; sensorId-- > 0u;)
 466:Generated_Source\PSoC6/CapSense_Filter.c ****     {
 467:Generated_Source\PSoC6/CapSense_Filter.c ****         CapSense_InitializeSensorBaseline(widgetId, sensorId);
 468:Generated_Source\PSoC6/CapSense_Filter.c ****     }
 469:Generated_Source\PSoC6/CapSense_Filter.c **** }
 470:Generated_Source\PSoC6/CapSense_Filter.c **** 
 471:Generated_Source\PSoC6/CapSense_Filter.c **** 
 472:Generated_Source\PSoC6/CapSense_Filter.c **** /*******************************************************************************
 473:Generated_Source\PSoC6/CapSense_Filter.c **** * Function Name: CapSense_InitializeSensorBaseline
 474:Generated_Source\PSoC6/CapSense_Filter.c **** ****************************************************************************//**
 475:Generated_Source\PSoC6/CapSense_Filter.c **** *
 476:Generated_Source\PSoC6/CapSense_Filter.c **** * \brief
 477:Generated_Source\PSoC6/CapSense_Filter.c **** *  Initializes (or re-initializes) the baseline of a sensor in a widget specified
 478:Generated_Source\PSoC6/CapSense_Filter.c **** *  by the input parameters.
 479:Generated_Source\PSoC6/CapSense_Filter.c **** *
 480:Generated_Source\PSoC6/CapSense_Filter.c **** * \details
 481:Generated_Source\PSoC6/CapSense_Filter.c **** *  Initializes (or re-initializes) the baseline for a specified sensor within
 482:Generated_Source\PSoC6/CapSense_Filter.c **** *  a specified widget.
 483:Generated_Source\PSoC6/CapSense_Filter.c **** *
 484:Generated_Source\PSoC6/CapSense_Filter.c **** * \param    widgetId
 485:Generated_Source\PSoC6/CapSense_Filter.c **** *  Specifies the ID number of a widget to initialize the baseline of the sensor
 486:Generated_Source\PSoC6/CapSense_Filter.c **** *  in the widget.
ARM GAS  C:\Users\user\AppData\Local\Temp\cc0N1rlz.s 			page 10


 487:Generated_Source\PSoC6/CapSense_Filter.c **** *  A macro for the widget ID can be found in the
 488:Generated_Source\PSoC6/CapSense_Filter.c **** *  CapSense Configuration header file defined as
 489:Generated_Source\PSoC6/CapSense_Filter.c **** *  CapSense_<WidgetName>_WDGT_ID.
 490:Generated_Source\PSoC6/CapSense_Filter.c **** *
 491:Generated_Source\PSoC6/CapSense_Filter.c **** * \param    sensorId
 492:Generated_Source\PSoC6/CapSense_Filter.c **** *  Specifies the ID number of the sensor within the widget to initialize its
 493:Generated_Source\PSoC6/CapSense_Filter.c **** *  baseline.
 494:Generated_Source\PSoC6/CapSense_Filter.c **** *  A macro for the sensor ID within a specified widget can be found in the
 495:Generated_Source\PSoC6/CapSense_Filter.c **** *  CapSense Configuration header file defined as
 496:Generated_Source\PSoC6/CapSense_Filter.c **** *  CapSense_<WidgetName>_SNS<SensorNumber>_ID.
 497:Generated_Source\PSoC6/CapSense_Filter.c **** *
 498:Generated_Source\PSoC6/CapSense_Filter.c **** *******************************************************************************/
 499:Generated_Source\PSoC6/CapSense_Filter.c **** void CapSense_InitializeSensorBaseline(uint32 widgetId, uint32 sensorId)
 500:Generated_Source\PSoC6/CapSense_Filter.c **** {
 501:Generated_Source\PSoC6/CapSense_Filter.c ****     CapSense_RAM_SNS_STRUCT *ptrSensor = NULL;
 502:Generated_Source\PSoC6/CapSense_Filter.c ****     CapSense_FLASH_WD_STRUCT const *ptrWidget = NULL;
 503:Generated_Source\PSoC6/CapSense_Filter.c ****     ptrWidget = &CapSense_dsFlash.wdgtArray[widgetId];
 504:Generated_Source\PSoC6/CapSense_Filter.c **** 
 505:Generated_Source\PSoC6/CapSense_Filter.c ****     /* Find pointer to specified sensor object */
 506:Generated_Source\PSoC6/CapSense_Filter.c ****     ptrSensor = ptrWidget->ptr2SnsRam;
 507:Generated_Source\PSoC6/CapSense_Filter.c ****     ptrSensor = &ptrSensor[sensorId];
 508:Generated_Source\PSoC6/CapSense_Filter.c **** 
 509:Generated_Source\PSoC6/CapSense_Filter.c ****     CapSense_FtInitializeBaseline(ptrSensor, (uint32)ptrWidget->wdgtType);
 510:Generated_Source\PSoC6/CapSense_Filter.c **** }
 511:Generated_Source\PSoC6/CapSense_Filter.c **** 
 512:Generated_Source\PSoC6/CapSense_Filter.c **** 
 513:Generated_Source\PSoC6/CapSense_Filter.c **** /*******************************************************************************
 514:Generated_Source\PSoC6/CapSense_Filter.c **** * Function Name: CapSense_FtInitializeBaseline
 515:Generated_Source\PSoC6/CapSense_Filter.c **** ****************************************************************************//**
 516:Generated_Source\PSoC6/CapSense_Filter.c **** *
 517:Generated_Source\PSoC6/CapSense_Filter.c **** * \brief    Initializes the baseline history for a sensor indicated by an input
 518:Generated_Source\PSoC6/CapSense_Filter.c **** *           parameter.
 519:Generated_Source\PSoC6/CapSense_Filter.c **** *
 520:Generated_Source\PSoC6/CapSense_Filter.c **** * \details  Initializes the baseline history for a sensor indicated by an input
 521:Generated_Source\PSoC6/CapSense_Filter.c **** *           parameter.
 522:Generated_Source\PSoC6/CapSense_Filter.c **** *
 523:Generated_Source\PSoC6/CapSense_Filter.c **** * \param    *ptrSensor The pointer to the sensor RAM object.
 524:Generated_Source\PSoC6/CapSense_Filter.c **** * \param    wdType     Specifies the type of a widget.
 525:Generated_Source\PSoC6/CapSense_Filter.c **** *
 526:Generated_Source\PSoC6/CapSense_Filter.c **** *******************************************************************************/
 527:Generated_Source\PSoC6/CapSense_Filter.c **** void CapSense_FtInitializeBaseline(CapSense_RAM_SNS_STRUCT *ptrSensor, uint32 wdType)
 528:Generated_Source\PSoC6/CapSense_Filter.c **** {
 529:Generated_Source\PSoC6/CapSense_Filter.c ****     uint32 freqChannel;
 530:Generated_Source\PSoC6/CapSense_Filter.c **** 
 531:Generated_Source\PSoC6/CapSense_Filter.c ****     /* Apply baseline initialization to every channel in sensor */
 532:Generated_Source\PSoC6/CapSense_Filter.c ****     for(freqChannel = CapSense_NUM_SCAN_FREQS; freqChannel-- > 0u;)
 533:Generated_Source\PSoC6/CapSense_Filter.c ****     {
 534:Generated_Source\PSoC6/CapSense_Filter.c ****         CapSense_FtInitializeBaselineChannel(ptrSensor, wdType, freqChannel);
 535:Generated_Source\PSoC6/CapSense_Filter.c ****     }
 536:Generated_Source\PSoC6/CapSense_Filter.c **** }
 537:Generated_Source\PSoC6/CapSense_Filter.c **** 
 538:Generated_Source\PSoC6/CapSense_Filter.c **** 
 539:Generated_Source\PSoC6/CapSense_Filter.c **** /*******************************************************************************
 540:Generated_Source\PSoC6/CapSense_Filter.c **** * Function Name: CapSense_FtInitializeBaselineChannel
 541:Generated_Source\PSoC6/CapSense_Filter.c **** ****************************************************************************//**
 542:Generated_Source\PSoC6/CapSense_Filter.c **** *
 543:Generated_Source\PSoC6/CapSense_Filter.c **** * \brief    Initializes the baseline history for a sensor indicated by an input
ARM GAS  C:\Users\user\AppData\Local\Temp\cc0N1rlz.s 			page 11


 544:Generated_Source\PSoC6/CapSense_Filter.c **** *           parameter.
 545:Generated_Source\PSoC6/CapSense_Filter.c **** *
 546:Generated_Source\PSoC6/CapSense_Filter.c **** * \details  Initializes the baseline history for a sensor indicated by an input
 547:Generated_Source\PSoC6/CapSense_Filter.c **** *           parameter.
 548:Generated_Source\PSoC6/CapSense_Filter.c **** *
 549:Generated_Source\PSoC6/CapSense_Filter.c **** * \param    *ptrSensor The pointer to the sensor RAM object.
 550:Generated_Source\PSoC6/CapSense_Filter.c **** * \param    wdType     Specifies the type of a widget.
 551:Generated_Source\PSoC6/CapSense_Filter.c **** * \param    channel    Specifies the number of the channel to be initialized.
 552:Generated_Source\PSoC6/CapSense_Filter.c **** *
 553:Generated_Source\PSoC6/CapSense_Filter.c **** *******************************************************************************/
 554:Generated_Source\PSoC6/CapSense_Filter.c **** void CapSense_FtInitializeBaselineChannel(CapSense_RAM_SNS_STRUCT *ptrSensor, uint32 wdType, uint32
 555:Generated_Source\PSoC6/CapSense_Filter.c **** {
  28              		.loc 1 555 0
  29              		.cfi_startproc
  30              		@ args = 0, pretend = 0, frame = 0
  31              		@ frame_needed = 0, uses_anonymous_args = 0
  32              		@ link register save eliminated.
  33              	.LVL0:
 556:Generated_Source\PSoC6/CapSense_Filter.c ****     #if (CapSense_BASELINE_TYPE == CapSense_IIR_BASELINE)
 557:Generated_Source\PSoC6/CapSense_Filter.c ****         if ((CapSense_WD_TYPE_ENUM)wdType != CapSense_WD_PROXIMITY_E)
  34              		.loc 1 557 0
  35 0000 FF23     		movs	r3, #255
  36 0002 1940     		ands	r1, r3
  37              	.LVL1:
  38 0004 0629     		cmp	r1, #6
  39 0006 02D0     		beq	.L2
 558:Generated_Source\PSoC6/CapSense_Filter.c ****         {
 559:Generated_Source\PSoC6/CapSense_Filter.c ****             #if (CapSense_REGULAR_SENSOR_EN)
 560:Generated_Source\PSoC6/CapSense_Filter.c ****                 #if (CapSense_REGULAR_IIR_BL_TYPE == CapSense_IIR_FILTER_PERFORMANCE)
 561:Generated_Source\PSoC6/CapSense_Filter.c ****                     ptrSensor->bslnExt[channel] = 0u;
  40              		.loc 1 561 0
  41 0008 8318     		adds	r3, r0, r2
  42 000a 0021     		movs	r1, #0
  43 000c 1971     		strb	r1, [r3, #4]
  44              	.L2:
 562:Generated_Source\PSoC6/CapSense_Filter.c ****                 #endif /* (CapSense_REGULAR_IIR_BL_TYPE == CapSense_IIR_FILTER_PERFORMANCE) */
 563:Generated_Source\PSoC6/CapSense_Filter.c ****             #endif /* (CapSense_REGULAR_SENSOR_EN) */
 564:Generated_Source\PSoC6/CapSense_Filter.c ****         }
 565:Generated_Source\PSoC6/CapSense_Filter.c ****         else
 566:Generated_Source\PSoC6/CapSense_Filter.c ****         {
 567:Generated_Source\PSoC6/CapSense_Filter.c ****             #if (CapSense_PROXIMITY_SENSOR_EN)
 568:Generated_Source\PSoC6/CapSense_Filter.c ****                 #if (CapSense_PROX_IIR_BL_TYPE == CapSense_IIR_FILTER_PERFORMANCE)
 569:Generated_Source\PSoC6/CapSense_Filter.c ****                     ptrSensor->bslnExt[channel] = 0u;
 570:Generated_Source\PSoC6/CapSense_Filter.c ****                 #endif /* (CapSense_PROX_IIR_BL_TYPE == CapSense_IIR_FILTER_PERFORMANCE) */
 571:Generated_Source\PSoC6/CapSense_Filter.c ****             #endif /* (CapSense_PROX_SENSOR_EN) */
 572:Generated_Source\PSoC6/CapSense_Filter.c ****         }
 573:Generated_Source\PSoC6/CapSense_Filter.c ****     #else
 574:Generated_Source\PSoC6/CapSense_Filter.c ****         /* CapSense_BASELINE_TYPE == CapSense_BUCKET_BASELINE */
 575:Generated_Source\PSoC6/CapSense_Filter.c ****         ptrSensor->bslnExt[channel] = 0u;
 576:Generated_Source\PSoC6/CapSense_Filter.c ****     #endif /* (CapSense_BASELINE_TYPE == CapSense_IIR_BASELINE) */
 577:Generated_Source\PSoC6/CapSense_Filter.c **** 
 578:Generated_Source\PSoC6/CapSense_Filter.c ****     ptrSensor->bsln[channel] = ptrSensor->raw[channel];
  45              		.loc 1 578 0
  46 000e 5300     		lsls	r3, r2, #1
  47 0010 195A     		ldrh	r1, [r3, r0]
  48 0012 C318     		adds	r3, r0, r3
  49 0014 5980     		strh	r1, [r3, #2]
ARM GAS  C:\Users\user\AppData\Local\Temp\cc0N1rlz.s 			page 12


 579:Generated_Source\PSoC6/CapSense_Filter.c **** 
 580:Generated_Source\PSoC6/CapSense_Filter.c ****     #if (CapSense_ENABLE == CapSense_TST_BSLN_DUPLICATION_EN)
 581:Generated_Source\PSoC6/CapSense_Filter.c ****     /* Update baseline inversion of the channel in sensor */
 582:Generated_Source\PSoC6/CapSense_Filter.c ****         ptrSensor->bslnInv[channel] = ~(ptrSensor->bsln[channel]);
 583:Generated_Source\PSoC6/CapSense_Filter.c ****     #endif /* (CapSense_ENABLE == CapSense_TST_BSLN_DUPLICATION_EN) */
 584:Generated_Source\PSoC6/CapSense_Filter.c **** 
 585:Generated_Source\PSoC6/CapSense_Filter.c ****     ptrSensor->negBslnRstCnt[channel] = 0u;
  50              		.loc 1 585 0
  51 0016 8218     		adds	r2, r0, r2
  52              	.LVL2:
  53 0018 0023     		movs	r3, #0
  54 001a 1372     		strb	r3, [r2, #8]
 586:Generated_Source\PSoC6/CapSense_Filter.c **** }
  55              		.loc 1 586 0
  56              		@ sp needed
  57 001c 7047     		bx	lr
  58              		.cfi_endproc
  59              	.LFE54:
  60              		.size	CapSense_FtInitializeBaselineChannel, .-CapSense_FtInitializeBaselineChannel
  61 001e C046     		.section	.text.CapSense_FtInitializeBaseline,"ax",%progbits
  62              		.align	2
  63              		.global	CapSense_FtInitializeBaseline
  64              		.code	16
  65              		.thumb_func
  66              		.type	CapSense_FtInitializeBaseline, %function
  67              	CapSense_FtInitializeBaseline:
  68              	.LFB53:
 528:Generated_Source\PSoC6/CapSense_Filter.c ****     uint32 freqChannel;
  69              		.loc 1 528 0
  70              		.cfi_startproc
  71              		@ args = 0, pretend = 0, frame = 0
  72              		@ frame_needed = 0, uses_anonymous_args = 0
  73              	.LVL3:
  74 0000 70B5     		push	{r4, r5, r6, lr}
  75              		.cfi_def_cfa_offset 16
  76              		.cfi_offset 4, -16
  77              		.cfi_offset 5, -12
  78              		.cfi_offset 6, -8
  79              		.cfi_offset 14, -4
  80 0002 0600     		movs	r6, r0
  81 0004 0D00     		movs	r5, r1
  82              	.LVL4:
 532:Generated_Source\PSoC6/CapSense_Filter.c ****     {
  83              		.loc 1 532 0
  84 0006 0123     		movs	r3, #1
  85 0008 05E0     		b	.L4
  86              	.LVL5:
  87              	.L5:
 534:Generated_Source\PSoC6/CapSense_Filter.c ****     }
  88              		.loc 1 534 0
  89 000a 2200     		movs	r2, r4
  90 000c 2900     		movs	r1, r5
  91 000e 3000     		movs	r0, r6
  92 0010 FFF7FEFF 		bl	CapSense_FtInitializeBaselineChannel
  93              	.LVL6:
 532:Generated_Source\PSoC6/CapSense_Filter.c ****     {
  94              		.loc 1 532 0
ARM GAS  C:\Users\user\AppData\Local\Temp\cc0N1rlz.s 			page 13


  95 0014 2300     		movs	r3, r4
  96              	.LVL7:
  97              	.L4:
 532:Generated_Source\PSoC6/CapSense_Filter.c ****     {
  98              		.loc 1 532 0 is_stmt 0 discriminator 1
  99 0016 5C1E     		subs	r4, r3, #1
 100              	.LVL8:
 101 0018 002B     		cmp	r3, #0
 102 001a F6D1     		bne	.L5
 536:Generated_Source\PSoC6/CapSense_Filter.c **** 
 103              		.loc 1 536 0 is_stmt 1
 104              		@ sp needed
 105              	.LVL9:
 106              	.LVL10:
 107              	.LVL11:
 108 001c 70BD     		pop	{r4, r5, r6, pc}
 109              		.cfi_endproc
 110              	.LFE53:
 111              		.size	CapSense_FtInitializeBaseline, .-CapSense_FtInitializeBaseline
 112 001e C046     		.section	.text.CapSense_InitializeSensorBaseline,"ax",%progbits
 113              		.align	2
 114              		.global	CapSense_InitializeSensorBaseline
 115              		.code	16
 116              		.thumb_func
 117              		.type	CapSense_InitializeSensorBaseline, %function
 118              	CapSense_InitializeSensorBaseline:
 119              	.LFB52:
 500:Generated_Source\PSoC6/CapSense_Filter.c ****     CapSense_RAM_SNS_STRUCT *ptrSensor = NULL;
 120              		.loc 1 500 0
 121              		.cfi_startproc
 122              		@ args = 0, pretend = 0, frame = 0
 123              		@ frame_needed = 0, uses_anonymous_args = 0
 124              	.LVL12:
 125 0000 70B5     		push	{r4, r5, r6, lr}
 126              		.cfi_def_cfa_offset 16
 127              		.cfi_offset 4, -16
 128              		.cfi_offset 5, -12
 129              		.cfi_offset 6, -8
 130              		.cfi_offset 14, -4
 131              	.LVL13:
 506:Generated_Source\PSoC6/CapSense_Filter.c ****     ptrSensor = &ptrSensor[sensorId];
 132              		.loc 1 506 0
 133 0002 074D     		ldr	r5, .L7
 134 0004 4600     		lsls	r6, r0, #1
 135 0006 3218     		adds	r2, r6, r0
 136 0008 1401     		lsls	r4, r2, #4
 137 000a 2C19     		adds	r4, r5, r4
 138 000c A068     		ldr	r0, [r4, #8]
 139              	.LVL14:
 507:Generated_Source\PSoC6/CapSense_Filter.c **** 
 140              		.loc 1 507 0
 141 000e 8A00     		lsls	r2, r1, #2
 142 0010 5118     		adds	r1, r2, r1
 143              	.LVL15:
 144 0012 4A00     		lsls	r2, r1, #1
 145 0014 8018     		adds	r0, r0, r2
 146              	.LVL16:
ARM GAS  C:\Users\user\AppData\Local\Temp\cc0N1rlz.s 			page 14


 509:Generated_Source\PSoC6/CapSense_Filter.c **** }
 147              		.loc 1 509 0
 148 0016 A17E     		ldrb	r1, [r4, #26]
 149 0018 FFF7FEFF 		bl	CapSense_FtInitializeBaseline
 150              	.LVL17:
 510:Generated_Source\PSoC6/CapSense_Filter.c **** 
 151              		.loc 1 510 0
 152              		@ sp needed
 153              	.LVL18:
 154              	.LVL19:
 155              	.LVL20:
 156 001c 70BD     		pop	{r4, r5, r6, pc}
 157              	.L8:
 158 001e C046     		.align	2
 159              	.L7:
 160 0020 00000000 		.word	CapSense_dsFlash
 161              		.cfi_endproc
 162              	.LFE52:
 163              		.size	CapSense_InitializeSensorBaseline, .-CapSense_InitializeSensorBaseline
 164              		.section	.text.CapSense_InitializeWidgetBaseline,"ax",%progbits
 165              		.align	2
 166              		.global	CapSense_InitializeWidgetBaseline
 167              		.code	16
 168              		.thumb_func
 169              		.type	CapSense_InitializeWidgetBaseline, %function
 170              	CapSense_InitializeWidgetBaseline:
 171              	.LFB51:
 456:Generated_Source\PSoC6/CapSense_Filter.c ****     uint32 sensorId;
 172              		.loc 1 456 0
 173              		.cfi_startproc
 174              		@ args = 0, pretend = 0, frame = 0
 175              		@ frame_needed = 0, uses_anonymous_args = 0
 176              	.LVL21:
 177 0000 70B5     		push	{r4, r5, r6, lr}
 178              		.cfi_def_cfa_offset 16
 179              		.cfi_offset 4, -16
 180              		.cfi_offset 5, -12
 181              		.cfi_offset 6, -8
 182              		.cfi_offset 14, -4
 183 0002 0500     		movs	r5, r0
 184              	.LVL22:
 463:Generated_Source\PSoC6/CapSense_Filter.c **** 
 185              		.loc 1 463 0
 186 0004 4200     		lsls	r2, r0, #1
 187 0006 1218     		adds	r2, r2, r0
 188 0008 1301     		lsls	r3, r2, #4
 189 000a 064A     		ldr	r2, .L12
 190 000c D318     		adds	r3, r2, r3
 191 000e 1B8B     		ldrh	r3, [r3, #24]
 192              	.LVL23:
 465:Generated_Source\PSoC6/CapSense_Filter.c ****     {
 193              		.loc 1 465 0
 194 0010 04E0     		b	.L10
 195              	.LVL24:
 196              	.L11:
 467:Generated_Source\PSoC6/CapSense_Filter.c ****     }
 197              		.loc 1 467 0
ARM GAS  C:\Users\user\AppData\Local\Temp\cc0N1rlz.s 			page 15


 198 0012 2100     		movs	r1, r4
 199 0014 2800     		movs	r0, r5
 200 0016 FFF7FEFF 		bl	CapSense_InitializeSensorBaseline
 201              	.LVL25:
 465:Generated_Source\PSoC6/CapSense_Filter.c ****     {
 202              		.loc 1 465 0
 203 001a 2300     		movs	r3, r4
 204              	.LVL26:
 205              	.L10:
 465:Generated_Source\PSoC6/CapSense_Filter.c ****     {
 206              		.loc 1 465 0 is_stmt 0 discriminator 1
 207 001c 5C1E     		subs	r4, r3, #1
 208              	.LVL27:
 209 001e 002B     		cmp	r3, #0
 210 0020 F7D1     		bne	.L11
 469:Generated_Source\PSoC6/CapSense_Filter.c **** 
 211              		.loc 1 469 0 is_stmt 1
 212              		@ sp needed
 213              	.LVL28:
 214              	.LVL29:
 215 0022 70BD     		pop	{r4, r5, r6, pc}
 216              	.L13:
 217              		.align	2
 218              	.L12:
 219 0024 00000000 		.word	CapSense_dsFlash
 220              		.cfi_endproc
 221              	.LFE51:
 222              		.size	CapSense_InitializeWidgetBaseline, .-CapSense_InitializeWidgetBaseline
 223              		.section	.text.CapSense_InitializeAllBaselines,"ax",%progbits
 224              		.align	2
 225              		.global	CapSense_InitializeAllBaselines
 226              		.code	16
 227              		.thumb_func
 228              		.type	CapSense_InitializeAllBaselines, %function
 229              	CapSense_InitializeAllBaselines:
 230              	.LFB50:
 420:Generated_Source\PSoC6/CapSense_Filter.c ****     uint32 widgetId;
 231              		.loc 1 420 0
 232              		.cfi_startproc
 233              		@ args = 0, pretend = 0, frame = 0
 234              		@ frame_needed = 0, uses_anonymous_args = 0
 235 0000 10B5     		push	{r4, lr}
 236              		.cfi_def_cfa_offset 8
 237              		.cfi_offset 4, -8
 238              		.cfi_offset 14, -4
 239              	.LVL30:
 423:Generated_Source\PSoC6/CapSense_Filter.c ****     {
 240              		.loc 1 423 0
 241 0002 0323     		movs	r3, #3
 242 0004 03E0     		b	.L15
 243              	.LVL31:
 244              	.L16:
 425:Generated_Source\PSoC6/CapSense_Filter.c ****     }
 245              		.loc 1 425 0
 246 0006 2000     		movs	r0, r4
 247 0008 FFF7FEFF 		bl	CapSense_InitializeWidgetBaseline
 248              	.LVL32:
ARM GAS  C:\Users\user\AppData\Local\Temp\cc0N1rlz.s 			page 16


 423:Generated_Source\PSoC6/CapSense_Filter.c ****     {
 249              		.loc 1 423 0
 250 000c 2300     		movs	r3, r4
 251              	.LVL33:
 252              	.L15:
 423:Generated_Source\PSoC6/CapSense_Filter.c ****     {
 253              		.loc 1 423 0 is_stmt 0 discriminator 1
 254 000e 5C1E     		subs	r4, r3, #1
 255              	.LVL34:
 256 0010 002B     		cmp	r3, #0
 257 0012 F8D1     		bne	.L16
 427:Generated_Source\PSoC6/CapSense_Filter.c **** 
 258              		.loc 1 427 0 is_stmt 1
 259              		@ sp needed
 260              	.LVL35:
 261 0014 10BD     		pop	{r4, pc}
 262              		.cfi_endproc
 263              	.LFE50:
 264              		.size	CapSense_InitializeAllBaselines, .-CapSense_InitializeAllBaselines
 265 0016 C046     		.section	.text.CapSense_InitializeWidgetFilter,"ax",%progbits
 266              		.align	2
 267              		.global	CapSense_InitializeWidgetFilter
 268              		.code	16
 269              		.thumb_func
 270              		.type	CapSense_InitializeWidgetFilter, %function
 271              	CapSense_InitializeWidgetFilter:
 272              	.LFB56:
 587:Generated_Source\PSoC6/CapSense_Filter.c **** 
 588:Generated_Source\PSoC6/CapSense_Filter.c **** #if ((CapSense_ENABLE == CapSense_RC_FILTER_EN) || \
 589:Generated_Source\PSoC6/CapSense_Filter.c ****      (0u != (CapSense_CSD_AUTOTUNE & CapSense_CSD_SS_TH_EN)))
 590:Generated_Source\PSoC6/CapSense_Filter.c **** /*******************************************************************************
 591:Generated_Source\PSoC6/CapSense_Filter.c **** * Function Name: CapSense_InitializeAllFilters
 592:Generated_Source\PSoC6/CapSense_Filter.c **** ****************************************************************************//**
 593:Generated_Source\PSoC6/CapSense_Filter.c **** *
 594:Generated_Source\PSoC6/CapSense_Filter.c **** * \brief
 595:Generated_Source\PSoC6/CapSense_Filter.c **** *  Initializes (or re-initializes) the raw count filter history of all the 
 596:Generated_Source\PSoC6/CapSense_Filter.c **** *  sensors of all the widgets.
 597:Generated_Source\PSoC6/CapSense_Filter.c **** *
 598:Generated_Source\PSoC6/CapSense_Filter.c **** * \details
 599:Generated_Source\PSoC6/CapSense_Filter.c **** *  Initializes the raw count filter history for all the sensors of all the 
 600:Generated_Source\PSoC6/CapSense_Filter.c **** *  widgets. Also, this function can be used to re-initialize baselines. 
 601:Generated_Source\PSoC6/CapSense_Filter.c **** *  CapSense_Start() calls this API as part of CapSense 
 602:Generated_Source\PSoC6/CapSense_Filter.c **** *  operation initialization.
 603:Generated_Source\PSoC6/CapSense_Filter.c **** *
 604:Generated_Source\PSoC6/CapSense_Filter.c **** *******************************************************************************/
 605:Generated_Source\PSoC6/CapSense_Filter.c **** void CapSense_InitializeAllFilters(void)
 606:Generated_Source\PSoC6/CapSense_Filter.c **** {
 607:Generated_Source\PSoC6/CapSense_Filter.c ****     uint32 widgetId;
 608:Generated_Source\PSoC6/CapSense_Filter.c **** 
 609:Generated_Source\PSoC6/CapSense_Filter.c ****     for(widgetId = CapSense_TOTAL_WIDGETS; widgetId-- > 0u;)
 610:Generated_Source\PSoC6/CapSense_Filter.c ****     {
 611:Generated_Source\PSoC6/CapSense_Filter.c ****         CapSense_InitializeWidgetFilter(widgetId);
 612:Generated_Source\PSoC6/CapSense_Filter.c ****     }
 613:Generated_Source\PSoC6/CapSense_Filter.c **** }
 614:Generated_Source\PSoC6/CapSense_Filter.c **** 
 615:Generated_Source\PSoC6/CapSense_Filter.c **** /*******************************************************************************
 616:Generated_Source\PSoC6/CapSense_Filter.c **** * Function Name: CapSense_InitializeWidgetFilter
ARM GAS  C:\Users\user\AppData\Local\Temp\cc0N1rlz.s 			page 17


 617:Generated_Source\PSoC6/CapSense_Filter.c **** ****************************************************************************//**
 618:Generated_Source\PSoC6/CapSense_Filter.c **** *
 619:Generated_Source\PSoC6/CapSense_Filter.c **** * \brief
 620:Generated_Source\PSoC6/CapSense_Filter.c **** *  Initializes (or re-initializes) the raw count filter history of all the sensors 
 621:Generated_Source\PSoC6/CapSense_Filter.c **** *  in a widget specified by the input parameter.
 622:Generated_Source\PSoC6/CapSense_Filter.c **** *
 623:Generated_Source\PSoC6/CapSense_Filter.c **** * \details
 624:Generated_Source\PSoC6/CapSense_Filter.c **** *  Initializes (or re-initializes) the raw count filter history of all the sensors 
 625:Generated_Source\PSoC6/CapSense_Filter.c **** *  in a widget specified by the input parameter.
 626:Generated_Source\PSoC6/CapSense_Filter.c **** *
 627:Generated_Source\PSoC6/CapSense_Filter.c **** * \param  widgetId
 628:Generated_Source\PSoC6/CapSense_Filter.c **** *  Specifies the ID number of a widget to initialize the filter history of all 
 629:Generated_Source\PSoC6/CapSense_Filter.c **** *  the sensors in the widget.
 630:Generated_Source\PSoC6/CapSense_Filter.c **** *  A macro for the widget ID can be found in the
 631:Generated_Source\PSoC6/CapSense_Filter.c **** *  CapSense Configuration header file defined as
 632:Generated_Source\PSoC6/CapSense_Filter.c **** *  CapSense_<WidgetName>_WDGT_ID.
 633:Generated_Source\PSoC6/CapSense_Filter.c **** *
 634:Generated_Source\PSoC6/CapSense_Filter.c **** *******************************************************************************/
 635:Generated_Source\PSoC6/CapSense_Filter.c **** void CapSense_InitializeWidgetFilter(uint32 widgetId)
 636:Generated_Source\PSoC6/CapSense_Filter.c **** {
 273              		.loc 1 636 0
 274              		.cfi_startproc
 275              		@ args = 0, pretend = 0, frame = 0
 276              		@ frame_needed = 0, uses_anonymous_args = 0
 277              	.LVL36:
 278 0000 70B5     		push	{r4, r5, r6, lr}
 279              		.cfi_def_cfa_offset 16
 280              		.cfi_offset 4, -16
 281              		.cfi_offset 5, -12
 282              		.cfi_offset 6, -8
 283              		.cfi_offset 14, -4
 284 0002 0500     		movs	r5, r0
 285              	.LVL37:
 637:Generated_Source\PSoC6/CapSense_Filter.c ****     uint32 sensorId;
 638:Generated_Source\PSoC6/CapSense_Filter.c ****     uint32 sensorsNumber;
 639:Generated_Source\PSoC6/CapSense_Filter.c **** 
 640:Generated_Source\PSoC6/CapSense_Filter.c ****     CapSense_FLASH_WD_STRUCT const *ptrWidget;
 641:Generated_Source\PSoC6/CapSense_Filter.c ****     CapSense_RAM_SNS_STRUCT *ptrSensor = NULL;
 642:Generated_Source\PSoC6/CapSense_Filter.c ****     #if (CapSense_ENABLE == CapSense_RC_FILTER_EN)
 643:Generated_Source\PSoC6/CapSense_Filter.c ****         CapSense_PTR_FILTER_VARIANT ptrFilterHistObj;
 644:Generated_Source\PSoC6/CapSense_Filter.c ****     #endif
 645:Generated_Source\PSoC6/CapSense_Filter.c ****     
 646:Generated_Source\PSoC6/CapSense_Filter.c ****     #if (0u != (CapSense_CSD_AUTOTUNE & CapSense_CSD_SS_TH_EN))
 647:Generated_Source\PSoC6/CapSense_Filter.c ****         CapSense_RAM_WD_BASE_STRUCT *ptrWidgetRam;
 648:Generated_Source\PSoC6/CapSense_Filter.c ****         SMARTSENSE_CSD_NOISE_ENVELOPE_STRUCT *ptrNoiseEnvelope = NULL;
 649:Generated_Source\PSoC6/CapSense_Filter.c ****     #endif /* (0u != (CapSense_CSD_AUTOTUNE & CapSense_CSD_SS_TH_EN)) */
 650:Generated_Source\PSoC6/CapSense_Filter.c **** 
 651:Generated_Source\PSoC6/CapSense_Filter.c ****     ptrWidget = &CapSense_dsFlash.wdgtArray[widgetId];
 652:Generated_Source\PSoC6/CapSense_Filter.c **** 
 653:Generated_Source\PSoC6/CapSense_Filter.c ****     #if (0u != (CapSense_CSD_AUTOTUNE & CapSense_CSD_SS_TH_EN))
 654:Generated_Source\PSoC6/CapSense_Filter.c ****         ptrWidgetRam = ptrWidget->ptr2WdgtRam;
 286              		.loc 1 654 0
 287 0004 4200     		lsls	r2, r0, #1
 288 0006 1218     		adds	r2, r2, r0
 289 0008 1301     		lsls	r3, r2, #4
 290 000a 104A     		ldr	r2, .L21
 291 000c D318     		adds	r3, r2, r3
ARM GAS  C:\Users\user\AppData\Local\Temp\cc0N1rlz.s 			page 18


 292 000e 5E68     		ldr	r6, [r3, #4]
 293              	.LVL38:
 655:Generated_Source\PSoC6/CapSense_Filter.c ****     #endif /* (0u != (CapSense_CSD_AUTOTUNE & CapSense_CSD_SS_TH_EN)) */
 656:Generated_Source\PSoC6/CapSense_Filter.c **** 
 657:Generated_Source\PSoC6/CapSense_Filter.c ****     /* Find total amount of sensors in specified widget */
 658:Generated_Source\PSoC6/CapSense_Filter.c ****     sensorsNumber = CapSense_GET_SNS_CNT_BY_PTR(ptrWidget);
 294              		.loc 1 658 0
 295 0010 1B8B     		ldrh	r3, [r3, #24]
 296              	.LVL39:
 659:Generated_Source\PSoC6/CapSense_Filter.c **** 
 660:Generated_Source\PSoC6/CapSense_Filter.c ****     for (sensorId = sensorsNumber; sensorId-- > 0u;)
 297              		.loc 1 660 0
 298 0012 17E0     		b	.L18
 299              	.LVL40:
 300              	.L20:
 661:Generated_Source\PSoC6/CapSense_Filter.c ****     {
 662:Generated_Source\PSoC6/CapSense_Filter.c ****         /* Find pointer to specified sensor object */
 663:Generated_Source\PSoC6/CapSense_Filter.c ****         ptrSensor = ptrWidget->ptr2SnsRam;
 301              		.loc 1 663 0
 302 0014 6A00     		lsls	r2, r5, #1
 303 0016 5219     		adds	r2, r2, r5
 304 0018 1301     		lsls	r3, r2, #4
 305 001a 0C4A     		ldr	r2, .L21
 306              	.LVL41:
 307 001c D318     		adds	r3, r2, r3
 308              	.LVL42:
 664:Generated_Source\PSoC6/CapSense_Filter.c ****         ptrSensor = &ptrSensor[sensorId];
 309              		.loc 1 664 0
 310 001e A200     		lsls	r2, r4, #2
 311              	.LVL43:
 312 0020 1219     		adds	r2, r2, r4
 313 0022 5100     		lsls	r1, r2, #1
 314 0024 9A68     		ldr	r2, [r3, #8]
 315 0026 5018     		adds	r0, r2, r1
 316              	.LVL44:
 665:Generated_Source\PSoC6/CapSense_Filter.c **** 
 666:Generated_Source\PSoC6/CapSense_Filter.c ****         #if (CapSense_ENABLE == CapSense_RC_FILTER_EN)
 667:Generated_Source\PSoC6/CapSense_Filter.c ****             /* Find pointer to to specified filter sensor object */
 668:Generated_Source\PSoC6/CapSense_Filter.c ****             ptrFilterHistObj.ptr = ptrWidget->ptr2FltrHistory;
 669:Generated_Source\PSoC6/CapSense_Filter.c ****         #endif
 670:Generated_Source\PSoC6/CapSense_Filter.c **** 
 671:Generated_Source\PSoC6/CapSense_Filter.c ****         #if (0u != (CapSense_CSD_AUTOTUNE & CapSense_CSD_SS_TH_EN))
 672:Generated_Source\PSoC6/CapSense_Filter.c ****             /* Find pointer to specified noise envelope sensor object */
 673:Generated_Source\PSoC6/CapSense_Filter.c ****             ptrNoiseEnvelope = ptrWidget->ptr2NoiseEnvlp;
 674:Generated_Source\PSoC6/CapSense_Filter.c ****             ptrNoiseEnvelope = &ptrNoiseEnvelope[sensorId];
 317              		.loc 1 674 0
 318 0028 6100     		lsls	r1, r4, #1
 319 002a 0919     		adds	r1, r1, r4
 320 002c 8A00     		lsls	r2, r1, #2
 321 002e 596A     		ldr	r1, [r3, #36]
 322 0030 8C46     		mov	ip, r1
 323 0032 6244     		add	r2, r2, ip
 324              	.LVL45:
 675:Generated_Source\PSoC6/CapSense_Filter.c ****         #endif /* (0u != (CapSense_CSD_AUTOTUNE & CapSense_CSD_SS_TH_EN)) */
 676:Generated_Source\PSoC6/CapSense_Filter.c **** 
 677:Generated_Source\PSoC6/CapSense_Filter.c ****         if ((CapSense_WD_TYPE_ENUM)ptrWidget->wdgtType != CapSense_WD_PROXIMITY_E)
 678:Generated_Source\PSoC6/CapSense_Filter.c ****         {
ARM GAS  C:\Users\user\AppData\Local\Temp\cc0N1rlz.s 			page 19


 679:Generated_Source\PSoC6/CapSense_Filter.c ****             #if (0u != CapSense_REGULAR_RC_ALP_FILTER_EN)
 680:Generated_Source\PSoC6/CapSense_Filter.c ****                 ptrFilterHistObj.ptrAlp = &ptrFilterHistObj.ptrAlp[sensorId];
 681:Generated_Source\PSoC6/CapSense_Filter.c ****             #elif (0u != CapSense_REGULAR_RC_FILTER_EN)
 682:Generated_Source\PSoC6/CapSense_Filter.c ****                 ptrFilterHistObj.ptrRegular = &ptrFilterHistObj.ptrRegular[sensorId];
 683:Generated_Source\PSoC6/CapSense_Filter.c ****             #endif
 684:Generated_Source\PSoC6/CapSense_Filter.c ****         }
 685:Generated_Source\PSoC6/CapSense_Filter.c ****         else
 686:Generated_Source\PSoC6/CapSense_Filter.c ****         {
 687:Generated_Source\PSoC6/CapSense_Filter.c ****             #if (0u != CapSense_PROX_RC_ALP_FILTER_EN)
 688:Generated_Source\PSoC6/CapSense_Filter.c ****                 ptrFilterHistObj.ptrAlp = &ptrFilterHistObj.ptrAlp[sensorId];
 689:Generated_Source\PSoC6/CapSense_Filter.c ****             #elif (0u != CapSense_PROX_RC_FILTER_EN)
 690:Generated_Source\PSoC6/CapSense_Filter.c ****                 ptrFilterHistObj.ptrProx = &ptrFilterHistObj.ptrProx[sensorId];
 691:Generated_Source\PSoC6/CapSense_Filter.c ****             #endif /* #if (0u != CapSense_PROX_RC_FILTER_EN) */
 692:Generated_Source\PSoC6/CapSense_Filter.c ****         }
 693:Generated_Source\PSoC6/CapSense_Filter.c **** 
 694:Generated_Source\PSoC6/CapSense_Filter.c ****         #if (CapSense_REGULAR_RC_IIR_FILTER_EN || CapSense_PROX_RC_IIR_FILTER_EN)
 695:Generated_Source\PSoC6/CapSense_Filter.c ****             CapSense_InitializeIIRInternal(ptrFilterHistObj, ptrSensor, (uint32)ptrWidget->wdgtType
 696:Generated_Source\PSoC6/CapSense_Filter.c ****         #endif /* (CapSense_REGULAR_RC_IIR_FILTER_EN || CapSense_PROX_RC_IIR_FILTER_EN) */
 697:Generated_Source\PSoC6/CapSense_Filter.c **** 
 698:Generated_Source\PSoC6/CapSense_Filter.c ****         #if (CapSense_REGULAR_RC_MEDIAN_FILTER_EN || CapSense_PROX_RC_MEDIAN_FILTER_EN)
 699:Generated_Source\PSoC6/CapSense_Filter.c ****             CapSense_InitializeMedianInternal(ptrFilterHistObj, ptrSensor, (uint32)ptrWidget->wdgtT
 700:Generated_Source\PSoC6/CapSense_Filter.c ****         #endif /* (CapSense_REGULAR_RC_MEDIAN_FILTER_EN || CapSense_PROX_RC_MEDIAN_FILTER_EN) */
 701:Generated_Source\PSoC6/CapSense_Filter.c **** 
 702:Generated_Source\PSoC6/CapSense_Filter.c ****         #if (CapSense_REGULAR_RC_AVERAGE_FILTER_EN || CapSense_PROX_RC_AVERAGE_FILTER_EN)
 703:Generated_Source\PSoC6/CapSense_Filter.c ****             CapSense_InitializeAverageInternal(ptrFilterHistObj, ptrSensor, (uint32)ptrWidget->wdgt
 704:Generated_Source\PSoC6/CapSense_Filter.c ****         #endif /* (CapSense_REGULAR_RC_AVERAGE_FILTER_EN || CapSense_PROX_RC_AVERAGE_FILTER_EN) */
 705:Generated_Source\PSoC6/CapSense_Filter.c **** 
 706:Generated_Source\PSoC6/CapSense_Filter.c ****         #if (CapSense_ALP_FILTER_EN)
 707:Generated_Source\PSoC6/CapSense_Filter.c ****             CapSense_InitializeALPInternal(ptrFilterHistObj, ptrSensor, (uint32)ptrWidget->wdgtType
 708:Generated_Source\PSoC6/CapSense_Filter.c ****         #endif
 709:Generated_Source\PSoC6/CapSense_Filter.c **** 
 710:Generated_Source\PSoC6/CapSense_Filter.c ****         #if (0u != (CapSense_CSD_AUTOTUNE & CapSense_CSD_SS_TH_EN))
 711:Generated_Source\PSoC6/CapSense_Filter.c ****             if (CapSense_SENSE_METHOD_CSD_E ==
 712:Generated_Source\PSoC6/CapSense_Filter.c ****                 CapSense_GET_SENSE_METHOD(&CapSense_dsFlash.wdgtArray[widgetId]))
 325              		.loc 1 712 0
 326 0034 DB7E     		ldrb	r3, [r3, #27]
 711:Generated_Source\PSoC6/CapSense_Filter.c ****                 CapSense_GET_SENSE_METHOD(&CapSense_dsFlash.wdgtArray[widgetId]))
 327              		.loc 1 711 0
 328 0036 012B     		cmp	r3, #1
 329 0038 03D1     		bne	.L19
 713:Generated_Source\PSoC6/CapSense_Filter.c ****             {
 714:Generated_Source\PSoC6/CapSense_Filter.c ****                 SmartSense_InitializeNoiseEnvelope(ptrSensor->raw[0u], ptrWidgetRam->sigPFC, ptrNoi
 330              		.loc 1 714 0
 331 003a 318A     		ldrh	r1, [r6, #16]
 332 003c 0088     		ldrh	r0, [r0]
 333              	.LVL46:
 334 003e FFF7FEFF 		bl	SmartSense_InitializeNoiseEnvelope
 335              	.LVL47:
 336              	.L19:
 337 0042 2300     		movs	r3, r4
 338              	.LVL48:
 339              	.L18:
 660:Generated_Source\PSoC6/CapSense_Filter.c ****     {
 340              		.loc 1 660 0 discriminator 1
 341 0044 5C1E     		subs	r4, r3, #1
 342              	.LVL49:
 343 0046 002B     		cmp	r3, #0
ARM GAS  C:\Users\user\AppData\Local\Temp\cc0N1rlz.s 			page 20


 344 0048 E4D1     		bne	.L20
 715:Generated_Source\PSoC6/CapSense_Filter.c ****             }
 716:Generated_Source\PSoC6/CapSense_Filter.c ****         #endif /* (0u != (CapSense_CSD_AUTOTUNE & CapSense_CSD_SS_TH_EN)) */
 717:Generated_Source\PSoC6/CapSense_Filter.c ****     }
 718:Generated_Source\PSoC6/CapSense_Filter.c **** }
 345              		.loc 1 718 0
 346              		@ sp needed
 347              	.LVL50:
 348              	.LVL51:
 349              	.LVL52:
 350 004a 70BD     		pop	{r4, r5, r6, pc}
 351              	.L22:
 352              		.align	2
 353              	.L21:
 354 004c 00000000 		.word	CapSense_dsFlash
 355              		.cfi_endproc
 356              	.LFE56:
 357              		.size	CapSense_InitializeWidgetFilter, .-CapSense_InitializeWidgetFilter
 358              		.section	.text.CapSense_InitializeAllFilters,"ax",%progbits
 359              		.align	2
 360              		.global	CapSense_InitializeAllFilters
 361              		.code	16
 362              		.thumb_func
 363              		.type	CapSense_InitializeAllFilters, %function
 364              	CapSense_InitializeAllFilters:
 365              	.LFB55:
 606:Generated_Source\PSoC6/CapSense_Filter.c ****     uint32 widgetId;
 366              		.loc 1 606 0
 367              		.cfi_startproc
 368              		@ args = 0, pretend = 0, frame = 0
 369              		@ frame_needed = 0, uses_anonymous_args = 0
 370 0000 10B5     		push	{r4, lr}
 371              		.cfi_def_cfa_offset 8
 372              		.cfi_offset 4, -8
 373              		.cfi_offset 14, -4
 374              	.LVL53:
 609:Generated_Source\PSoC6/CapSense_Filter.c ****     {
 375              		.loc 1 609 0
 376 0002 0323     		movs	r3, #3
 377 0004 03E0     		b	.L24
 378              	.LVL54:
 379              	.L25:
 611:Generated_Source\PSoC6/CapSense_Filter.c ****     }
 380              		.loc 1 611 0
 381 0006 2000     		movs	r0, r4
 382 0008 FFF7FEFF 		bl	CapSense_InitializeWidgetFilter
 383              	.LVL55:
 609:Generated_Source\PSoC6/CapSense_Filter.c ****     {
 384              		.loc 1 609 0
 385 000c 2300     		movs	r3, r4
 386              	.LVL56:
 387              	.L24:
 609:Generated_Source\PSoC6/CapSense_Filter.c ****     {
 388              		.loc 1 609 0 is_stmt 0 discriminator 1
 389 000e 5C1E     		subs	r4, r3, #1
 390              	.LVL57:
 391 0010 002B     		cmp	r3, #0
ARM GAS  C:\Users\user\AppData\Local\Temp\cc0N1rlz.s 			page 21


 392 0012 F8D1     		bne	.L25
 613:Generated_Source\PSoC6/CapSense_Filter.c **** 
 393              		.loc 1 613 0 is_stmt 1
 394              		@ sp needed
 395              	.LVL58:
 396 0014 10BD     		pop	{r4, pc}
 397              		.cfi_endproc
 398              	.LFE55:
 399              		.size	CapSense_InitializeAllFilters, .-CapSense_InitializeAllFilters
 400 0016 C046     		.section	.text.CapSense_FtInitialize,"ax",%progbits
 401              		.align	2
 402              		.global	CapSense_FtInitialize
 403              		.code	16
 404              		.thumb_func
 405              		.type	CapSense_FtInitialize, %function
 406              	CapSense_FtInitialize:
 407              	.LFB45:
  64:Generated_Source\PSoC6/CapSense_Filter.c ****     #if ((CapSense_ENABLE == CapSense_RC_FILTER_EN) || \
 408              		.loc 1 64 0
 409              		.cfi_startproc
 410              		@ args = 0, pretend = 0, frame = 0
 411              		@ frame_needed = 0, uses_anonymous_args = 0
 412 0000 10B5     		push	{r4, lr}
 413              		.cfi_def_cfa_offset 8
 414              		.cfi_offset 4, -8
 415              		.cfi_offset 14, -4
  67:Generated_Source\PSoC6/CapSense_Filter.c ****     #endif /* ((CapSense_ENABLE == CapSense_RC_FILTER_EN) || \
 416              		.loc 1 67 0
 417 0002 FFF7FEFF 		bl	CapSense_InitializeAllFilters
 418              	.LVL59:
  70:Generated_Source\PSoC6/CapSense_Filter.c **** 
 419              		.loc 1 70 0
 420              		@ sp needed
 421 0006 10BD     		pop	{r4, pc}
 422              		.cfi_endproc
 423              	.LFE45:
 424              		.size	CapSense_FtInitialize, .-CapSense_FtInitialize
 425              		.section	.text.CapSense_RunNoiseEnvelope,"ax",%progbits
 426              		.align	2
 427              		.global	CapSense_RunNoiseEnvelope
 428              		.code	16
 429              		.thumb_func
 430              		.type	CapSense_RunNoiseEnvelope, %function
 431              	CapSense_RunNoiseEnvelope:
 432              	.LFB57:
 719:Generated_Source\PSoC6/CapSense_Filter.c **** #endif /* ((CapSense_ENABLE == CapSense_RC_FILTER_EN) || \
 720:Generated_Source\PSoC6/CapSense_Filter.c ****            (0u != (CapSense_CSD_AUTOTUNE & CapSense_CSD_SS_TH_EN))) */
 721:Generated_Source\PSoC6/CapSense_Filter.c **** 
 722:Generated_Source\PSoC6/CapSense_Filter.c **** #if (CapSense_REGULAR_RC_IIR_FILTER_EN || CapSense_PROX_RC_IIR_FILTER_EN)
 723:Generated_Source\PSoC6/CapSense_Filter.c **** /*******************************************************************************
 724:Generated_Source\PSoC6/CapSense_Filter.c **** * Function Name: CapSense_InitializeIIR
 725:Generated_Source\PSoC6/CapSense_Filter.c **** ****************************************************************************//**
 726:Generated_Source\PSoC6/CapSense_Filter.c **** *
 727:Generated_Source\PSoC6/CapSense_Filter.c **** * \brief    Initialize the IIR filter history.
 728:Generated_Source\PSoC6/CapSense_Filter.c **** *
 729:Generated_Source\PSoC6/CapSense_Filter.c **** * \details  Initialize the IIR filter history.
 730:Generated_Source\PSoC6/CapSense_Filter.c **** *
ARM GAS  C:\Users\user\AppData\Local\Temp\cc0N1rlz.s 			page 22


 731:Generated_Source\PSoC6/CapSense_Filter.c **** * \param    widgetId Specifies the ID number of the widget.
 732:Generated_Source\PSoC6/CapSense_Filter.c **** * \param    sensorId Specifies the ID number of the sensor in the widget.
 733:Generated_Source\PSoC6/CapSense_Filter.c **** *
 734:Generated_Source\PSoC6/CapSense_Filter.c **** *******************************************************************************/
 735:Generated_Source\PSoC6/CapSense_Filter.c **** void CapSense_InitializeIIR(uint32 widgetId, uint32 sensorId)
 736:Generated_Source\PSoC6/CapSense_Filter.c **** {
 737:Generated_Source\PSoC6/CapSense_Filter.c ****     CapSense_FLASH_WD_STRUCT const *ptrWidget = &CapSense_dsFlash.wdgtArray[widgetId];
 738:Generated_Source\PSoC6/CapSense_Filter.c ****     CapSense_RAM_SNS_STRUCT *ptrSensor = NULL;
 739:Generated_Source\PSoC6/CapSense_Filter.c ****     CapSense_PTR_FILTER_VARIANT ptrFilterHistObj;
 740:Generated_Source\PSoC6/CapSense_Filter.c **** 
 741:Generated_Source\PSoC6/CapSense_Filter.c ****     /* Find pointer to specified sensor object */
 742:Generated_Source\PSoC6/CapSense_Filter.c ****     ptrSensor = ptrWidget->ptr2SnsRam;
 743:Generated_Source\PSoC6/CapSense_Filter.c ****     ptrSensor = &ptrSensor[sensorId];
 744:Generated_Source\PSoC6/CapSense_Filter.c **** 
 745:Generated_Source\PSoC6/CapSense_Filter.c ****     /* Find pointer to specified filter sensor object */
 746:Generated_Source\PSoC6/CapSense_Filter.c ****     ptrFilterHistObj.ptr = ptrWidget->ptr2FltrHistory;
 747:Generated_Source\PSoC6/CapSense_Filter.c **** 
 748:Generated_Source\PSoC6/CapSense_Filter.c ****     if ((CapSense_WD_TYPE_ENUM)ptrWidget->wdgtType != CapSense_WD_PROXIMITY_E)
 749:Generated_Source\PSoC6/CapSense_Filter.c ****     {
 750:Generated_Source\PSoC6/CapSense_Filter.c ****         #if (CapSense_REGULAR_SENSOR_EN)
 751:Generated_Source\PSoC6/CapSense_Filter.c ****             ptrFilterHistObj.ptrRegular = &ptrFilterHistObj.ptrRegular[sensorId];
 752:Generated_Source\PSoC6/CapSense_Filter.c ****         #endif /* (CapSense_REGULAR_SENSOR_EN) */
 753:Generated_Source\PSoC6/CapSense_Filter.c ****     }
 754:Generated_Source\PSoC6/CapSense_Filter.c ****     else
 755:Generated_Source\PSoC6/CapSense_Filter.c ****     {
 756:Generated_Source\PSoC6/CapSense_Filter.c ****         #if (CapSense_PROXIMITY_SENSOR_EN)
 757:Generated_Source\PSoC6/CapSense_Filter.c ****             ptrFilterHistObj.ptrProx = &ptrFilterHistObj.ptrProx[sensorId];
 758:Generated_Source\PSoC6/CapSense_Filter.c ****         #endif /* (CapSense_PROXIMITY_SENSOR_EN) */
 759:Generated_Source\PSoC6/CapSense_Filter.c ****     }
 760:Generated_Source\PSoC6/CapSense_Filter.c **** 
 761:Generated_Source\PSoC6/CapSense_Filter.c ****     CapSense_InitializeIIRInternal(ptrFilterHistObj, ptrSensor, (uint32)ptrWidget->wdgtType);
 762:Generated_Source\PSoC6/CapSense_Filter.c **** }
 763:Generated_Source\PSoC6/CapSense_Filter.c **** 
 764:Generated_Source\PSoC6/CapSense_Filter.c **** 
 765:Generated_Source\PSoC6/CapSense_Filter.c **** /*******************************************************************************
 766:Generated_Source\PSoC6/CapSense_Filter.c **** * Function Name: CapSense_RunIIR
 767:Generated_Source\PSoC6/CapSense_Filter.c **** ****************************************************************************//**
 768:Generated_Source\PSoC6/CapSense_Filter.c **** *
 769:Generated_Source\PSoC6/CapSense_Filter.c **** * \brief    Executes the IIR filter algorithm on a sensor indicated by an input
 770:Generated_Source\PSoC6/CapSense_Filter.c **** *           parameter.
 771:Generated_Source\PSoC6/CapSense_Filter.c **** *
 772:Generated_Source\PSoC6/CapSense_Filter.c **** * \details  Executes the IIR filter algorithm on a sensor indicated by an input
 773:Generated_Source\PSoC6/CapSense_Filter.c **** *           parameter.
 774:Generated_Source\PSoC6/CapSense_Filter.c **** *
 775:Generated_Source\PSoC6/CapSense_Filter.c **** * \param    widgetId Specifies the ID number of the widget.
 776:Generated_Source\PSoC6/CapSense_Filter.c **** * \param    sensorId Specifies the ID number of the sensor in the widget.
 777:Generated_Source\PSoC6/CapSense_Filter.c **** *
 778:Generated_Source\PSoC6/CapSense_Filter.c **** *******************************************************************************/
 779:Generated_Source\PSoC6/CapSense_Filter.c **** void CapSense_RunIIR(uint32 widgetId, uint32 sensorId)
 780:Generated_Source\PSoC6/CapSense_Filter.c **** {
 781:Generated_Source\PSoC6/CapSense_Filter.c ****     CapSense_FLASH_WD_STRUCT const *ptrWidget = &CapSense_dsFlash.wdgtArray[widgetId];
 782:Generated_Source\PSoC6/CapSense_Filter.c ****     CapSense_RAM_SNS_STRUCT *ptrSensor = NULL;
 783:Generated_Source\PSoC6/CapSense_Filter.c ****     CapSense_PTR_FILTER_VARIANT ptrFilterHistObj;
 784:Generated_Source\PSoC6/CapSense_Filter.c **** 
 785:Generated_Source\PSoC6/CapSense_Filter.c ****     /* Find pointer to specified sensor object */
 786:Generated_Source\PSoC6/CapSense_Filter.c ****     ptrSensor = ptrWidget->ptr2SnsRam;
 787:Generated_Source\PSoC6/CapSense_Filter.c ****     ptrSensor = &ptrSensor[sensorId];
ARM GAS  C:\Users\user\AppData\Local\Temp\cc0N1rlz.s 			page 23


 788:Generated_Source\PSoC6/CapSense_Filter.c **** 
 789:Generated_Source\PSoC6/CapSense_Filter.c ****     /* Find pointer to specified filter sensor object */
 790:Generated_Source\PSoC6/CapSense_Filter.c ****     ptrFilterHistObj.ptr = ptrWidget->ptr2FltrHistory;
 791:Generated_Source\PSoC6/CapSense_Filter.c **** 
 792:Generated_Source\PSoC6/CapSense_Filter.c ****     if ((CapSense_WD_TYPE_ENUM)ptrWidget->wdgtType != CapSense_WD_PROXIMITY_E)
 793:Generated_Source\PSoC6/CapSense_Filter.c ****     {
 794:Generated_Source\PSoC6/CapSense_Filter.c ****         #if (CapSense_REGULAR_SENSOR_EN)
 795:Generated_Source\PSoC6/CapSense_Filter.c ****             ptrFilterHistObj.ptrRegular = &ptrFilterHistObj.ptrRegular[sensorId];
 796:Generated_Source\PSoC6/CapSense_Filter.c ****         #endif /* (CapSense_REGULAR_SENSOR_EN) */
 797:Generated_Source\PSoC6/CapSense_Filter.c ****     }
 798:Generated_Source\PSoC6/CapSense_Filter.c ****     else
 799:Generated_Source\PSoC6/CapSense_Filter.c ****     {
 800:Generated_Source\PSoC6/CapSense_Filter.c ****         #if (CapSense_PROXIMITY_SENSOR_EN)
 801:Generated_Source\PSoC6/CapSense_Filter.c ****             ptrFilterHistObj.ptrProx = &ptrFilterHistObj.ptrProx[sensorId];
 802:Generated_Source\PSoC6/CapSense_Filter.c ****         #endif /* (CapSense_PROXIMITY_SENSOR_EN) */
 803:Generated_Source\PSoC6/CapSense_Filter.c ****     }
 804:Generated_Source\PSoC6/CapSense_Filter.c **** 
 805:Generated_Source\PSoC6/CapSense_Filter.c ****     CapSense_RunIIRInternal(ptrFilterHistObj, ptrSensor, (uint32)ptrWidget->wdgtType);
 806:Generated_Source\PSoC6/CapSense_Filter.c **** }
 807:Generated_Source\PSoC6/CapSense_Filter.c **** 
 808:Generated_Source\PSoC6/CapSense_Filter.c **** /*******************************************************************************
 809:Generated_Source\PSoC6/CapSense_Filter.c **** * Function Name: CapSense_InitializeIIRInternal
 810:Generated_Source\PSoC6/CapSense_Filter.c **** ****************************************************************************//**
 811:Generated_Source\PSoC6/CapSense_Filter.c **** *
 812:Generated_Source\PSoC6/CapSense_Filter.c **** * \brief    Initializes the IIR filter history.
 813:Generated_Source\PSoC6/CapSense_Filter.c **** *
 814:Generated_Source\PSoC6/CapSense_Filter.c **** * \details  Initializes the IIR filter history.
 815:Generated_Source\PSoC6/CapSense_Filter.c **** *
 816:Generated_Source\PSoC6/CapSense_Filter.c **** * \param    ptrFilterHistObj The pointer to the filter RAM object of the sensor.
 817:Generated_Source\PSoC6/CapSense_Filter.c **** * \param    ptrSensorObj     The pointer to the sensor RAM object of the sensor.
 818:Generated_Source\PSoC6/CapSense_Filter.c **** * \param    wdType           Specifies the type of a widget.
 819:Generated_Source\PSoC6/CapSense_Filter.c **** *
 820:Generated_Source\PSoC6/CapSense_Filter.c **** *******************************************************************************/
 821:Generated_Source\PSoC6/CapSense_Filter.c **** void CapSense_InitializeIIRInternal(CapSense_PTR_FILTER_VARIANT ptrFilterHistObj,
 822:Generated_Source\PSoC6/CapSense_Filter.c ****                                             CapSense_RAM_SNS_STRUCT *ptrSensorObj, uint32 wdType)
 823:Generated_Source\PSoC6/CapSense_Filter.c **** {
 824:Generated_Source\PSoC6/CapSense_Filter.c ****     uint32 freqChannel;
 825:Generated_Source\PSoC6/CapSense_Filter.c **** 
 826:Generated_Source\PSoC6/CapSense_Filter.c ****     for(freqChannel = CapSense_NUM_SCAN_FREQS; freqChannel-- > 0u;)
 827:Generated_Source\PSoC6/CapSense_Filter.c ****     {
 828:Generated_Source\PSoC6/CapSense_Filter.c ****         if ((CapSense_WD_TYPE_ENUM)wdType != CapSense_WD_PROXIMITY_E)
 829:Generated_Source\PSoC6/CapSense_Filter.c ****         {
 830:Generated_Source\PSoC6/CapSense_Filter.c ****             #if (CapSense_REGULAR_SENSOR_EN && CapSense_REGULAR_RC_IIR_FILTER_EN)
 831:Generated_Source\PSoC6/CapSense_Filter.c ****                 #if (CapSense_REGULAR_IIR_RC_TYPE == CapSense_IIR_FILTER_PERFORMANCE)
 832:Generated_Source\PSoC6/CapSense_Filter.c ****                     ptrFilterHistObj.ptrRegular->regularChannel[freqChannel].iirHistory = ptrSensor
 833:Generated_Source\PSoC6/CapSense_Filter.c ****                     ptrFilterHistObj.ptrRegular->regularChannel[freqChannel].iirHistoryLow = 0u;
 834:Generated_Source\PSoC6/CapSense_Filter.c ****                 #else
 835:Generated_Source\PSoC6/CapSense_Filter.c ****                     ptrFilterHistObj.ptrRegular->regularChannel[freqChannel].iirHistory = ptrSensor
 836:Generated_Source\PSoC6/CapSense_Filter.c ****                 #endif /* (CapSense_REGULAR_IIR_RC_TYPE == CapSense_IIR_FILTER_PERFORMANCE) */
 837:Generated_Source\PSoC6/CapSense_Filter.c ****             #endif /* (CapSense_REGULAR_SENSOR_EN) */
 838:Generated_Source\PSoC6/CapSense_Filter.c ****         }
 839:Generated_Source\PSoC6/CapSense_Filter.c ****         else
 840:Generated_Source\PSoC6/CapSense_Filter.c ****         {
 841:Generated_Source\PSoC6/CapSense_Filter.c ****             #if (CapSense_PROXIMITY_SENSOR_EN && CapSense_PROX_RC_IIR_FILTER_EN)
 842:Generated_Source\PSoC6/CapSense_Filter.c ****                 #if (CapSense_PROX_IIR_RC_TYPE == CapSense_IIR_FILTER_PERFORMANCE)
 843:Generated_Source\PSoC6/CapSense_Filter.c ****                     ptrFilterHistObj.ptrProx->proxChannel[freqChannel].iirHistory = ptrSensorObj->r
 844:Generated_Source\PSoC6/CapSense_Filter.c ****                     ptrFilterHistObj.ptrProx->proxChannel[freqChannel].iirHistoryLow = 0u;
ARM GAS  C:\Users\user\AppData\Local\Temp\cc0N1rlz.s 			page 24


 845:Generated_Source\PSoC6/CapSense_Filter.c ****                 #else
 846:Generated_Source\PSoC6/CapSense_Filter.c ****                     ptrFilterHistObj.ptrProx->proxChannel[freqChannel].iirHistory = ptrSensorObj->r
 847:Generated_Source\PSoC6/CapSense_Filter.c ****                 #endif /* (CapSense_PROX_IIR_RC_TYPE == CapSense_IIR_FILTER_PERFORMANCE) */
 848:Generated_Source\PSoC6/CapSense_Filter.c ****             #endif /* (CapSense_PROX_SENSOR_EN) */
 849:Generated_Source\PSoC6/CapSense_Filter.c ****         }
 850:Generated_Source\PSoC6/CapSense_Filter.c ****     }
 851:Generated_Source\PSoC6/CapSense_Filter.c **** }
 852:Generated_Source\PSoC6/CapSense_Filter.c **** 
 853:Generated_Source\PSoC6/CapSense_Filter.c **** 
 854:Generated_Source\PSoC6/CapSense_Filter.c **** /*******************************************************************************
 855:Generated_Source\PSoC6/CapSense_Filter.c **** * Function Name: CapSense_RunIIRInternal
 856:Generated_Source\PSoC6/CapSense_Filter.c **** ****************************************************************************//**
 857:Generated_Source\PSoC6/CapSense_Filter.c **** *
 858:Generated_Source\PSoC6/CapSense_Filter.c **** * \brief    Run the IIR filter.
 859:Generated_Source\PSoC6/CapSense_Filter.c **** *
 860:Generated_Source\PSoC6/CapSense_Filter.c **** * \details  Run the IIR filter.
 861:Generated_Source\PSoC6/CapSense_Filter.c **** *
 862:Generated_Source\PSoC6/CapSense_Filter.c **** * \param    ptrFilterHistObj The pointer to the filter RAM object of the sensor.
 863:Generated_Source\PSoC6/CapSense_Filter.c **** * \param    ptrSensorObj     The pointer to the sensor RAM object of the sensor.
 864:Generated_Source\PSoC6/CapSense_Filter.c **** * \param    wdType           Specifies the type of a widget.
 865:Generated_Source\PSoC6/CapSense_Filter.c **** *
 866:Generated_Source\PSoC6/CapSense_Filter.c **** *******************************************************************************/
 867:Generated_Source\PSoC6/CapSense_Filter.c **** void CapSense_RunIIRInternal(CapSense_PTR_FILTER_VARIANT ptrFilterHistObj,
 868:Generated_Source\PSoC6/CapSense_Filter.c ****                                      CapSense_RAM_SNS_STRUCT *ptrSensorObj, uint32 wdType)
 869:Generated_Source\PSoC6/CapSense_Filter.c **** {
 870:Generated_Source\PSoC6/CapSense_Filter.c ****     uint32 freqChannel;
 871:Generated_Source\PSoC6/CapSense_Filter.c ****     uint32 temp;
 872:Generated_Source\PSoC6/CapSense_Filter.c **** 
 873:Generated_Source\PSoC6/CapSense_Filter.c ****     for(freqChannel = CapSense_NUM_SCAN_FREQS; freqChannel-- > 0u;)
 874:Generated_Source\PSoC6/CapSense_Filter.c ****     {
 875:Generated_Source\PSoC6/CapSense_Filter.c ****         if ((CapSense_WD_TYPE_ENUM)wdType != CapSense_WD_PROXIMITY_E)
 876:Generated_Source\PSoC6/CapSense_Filter.c ****         {
 877:Generated_Source\PSoC6/CapSense_Filter.c ****             #if (CapSense_REGULAR_SENSOR_EN && CapSense_REGULAR_RC_IIR_FILTER_EN)
 878:Generated_Source\PSoC6/CapSense_Filter.c ****                 #if (CapSense_REGULAR_IIR_RC_TYPE == CapSense_IIR_FILTER_PERFORMANCE)
 879:Generated_Source\PSoC6/CapSense_Filter.c ****                     temp = ((uint32)ptrFilterHistObj.ptrRegular->regularChannel[freqChannel].iirHis
 880:Generated_Source\PSoC6/CapSense_Filter.c ****                     temp |= ptrFilterHistObj.ptrRegular->regularChannel[freqChannel].iirHistoryLow;
 881:Generated_Source\PSoC6/CapSense_Filter.c ****                     temp = CapSense_FtIIR1stOrder((uint32)ptrSensorObj->raw[freqChannel],
 882:Generated_Source\PSoC6/CapSense_Filter.c ****                                                         temp,
 883:Generated_Source\PSoC6/CapSense_Filter.c ****                                                         CapSense_REGULAR_IIR_RC_N,
 884:Generated_Source\PSoC6/CapSense_Filter.c ****                                                         CapSense_REGULAR_IIR_RC_SHIFT);
 885:Generated_Source\PSoC6/CapSense_Filter.c ****                     ptrFilterHistObj.ptrRegular->regularChannel[freqChannel].iirHistory = CY_LO16(t
 886:Generated_Source\PSoC6/CapSense_Filter.c ****                     ptrFilterHistObj.ptrRegular->regularChannel[freqChannel].iirHistoryLow = CY_LO8
 887:Generated_Source\PSoC6/CapSense_Filter.c ****                     ptrSensorObj->raw[freqChannel] = CY_LO16(temp >>CapSense_REGULAR_IIR_RC_SHIFT);
 888:Generated_Source\PSoC6/CapSense_Filter.c ****                 #else
 889:Generated_Source\PSoC6/CapSense_Filter.c ****                     temp =CapSense_FtIIR1stOrder((uint32)ptrSensorObj->raw[freqChannel],
 890:Generated_Source\PSoC6/CapSense_Filter.c ****                                                         (uint32)ptrFilterHistObj.ptrRegular->regula
 891:Generated_Source\PSoC6/CapSense_Filter.c ****                                                         CapSense_REGULAR_IIR_RC_N,
 892:Generated_Source\PSoC6/CapSense_Filter.c ****                                                         CapSense_REGULAR_IIR_RC_SHIFT);
 893:Generated_Source\PSoC6/CapSense_Filter.c ****                     ptrFilterHistObj.ptrRegular->regularChannel[freqChannel].iirHistory = CY_LO16(t
 894:Generated_Source\PSoC6/CapSense_Filter.c ****                     ptrSensorObj->raw[freqChannel] = CY_LO16(temp >>CapSense_REGULAR_IIR_RC_SHIFT);
 895:Generated_Source\PSoC6/CapSense_Filter.c ****                 #endif /* (CapSense_REGULAR_IIR_RC_TYPE == CapSense_IIR_FILTER_PERFORMANCE) */
 896:Generated_Source\PSoC6/CapSense_Filter.c ****             #endif /* (CapSense_REGULAR_SENSOR_EN) */
 897:Generated_Source\PSoC6/CapSense_Filter.c ****         }
 898:Generated_Source\PSoC6/CapSense_Filter.c ****         else
 899:Generated_Source\PSoC6/CapSense_Filter.c ****         {
 900:Generated_Source\PSoC6/CapSense_Filter.c ****             #if (CapSense_PROXIMITY_SENSOR_EN && CapSense_PROX_RC_IIR_FILTER_EN)
 901:Generated_Source\PSoC6/CapSense_Filter.c ****                 #if (CapSense_PROX_IIR_RC_TYPE == CapSense_IIR_FILTER_PERFORMANCE)
ARM GAS  C:\Users\user\AppData\Local\Temp\cc0N1rlz.s 			page 25


 902:Generated_Source\PSoC6/CapSense_Filter.c ****                     temp =  ptrFilterHistObj.ptrProx->proxChannel[freqChannel].iirHistory << CapSen
 903:Generated_Source\PSoC6/CapSense_Filter.c ****                     temp |= ptrFilterHistObj.ptrProx->proxChannel[freqChannel].iirHistoryLow;
 904:Generated_Source\PSoC6/CapSense_Filter.c ****                     temp =CapSense_FtIIR1stOrder((uint32)ptrSensorObj->raw[freqChannel],
 905:Generated_Source\PSoC6/CapSense_Filter.c ****                                                         temp,
 906:Generated_Source\PSoC6/CapSense_Filter.c ****                                                         CapSense_PROX_IIR_RC_N,
 907:Generated_Source\PSoC6/CapSense_Filter.c ****                                                         CapSense_PROX_IIR_RC_SHIFT);
 908:Generated_Source\PSoC6/CapSense_Filter.c ****                     ptrFilterHistObj.ptrProx->proxChannel[freqChannel].iirHistory = CY_LO16(temp >>
 909:Generated_Source\PSoC6/CapSense_Filter.c ****                     ptrFilterHistObj.ptrProx->proxChannel[freqChannel].iirHistoryLow = CY_LO8(temp)
 910:Generated_Source\PSoC6/CapSense_Filter.c ****                     ptrSensorObj->raw[freqChannel] = CY_LO16(temp >>CapSense_PROX_IIR_RC_SHIFT);
 911:Generated_Source\PSoC6/CapSense_Filter.c ****                 #else
 912:Generated_Source\PSoC6/CapSense_Filter.c ****                     temp =CapSense_FtIIR1stOrder((uint32)ptrSensorObj->raw[freqChannel],
 913:Generated_Source\PSoC6/CapSense_Filter.c ****                                                         (uint32)ptrFilterHistObj.ptrProx->proxChann
 914:Generated_Source\PSoC6/CapSense_Filter.c ****                                                         CapSense_PROX_IIR_RC_N,
 915:Generated_Source\PSoC6/CapSense_Filter.c ****                                                         CapSense_PROX_IIR_RC_SHIFT);
 916:Generated_Source\PSoC6/CapSense_Filter.c ****                     ptrFilterHistObj.ptrProx->proxChannel[freqChannel].iirHistory = CY_LO16(temp);
 917:Generated_Source\PSoC6/CapSense_Filter.c ****                     ptrSensorObj->raw[freqChannel] = CY_LO16(temp >>CapSense_PROX_IIR_RC_SHIFT);
 918:Generated_Source\PSoC6/CapSense_Filter.c ****                 #endif /* (CapSense_PROX_IIR_RC_TYPE == CapSense_IIR_FILTER_PERFORMANCE) */
 919:Generated_Source\PSoC6/CapSense_Filter.c ****             #endif /* (CapSense_PROX_SENSOR_EN) */
 920:Generated_Source\PSoC6/CapSense_Filter.c ****         }
 921:Generated_Source\PSoC6/CapSense_Filter.c ****     }
 922:Generated_Source\PSoC6/CapSense_Filter.c **** }
 923:Generated_Source\PSoC6/CapSense_Filter.c **** #endif /* #if (CapSense_REGULAR_RC_IIR_FILTER_EN || CapSense_PROX_RC_IIR_FILTER_EN) */
 924:Generated_Source\PSoC6/CapSense_Filter.c **** 
 925:Generated_Source\PSoC6/CapSense_Filter.c **** 
 926:Generated_Source\PSoC6/CapSense_Filter.c **** #if (CapSense_REGULAR_RC_MEDIAN_FILTER_EN || CapSense_PROX_RC_MEDIAN_FILTER_EN)
 927:Generated_Source\PSoC6/CapSense_Filter.c **** 
 928:Generated_Source\PSoC6/CapSense_Filter.c **** /*******************************************************************************
 929:Generated_Source\PSoC6/CapSense_Filter.c **** * Function Name: CapSense_InitializeMedian
 930:Generated_Source\PSoC6/CapSense_Filter.c **** ****************************************************************************//**
 931:Generated_Source\PSoC6/CapSense_Filter.c **** *
 932:Generated_Source\PSoC6/CapSense_Filter.c **** * \brief    Initializes the Median filter history.
 933:Generated_Source\PSoC6/CapSense_Filter.c **** *
 934:Generated_Source\PSoC6/CapSense_Filter.c **** * \details  Initializes the Median filter history.
 935:Generated_Source\PSoC6/CapSense_Filter.c **** *
 936:Generated_Source\PSoC6/CapSense_Filter.c **** * \param    widgetId Specifies the ID number of the widget.
 937:Generated_Source\PSoC6/CapSense_Filter.c **** * \param    sensorId Specifies the ID number of the sensor in the widget.
 938:Generated_Source\PSoC6/CapSense_Filter.c **** *
 939:Generated_Source\PSoC6/CapSense_Filter.c **** *******************************************************************************/
 940:Generated_Source\PSoC6/CapSense_Filter.c **** void CapSense_InitializeMedian(uint32 widgetId, uint32 sensorId)
 941:Generated_Source\PSoC6/CapSense_Filter.c **** {
 942:Generated_Source\PSoC6/CapSense_Filter.c ****     CapSense_FLASH_WD_STRUCT const *ptrWidget = &CapSense_dsFlash.wdgtArray[widgetId];
 943:Generated_Source\PSoC6/CapSense_Filter.c ****     CapSense_RAM_SNS_STRUCT *ptrSensor = NULL;
 944:Generated_Source\PSoC6/CapSense_Filter.c ****     CapSense_PTR_FILTER_VARIANT ptrFilterHistObj;
 945:Generated_Source\PSoC6/CapSense_Filter.c **** 
 946:Generated_Source\PSoC6/CapSense_Filter.c ****     /* Find pointer to specified sensor object */
 947:Generated_Source\PSoC6/CapSense_Filter.c ****     ptrSensor = ptrWidget->ptr2SnsRam;
 948:Generated_Source\PSoC6/CapSense_Filter.c ****     ptrSensor = &ptrSensor[sensorId];
 949:Generated_Source\PSoC6/CapSense_Filter.c **** 
 950:Generated_Source\PSoC6/CapSense_Filter.c ****     /* Find pointer to specified filter sensor object */
 951:Generated_Source\PSoC6/CapSense_Filter.c ****     ptrFilterHistObj.ptr = ptrWidget->ptr2FltrHistory;
 952:Generated_Source\PSoC6/CapSense_Filter.c **** 
 953:Generated_Source\PSoC6/CapSense_Filter.c ****     if ((CapSense_WD_TYPE_ENUM)ptrWidget->wdgtType != CapSense_WD_PROXIMITY_E)
 954:Generated_Source\PSoC6/CapSense_Filter.c ****     {
 955:Generated_Source\PSoC6/CapSense_Filter.c ****         #if (CapSense_REGULAR_SENSOR_EN)
 956:Generated_Source\PSoC6/CapSense_Filter.c ****             ptrFilterHistObj.ptrRegular = &ptrFilterHistObj.ptrRegular[sensorId];
 957:Generated_Source\PSoC6/CapSense_Filter.c ****         #endif /* (CapSense_REGULAR_SENSOR_EN) */
 958:Generated_Source\PSoC6/CapSense_Filter.c ****     }
ARM GAS  C:\Users\user\AppData\Local\Temp\cc0N1rlz.s 			page 26


 959:Generated_Source\PSoC6/CapSense_Filter.c ****     else
 960:Generated_Source\PSoC6/CapSense_Filter.c ****     {
 961:Generated_Source\PSoC6/CapSense_Filter.c ****         #if (CapSense_PROXIMITY_SENSOR_EN)
 962:Generated_Source\PSoC6/CapSense_Filter.c ****             ptrFilterHistObj.ptrProx = &ptrFilterHistObj.ptrProx[sensorId];
 963:Generated_Source\PSoC6/CapSense_Filter.c ****         #endif /* (CapSense_PROXIMITY_SENSOR_EN) */
 964:Generated_Source\PSoC6/CapSense_Filter.c ****     }
 965:Generated_Source\PSoC6/CapSense_Filter.c **** 
 966:Generated_Source\PSoC6/CapSense_Filter.c ****     CapSense_InitializeMedianInternal(ptrFilterHistObj, ptrSensor, (uint32)ptrWidget->wdgtType);
 967:Generated_Source\PSoC6/CapSense_Filter.c **** }
 968:Generated_Source\PSoC6/CapSense_Filter.c **** 
 969:Generated_Source\PSoC6/CapSense_Filter.c **** 
 970:Generated_Source\PSoC6/CapSense_Filter.c **** /*******************************************************************************
 971:Generated_Source\PSoC6/CapSense_Filter.c **** * Function Name: CapSense_RunMedian
 972:Generated_Source\PSoC6/CapSense_Filter.c **** ****************************************************************************//**
 973:Generated_Source\PSoC6/CapSense_Filter.c **** *
 974:Generated_Source\PSoC6/CapSense_Filter.c **** * \brief    Executes the Median filter algorithm on a sensor indicated by an input
 975:Generated_Source\PSoC6/CapSense_Filter.c **** *           parameter.
 976:Generated_Source\PSoC6/CapSense_Filter.c **** *
 977:Generated_Source\PSoC6/CapSense_Filter.c **** * \details  Executes the Median filter algorithm on a sensor indicated by an input
 978:Generated_Source\PSoC6/CapSense_Filter.c **** *           parameter.
 979:Generated_Source\PSoC6/CapSense_Filter.c **** *
 980:Generated_Source\PSoC6/CapSense_Filter.c **** * \param    widgetId Specifies the ID number of the widget.
 981:Generated_Source\PSoC6/CapSense_Filter.c **** * \param    sensorId Specifies the ID number of the sensor in the widget.
 982:Generated_Source\PSoC6/CapSense_Filter.c **** *
 983:Generated_Source\PSoC6/CapSense_Filter.c **** *******************************************************************************/
 984:Generated_Source\PSoC6/CapSense_Filter.c **** void CapSense_RunMedian(uint32 widgetId, uint32 sensorId)
 985:Generated_Source\PSoC6/CapSense_Filter.c **** {
 986:Generated_Source\PSoC6/CapSense_Filter.c ****     CapSense_FLASH_WD_STRUCT const *ptrWidget = &CapSense_dsFlash.wdgtArray[widgetId];
 987:Generated_Source\PSoC6/CapSense_Filter.c ****     CapSense_RAM_SNS_STRUCT *ptrSensor = NULL;
 988:Generated_Source\PSoC6/CapSense_Filter.c ****     CapSense_PTR_FILTER_VARIANT ptrFilterHistObj;
 989:Generated_Source\PSoC6/CapSense_Filter.c **** 
 990:Generated_Source\PSoC6/CapSense_Filter.c ****     /* Find pointer to specified sensor object */
 991:Generated_Source\PSoC6/CapSense_Filter.c ****     ptrSensor = ptrWidget->ptr2SnsRam;
 992:Generated_Source\PSoC6/CapSense_Filter.c ****     ptrSensor = &ptrSensor[sensorId];
 993:Generated_Source\PSoC6/CapSense_Filter.c **** 
 994:Generated_Source\PSoC6/CapSense_Filter.c ****     /* Find pointer to specified filter sensor object */
 995:Generated_Source\PSoC6/CapSense_Filter.c ****     ptrFilterHistObj.ptr = ptrWidget->ptr2FltrHistory;
 996:Generated_Source\PSoC6/CapSense_Filter.c **** 
 997:Generated_Source\PSoC6/CapSense_Filter.c ****     if ((CapSense_WD_TYPE_ENUM)ptrWidget->wdgtType != CapSense_WD_PROXIMITY_E)
 998:Generated_Source\PSoC6/CapSense_Filter.c ****     {
 999:Generated_Source\PSoC6/CapSense_Filter.c ****         #if (CapSense_REGULAR_SENSOR_EN)
1000:Generated_Source\PSoC6/CapSense_Filter.c ****             ptrFilterHistObj.ptrRegular = &ptrFilterHistObj.ptrRegular[sensorId];
1001:Generated_Source\PSoC6/CapSense_Filter.c ****         #endif /* (CapSense_REGULAR_SENSOR_EN) */
1002:Generated_Source\PSoC6/CapSense_Filter.c ****     }
1003:Generated_Source\PSoC6/CapSense_Filter.c ****     else
1004:Generated_Source\PSoC6/CapSense_Filter.c ****     {
1005:Generated_Source\PSoC6/CapSense_Filter.c ****         #if (CapSense_PROXIMITY_SENSOR_EN)
1006:Generated_Source\PSoC6/CapSense_Filter.c ****             ptrFilterHistObj.ptrProx = &ptrFilterHistObj.ptrProx[sensorId];
1007:Generated_Source\PSoC6/CapSense_Filter.c ****         #endif /* (CapSense_PROXIMITY_SENSOR_EN) */
1008:Generated_Source\PSoC6/CapSense_Filter.c ****     }
1009:Generated_Source\PSoC6/CapSense_Filter.c **** 
1010:Generated_Source\PSoC6/CapSense_Filter.c ****     CapSense_RunMedianInternal(ptrFilterHistObj, ptrSensor, (uint32)ptrWidget->wdgtType);
1011:Generated_Source\PSoC6/CapSense_Filter.c **** }
1012:Generated_Source\PSoC6/CapSense_Filter.c **** 
1013:Generated_Source\PSoC6/CapSense_Filter.c **** 
1014:Generated_Source\PSoC6/CapSense_Filter.c **** /*******************************************************************************
1015:Generated_Source\PSoC6/CapSense_Filter.c **** * Function Name: CapSense_InitializeMedianInternal
ARM GAS  C:\Users\user\AppData\Local\Temp\cc0N1rlz.s 			page 27


1016:Generated_Source\PSoC6/CapSense_Filter.c **** ****************************************************************************//**
1017:Generated_Source\PSoC6/CapSense_Filter.c **** *
1018:Generated_Source\PSoC6/CapSense_Filter.c **** * \brief    Initializes the Median filter.
1019:Generated_Source\PSoC6/CapSense_Filter.c **** *
1020:Generated_Source\PSoC6/CapSense_Filter.c **** * \details  Initializes the Median filter.
1021:Generated_Source\PSoC6/CapSense_Filter.c **** *
1022:Generated_Source\PSoC6/CapSense_Filter.c **** * \param    ptrFilterHistObj The pointer to the filter RAM object of the sensor.
1023:Generated_Source\PSoC6/CapSense_Filter.c **** * \param    ptrSensorObj     The pointer to the sensor RAM object of the sensor.
1024:Generated_Source\PSoC6/CapSense_Filter.c **** * \param    wdType           Specifies the type of a widget.
1025:Generated_Source\PSoC6/CapSense_Filter.c **** *
1026:Generated_Source\PSoC6/CapSense_Filter.c **** *******************************************************************************/
1027:Generated_Source\PSoC6/CapSense_Filter.c **** void CapSense_InitializeMedianInternal(CapSense_PTR_FILTER_VARIANT ptrFilterHistObj,
1028:Generated_Source\PSoC6/CapSense_Filter.c ****                                                CapSense_RAM_SNS_STRUCT *ptrSensorObj, uint32 wdType
1029:Generated_Source\PSoC6/CapSense_Filter.c **** {
1030:Generated_Source\PSoC6/CapSense_Filter.c ****     uint32 freqChannel;
1031:Generated_Source\PSoC6/CapSense_Filter.c **** 
1032:Generated_Source\PSoC6/CapSense_Filter.c ****     for(freqChannel = CapSense_NUM_SCAN_FREQS; freqChannel-- > 0u;)
1033:Generated_Source\PSoC6/CapSense_Filter.c ****     {
1034:Generated_Source\PSoC6/CapSense_Filter.c ****         if ((CapSense_WD_TYPE_ENUM)wdType != CapSense_WD_PROXIMITY_E)
1035:Generated_Source\PSoC6/CapSense_Filter.c ****         {
1036:Generated_Source\PSoC6/CapSense_Filter.c ****             #if (CapSense_REGULAR_SENSOR_EN && CapSense_REGULAR_RC_MEDIAN_FILTER_EN)
1037:Generated_Source\PSoC6/CapSense_Filter.c ****                 ptrFilterHistObj.ptrRegular->regularChannel[freqChannel].medHistory[0u] = ptrSensor
1038:Generated_Source\PSoC6/CapSense_Filter.c ****                 ptrFilterHistObj.ptrRegular->regularChannel[freqChannel].medHistory[1u] = ptrSensor
1039:Generated_Source\PSoC6/CapSense_Filter.c ****             #endif /* (CapSense_REGULAR_SENSOR_EN) */
1040:Generated_Source\PSoC6/CapSense_Filter.c ****         }
1041:Generated_Source\PSoC6/CapSense_Filter.c ****         else
1042:Generated_Source\PSoC6/CapSense_Filter.c ****         {
1043:Generated_Source\PSoC6/CapSense_Filter.c ****             #if (CapSense_PROXIMITY_SENSOR_EN && CapSense_PROX_RC_MEDIAN_FILTER_EN)
1044:Generated_Source\PSoC6/CapSense_Filter.c ****                 ptrFilterHistObj.ptrProx->proxChannel[freqChannel].medHistory[0u] = ptrSensorObj->r
1045:Generated_Source\PSoC6/CapSense_Filter.c ****                 ptrFilterHistObj.ptrProx->proxChannel[freqChannel].medHistory[1u] = ptrSensorObj->r
1046:Generated_Source\PSoC6/CapSense_Filter.c ****             #endif /* (CapSense_PROXIMITY_SENSOR_EN) */
1047:Generated_Source\PSoC6/CapSense_Filter.c ****         }
1048:Generated_Source\PSoC6/CapSense_Filter.c ****     }
1049:Generated_Source\PSoC6/CapSense_Filter.c **** }
1050:Generated_Source\PSoC6/CapSense_Filter.c **** 
1051:Generated_Source\PSoC6/CapSense_Filter.c **** 
1052:Generated_Source\PSoC6/CapSense_Filter.c **** /*******************************************************************************
1053:Generated_Source\PSoC6/CapSense_Filter.c **** * Function Name: CapSense_RunMedianInternal
1054:Generated_Source\PSoC6/CapSense_Filter.c **** ****************************************************************************//**
1055:Generated_Source\PSoC6/CapSense_Filter.c **** *
1056:Generated_Source\PSoC6/CapSense_Filter.c **** * \brief    Runs the Median filter.
1057:Generated_Source\PSoC6/CapSense_Filter.c **** *
1058:Generated_Source\PSoC6/CapSense_Filter.c **** * \details  Runs the Median filter.
1059:Generated_Source\PSoC6/CapSense_Filter.c **** *
1060:Generated_Source\PSoC6/CapSense_Filter.c **** * \param    ptrFilterHistObj The pointer to the filter RAM object of the sensor.
1061:Generated_Source\PSoC6/CapSense_Filter.c **** * \param    ptrSensorObj     The pointer to the sensor RAM object of the sensor.
1062:Generated_Source\PSoC6/CapSense_Filter.c **** * \param    wdType           Specifies the type of a widget.
1063:Generated_Source\PSoC6/CapSense_Filter.c **** *
1064:Generated_Source\PSoC6/CapSense_Filter.c **** *******************************************************************************/
1065:Generated_Source\PSoC6/CapSense_Filter.c **** void CapSense_RunMedianInternal(CapSense_PTR_FILTER_VARIANT ptrFilterHistObj,
1066:Generated_Source\PSoC6/CapSense_Filter.c ****                                         CapSense_RAM_SNS_STRUCT *ptrSensorObj, uint32 wdType)
1067:Generated_Source\PSoC6/CapSense_Filter.c **** {
1068:Generated_Source\PSoC6/CapSense_Filter.c ****     uint32 freqChannel;
1069:Generated_Source\PSoC6/CapSense_Filter.c **** 
1070:Generated_Source\PSoC6/CapSense_Filter.c ****     #if ((CapSense_REGULAR_SENSOR_EN && CapSense_REGULAR_RC_MEDIAN_FILTER_EN) || \
1071:Generated_Source\PSoC6/CapSense_Filter.c ****          (CapSense_PROXIMITY_SENSOR_EN && CapSense_PROX_RC_MEDIAN_FILTER_EN))
1072:Generated_Source\PSoC6/CapSense_Filter.c ****         uint32 temp;
ARM GAS  C:\Users\user\AppData\Local\Temp\cc0N1rlz.s 			page 28


1073:Generated_Source\PSoC6/CapSense_Filter.c ****     #endif
1074:Generated_Source\PSoC6/CapSense_Filter.c **** 
1075:Generated_Source\PSoC6/CapSense_Filter.c ****     for(freqChannel = CapSense_NUM_SCAN_FREQS; freqChannel-- > 0u;)
1076:Generated_Source\PSoC6/CapSense_Filter.c ****     {
1077:Generated_Source\PSoC6/CapSense_Filter.c ****         if ((CapSense_WD_TYPE_ENUM)wdType != CapSense_WD_PROXIMITY_E)
1078:Generated_Source\PSoC6/CapSense_Filter.c ****         {
1079:Generated_Source\PSoC6/CapSense_Filter.c ****             #if (CapSense_REGULAR_SENSOR_EN && CapSense_REGULAR_RC_MEDIAN_FILTER_EN)
1080:Generated_Source\PSoC6/CapSense_Filter.c ****                 temp = CapSense_FtMedian((uint32)ptrSensorObj->raw[freqChannel],\
1081:Generated_Source\PSoC6/CapSense_Filter.c ****                                                  (uint32)ptrFilterHistObj.ptrRegular->regularChanne
1082:Generated_Source\PSoC6/CapSense_Filter.c ****                                                  (uint32)ptrFilterHistObj.ptrRegular->regularChanne
1083:Generated_Source\PSoC6/CapSense_Filter.c ****                 ptrFilterHistObj.ptrRegular->regularChannel[freqChannel].medHistory[1u] = \
1084:Generated_Source\PSoC6/CapSense_Filter.c ****                 ptrFilterHistObj.ptrRegular->regularChannel[freqChannel].medHistory[0u];
1085:Generated_Source\PSoC6/CapSense_Filter.c ****                 ptrFilterHistObj.ptrRegular->regularChannel[freqChannel].medHistory[0u] = ptrSensor
1086:Generated_Source\PSoC6/CapSense_Filter.c ****                 ptrSensorObj->raw[freqChannel] = CY_LO16(temp);
1087:Generated_Source\PSoC6/CapSense_Filter.c ****             #endif /* (CapSense_REGULAR_SENSOR_EN) */
1088:Generated_Source\PSoC6/CapSense_Filter.c ****         }
1089:Generated_Source\PSoC6/CapSense_Filter.c ****         else
1090:Generated_Source\PSoC6/CapSense_Filter.c ****         {
1091:Generated_Source\PSoC6/CapSense_Filter.c ****             #if (CapSense_PROXIMITY_SENSOR_EN && CapSense_PROX_RC_MEDIAN_FILTER_EN)
1092:Generated_Source\PSoC6/CapSense_Filter.c ****                 temp = CapSense_FtMedian((uint32)ptrSensorObj->raw[freqChannel],\
1093:Generated_Source\PSoC6/CapSense_Filter.c ****                                                  (uint32)ptrFilterHistObj.ptrProx->proxChannel[freq
1094:Generated_Source\PSoC6/CapSense_Filter.c ****                                                  (uint32)ptrFilterHistObj.ptrProx->proxChannel[freq
1095:Generated_Source\PSoC6/CapSense_Filter.c ****                 ptrFilterHistObj.ptrProx->proxChannel[freqChannel].medHistory[1u] = \
1096:Generated_Source\PSoC6/CapSense_Filter.c ****                 ptrFilterHistObj.ptrProx->proxChannel[freqChannel].medHistory[0u];
1097:Generated_Source\PSoC6/CapSense_Filter.c ****                 ptrFilterHistObj.ptrProx->proxChannel[freqChannel].medHistory[0u] = ptrSensorObj->r
1098:Generated_Source\PSoC6/CapSense_Filter.c ****                 ptrSensorObj->raw[freqChannel] = CY_LO16(temp);
1099:Generated_Source\PSoC6/CapSense_Filter.c ****             #endif /* (CapSense_PROXIMITY_SENSOR_EN) */
1100:Generated_Source\PSoC6/CapSense_Filter.c ****         }
1101:Generated_Source\PSoC6/CapSense_Filter.c ****     }
1102:Generated_Source\PSoC6/CapSense_Filter.c **** }
1103:Generated_Source\PSoC6/CapSense_Filter.c **** #endif /* (CapSense_REGULAR_RC_MEDIAN_FILTER_EN || CapSense_PROX_RC_MEDIAN_FILTER_EN) */
1104:Generated_Source\PSoC6/CapSense_Filter.c **** 
1105:Generated_Source\PSoC6/CapSense_Filter.c **** 
1106:Generated_Source\PSoC6/CapSense_Filter.c **** #if (CapSense_REGULAR_RC_AVERAGE_FILTER_EN || CapSense_PROX_RC_AVERAGE_FILTER_EN)
1107:Generated_Source\PSoC6/CapSense_Filter.c **** 
1108:Generated_Source\PSoC6/CapSense_Filter.c **** /*******************************************************************************
1109:Generated_Source\PSoC6/CapSense_Filter.c **** * Function Name: CapSense_InitializeAverage
1110:Generated_Source\PSoC6/CapSense_Filter.c **** ****************************************************************************//**
1111:Generated_Source\PSoC6/CapSense_Filter.c **** *
1112:Generated_Source\PSoC6/CapSense_Filter.c **** * \brief    Initializes the average filter history.
1113:Generated_Source\PSoC6/CapSense_Filter.c **** *
1114:Generated_Source\PSoC6/CapSense_Filter.c **** * \details  Initializes the average filter history.
1115:Generated_Source\PSoC6/CapSense_Filter.c **** *
1116:Generated_Source\PSoC6/CapSense_Filter.c **** * \param    widgetId Specifies the ID number of the widget.
1117:Generated_Source\PSoC6/CapSense_Filter.c **** * \param    sensorId Specifies the ID number of the sensor in the widget.
1118:Generated_Source\PSoC6/CapSense_Filter.c **** *
1119:Generated_Source\PSoC6/CapSense_Filter.c **** *******************************************************************************/
1120:Generated_Source\PSoC6/CapSense_Filter.c **** void CapSense_InitializeAverage(uint32 widgetId, uint32 sensorId)
1121:Generated_Source\PSoC6/CapSense_Filter.c **** {
1122:Generated_Source\PSoC6/CapSense_Filter.c ****     CapSense_FLASH_WD_STRUCT const *ptrWidget = &CapSense_dsFlash.wdgtArray[widgetId];
1123:Generated_Source\PSoC6/CapSense_Filter.c ****     CapSense_RAM_SNS_STRUCT *ptrSensor = NULL;
1124:Generated_Source\PSoC6/CapSense_Filter.c ****     CapSense_PTR_FILTER_VARIANT ptrFilterHistObj;
1125:Generated_Source\PSoC6/CapSense_Filter.c **** 
1126:Generated_Source\PSoC6/CapSense_Filter.c ****     /* Find pointer to specified sensor object */
1127:Generated_Source\PSoC6/CapSense_Filter.c ****     ptrSensor = ptrWidget->ptr2SnsRam;
1128:Generated_Source\PSoC6/CapSense_Filter.c ****     ptrSensor = &ptrSensor[sensorId];
1129:Generated_Source\PSoC6/CapSense_Filter.c **** 
ARM GAS  C:\Users\user\AppData\Local\Temp\cc0N1rlz.s 			page 29


1130:Generated_Source\PSoC6/CapSense_Filter.c ****     /* Find pointer to specified filter sensor object */
1131:Generated_Source\PSoC6/CapSense_Filter.c ****     ptrFilterHistObj.ptr = ptrWidget->ptr2FltrHistory;
1132:Generated_Source\PSoC6/CapSense_Filter.c **** 
1133:Generated_Source\PSoC6/CapSense_Filter.c ****     if ((CapSense_WD_TYPE_ENUM)ptrWidget->wdgtType != CapSense_WD_PROXIMITY_E)
1134:Generated_Source\PSoC6/CapSense_Filter.c ****     {
1135:Generated_Source\PSoC6/CapSense_Filter.c ****         #if (CapSense_REGULAR_SENSOR_EN)
1136:Generated_Source\PSoC6/CapSense_Filter.c ****             ptrFilterHistObj.ptrRegular = &ptrFilterHistObj.ptrRegular[sensorId];
1137:Generated_Source\PSoC6/CapSense_Filter.c ****         #endif /* (CapSense_REGULAR_SENSOR_EN) */
1138:Generated_Source\PSoC6/CapSense_Filter.c ****     }
1139:Generated_Source\PSoC6/CapSense_Filter.c ****     else
1140:Generated_Source\PSoC6/CapSense_Filter.c ****     {
1141:Generated_Source\PSoC6/CapSense_Filter.c ****         #if (CapSense_PROXIMITY_SENSOR_EN)
1142:Generated_Source\PSoC6/CapSense_Filter.c ****             ptrFilterHistObj.ptrProx = &ptrFilterHistObj.ptrProx[sensorId];
1143:Generated_Source\PSoC6/CapSense_Filter.c ****         #endif /* (CapSense_PROXIMITY_SENSOR_EN) */
1144:Generated_Source\PSoC6/CapSense_Filter.c ****     }
1145:Generated_Source\PSoC6/CapSense_Filter.c **** 
1146:Generated_Source\PSoC6/CapSense_Filter.c ****     CapSense_InitializeAverageInternal(ptrFilterHistObj, ptrSensor, (uint32)ptrWidget->wdgtType);
1147:Generated_Source\PSoC6/CapSense_Filter.c **** }
1148:Generated_Source\PSoC6/CapSense_Filter.c **** 
1149:Generated_Source\PSoC6/CapSense_Filter.c **** 
1150:Generated_Source\PSoC6/CapSense_Filter.c **** /*******************************************************************************
1151:Generated_Source\PSoC6/CapSense_Filter.c **** * Function Name: CapSense_RunAverage
1152:Generated_Source\PSoC6/CapSense_Filter.c **** ****************************************************************************//**
1153:Generated_Source\PSoC6/CapSense_Filter.c **** *
1154:Generated_Source\PSoC6/CapSense_Filter.c **** * \brief    Executes the average filter algorithm on a sensor indicated by an input
1155:Generated_Source\PSoC6/CapSense_Filter.c **** *           parameter.
1156:Generated_Source\PSoC6/CapSense_Filter.c **** *
1157:Generated_Source\PSoC6/CapSense_Filter.c **** * \details  Executes the average filter algorithm on a sensor indicated by an input
1158:Generated_Source\PSoC6/CapSense_Filter.c **** *           parameter.
1159:Generated_Source\PSoC6/CapSense_Filter.c **** *
1160:Generated_Source\PSoC6/CapSense_Filter.c **** * \param    widgetId Specifies the ID number of the widget.
1161:Generated_Source\PSoC6/CapSense_Filter.c **** * \param    sensorId Specifies the ID number of the sensor in the widget.
1162:Generated_Source\PSoC6/CapSense_Filter.c **** *
1163:Generated_Source\PSoC6/CapSense_Filter.c **** *******************************************************************************/
1164:Generated_Source\PSoC6/CapSense_Filter.c **** void CapSense_RunAverage(uint32 widgetId, uint32 sensorId)
1165:Generated_Source\PSoC6/CapSense_Filter.c **** {
1166:Generated_Source\PSoC6/CapSense_Filter.c ****     CapSense_FLASH_WD_STRUCT const *ptrWidget = &CapSense_dsFlash.wdgtArray[widgetId];
1167:Generated_Source\PSoC6/CapSense_Filter.c ****     CapSense_RAM_SNS_STRUCT *ptrSensor = NULL;
1168:Generated_Source\PSoC6/CapSense_Filter.c ****     CapSense_PTR_FILTER_VARIANT ptrFilterHistObj;
1169:Generated_Source\PSoC6/CapSense_Filter.c **** 
1170:Generated_Source\PSoC6/CapSense_Filter.c ****     /* Find pointer to specified sensor object */
1171:Generated_Source\PSoC6/CapSense_Filter.c ****     ptrSensor = ptrWidget->ptr2SnsRam;
1172:Generated_Source\PSoC6/CapSense_Filter.c ****     ptrSensor = &ptrSensor[sensorId];
1173:Generated_Source\PSoC6/CapSense_Filter.c **** 
1174:Generated_Source\PSoC6/CapSense_Filter.c ****     /* Find pointer to specified filter sensor object */
1175:Generated_Source\PSoC6/CapSense_Filter.c ****     ptrFilterHistObj.ptr = ptrWidget->ptr2FltrHistory;
1176:Generated_Source\PSoC6/CapSense_Filter.c **** 
1177:Generated_Source\PSoC6/CapSense_Filter.c ****     if ((CapSense_WD_TYPE_ENUM)ptrWidget->wdgtType != CapSense_WD_PROXIMITY_E)
1178:Generated_Source\PSoC6/CapSense_Filter.c ****     {
1179:Generated_Source\PSoC6/CapSense_Filter.c ****         #if (CapSense_REGULAR_SENSOR_EN)
1180:Generated_Source\PSoC6/CapSense_Filter.c ****             ptrFilterHistObj.ptrRegular = &ptrFilterHistObj.ptrRegular[sensorId];
1181:Generated_Source\PSoC6/CapSense_Filter.c ****         #endif /* (CapSense_REGULAR_SENSOR_EN) */
1182:Generated_Source\PSoC6/CapSense_Filter.c ****     }
1183:Generated_Source\PSoC6/CapSense_Filter.c ****     else
1184:Generated_Source\PSoC6/CapSense_Filter.c ****     {
1185:Generated_Source\PSoC6/CapSense_Filter.c ****         #if (CapSense_PROXIMITY_SENSOR_EN)
1186:Generated_Source\PSoC6/CapSense_Filter.c ****             ptrFilterHistObj.ptrProx = &ptrFilterHistObj.ptrProx[sensorId];
ARM GAS  C:\Users\user\AppData\Local\Temp\cc0N1rlz.s 			page 30


1187:Generated_Source\PSoC6/CapSense_Filter.c ****         #endif /* (CapSense_PROXIMITY_SENSOR_EN) */
1188:Generated_Source\PSoC6/CapSense_Filter.c ****     }
1189:Generated_Source\PSoC6/CapSense_Filter.c **** 
1190:Generated_Source\PSoC6/CapSense_Filter.c ****     CapSense_RunAverageInternal(ptrFilterHistObj, ptrSensor, (uint32)ptrWidget->wdgtType);
1191:Generated_Source\PSoC6/CapSense_Filter.c **** }
1192:Generated_Source\PSoC6/CapSense_Filter.c **** 
1193:Generated_Source\PSoC6/CapSense_Filter.c **** 
1194:Generated_Source\PSoC6/CapSense_Filter.c **** /*******************************************************************************
1195:Generated_Source\PSoC6/CapSense_Filter.c **** * Function Name: CapSense_InitializeAverageInternal
1196:Generated_Source\PSoC6/CapSense_Filter.c **** ****************************************************************************//**
1197:Generated_Source\PSoC6/CapSense_Filter.c **** *
1198:Generated_Source\PSoC6/CapSense_Filter.c **** * \brief    Initializes the average filter.
1199:Generated_Source\PSoC6/CapSense_Filter.c **** *
1200:Generated_Source\PSoC6/CapSense_Filter.c **** * \details  Initializes the average filter.
1201:Generated_Source\PSoC6/CapSense_Filter.c **** *
1202:Generated_Source\PSoC6/CapSense_Filter.c **** * \param    ptrFilterHistObj The pointer to the filter RAM object of the sensor.
1203:Generated_Source\PSoC6/CapSense_Filter.c **** * \param    ptrSensorObj     The pointer to the sensor RAM object of the sensor.
1204:Generated_Source\PSoC6/CapSense_Filter.c **** * \param    wdType           Specifies the type of a widget.
1205:Generated_Source\PSoC6/CapSense_Filter.c **** *
1206:Generated_Source\PSoC6/CapSense_Filter.c **** *******************************************************************************/
1207:Generated_Source\PSoC6/CapSense_Filter.c **** void CapSense_InitializeAverageInternal(CapSense_PTR_FILTER_VARIANT ptrFilterHistObj,\
1208:Generated_Source\PSoC6/CapSense_Filter.c ****                                                   CapSense_RAM_SNS_STRUCT *ptrSensorObj, uint32 wdT
1209:Generated_Source\PSoC6/CapSense_Filter.c **** {
1210:Generated_Source\PSoC6/CapSense_Filter.c ****     uint32 freqChannel;
1211:Generated_Source\PSoC6/CapSense_Filter.c **** 
1212:Generated_Source\PSoC6/CapSense_Filter.c ****     for(freqChannel = CapSense_NUM_SCAN_FREQS; freqChannel-- > 0u;)
1213:Generated_Source\PSoC6/CapSense_Filter.c ****     {
1214:Generated_Source\PSoC6/CapSense_Filter.c ****         if ((CapSense_WD_TYPE_ENUM)wdType != CapSense_WD_PROXIMITY_E)
1215:Generated_Source\PSoC6/CapSense_Filter.c ****         {
1216:Generated_Source\PSoC6/CapSense_Filter.c ****             #if (CapSense_REGULAR_SENSOR_EN && CapSense_REGULAR_RC_AVERAGE_FILTER_EN)
1217:Generated_Source\PSoC6/CapSense_Filter.c ****                 ptrFilterHistObj.ptrRegular->regularChannel[freqChannel].avgHistory[0] = ptrSensorO
1218:Generated_Source\PSoC6/CapSense_Filter.c ****                 #if (CapSense_REGULAR_AVERAGE_LEN == CapSense_AVERAGE_FILTER_LEN_4)
1219:Generated_Source\PSoC6/CapSense_Filter.c ****                     ptrFilterHistObj.ptrRegular->regularChannel[freqChannel].avgHistory[1u] = ptrSe
1220:Generated_Source\PSoC6/CapSense_Filter.c ****                     ptrFilterHistObj.ptrRegular->regularChannel[freqChannel].avgHistory[2u] = ptrSe
1221:Generated_Source\PSoC6/CapSense_Filter.c ****                 #endif /* CapSense_REGULAR_AVERAGE_LEN == CapSense_AVERAGE_FILTER_LEN_4 */
1222:Generated_Source\PSoC6/CapSense_Filter.c ****             #endif /* (CapSense_REGULAR_SENSOR_EN) */
1223:Generated_Source\PSoC6/CapSense_Filter.c ****         }
1224:Generated_Source\PSoC6/CapSense_Filter.c ****         else
1225:Generated_Source\PSoC6/CapSense_Filter.c ****         {
1226:Generated_Source\PSoC6/CapSense_Filter.c ****             #if (CapSense_PROXIMITY_SENSOR_EN && CapSense_PROX_RC_AVERAGE_FILTER_EN)
1227:Generated_Source\PSoC6/CapSense_Filter.c ****                 ptrFilterHistObj.ptrProx->proxChannel[freqChannel].avgHistory[0] = ptrSensorObj->ra
1228:Generated_Source\PSoC6/CapSense_Filter.c ****                     #if (CapSense_PROX_AVERAGE_LEN == CapSense_AVERAGE_FILTER_LEN_4)
1229:Generated_Source\PSoC6/CapSense_Filter.c ****                         ptrFilterHistObj.ptrProx->proxChannel[freqChannel].avgHistory[1u] = ptrSens
1230:Generated_Source\PSoC6/CapSense_Filter.c ****                         ptrFilterHistObj.ptrProx->proxChannel[freqChannel].avgHistory[2u] = ptrSens
1231:Generated_Source\PSoC6/CapSense_Filter.c ****                     #endif /* CapSense_REGULAR_AVERAGE_LEN == CapSense_AVERAGE_FILTER_LEN_4 */
1232:Generated_Source\PSoC6/CapSense_Filter.c ****             #endif /* (CapSense_PROXIMITY_SENSOR_EN) */
1233:Generated_Source\PSoC6/CapSense_Filter.c ****         }
1234:Generated_Source\PSoC6/CapSense_Filter.c ****     }
1235:Generated_Source\PSoC6/CapSense_Filter.c **** }
1236:Generated_Source\PSoC6/CapSense_Filter.c **** 
1237:Generated_Source\PSoC6/CapSense_Filter.c **** 
1238:Generated_Source\PSoC6/CapSense_Filter.c **** /*******************************************************************************
1239:Generated_Source\PSoC6/CapSense_Filter.c **** * Function Name: CapSense_RunAverageInternal
1240:Generated_Source\PSoC6/CapSense_Filter.c **** ****************************************************************************//**
1241:Generated_Source\PSoC6/CapSense_Filter.c **** *
1242:Generated_Source\PSoC6/CapSense_Filter.c **** * \brief    Runs the average filter.
1243:Generated_Source\PSoC6/CapSense_Filter.c **** *
ARM GAS  C:\Users\user\AppData\Local\Temp\cc0N1rlz.s 			page 31


1244:Generated_Source\PSoC6/CapSense_Filter.c **** * \details  Runs the average filter.
1245:Generated_Source\PSoC6/CapSense_Filter.c **** *
1246:Generated_Source\PSoC6/CapSense_Filter.c **** * \param    ptrFilterHistObj The pointer to the filter RAM object of the sensor.
1247:Generated_Source\PSoC6/CapSense_Filter.c **** * \param    ptrSensorObj     The pointer to the sensor RAM object of the sensor.
1248:Generated_Source\PSoC6/CapSense_Filter.c **** * \param    wdType           Specifies the type of a widget.
1249:Generated_Source\PSoC6/CapSense_Filter.c **** *
1250:Generated_Source\PSoC6/CapSense_Filter.c **** *******************************************************************************/
1251:Generated_Source\PSoC6/CapSense_Filter.c **** void CapSense_RunAverageInternal(CapSense_PTR_FILTER_VARIANT ptrFilterHistObj,\
1252:Generated_Source\PSoC6/CapSense_Filter.c ****                                            CapSense_RAM_SNS_STRUCT *ptrSensorObj, uint32 wdType)
1253:Generated_Source\PSoC6/CapSense_Filter.c **** {
1254:Generated_Source\PSoC6/CapSense_Filter.c ****     uint32 freqChannel;
1255:Generated_Source\PSoC6/CapSense_Filter.c ****     uint32 temp;
1256:Generated_Source\PSoC6/CapSense_Filter.c **** 
1257:Generated_Source\PSoC6/CapSense_Filter.c ****     for(freqChannel = CapSense_NUM_SCAN_FREQS; freqChannel-- > 0u;)
1258:Generated_Source\PSoC6/CapSense_Filter.c ****     {
1259:Generated_Source\PSoC6/CapSense_Filter.c ****         if ((CapSense_WD_TYPE_ENUM)wdType != CapSense_WD_PROXIMITY_E)
1260:Generated_Source\PSoC6/CapSense_Filter.c ****         {
1261:Generated_Source\PSoC6/CapSense_Filter.c ****             #if (CapSense_REGULAR_SENSOR_EN && CapSense_REGULAR_RC_AVERAGE_FILTER_EN)
1262:Generated_Source\PSoC6/CapSense_Filter.c ****                 #if (CapSense_REGULAR_AVERAGE_LEN == CapSense_AVERAGE_FILTER_LEN_2)
1263:Generated_Source\PSoC6/CapSense_Filter.c ****                     temp = ((uint32)ptrSensorObj->raw[freqChannel] +
1264:Generated_Source\PSoC6/CapSense_Filter.c ****                             (uint32)ptrFilterHistObj.ptrRegular->regularChannel[freqChannel].avgHis
1265:Generated_Source\PSoC6/CapSense_Filter.c ****                     ptrFilterHistObj.ptrRegular->regularChannel[freqChannel].avgHistory[0] = ptrSen
1266:Generated_Source\PSoC6/CapSense_Filter.c ****                     ptrSensorObj->raw[freqChannel] = CY_LO16(temp);
1267:Generated_Source\PSoC6/CapSense_Filter.c ****                 #else
1268:Generated_Source\PSoC6/CapSense_Filter.c ****                     temp = ((uint32)ptrSensorObj->raw[freqChannel] +
1269:Generated_Source\PSoC6/CapSense_Filter.c ****                             (uint32)ptrFilterHistObj.ptrRegular->regularChannel[freqChannel].avgHis
1270:Generated_Source\PSoC6/CapSense_Filter.c ****                             (uint32)ptrFilterHistObj.ptrRegular->regularChannel[freqChannel].avgHis
1271:Generated_Source\PSoC6/CapSense_Filter.c ****                             (uint32)ptrFilterHistObj.ptrRegular->regularChannel[freqChannel].avgHis
1272:Generated_Source\PSoC6/CapSense_Filter.c **** 
1273:Generated_Source\PSoC6/CapSense_Filter.c ****                     ptrFilterHistObj.ptrRegular->regularChannel[freqChannel].avgHistory[2u] =
1274:Generated_Source\PSoC6/CapSense_Filter.c ****                     ptrFilterHistObj.ptrRegular->regularChannel[freqChannel].avgHistory[1u];
1275:Generated_Source\PSoC6/CapSense_Filter.c ****                     ptrFilterHistObj.ptrRegular->regularChannel[freqChannel].avgHistory[1u] =
1276:Generated_Source\PSoC6/CapSense_Filter.c ****                     ptrFilterHistObj.ptrRegular->regularChannel[freqChannel].avgHistory[0];
1277:Generated_Source\PSoC6/CapSense_Filter.c ****                     ptrFilterHistObj.ptrRegular->regularChannel[freqChannel].avgHistory[0] = ptrSen
1278:Generated_Source\PSoC6/CapSense_Filter.c ****                     ptrSensorObj->raw[freqChannel] = CY_LO16(temp);
1279:Generated_Source\PSoC6/CapSense_Filter.c ****                 #endif /* CapSense_REGULAR_AVERAGE_LEN == CapSense_AVERAGE_FILTER_LEN_4 */
1280:Generated_Source\PSoC6/CapSense_Filter.c ****             #endif /* (CapSense_REGULAR_SENSOR_EN) */
1281:Generated_Source\PSoC6/CapSense_Filter.c ****         }
1282:Generated_Source\PSoC6/CapSense_Filter.c ****         else
1283:Generated_Source\PSoC6/CapSense_Filter.c ****         {
1284:Generated_Source\PSoC6/CapSense_Filter.c ****             #if (CapSense_PROXIMITY_SENSOR_EN && CapSense_PROX_RC_AVERAGE_FILTER_EN)
1285:Generated_Source\PSoC6/CapSense_Filter.c ****                 #if (CapSense_PROX_AVERAGE_LEN == CapSense_AVERAGE_FILTER_LEN_2)
1286:Generated_Source\PSoC6/CapSense_Filter.c ****                     temp = ((uint32)ptrSensorObj->raw[freqChannel] +
1287:Generated_Source\PSoC6/CapSense_Filter.c ****                             (uint32)ptrFilterHistObj.ptrProx->proxChannel[freqChannel].avgHistory[0
1288:Generated_Source\PSoC6/CapSense_Filter.c ****                     ptrFilterHistObj.ptrProx->proxChannel[freqChannel].avgHistory[0] = ptrSensorObj
1289:Generated_Source\PSoC6/CapSense_Filter.c ****                     ptrSensorObj->raw[freqChannel] = CY_LO16(temp);
1290:Generated_Source\PSoC6/CapSense_Filter.c ****                 #else
1291:Generated_Source\PSoC6/CapSense_Filter.c ****                     temp = ((uint32)ptrSensorObj->raw[freqChannel] +
1292:Generated_Source\PSoC6/CapSense_Filter.c ****                             (uint32)ptrFilterHistObj.ptrProx->proxChannel[freqChannel].avgHistory[0
1293:Generated_Source\PSoC6/CapSense_Filter.c ****                             (uint32)ptrFilterHistObj.ptrProx->proxChannel[freqChannel].avgHistory[1
1294:Generated_Source\PSoC6/CapSense_Filter.c ****                             (uint32)ptrFilterHistObj.ptrProx->proxChannel[freqChannel].avgHistory[2
1295:Generated_Source\PSoC6/CapSense_Filter.c **** 
1296:Generated_Source\PSoC6/CapSense_Filter.c ****                     ptrFilterHistObj.ptrProx->proxChannel[freqChannel].avgHistory[2u] =
1297:Generated_Source\PSoC6/CapSense_Filter.c ****                     ptrFilterHistObj.ptrProx->proxChannel[freqChannel].avgHistory[1u];
1298:Generated_Source\PSoC6/CapSense_Filter.c ****                     ptrFilterHistObj.ptrProx->proxChannel[freqChannel].avgHistory[1u] =
1299:Generated_Source\PSoC6/CapSense_Filter.c ****                     ptrFilterHistObj.ptrProx->proxChannel[freqChannel].avgHistory[0];
1300:Generated_Source\PSoC6/CapSense_Filter.c ****                     ptrFilterHistObj.ptrProx->proxChannel[freqChannel].avgHistory[0] = ptrSensorObj
ARM GAS  C:\Users\user\AppData\Local\Temp\cc0N1rlz.s 			page 32


1301:Generated_Source\PSoC6/CapSense_Filter.c ****                     ptrSensorObj->raw[freqChannel] = CY_LO16(temp);
1302:Generated_Source\PSoC6/CapSense_Filter.c ****                 #endif /* CapSense_PROX_AVERAGE_LEN == CapSense_AVERAGE_FILTER_LEN_4 */
1303:Generated_Source\PSoC6/CapSense_Filter.c ****             #endif /* (CapSense_PROXIMITY_SENSOR_EN) */
1304:Generated_Source\PSoC6/CapSense_Filter.c ****         }
1305:Generated_Source\PSoC6/CapSense_Filter.c ****     }
1306:Generated_Source\PSoC6/CapSense_Filter.c **** }
1307:Generated_Source\PSoC6/CapSense_Filter.c **** #endif /* (CapSense_REGULAR_RC_AVERAGE_FILTER_EN || CapSense_PROX_RC_AVERAGE_FILTER_EN) */
1308:Generated_Source\PSoC6/CapSense_Filter.c **** 
1309:Generated_Source\PSoC6/CapSense_Filter.c **** #if (CapSense_ENABLE == CapSense_ALP_FILTER_EN)
1310:Generated_Source\PSoC6/CapSense_Filter.c **** /*******************************************************************************
1311:Generated_Source\PSoC6/CapSense_Filter.c **** * Function Name: CapSense_InitializeALP
1312:Generated_Source\PSoC6/CapSense_Filter.c **** ****************************************************************************//**
1313:Generated_Source\PSoC6/CapSense_Filter.c **** *
1314:Generated_Source\PSoC6/CapSense_Filter.c **** * \brief    Initializes the ALP filter history.
1315:Generated_Source\PSoC6/CapSense_Filter.c **** *
1316:Generated_Source\PSoC6/CapSense_Filter.c **** * \details  Initializes the ALP filter history.
1317:Generated_Source\PSoC6/CapSense_Filter.c **** *
1318:Generated_Source\PSoC6/CapSense_Filter.c **** * \param    widgetId Specifies the ID number of the widget.
1319:Generated_Source\PSoC6/CapSense_Filter.c **** * \param    sensorId Specifies the ID number of the sensor in the widget.
1320:Generated_Source\PSoC6/CapSense_Filter.c **** *
1321:Generated_Source\PSoC6/CapSense_Filter.c **** *******************************************************************************/
1322:Generated_Source\PSoC6/CapSense_Filter.c **** void CapSense_InitializeALP(uint32 widgetId, uint32 sensorId)
1323:Generated_Source\PSoC6/CapSense_Filter.c **** {
1324:Generated_Source\PSoC6/CapSense_Filter.c ****     CapSense_FLASH_WD_STRUCT const *ptrWidget = &CapSense_dsFlash.wdgtArray[widgetId];
1325:Generated_Source\PSoC6/CapSense_Filter.c ****     CapSense_RAM_SNS_STRUCT *ptrSensor = NULL;
1326:Generated_Source\PSoC6/CapSense_Filter.c ****     CapSense_PTR_FILTER_VARIANT ptrFilterHistObj;
1327:Generated_Source\PSoC6/CapSense_Filter.c **** 
1328:Generated_Source\PSoC6/CapSense_Filter.c ****     /* Find pointer to specified sensor object */
1329:Generated_Source\PSoC6/CapSense_Filter.c ****     ptrSensor = ptrWidget->ptr2SnsRam;
1330:Generated_Source\PSoC6/CapSense_Filter.c ****     ptrSensor = &ptrSensor[sensorId];
1331:Generated_Source\PSoC6/CapSense_Filter.c **** 
1332:Generated_Source\PSoC6/CapSense_Filter.c ****     /* Find pointer to specified filter sensor object */
1333:Generated_Source\PSoC6/CapSense_Filter.c ****     ptrFilterHistObj.ptr = ptrWidget->ptr2FltrHistory;
1334:Generated_Source\PSoC6/CapSense_Filter.c ****     ptrFilterHistObj.ptrAlp = &ptrFilterHistObj.ptrAlp[sensorId];
1335:Generated_Source\PSoC6/CapSense_Filter.c ****     CapSense_InitializeALPInternal(ptrFilterHistObj, ptrSensor, (uint32)ptrWidget->wdgtType);
1336:Generated_Source\PSoC6/CapSense_Filter.c **** }
1337:Generated_Source\PSoC6/CapSense_Filter.c **** 
1338:Generated_Source\PSoC6/CapSense_Filter.c **** 
1339:Generated_Source\PSoC6/CapSense_Filter.c **** /*******************************************************************************
1340:Generated_Source\PSoC6/CapSense_Filter.c **** * Function Name: CapSense_RunALP
1341:Generated_Source\PSoC6/CapSense_Filter.c **** ****************************************************************************//**
1342:Generated_Source\PSoC6/CapSense_Filter.c **** *
1343:Generated_Source\PSoC6/CapSense_Filter.c **** * \brief    Executes the ALP filter algorithm on a sensor indicated by an input
1344:Generated_Source\PSoC6/CapSense_Filter.c **** *           parameter.
1345:Generated_Source\PSoC6/CapSense_Filter.c **** *
1346:Generated_Source\PSoC6/CapSense_Filter.c **** * \details  Executes the ALP filter algorithm on a sensor indicated by an input
1347:Generated_Source\PSoC6/CapSense_Filter.c **** *           parameter.
1348:Generated_Source\PSoC6/CapSense_Filter.c **** *
1349:Generated_Source\PSoC6/CapSense_Filter.c **** * \param    widgetId Specifies the ID number of the widget.
1350:Generated_Source\PSoC6/CapSense_Filter.c **** * \param    sensorId Specifies the ID number of the sensor in the widget.
1351:Generated_Source\PSoC6/CapSense_Filter.c **** *
1352:Generated_Source\PSoC6/CapSense_Filter.c **** *******************************************************************************/
1353:Generated_Source\PSoC6/CapSense_Filter.c **** void CapSense_RunALP(uint32 widgetId, uint32 sensorId)
1354:Generated_Source\PSoC6/CapSense_Filter.c **** {
1355:Generated_Source\PSoC6/CapSense_Filter.c ****     CapSense_FLASH_WD_STRUCT const *ptrWidget = &CapSense_dsFlash.wdgtArray[widgetId];
1356:Generated_Source\PSoC6/CapSense_Filter.c ****     CapSense_RAM_SNS_STRUCT *ptrSensor = NULL;
1357:Generated_Source\PSoC6/CapSense_Filter.c ****     CapSense_PTR_FILTER_VARIANT ptrFilterHistObj;
ARM GAS  C:\Users\user\AppData\Local\Temp\cc0N1rlz.s 			page 33


1358:Generated_Source\PSoC6/CapSense_Filter.c ****     ALP_FLTR_CONFIG_STRUCT alpFilterConfig;
1359:Generated_Source\PSoC6/CapSense_Filter.c ****     ALP_FLTR_CONFIG_STRUCT *ptrAlpFilterConfig = &alpFilterConfig;
1360:Generated_Source\PSoC6/CapSense_Filter.c ****     CapSense_RAM_WD_BASE_STRUCT *ptrRamWidget = ptrWidget->ptr2WdgtRam;
1361:Generated_Source\PSoC6/CapSense_Filter.c **** 
1362:Generated_Source\PSoC6/CapSense_Filter.c ****     /* Find pointer to specified sensor object */
1363:Generated_Source\PSoC6/CapSense_Filter.c ****     ptrSensor = ptrWidget->ptr2SnsRam;
1364:Generated_Source\PSoC6/CapSense_Filter.c ****     ptrSensor = &ptrSensor[sensorId];
1365:Generated_Source\PSoC6/CapSense_Filter.c **** 
1366:Generated_Source\PSoC6/CapSense_Filter.c ****     ptrAlpFilterConfig->configParam0 = ptrRamWidget->alpOnTh;
1367:Generated_Source\PSoC6/CapSense_Filter.c ****     ptrAlpFilterConfig->configParam1 = ptrRamWidget->alpOffTh;
1368:Generated_Source\PSoC6/CapSense_Filter.c ****     ptrAlpFilterConfig->configParam2 = ptrRamWidget->fingerTh;
1369:Generated_Source\PSoC6/CapSense_Filter.c ****     ptrAlpFilterConfig->configParam3 = ptrRamWidget->noiseTh;
1370:Generated_Source\PSoC6/CapSense_Filter.c ****     ptrAlpFilterConfig->configParam4 = ptrRamWidget->hysteresis;
1371:Generated_Source\PSoC6/CapSense_Filter.c **** 
1372:Generated_Source\PSoC6/CapSense_Filter.c ****     /* Find pointer to specified filter sensor object */
1373:Generated_Source\PSoC6/CapSense_Filter.c ****     ptrFilterHistObj.ptr = ptrWidget->ptr2FltrHistory;
1374:Generated_Source\PSoC6/CapSense_Filter.c ****     ptrFilterHistObj.ptrAlp = &ptrFilterHistObj.ptrAlp[sensorId];
1375:Generated_Source\PSoC6/CapSense_Filter.c **** 
1376:Generated_Source\PSoC6/CapSense_Filter.c ****     if ((CapSense_WD_TYPE_ENUM)ptrWidget->wdgtType != CapSense_WD_PROXIMITY_E)
1377:Generated_Source\PSoC6/CapSense_Filter.c ****     {
1378:Generated_Source\PSoC6/CapSense_Filter.c ****         #if (CapSense_REGULAR_SENSOR_EN)
1379:Generated_Source\PSoC6/CapSense_Filter.c ****             ptrAlpFilterConfig->configParam5 = CapSense_REGULAR_RC_ALP_FILTER_COEFF;
1380:Generated_Source\PSoC6/CapSense_Filter.c ****         #endif /* (CapSense_REGULAR_SENSOR_EN) */
1381:Generated_Source\PSoC6/CapSense_Filter.c ****     }
1382:Generated_Source\PSoC6/CapSense_Filter.c ****     else
1383:Generated_Source\PSoC6/CapSense_Filter.c ****     {
1384:Generated_Source\PSoC6/CapSense_Filter.c ****         #if (CapSense_PROXIMITY_SENSOR_EN)
1385:Generated_Source\PSoC6/CapSense_Filter.c ****             ptrAlpFilterConfig->configParam5 = CapSense_PROX_RC_ALP_FILTER_COEFF;
1386:Generated_Source\PSoC6/CapSense_Filter.c ****         #endif /* (CapSense_PROXIMITY_SENSOR_EN) */
1387:Generated_Source\PSoC6/CapSense_Filter.c ****     }
1388:Generated_Source\PSoC6/CapSense_Filter.c ****     CapSense_RunALPInternal(ptrFilterHistObj, ptrAlpFilterConfig, ptrSensor, (uint32)ptrWidget->wdg
1389:Generated_Source\PSoC6/CapSense_Filter.c **** }
1390:Generated_Source\PSoC6/CapSense_Filter.c **** 
1391:Generated_Source\PSoC6/CapSense_Filter.c **** 
1392:Generated_Source\PSoC6/CapSense_Filter.c **** /*******************************************************************************
1393:Generated_Source\PSoC6/CapSense_Filter.c **** * Function Name: CapSense_InitializeALPInternal
1394:Generated_Source\PSoC6/CapSense_Filter.c **** ****************************************************************************//**
1395:Generated_Source\PSoC6/CapSense_Filter.c **** *
1396:Generated_Source\PSoC6/CapSense_Filter.c **** * \brief    Initializes the ALP filter.
1397:Generated_Source\PSoC6/CapSense_Filter.c **** *
1398:Generated_Source\PSoC6/CapSense_Filter.c **** * \details  Initializes the ALP filter.
1399:Generated_Source\PSoC6/CapSense_Filter.c **** *
1400:Generated_Source\PSoC6/CapSense_Filter.c **** * \param    ptrFilterHistObj The pointer to the filter RAM object of the sensor.
1401:Generated_Source\PSoC6/CapSense_Filter.c **** * \param    ptrSensorObj     The pointer to the sensor RAM object of the sensor.
1402:Generated_Source\PSoC6/CapSense_Filter.c **** * \param    wdType           Specifies the type of a widget.
1403:Generated_Source\PSoC6/CapSense_Filter.c **** *
1404:Generated_Source\PSoC6/CapSense_Filter.c **** *******************************************************************************/
1405:Generated_Source\PSoC6/CapSense_Filter.c **** void CapSense_InitializeALPInternal(CapSense_PTR_FILTER_VARIANT ptrFilterHistObj,
1406:Generated_Source\PSoC6/CapSense_Filter.c ****                                             CapSense_RAM_SNS_STRUCT *ptrSensorObj,
1407:Generated_Source\PSoC6/CapSense_Filter.c ****                                             uint32 wdType)
1408:Generated_Source\PSoC6/CapSense_Filter.c **** {
1409:Generated_Source\PSoC6/CapSense_Filter.c ****     uint32 freqChannel;
1410:Generated_Source\PSoC6/CapSense_Filter.c **** 
1411:Generated_Source\PSoC6/CapSense_Filter.c ****     for(freqChannel = CapSense_NUM_SCAN_FREQS; freqChannel-- > 0u;)
1412:Generated_Source\PSoC6/CapSense_Filter.c ****     {
1413:Generated_Source\PSoC6/CapSense_Filter.c ****         if ((CapSense_WD_TYPE_ENUM)wdType != CapSense_WD_PROXIMITY_E)
1414:Generated_Source\PSoC6/CapSense_Filter.c ****         {
ARM GAS  C:\Users\user\AppData\Local\Temp\cc0N1rlz.s 			page 34


1415:Generated_Source\PSoC6/CapSense_Filter.c ****             #if (CapSense_REGULAR_SENSOR_EN && CapSense_REGULAR_RC_ALP_FILTER_EN)
1416:Generated_Source\PSoC6/CapSense_Filter.c ****                 ALP_Initialize(&ptrFilterHistObj.ptrAlp->channel[freqChannel], &ptrSensorObj->raw[f
1417:Generated_Source\PSoC6/CapSense_Filter.c ****             #endif
1418:Generated_Source\PSoC6/CapSense_Filter.c ****         }
1419:Generated_Source\PSoC6/CapSense_Filter.c ****         else
1420:Generated_Source\PSoC6/CapSense_Filter.c ****         {
1421:Generated_Source\PSoC6/CapSense_Filter.c ****             #if (CapSense_PROXIMITY_SENSOR_EN && CapSense_PROX_RC_ALP_FILTER_EN)
1422:Generated_Source\PSoC6/CapSense_Filter.c ****                 ALP_Initialize(&ptrFilterHistObj.ptrAlp->channel[freqChannel], &ptrSensorObj->raw[f
1423:Generated_Source\PSoC6/CapSense_Filter.c ****             #endif
1424:Generated_Source\PSoC6/CapSense_Filter.c ****         }
1425:Generated_Source\PSoC6/CapSense_Filter.c ****     }
1426:Generated_Source\PSoC6/CapSense_Filter.c **** }
1427:Generated_Source\PSoC6/CapSense_Filter.c **** 
1428:Generated_Source\PSoC6/CapSense_Filter.c **** /*******************************************************************************
1429:Generated_Source\PSoC6/CapSense_Filter.c **** * Function Name: CapSense_ConfigRunALPInternal
1430:Generated_Source\PSoC6/CapSense_Filter.c **** ****************************************************************************//**
1431:Generated_Source\PSoC6/CapSense_Filter.c **** *
1432:Generated_Source\PSoC6/CapSense_Filter.c **** * \brief    Prepares ALP configuration structure and runs the filter.
1433:Generated_Source\PSoC6/CapSense_Filter.c **** *
1434:Generated_Source\PSoC6/CapSense_Filter.c **** * \details  Prepares ALP configuration structure and runs the filter.
1435:Generated_Source\PSoC6/CapSense_Filter.c **** *
1436:Generated_Source\PSoC6/CapSense_Filter.c **** * \param    ptrFilterHistObj The pointer to the filter RAM object of the sensor.
1437:Generated_Source\PSoC6/CapSense_Filter.c **** * \param    ptrRamWdgt       The pointer to the RAM widget object.
1438:Generated_Source\PSoC6/CapSense_Filter.c **** * \param    ptrSensorObj     The pointer to the sensor RAM object of the sensor.
1439:Generated_Source\PSoC6/CapSense_Filter.c **** * \param    wdType           Specifies the type of a widget.
1440:Generated_Source\PSoC6/CapSense_Filter.c **** *
1441:Generated_Source\PSoC6/CapSense_Filter.c **** *******************************************************************************/
1442:Generated_Source\PSoC6/CapSense_Filter.c **** void CapSense_ConfigRunALPInternal(CapSense_PTR_FILTER_VARIANT ptrFilterHistObj,
1443:Generated_Source\PSoC6/CapSense_Filter.c ****                                     CapSense_RAM_WD_BASE_STRUCT *ptrRamWdgt,
1444:Generated_Source\PSoC6/CapSense_Filter.c ****                                     CapSense_RAM_SNS_STRUCT *ptrSensorObj,
1445:Generated_Source\PSoC6/CapSense_Filter.c ****                                     uint32 wdType)
1446:Generated_Source\PSoC6/CapSense_Filter.c **** {
1447:Generated_Source\PSoC6/CapSense_Filter.c ****     ALP_FLTR_CONFIG_STRUCT alpFilterConfig;
1448:Generated_Source\PSoC6/CapSense_Filter.c **** 
1449:Generated_Source\PSoC6/CapSense_Filter.c ****     alpFilterConfig.configParam0 = ptrRamWdgt->alpOnTh;
1450:Generated_Source\PSoC6/CapSense_Filter.c ****     alpFilterConfig.configParam1 = ptrRamWdgt->alpOffTh;
1451:Generated_Source\PSoC6/CapSense_Filter.c ****     alpFilterConfig.configParam2 = ptrRamWdgt->fingerTh;
1452:Generated_Source\PSoC6/CapSense_Filter.c ****     alpFilterConfig.configParam3 = ptrRamWdgt->noiseTh;
1453:Generated_Source\PSoC6/CapSense_Filter.c ****     alpFilterConfig.configParam4 = ptrRamWdgt->hysteresis;
1454:Generated_Source\PSoC6/CapSense_Filter.c **** 
1455:Generated_Source\PSoC6/CapSense_Filter.c ****     CapSense_RunALPInternal(ptrFilterHistObj, &alpFilterConfig, ptrSensorObj, wdType);
1456:Generated_Source\PSoC6/CapSense_Filter.c **** }
1457:Generated_Source\PSoC6/CapSense_Filter.c **** 
1458:Generated_Source\PSoC6/CapSense_Filter.c **** /*******************************************************************************
1459:Generated_Source\PSoC6/CapSense_Filter.c **** * Function Name: CapSense_RunALPInternal
1460:Generated_Source\PSoC6/CapSense_Filter.c **** ****************************************************************************//**
1461:Generated_Source\PSoC6/CapSense_Filter.c **** *
1462:Generated_Source\PSoC6/CapSense_Filter.c **** * \brief    Runs the ALP filter.
1463:Generated_Source\PSoC6/CapSense_Filter.c **** *
1464:Generated_Source\PSoC6/CapSense_Filter.c **** * \details  Runs the ALP filter.
1465:Generated_Source\PSoC6/CapSense_Filter.c **** *
1466:Generated_Source\PSoC6/CapSense_Filter.c **** * \param    ptrFilterHistObj The pointer to the filter RAM object of the sensor.
1467:Generated_Source\PSoC6/CapSense_Filter.c **** * \param    ptrAlpFilterConfig The pointer to the filter configuration object of the sensor.
1468:Generated_Source\PSoC6/CapSense_Filter.c **** * \param    ptrSensorObj     The pointer to the sensor RAM object of the sensor.
1469:Generated_Source\PSoC6/CapSense_Filter.c **** * \param    wdType           Specifies the type of a widget.
1470:Generated_Source\PSoC6/CapSense_Filter.c **** *
1471:Generated_Source\PSoC6/CapSense_Filter.c **** *******************************************************************************/
ARM GAS  C:\Users\user\AppData\Local\Temp\cc0N1rlz.s 			page 35


1472:Generated_Source\PSoC6/CapSense_Filter.c **** void CapSense_RunALPInternal(CapSense_PTR_FILTER_VARIANT ptrFilterHistObj,
1473:Generated_Source\PSoC6/CapSense_Filter.c ****                                     ALP_FLTR_CONFIG_STRUCT *ptrAlpFilterConfig,
1474:Generated_Source\PSoC6/CapSense_Filter.c ****                                     CapSense_RAM_SNS_STRUCT *ptrSensorObj,
1475:Generated_Source\PSoC6/CapSense_Filter.c ****                                     uint32 wdType)
1476:Generated_Source\PSoC6/CapSense_Filter.c **** {
1477:Generated_Source\PSoC6/CapSense_Filter.c ****     uint32 freqChannel;
1478:Generated_Source\PSoC6/CapSense_Filter.c **** 
1479:Generated_Source\PSoC6/CapSense_Filter.c ****     for(freqChannel = CapSense_NUM_SCAN_FREQS; freqChannel-- > 0u;)
1480:Generated_Source\PSoC6/CapSense_Filter.c ****     {
1481:Generated_Source\PSoC6/CapSense_Filter.c ****         if ((CapSense_WD_TYPE_ENUM)wdType != CapSense_WD_PROXIMITY_E)
1482:Generated_Source\PSoC6/CapSense_Filter.c ****         {
1483:Generated_Source\PSoC6/CapSense_Filter.c ****             #if (CapSense_REGULAR_SENSOR_EN && CapSense_REGULAR_RC_ALP_FILTER_EN)
1484:Generated_Source\PSoC6/CapSense_Filter.c ****                 ptrAlpFilterConfig->configParam5 = CapSense_REGULAR_RC_ALP_FILTER_COEFF;
1485:Generated_Source\PSoC6/CapSense_Filter.c ****                 ALP_Run(&ptrFilterHistObj.ptrAlp->channel[freqChannel], ptrAlpFilterConfig, &ptrSen
1486:Generated_Source\PSoC6/CapSense_Filter.c ****             #endif
1487:Generated_Source\PSoC6/CapSense_Filter.c ****         }
1488:Generated_Source\PSoC6/CapSense_Filter.c ****         else
1489:Generated_Source\PSoC6/CapSense_Filter.c ****         {
1490:Generated_Source\PSoC6/CapSense_Filter.c ****             #if (CapSense_PROXIMITY_SENSOR_EN && CapSense_PROX_RC_ALP_FILTER_EN)
1491:Generated_Source\PSoC6/CapSense_Filter.c ****                 ptrAlpFilterConfig->configParam5 = CapSense_PROX_RC_ALP_FILTER_COEFF;
1492:Generated_Source\PSoC6/CapSense_Filter.c ****                 ALP_Run(&ptrFilterHistObj.ptrAlp->channel[freqChannel], ptrAlpFilterConfig, &ptrSen
1493:Generated_Source\PSoC6/CapSense_Filter.c ****             #endif
1494:Generated_Source\PSoC6/CapSense_Filter.c ****         }
1495:Generated_Source\PSoC6/CapSense_Filter.c ****     }
1496:Generated_Source\PSoC6/CapSense_Filter.c **** }
1497:Generated_Source\PSoC6/CapSense_Filter.c **** #endif /* (CapSense_ENABLE == CapSense_ALP_FILTER_EN) */
1498:Generated_Source\PSoC6/CapSense_Filter.c **** 
1499:Generated_Source\PSoC6/CapSense_Filter.c **** #if (CapSense_ENABLE == CapSense_RC_FILTER_EN)
1500:Generated_Source\PSoC6/CapSense_Filter.c **** /*******************************************************************************
1501:Generated_Source\PSoC6/CapSense_Filter.c **** * Function Name: CapSense_FtRunEnabledFilters
1502:Generated_Source\PSoC6/CapSense_Filter.c **** ****************************************************************************//**
1503:Generated_Source\PSoC6/CapSense_Filter.c **** *
1504:Generated_Source\PSoC6/CapSense_Filter.c **** * \brief    Runs all enabled filters.
1505:Generated_Source\PSoC6/CapSense_Filter.c **** *
1506:Generated_Source\PSoC6/CapSense_Filter.c **** * \details  Runs all enabled filters.
1507:Generated_Source\PSoC6/CapSense_Filter.c **** *
1508:Generated_Source\PSoC6/CapSense_Filter.c **** * \param    widgetId Specifies the ID number of a widget to update the IIR filter history.*
1509:Generated_Source\PSoC6/CapSense_Filter.c **** * \param    sensorId Specifies the ID number of a sensor in the widget to update the IIR
1510:Generated_Source\PSoC6/CapSense_Filter.c **** *           filter history.
1511:Generated_Source\PSoC6/CapSense_Filter.c **** *
1512:Generated_Source\PSoC6/CapSense_Filter.c **** *******************************************************************************/
1513:Generated_Source\PSoC6/CapSense_Filter.c **** void CapSense_FtRunEnabledFilters(uint32 widgetId, uint32 sensorId)
1514:Generated_Source\PSoC6/CapSense_Filter.c **** {
1515:Generated_Source\PSoC6/CapSense_Filter.c ****     CapSense_FLASH_WD_STRUCT const *ptrWidget = &CapSense_dsFlash.wdgtArray[widgetId];
1516:Generated_Source\PSoC6/CapSense_Filter.c ****     CapSense_RAM_SNS_STRUCT *ptrSensor = NULL;
1517:Generated_Source\PSoC6/CapSense_Filter.c ****     CapSense_PTR_FILTER_VARIANT ptrFilterHistObj;
1518:Generated_Source\PSoC6/CapSense_Filter.c **** 
1519:Generated_Source\PSoC6/CapSense_Filter.c ****     /* Find pointer to specified sensor object */
1520:Generated_Source\PSoC6/CapSense_Filter.c ****     ptrSensor = ptrWidget->ptr2SnsRam;
1521:Generated_Source\PSoC6/CapSense_Filter.c ****     ptrSensor = &ptrSensor[sensorId];
1522:Generated_Source\PSoC6/CapSense_Filter.c **** 
1523:Generated_Source\PSoC6/CapSense_Filter.c ****     /* Find pointer to specified filter sensor object */
1524:Generated_Source\PSoC6/CapSense_Filter.c ****     ptrFilterHistObj.ptr = ptrWidget->ptr2FltrHistory;
1525:Generated_Source\PSoC6/CapSense_Filter.c **** 
1526:Generated_Source\PSoC6/CapSense_Filter.c ****     if ((CapSense_WD_TYPE_ENUM)ptrWidget->wdgtType != CapSense_WD_PROXIMITY_E)
1527:Generated_Source\PSoC6/CapSense_Filter.c ****     {
1528:Generated_Source\PSoC6/CapSense_Filter.c ****         #if (0u != CapSense_REGULAR_RC_ALP_FILTER_EN)
ARM GAS  C:\Users\user\AppData\Local\Temp\cc0N1rlz.s 			page 36


1529:Generated_Source\PSoC6/CapSense_Filter.c ****             ptrFilterHistObj.ptr = &ptrFilterHistObj.ptrAlp[sensorId];
1530:Generated_Source\PSoC6/CapSense_Filter.c ****         #elif (0u != CapSense_REGULAR_RC_FILTER_EN)
1531:Generated_Source\PSoC6/CapSense_Filter.c ****             ptrFilterHistObj.ptr = &ptrFilterHistObj.ptrRegular[sensorId];
1532:Generated_Source\PSoC6/CapSense_Filter.c ****         #endif
1533:Generated_Source\PSoC6/CapSense_Filter.c ****     }
1534:Generated_Source\PSoC6/CapSense_Filter.c ****     else
1535:Generated_Source\PSoC6/CapSense_Filter.c ****     {
1536:Generated_Source\PSoC6/CapSense_Filter.c ****         #if (0u != CapSense_PROX_RC_ALP_FILTER_EN)
1537:Generated_Source\PSoC6/CapSense_Filter.c ****             ptrFilterHistObj.ptr = &ptrFilterHistObj.ptrAlp[sensorId];
1538:Generated_Source\PSoC6/CapSense_Filter.c ****         #elif (0u != CapSense_PROX_RC_FILTER_EN)
1539:Generated_Source\PSoC6/CapSense_Filter.c ****             ptrFilterHistObj.ptr = &ptrFilterHistObj.ptrProx[sensorId];
1540:Generated_Source\PSoC6/CapSense_Filter.c ****         #endif
1541:Generated_Source\PSoC6/CapSense_Filter.c ****     }
1542:Generated_Source\PSoC6/CapSense_Filter.c **** 
1543:Generated_Source\PSoC6/CapSense_Filter.c ****     CapSense_FtRunEnabledFiltersInternal(ptrFilterHistObj, ptrSensor, (uint32)ptrWidget->wdgtType);
1544:Generated_Source\PSoC6/CapSense_Filter.c ****     #if (CapSense_ALP_FILTER_EN)
1545:Generated_Source\PSoC6/CapSense_Filter.c ****         CapSense_ConfigRunALPInternal(ptrFilterHistObj, ptrWidget->ptr2WdgtRam, ptrSensor, (uint32)
1546:Generated_Source\PSoC6/CapSense_Filter.c ****     #endif
1547:Generated_Source\PSoC6/CapSense_Filter.c **** }
1548:Generated_Source\PSoC6/CapSense_Filter.c **** 
1549:Generated_Source\PSoC6/CapSense_Filter.c **** 
1550:Generated_Source\PSoC6/CapSense_Filter.c **** /*******************************************************************************
1551:Generated_Source\PSoC6/CapSense_Filter.c **** * Function Name: CapSense_FtRunEnabledFiltersInternal
1552:Generated_Source\PSoC6/CapSense_Filter.c **** ****************************************************************************//**
1553:Generated_Source\PSoC6/CapSense_Filter.c **** *
1554:Generated_Source\PSoC6/CapSense_Filter.c **** * \brief    Runs all enabled filters.
1555:Generated_Source\PSoC6/CapSense_Filter.c **** *
1556:Generated_Source\PSoC6/CapSense_Filter.c **** * \details  Runs all enabled filters.
1557:Generated_Source\PSoC6/CapSense_Filter.c **** *
1558:Generated_Source\PSoC6/CapSense_Filter.c **** * \param    ptrFilterHistObj The pointer to the filter RAM object of the sensor.
1559:Generated_Source\PSoC6/CapSense_Filter.c **** * \param    ptrSensorObj     The pointer to the sensor RAM object of the sensor.
1560:Generated_Source\PSoC6/CapSense_Filter.c **** * \param    wdType           Specifies the type of a widget.
1561:Generated_Source\PSoC6/CapSense_Filter.c **** *
1562:Generated_Source\PSoC6/CapSense_Filter.c **** *******************************************************************************/
1563:Generated_Source\PSoC6/CapSense_Filter.c **** void CapSense_FtRunEnabledFiltersInternal(CapSense_PTR_FILTER_VARIANT ptrFilterHistObj,
1564:Generated_Source\PSoC6/CapSense_Filter.c ****                                                   CapSense_RAM_SNS_STRUCT *ptrSensorObj, uint32 wdT
1565:Generated_Source\PSoC6/CapSense_Filter.c **** {
1566:Generated_Source\PSoC6/CapSense_Filter.c ****     #if (CapSense_REGULAR_RC_MEDIAN_FILTER_EN || CapSense_PROX_RC_MEDIAN_FILTER_EN)
1567:Generated_Source\PSoC6/CapSense_Filter.c ****         CapSense_RunMedianInternal(ptrFilterHistObj, ptrSensorObj, wdType);
1568:Generated_Source\PSoC6/CapSense_Filter.c ****     #endif /* (CapSense_REGULAR_RC_MEDIAN_FILTER_EN || CapSense_PROX_RC_MEDIAN_FILTER_EN) */
1569:Generated_Source\PSoC6/CapSense_Filter.c **** 
1570:Generated_Source\PSoC6/CapSense_Filter.c ****     #if (CapSense_REGULAR_RC_IIR_FILTER_EN || CapSense_PROX_RC_IIR_FILTER_EN)
1571:Generated_Source\PSoC6/CapSense_Filter.c ****         CapSense_RunIIRInternal(ptrFilterHistObj, ptrSensorObj, wdType);
1572:Generated_Source\PSoC6/CapSense_Filter.c ****     #endif /* (CapSense_REGULAR_RC_IIR_FILTER_EN || CapSense_PROX_RC_IIR_FILTER_EN) */
1573:Generated_Source\PSoC6/CapSense_Filter.c **** 
1574:Generated_Source\PSoC6/CapSense_Filter.c ****     #if (CapSense_REGULAR_RC_AVERAGE_FILTER_EN || CapSense_PROX_RC_AVERAGE_FILTER_EN)
1575:Generated_Source\PSoC6/CapSense_Filter.c ****         CapSense_RunAverageInternal(ptrFilterHistObj, ptrSensorObj, wdType);
1576:Generated_Source\PSoC6/CapSense_Filter.c ****     #endif /* (CapSense_REGULAR_RC_AVERAGE_FILTER_EN || CapSense_PROX_RC_AVERAGE_FILTER_EN) */
1577:Generated_Source\PSoC6/CapSense_Filter.c **** }
1578:Generated_Source\PSoC6/CapSense_Filter.c **** #endif /* (CapSense_ENABLE == CapSense_RC_FILTER_EN) */
1579:Generated_Source\PSoC6/CapSense_Filter.c **** 
1580:Generated_Source\PSoC6/CapSense_Filter.c **** 
1581:Generated_Source\PSoC6/CapSense_Filter.c **** #if (0u != (CapSense_CSD_AUTOTUNE & CapSense_CSD_SS_TH_EN))
1582:Generated_Source\PSoC6/CapSense_Filter.c **** /*******************************************************************************
1583:Generated_Source\PSoC6/CapSense_Filter.c **** * Function Name: CapSense_RunNoiseEnvelope
1584:Generated_Source\PSoC6/CapSense_Filter.c **** ****************************************************************************//**
1585:Generated_Source\PSoC6/CapSense_Filter.c **** *
ARM GAS  C:\Users\user\AppData\Local\Temp\cc0N1rlz.s 			page 37


1586:Generated_Source\PSoC6/CapSense_Filter.c **** * \brief    Executes the noise envelope  filter algorithm on a sensor indicated by
1587:Generated_Source\PSoC6/CapSense_Filter.c **** *           an input parameter to measure the pk-to-pk noise in the sensor raw count.
1588:Generated_Source\PSoC6/CapSense_Filter.c **** *
1589:Generated_Source\PSoC6/CapSense_Filter.c **** * \details  Executes the noise envelope  filter algorithm on a sensor indicated by
1590:Generated_Source\PSoC6/CapSense_Filter.c **** *           an input parameter to measure the pk-to-pk noise in the sensor raw count.
1591:Generated_Source\PSoC6/CapSense_Filter.c **** *
1592:Generated_Source\PSoC6/CapSense_Filter.c **** * \param    widgetId Specifies the ID number of the widget.
1593:Generated_Source\PSoC6/CapSense_Filter.c **** * \param    sensorId Specifies the ID number of the sensor in the widget.
1594:Generated_Source\PSoC6/CapSense_Filter.c **** *
1595:Generated_Source\PSoC6/CapSense_Filter.c **** *******************************************************************************/
1596:Generated_Source\PSoC6/CapSense_Filter.c **** void CapSense_RunNoiseEnvelope(uint32 widgetId, uint32 sensorId)
1597:Generated_Source\PSoC6/CapSense_Filter.c **** {
 433              		.loc 1 1597 0
 434              		.cfi_startproc
 435              		@ args = 0, pretend = 0, frame = 0
 436              		@ frame_needed = 0, uses_anonymous_args = 0
 437              	.LVL60:
 438 0000 F8B5     		push	{r3, r4, r5, r6, r7, lr}
 439              		.cfi_def_cfa_offset 24
 440              		.cfi_offset 3, -24
 441              		.cfi_offset 4, -20
 442              		.cfi_offset 5, -16
 443              		.cfi_offset 6, -12
 444              		.cfi_offset 7, -8
 445              		.cfi_offset 14, -4
 446              	.LVL61:
1598:Generated_Source\PSoC6/CapSense_Filter.c ****     CapSense_FLASH_WD_STRUCT const *ptrWidget = &CapSense_dsFlash.wdgtArray[widgetId];
1599:Generated_Source\PSoC6/CapSense_Filter.c ****     CapSense_RAM_WD_BASE_STRUCT *ptrWidgetRam = ptrWidget->ptr2WdgtRam;
 447              		.loc 1 1599 0
 448 0002 0C4F     		ldr	r7, .L28
 449 0004 4300     		lsls	r3, r0, #1
 450 0006 9C46     		mov	ip, r3
 451 0008 1A18     		adds	r2, r3, r0
 452 000a 1301     		lsls	r3, r2, #4
 453 000c FB18     		adds	r3, r7, r3
 454 000e 5D68     		ldr	r5, [r3, #4]
 455              	.LVL62:
1600:Generated_Source\PSoC6/CapSense_Filter.c ****     CapSense_RAM_SNS_STRUCT *ptrSensor = NULL;
1601:Generated_Source\PSoC6/CapSense_Filter.c ****     SMARTSENSE_CSD_NOISE_ENVELOPE_STRUCT *ptrNoiseEnvelope = NULL;
1602:Generated_Source\PSoC6/CapSense_Filter.c **** 
1603:Generated_Source\PSoC6/CapSense_Filter.c ****     /* Find pointer to specified sensor object */
1604:Generated_Source\PSoC6/CapSense_Filter.c ****     ptrSensor = ptrWidget->ptr2SnsRam;
 456              		.loc 1 1604 0
 457 0010 9E68     		ldr	r6, [r3, #8]
 458              	.LVL63:
1605:Generated_Source\PSoC6/CapSense_Filter.c ****     ptrSensor = &ptrSensor[sensorId];
 459              		.loc 1 1605 0
 460 0012 8A00     		lsls	r2, r1, #2
 461 0014 5218     		adds	r2, r2, r1
 462 0016 5400     		lsls	r4, r2, #1
 463              	.LVL64:
1606:Generated_Source\PSoC6/CapSense_Filter.c **** 
1607:Generated_Source\PSoC6/CapSense_Filter.c ****     /* Find pointer to specified filter sensor object */
1608:Generated_Source\PSoC6/CapSense_Filter.c ****     ptrNoiseEnvelope = ptrWidget->ptr2NoiseEnvlp;
 464              		.loc 1 1608 0
 465 0018 6044     		add	r0, r0, ip
 466              	.LVL65:
ARM GAS  C:\Users\user\AppData\Local\Temp\cc0N1rlz.s 			page 38


 467 001a 0301     		lsls	r3, r0, #4
 468 001c FB18     		adds	r3, r7, r3
 469 001e 5B6A     		ldr	r3, [r3, #36]
 470              	.LVL66:
1609:Generated_Source\PSoC6/CapSense_Filter.c ****     ptrNoiseEnvelope = &ptrNoiseEnvelope[sensorId];
 471              		.loc 1 1609 0
 472 0020 4A00     		lsls	r2, r1, #1
 473 0022 5118     		adds	r1, r2, r1
 474              	.LVL67:
 475 0024 8A00     		lsls	r2, r1, #2
 476 0026 9A18     		adds	r2, r3, r2
 477              	.LVL68:
1610:Generated_Source\PSoC6/CapSense_Filter.c **** 
1611:Generated_Source\PSoC6/CapSense_Filter.c ****     SmartSense_RunNoiseEnvelope(ptrSensor->raw[0u], ptrWidgetRam->sigPFC, ptrNoiseEnvelope);
 478              		.loc 1 1611 0
 479 0028 298A     		ldrh	r1, [r5, #16]
 480 002a 305B     		ldrh	r0, [r6, r4]
 481 002c FFF7FEFF 		bl	SmartSense_RunNoiseEnvelope
 482              	.LVL69:
1612:Generated_Source\PSoC6/CapSense_Filter.c **** }
 483              		.loc 1 1612 0
 484              		@ sp needed
 485              	.LVL70:
 486              	.LVL71:
 487              	.LVL72:
 488              	.LVL73:
 489 0030 F8BD     		pop	{r3, r4, r5, r6, r7, pc}
 490              	.L29:
 491 0032 C046     		.align	2
 492              	.L28:
 493 0034 00000000 		.word	CapSense_dsFlash
 494              		.cfi_endproc
 495              	.LFE57:
 496              		.size	CapSense_RunNoiseEnvelope, .-CapSense_RunNoiseEnvelope
 497              		.section	.text.CapSense_InitializeNoiseEnvelope,"ax",%progbits
 498              		.align	2
 499              		.global	CapSense_InitializeNoiseEnvelope
 500              		.code	16
 501              		.thumb_func
 502              		.type	CapSense_InitializeNoiseEnvelope, %function
 503              	CapSense_InitializeNoiseEnvelope:
 504              	.LFB58:
1613:Generated_Source\PSoC6/CapSense_Filter.c **** 
1614:Generated_Source\PSoC6/CapSense_Filter.c **** 
1615:Generated_Source\PSoC6/CapSense_Filter.c **** /*******************************************************************************
1616:Generated_Source\PSoC6/CapSense_Filter.c **** * Function Name: CapSense_InitializeNoiseEnvelope
1617:Generated_Source\PSoC6/CapSense_Filter.c **** ****************************************************************************//**
1618:Generated_Source\PSoC6/CapSense_Filter.c **** *
1619:Generated_Source\PSoC6/CapSense_Filter.c **** * \brief    Initializes the noise-envelope filter
1620:Generated_Source\PSoC6/CapSense_Filter.c **** *
1621:Generated_Source\PSoC6/CapSense_Filter.c **** * \details  Initializes the noise-envelope filter
1622:Generated_Source\PSoC6/CapSense_Filter.c **** *
1623:Generated_Source\PSoC6/CapSense_Filter.c **** * \param    widgetId Specifies the ID number of the widget.
1624:Generated_Source\PSoC6/CapSense_Filter.c **** * \param    sensorId Specifies the ID number of the sensor in the widget.
1625:Generated_Source\PSoC6/CapSense_Filter.c **** *
1626:Generated_Source\PSoC6/CapSense_Filter.c **** *******************************************************************************/
1627:Generated_Source\PSoC6/CapSense_Filter.c **** void CapSense_InitializeNoiseEnvelope(uint32 widgetId, uint32 sensorId)
ARM GAS  C:\Users\user\AppData\Local\Temp\cc0N1rlz.s 			page 39


1628:Generated_Source\PSoC6/CapSense_Filter.c **** {
 505              		.loc 1 1628 0
 506              		.cfi_startproc
 507              		@ args = 0, pretend = 0, frame = 0
 508              		@ frame_needed = 0, uses_anonymous_args = 0
 509              	.LVL74:
 510 0000 F8B5     		push	{r3, r4, r5, r6, r7, lr}
 511              		.cfi_def_cfa_offset 24
 512              		.cfi_offset 3, -24
 513              		.cfi_offset 4, -20
 514              		.cfi_offset 5, -16
 515              		.cfi_offset 6, -12
 516              		.cfi_offset 7, -8
 517              		.cfi_offset 14, -4
 518              	.LVL75:
1629:Generated_Source\PSoC6/CapSense_Filter.c ****     CapSense_FLASH_WD_STRUCT const *ptrWidget = &CapSense_dsFlash.wdgtArray[widgetId];
1630:Generated_Source\PSoC6/CapSense_Filter.c ****     CapSense_RAM_WD_BASE_STRUCT *ptrWidgetRam = ptrWidget->ptr2WdgtRam;
 519              		.loc 1 1630 0
 520 0002 0C4F     		ldr	r7, .L31
 521 0004 4300     		lsls	r3, r0, #1
 522 0006 9C46     		mov	ip, r3
 523 0008 1A18     		adds	r2, r3, r0
 524 000a 1301     		lsls	r3, r2, #4
 525 000c FB18     		adds	r3, r7, r3
 526 000e 5D68     		ldr	r5, [r3, #4]
 527              	.LVL76:
1631:Generated_Source\PSoC6/CapSense_Filter.c ****     CapSense_RAM_SNS_STRUCT *ptrSensor = NULL;
1632:Generated_Source\PSoC6/CapSense_Filter.c ****     SMARTSENSE_CSD_NOISE_ENVELOPE_STRUCT *ptrNoiseEnvelope = NULL;
1633:Generated_Source\PSoC6/CapSense_Filter.c **** 
1634:Generated_Source\PSoC6/CapSense_Filter.c ****     /* Find pointer to specified sensor object */
1635:Generated_Source\PSoC6/CapSense_Filter.c ****     ptrSensor = ptrWidget->ptr2SnsRam;
 528              		.loc 1 1635 0
 529 0010 9E68     		ldr	r6, [r3, #8]
 530              	.LVL77:
1636:Generated_Source\PSoC6/CapSense_Filter.c ****     ptrSensor = &ptrSensor[sensorId];
 531              		.loc 1 1636 0
 532 0012 8A00     		lsls	r2, r1, #2
 533 0014 5218     		adds	r2, r2, r1
 534 0016 5400     		lsls	r4, r2, #1
 535              	.LVL78:
1637:Generated_Source\PSoC6/CapSense_Filter.c **** 
1638:Generated_Source\PSoC6/CapSense_Filter.c ****     /* Find pointer to specified filter sensor object */
1639:Generated_Source\PSoC6/CapSense_Filter.c ****     ptrNoiseEnvelope = ptrWidget->ptr2NoiseEnvlp;
 536              		.loc 1 1639 0
 537 0018 6044     		add	r0, r0, ip
 538              	.LVL79:
 539 001a 0301     		lsls	r3, r0, #4
 540 001c FB18     		adds	r3, r7, r3
 541 001e 5B6A     		ldr	r3, [r3, #36]
 542              	.LVL80:
1640:Generated_Source\PSoC6/CapSense_Filter.c ****     ptrNoiseEnvelope = &ptrNoiseEnvelope[sensorId];
 543              		.loc 1 1640 0
 544 0020 4A00     		lsls	r2, r1, #1
 545 0022 5118     		adds	r1, r2, r1
 546              	.LVL81:
 547 0024 8A00     		lsls	r2, r1, #2
 548 0026 9A18     		adds	r2, r3, r2
ARM GAS  C:\Users\user\AppData\Local\Temp\cc0N1rlz.s 			page 40


 549              	.LVL82:
1641:Generated_Source\PSoC6/CapSense_Filter.c **** 
1642:Generated_Source\PSoC6/CapSense_Filter.c ****     SmartSense_InitializeNoiseEnvelope(ptrSensor->raw[0u], ptrWidgetRam->sigPFC, ptrNoiseEnvelope);
 550              		.loc 1 1642 0
 551 0028 298A     		ldrh	r1, [r5, #16]
 552 002a 305B     		ldrh	r0, [r6, r4]
 553 002c FFF7FEFF 		bl	SmartSense_InitializeNoiseEnvelope
 554              	.LVL83:
1643:Generated_Source\PSoC6/CapSense_Filter.c **** }
 555              		.loc 1 1643 0
 556              		@ sp needed
 557              	.LVL84:
 558              	.LVL85:
 559              	.LVL86:
 560              	.LVL87:
 561 0030 F8BD     		pop	{r3, r4, r5, r6, r7, pc}
 562              	.L32:
 563 0032 C046     		.align	2
 564              	.L31:
 565 0034 00000000 		.word	CapSense_dsFlash
 566              		.cfi_endproc
 567              	.LFE58:
 568              		.size	CapSense_InitializeNoiseEnvelope, .-CapSense_InitializeNoiseEnvelope
 569              		.section	.text.CapSense_FtIIR1stOrder,"ax",%progbits
 570              		.align	2
 571              		.global	CapSense_FtIIR1stOrder
 572              		.code	16
 573              		.thumb_func
 574              		.type	CapSense_FtIIR1stOrder, %function
 575              	CapSense_FtIIR1stOrder:
 576              	.LFB59:
1644:Generated_Source\PSoC6/CapSense_Filter.c **** #endif /* (0u != (CapSense_CSD_AUTOTUNE & CapSense_CSD_SS_TH_EN)) */
1645:Generated_Source\PSoC6/CapSense_Filter.c **** 
1646:Generated_Source\PSoC6/CapSense_Filter.c **** 
1647:Generated_Source\PSoC6/CapSense_Filter.c **** #if (CapSense_POS_MEDIAN_FILTER_EN || CapSense_REGULAR_RC_MEDIAN_FILTER_EN || CapSense_PROX_RC_MEDI
1648:Generated_Source\PSoC6/CapSense_Filter.c **** /*******************************************************************************
1649:Generated_Source\PSoC6/CapSense_Filter.c **** * Function Name: CapSense_FtMedian
1650:Generated_Source\PSoC6/CapSense_Filter.c **** ****************************************************************************//**
1651:Generated_Source\PSoC6/CapSense_Filter.c **** *
1652:Generated_Source\PSoC6/CapSense_Filter.c **** * \brief    Return the median value from the three passed arguments.
1653:Generated_Source\PSoC6/CapSense_Filter.c **** *
1654:Generated_Source\PSoC6/CapSense_Filter.c **** * \details  Return the median value from the three passed arguments.
1655:Generated_Source\PSoC6/CapSense_Filter.c **** *
1656:Generated_Source\PSoC6/CapSense_Filter.c **** * \param    x1 The first value to be compared.
1657:Generated_Source\PSoC6/CapSense_Filter.c **** * \param    x2 The second value to be compared.
1658:Generated_Source\PSoC6/CapSense_Filter.c **** * \param    x3 The third value to be compared.
1659:Generated_Source\PSoC6/CapSense_Filter.c **** *
1660:Generated_Source\PSoC6/CapSense_Filter.c **** * \return   Returns the median value of input arguments.
1661:Generated_Source\PSoC6/CapSense_Filter.c **** *
1662:Generated_Source\PSoC6/CapSense_Filter.c **** *******************************************************************************/
1663:Generated_Source\PSoC6/CapSense_Filter.c **** uint32 CapSense_FtMedian(uint32 x1, uint32 x2, uint32 x3)
1664:Generated_Source\PSoC6/CapSense_Filter.c **** {
1665:Generated_Source\PSoC6/CapSense_Filter.c ****     uint32 tmp;
1666:Generated_Source\PSoC6/CapSense_Filter.c **** 
1667:Generated_Source\PSoC6/CapSense_Filter.c ****     if (x1 > x2)
1668:Generated_Source\PSoC6/CapSense_Filter.c ****     {
1669:Generated_Source\PSoC6/CapSense_Filter.c ****         tmp = x2;
ARM GAS  C:\Users\user\AppData\Local\Temp\cc0N1rlz.s 			page 41


1670:Generated_Source\PSoC6/CapSense_Filter.c ****         x2 = x1;
1671:Generated_Source\PSoC6/CapSense_Filter.c ****         x1 = tmp;
1672:Generated_Source\PSoC6/CapSense_Filter.c ****     }
1673:Generated_Source\PSoC6/CapSense_Filter.c **** 
1674:Generated_Source\PSoC6/CapSense_Filter.c ****     if (x2 > x3)
1675:Generated_Source\PSoC6/CapSense_Filter.c ****     {
1676:Generated_Source\PSoC6/CapSense_Filter.c ****         x2 = x3;
1677:Generated_Source\PSoC6/CapSense_Filter.c ****     }
1678:Generated_Source\PSoC6/CapSense_Filter.c **** 
1679:Generated_Source\PSoC6/CapSense_Filter.c ****     return ((x1 > x2) ? x1 : x2);
1680:Generated_Source\PSoC6/CapSense_Filter.c **** }
1681:Generated_Source\PSoC6/CapSense_Filter.c **** #endif /*CapSense_POS_MEDIAN_FILTER_EN || CapSense_REGULAR_RC_MEDIAN_FILTER_EN || CapSense_PROX_RC_
1682:Generated_Source\PSoC6/CapSense_Filter.c **** 
1683:Generated_Source\PSoC6/CapSense_Filter.c **** 
1684:Generated_Source\PSoC6/CapSense_Filter.c **** /*******************************************************************************
1685:Generated_Source\PSoC6/CapSense_Filter.c **** * Function Name: CapSense_FtIIR1stOrder
1686:Generated_Source\PSoC6/CapSense_Filter.c **** ****************************************************************************//**
1687:Generated_Source\PSoC6/CapSense_Filter.c **** *
1688:Generated_Source\PSoC6/CapSense_Filter.c **** * \brief    Return the filtered data by the IIR 1-st order algorithm
1689:Generated_Source\PSoC6/CapSense_Filter.c **** *
1690:Generated_Source\PSoC6/CapSense_Filter.c **** * \details  Return the filtered data by the IIR 1-st order algorithm
1691:Generated_Source\PSoC6/CapSense_Filter.c **** *
1692:Generated_Source\PSoC6/CapSense_Filter.c **** * \param    input      The data to be filtered.
1693:Generated_Source\PSoC6/CapSense_Filter.c **** * \param    prevOutput The previous filtered data.
1694:Generated_Source\PSoC6/CapSense_Filter.c **** * \param    n          The IIR filter coefficient (n/256).
1695:Generated_Source\PSoC6/CapSense_Filter.c **** * \param    shift      The parameter is used to shift input data to have free LSB
1696:Generated_Source\PSoC6/CapSense_Filter.c **** *                       bits for a fraction storage of the filter output calculation.
1697:Generated_Source\PSoC6/CapSense_Filter.c **** *
1698:Generated_Source\PSoC6/CapSense_Filter.c **** * \return   Returns the filtered data.
1699:Generated_Source\PSoC6/CapSense_Filter.c **** *
1700:Generated_Source\PSoC6/CapSense_Filter.c **** *******************************************************************************/
1701:Generated_Source\PSoC6/CapSense_Filter.c **** uint32 CapSense_FtIIR1stOrder(uint32 input, uint32 prevOutput, uint32 n, uint32 shift)
1702:Generated_Source\PSoC6/CapSense_Filter.c **** {
 577              		.loc 1 1702 0
 578              		.cfi_startproc
 579              		@ args = 0, pretend = 0, frame = 0
 580              		@ frame_needed = 0, uses_anonymous_args = 0
 581              		@ link register save eliminated.
 582              	.LVL88:
1703:Generated_Source\PSoC6/CapSense_Filter.c ****     uint32 filteredOutput;
1704:Generated_Source\PSoC6/CapSense_Filter.c **** 
1705:Generated_Source\PSoC6/CapSense_Filter.c ****     /*
1706:Generated_Source\PSoC6/CapSense_Filter.c ****     * n - IIR filter coefficient (n/256)
1707:Generated_Source\PSoC6/CapSense_Filter.c ****     * shift - Used to shift input data to have free LSB bits
1708:Generated_Source\PSoC6/CapSense_Filter.c ****     * for fraction storage of filter output calculation
1709:Generated_Source\PSoC6/CapSense_Filter.c ****     */
1710:Generated_Source\PSoC6/CapSense_Filter.c ****     filteredOutput = ((n * (input << shift)) + ((CapSense_IIR_COEFFICIENT_K - n) * prevOutput)) >> 
 583              		.loc 1 1710 0
 584 0000 9840     		lsls	r0, r0, r3
 585              	.LVL89:
 586 0002 5043     		muls	r0, r2
 587 0004 8023     		movs	r3, #128
 588              	.LVL90:
 589 0006 5B00     		lsls	r3, r3, #1
 590 0008 9A1A     		subs	r2, r3, r2
 591              	.LVL91:
 592 000a 5143     		muls	r1, r2
ARM GAS  C:\Users\user\AppData\Local\Temp\cc0N1rlz.s 			page 42


 593              	.LVL92:
 594 000c 4018     		adds	r0, r0, r1
 595 000e 000A     		lsrs	r0, r0, #8
 596              	.LVL93:
1711:Generated_Source\PSoC6/CapSense_Filter.c **** 
1712:Generated_Source\PSoC6/CapSense_Filter.c ****     /* Shift operation of output will be done in upper level API if needed */
1713:Generated_Source\PSoC6/CapSense_Filter.c ****     return filteredOutput;
1714:Generated_Source\PSoC6/CapSense_Filter.c **** }
 597              		.loc 1 1714 0
 598              		@ sp needed
 599 0010 7047     		bx	lr
 600              		.cfi_endproc
 601              	.LFE59:
 602              		.size	CapSense_FtIIR1stOrder, .-CapSense_FtIIR1stOrder
 603 0012 C046     		.section	.text.CapSense_FtUpdateBaseline,"ax",%progbits
 604              		.align	2
 605              		.global	CapSense_FtUpdateBaseline
 606              		.code	16
 607              		.thumb_func
 608              		.type	CapSense_FtUpdateBaseline, %function
 609              	CapSense_FtUpdateBaseline:
 610              	.LFB49:
 259:Generated_Source\PSoC6/CapSense_Filter.c ****     uint32 sign;
 611              		.loc 1 259 0
 612              		.cfi_startproc
 613              		@ args = 0, pretend = 0, frame = 0
 614              		@ frame_needed = 0, uses_anonymous_args = 0
 615              	.LVL94:
 616 0000 F0B5     		push	{r4, r5, r6, r7, lr}
 617              		.cfi_def_cfa_offset 20
 618              		.cfi_offset 4, -20
 619              		.cfi_offset 5, -16
 620              		.cfi_offset 6, -12
 621              		.cfi_offset 7, -8
 622              		.cfi_offset 14, -4
 623 0002 4746     		mov	r7, r8
 624 0004 80B4     		push	{r7}
 625              		.cfi_def_cfa_offset 24
 626              		.cfi_offset 8, -24
 627 0006 0700     		movs	r7, r0
 628 0008 0E00     		movs	r6, r1
 629 000a 1500     		movs	r5, r2
 630              	.LVL95:
 271:Generated_Source\PSoC6/CapSense_Filter.c ****     {
 631              		.loc 1 271 0
 632 000c 0123     		movs	r3, #1
 633 000e 37E0     		b	.L35
 634              	.LVL96:
 635              	.L41:
 283:Generated_Source\PSoC6/CapSense_Filter.c ****         {
 636              		.loc 1 283 0
 637 0010 6300     		lsls	r3, r4, #1
 638 0012 985B     		ldrh	r0, [r3, r6]
 639 0014 F318     		adds	r3, r6, r3
 640 0016 5988     		ldrh	r1, [r3, #2]
 641 0018 8842     		cmp	r0, r1
 642 001a 06D3     		bcc	.L36
ARM GAS  C:\Users\user\AppData\Local\Temp\cc0N1rlz.s 			page 43


 285:Generated_Source\PSoC6/CapSense_Filter.c ****             sign = 1u;
 643              		.loc 1 285 0
 644 001c 431A     		subs	r3, r0, r1
 645 001e 9846     		mov	r8, r3
 646              	.LVL97:
 287:Generated_Source\PSoC6/CapSense_Filter.c ****         }
 647              		.loc 1 287 0
 648 0020 3319     		adds	r3, r6, r4
 649              	.LVL98:
 650 0022 0022     		movs	r2, #0
 651 0024 1A72     		strb	r2, [r3, #8]
 286:Generated_Source\PSoC6/CapSense_Filter.c ****             ptrSensor->negBslnRstCnt[freqChannel] = 0u;
 652              		.loc 1 286 0
 653 0026 0123     		movs	r3, #1
 654 0028 02E0     		b	.L37
 655              	.LVL99:
 656              	.L36:
 291:Generated_Source\PSoC6/CapSense_Filter.c ****             sign = 0u;
 657              		.loc 1 291 0
 658 002a 0B1A     		subs	r3, r1, r0
 659 002c 9846     		mov	r8, r3
 660              	.LVL100:
 292:Generated_Source\PSoC6/CapSense_Filter.c ****         }
 661              		.loc 1 292 0
 662 002e 0023     		movs	r3, #0
 663              	.LVL101:
 664              	.L37:
 296:Generated_Source\PSoC6/CapSense_Filter.c ****         {
 665              		.loc 1 296 0
 666 0030 002B     		cmp	r3, #0
 667 0032 11D1     		bne	.L38
 296:Generated_Source\PSoC6/CapSense_Filter.c ****         {
 668              		.loc 1 296 0 is_stmt 0 discriminator 1
 669 0034 7B79     		ldrb	r3, [r7, #5]
 670              	.LVL102:
 671 0036 9845     		cmp	r8, r3
 672 0038 0ED9     		bls	.L38
 298:Generated_Source\PSoC6/CapSense_Filter.c ****             {
 673              		.loc 1 298 0 is_stmt 1
 674 003a 3319     		adds	r3, r6, r4
 675 003c 1B7A     		ldrb	r3, [r3, #8]
 676 003e 3A7A     		ldrb	r2, [r7, #8]
 677 0040 9342     		cmp	r3, r2
 678 0042 05D3     		bcc	.L39
 300:Generated_Source\PSoC6/CapSense_Filter.c ****             }
 679              		.loc 1 300 0
 680 0044 2200     		movs	r2, r4
 681 0046 2900     		movs	r1, r5
 682 0048 3000     		movs	r0, r6
 683 004a FFF7FEFF 		bl	CapSense_FtInitializeBaselineChannel
 684              	.LVL103:
 685 004e 16E0     		b	.L40
 686              	.L39:
 304:Generated_Source\PSoC6/CapSense_Filter.c ****             }
 687              		.loc 1 304 0
 688 0050 3219     		adds	r2, r6, r4
 689 0052 0133     		adds	r3, r3, #1
ARM GAS  C:\Users\user\AppData\Local\Temp\cc0N1rlz.s 			page 44


 690 0054 1372     		strb	r3, [r2, #8]
 691 0056 12E0     		b	.L40
 692              	.L38:
 318:Generated_Source\PSoC6/CapSense_Filter.c ****                 {
 693              		.loc 1 318 0
 694 0058 FF23     		movs	r3, #255
 695 005a 2B40     		ands	r3, r5
 696 005c 062B     		cmp	r3, #6
 697 005e 0ED0     		beq	.L40
 322:Generated_Source\PSoC6/CapSense_Filter.c ****                             history |= ptrSensor->bslnExt[freqChannel];
 698              		.loc 1 322 0
 699 0060 0902     		lsls	r1, r1, #8
 700              	.LVL104:
 323:Generated_Source\PSoC6/CapSense_Filter.c ****                         #else
 701              		.loc 1 323 0
 702 0062 3319     		adds	r3, r6, r4
 703 0064 9846     		mov	r8, r3
 704              	.LVL105:
 705 0066 1B79     		ldrb	r3, [r3, #4]
 706 0068 1943     		orrs	r1, r3
 707              	.LVL106:
 334:Generated_Source\PSoC6/CapSense_Filter.c ****                                         (uint32)ptrSensor->raw[freqChannel],
 708              		.loc 1 334 0
 709 006a 0823     		movs	r3, #8
 710 006c 0122     		movs	r2, #1
 711 006e FFF7FEFF 		bl	CapSense_FtIIR1stOrder
 712              	.LVL107:
 340:Generated_Source\PSoC6/CapSense_Filter.c ****                                     ptrSensor->bslnExt[freqChannel] = CY_LO8(history);
 713              		.loc 1 340 0
 714 0072 020A     		lsrs	r2, r0, #8
 715 0074 6300     		lsls	r3, r4, #1
 716 0076 F318     		adds	r3, r6, r3
 717 0078 5A80     		strh	r2, [r3, #2]
 341:Generated_Source\PSoC6/CapSense_Filter.c ****                         #else
 718              		.loc 1 341 0
 719 007a 4346     		mov	r3, r8
 720 007c 1871     		strb	r0, [r3, #4]
 721              	.LVL108:
 722              	.L40:
 723 007e 2300     		movs	r3, r4
 724              	.LVL109:
 725              	.L35:
 271:Generated_Source\PSoC6/CapSense_Filter.c ****     {
 726              		.loc 1 271 0 discriminator 1
 727 0080 5C1E     		subs	r4, r3, #1
 728              	.LVL110:
 729 0082 002B     		cmp	r3, #0
 730 0084 C4D1     		bne	.L41
 398:Generated_Source\PSoC6/CapSense_Filter.c **** 
 731              		.loc 1 398 0
 732 0086 0020     		movs	r0, #0
 733              		@ sp needed
 734              	.LVL111:
 735              	.LVL112:
 736              	.LVL113:
 737              	.LVL114:
 738 0088 04BC     		pop	{r2}
ARM GAS  C:\Users\user\AppData\Local\Temp\cc0N1rlz.s 			page 45


 739 008a 9046     		mov	r8, r2
 740 008c F0BD     		pop	{r4, r5, r6, r7, pc}
 741              		.cfi_endproc
 742              	.LFE49:
 743              		.size	CapSense_FtUpdateBaseline, .-CapSense_FtUpdateBaseline
 744 008e C046     		.section	.text.CapSense_UpdateSensorBaseline,"ax",%progbits
 745              		.align	2
 746              		.global	CapSense_UpdateSensorBaseline
 747              		.code	16
 748              		.thumb_func
 749              		.type	CapSense_UpdateSensorBaseline, %function
 750              	CapSense_UpdateSensorBaseline:
 751              	.LFB48:
 201:Generated_Source\PSoC6/CapSense_Filter.c ****     uint32 result = CY_RET_SUCCESS;
 752              		.loc 1 201 0
 753              		.cfi_startproc
 754              		@ args = 0, pretend = 0, frame = 0
 755              		@ frame_needed = 0, uses_anonymous_args = 0
 756              	.LVL115:
 757 0000 70B5     		push	{r4, r5, r6, lr}
 758              		.cfi_def_cfa_offset 16
 759              		.cfi_offset 4, -16
 760              		.cfi_offset 5, -12
 761              		.cfi_offset 6, -8
 762              		.cfi_offset 14, -4
 763 0002 0300     		movs	r3, r0
 764              	.LVL116:
 206:Generated_Source\PSoC6/CapSense_Filter.c **** 
 765              		.loc 1 206 0
 766 0004 084C     		ldr	r4, .L43
 767 0006 4500     		lsls	r5, r0, #1
 768 0008 2818     		adds	r0, r5, r0
 769              	.LVL117:
 770 000a 0201     		lsls	r2, r0, #4
 771 000c A218     		adds	r2, r4, r2
 772 000e 5068     		ldr	r0, [r2, #4]
 773              	.LVL118:
 209:Generated_Source\PSoC6/CapSense_Filter.c ****     ptrSensor = &ptrSensor[sensorId];
 774              		.loc 1 209 0
 775 0010 9668     		ldr	r6, [r2, #8]
 776              	.LVL119:
 210:Generated_Source\PSoC6/CapSense_Filter.c ****     result = CapSense_FtUpdateBaseline(ptrWidgetRam, ptrSensor, (uint32)ptrWidget->wdgtType);
 777              		.loc 1 210 0
 778 0012 8A00     		lsls	r2, r1, #2
 779 0014 5218     		adds	r2, r2, r1
 780 0016 5100     		lsls	r1, r2, #1
 781              	.LVL120:
 782 0018 7118     		adds	r1, r6, r1
 783              	.LVL121:
 211:Generated_Source\PSoC6/CapSense_Filter.c **** 
 784              		.loc 1 211 0
 785 001a EB18     		adds	r3, r5, r3
 786              	.LVL122:
 787 001c 1A01     		lsls	r2, r3, #4
 788 001e A218     		adds	r2, r4, r2
 789 0020 927E     		ldrb	r2, [r2, #26]
 790 0022 FFF7FEFF 		bl	CapSense_FtUpdateBaseline
ARM GAS  C:\Users\user\AppData\Local\Temp\cc0N1rlz.s 			page 46


 791              	.LVL123:
 222:Generated_Source\PSoC6/CapSense_Filter.c **** 
 792              		.loc 1 222 0
 793              		@ sp needed
 794              	.LVL124:
 795              	.LVL125:
 796              	.LVL126:
 797 0026 70BD     		pop	{r4, r5, r6, pc}
 798              	.L44:
 799              		.align	2
 800              	.L43:
 801 0028 00000000 		.word	CapSense_dsFlash
 802              		.cfi_endproc
 803              	.LFE48:
 804              		.size	CapSense_UpdateSensorBaseline, .-CapSense_UpdateSensorBaseline
 805              		.section	.text.CapSense_UpdateWidgetBaseline,"ax",%progbits
 806              		.align	2
 807              		.global	CapSense_UpdateWidgetBaseline
 808              		.code	16
 809              		.thumb_func
 810              		.type	CapSense_UpdateWidgetBaseline, %function
 811              	CapSense_UpdateWidgetBaseline:
 812              	.LFB47:
 144:Generated_Source\PSoC6/CapSense_Filter.c ****     uint32 sensorId;
 813              		.loc 1 144 0
 814              		.cfi_startproc
 815              		@ args = 0, pretend = 0, frame = 0
 816              		@ frame_needed = 0, uses_anonymous_args = 0
 817              	.LVL127:
 818 0000 70B5     		push	{r4, r5, r6, lr}
 819              		.cfi_def_cfa_offset 16
 820              		.cfi_offset 4, -16
 821              		.cfi_offset 5, -12
 822              		.cfi_offset 6, -8
 823              		.cfi_offset 14, -4
 824 0002 0600     		movs	r6, r0
 825              	.LVL128:
 152:Generated_Source\PSoC6/CapSense_Filter.c **** 
 826              		.loc 1 152 0
 827 0004 4200     		lsls	r2, r0, #1
 828 0006 1218     		adds	r2, r2, r0
 829 0008 1301     		lsls	r3, r2, #4
 830 000a 084A     		ldr	r2, .L48
 831 000c D318     		adds	r3, r2, r3
 832 000e 1B8B     		ldrh	r3, [r3, #24]
 833              	.LVL129:
 149:Generated_Source\PSoC6/CapSense_Filter.c **** 
 834              		.loc 1 149 0
 835 0010 0025     		movs	r5, #0
 154:Generated_Source\PSoC6/CapSense_Filter.c ****     {
 836              		.loc 1 154 0
 837 0012 05E0     		b	.L46
 838              	.LVL130:
 839              	.L47:
 156:Generated_Source\PSoC6/CapSense_Filter.c ****     }
 840              		.loc 1 156 0
 841 0014 2100     		movs	r1, r4
ARM GAS  C:\Users\user\AppData\Local\Temp\cc0N1rlz.s 			page 47


 842 0016 3000     		movs	r0, r6
 843 0018 FFF7FEFF 		bl	CapSense_UpdateSensorBaseline
 844              	.LVL131:
 845 001c 0543     		orrs	r5, r0
 846              	.LVL132:
 154:Generated_Source\PSoC6/CapSense_Filter.c ****     {
 847              		.loc 1 154 0
 848 001e 2300     		movs	r3, r4
 849              	.LVL133:
 850              	.L46:
 154:Generated_Source\PSoC6/CapSense_Filter.c ****     {
 851              		.loc 1 154 0 is_stmt 0 discriminator 1
 852 0020 5C1E     		subs	r4, r3, #1
 853              	.LVL134:
 854 0022 002B     		cmp	r3, #0
 855 0024 F6D1     		bne	.L47
 160:Generated_Source\PSoC6/CapSense_Filter.c **** 
 856              		.loc 1 160 0 is_stmt 1
 857 0026 2800     		movs	r0, r5
 858              		@ sp needed
 859              	.LVL135:
 860              	.LVL136:
 861              	.LVL137:
 862 0028 70BD     		pop	{r4, r5, r6, pc}
 863              	.L49:
 864 002a C046     		.align	2
 865              	.L48:
 866 002c 00000000 		.word	CapSense_dsFlash
 867              		.cfi_endproc
 868              	.LFE47:
 869              		.size	CapSense_UpdateWidgetBaseline, .-CapSense_UpdateWidgetBaseline
 870              		.section	.text.CapSense_UpdateAllBaselines,"ax",%progbits
 871              		.align	2
 872              		.global	CapSense_UpdateAllBaselines
 873              		.code	16
 874              		.thumb_func
 875              		.type	CapSense_UpdateAllBaselines, %function
 876              	CapSense_UpdateAllBaselines:
 877              	.LFB46:
  99:Generated_Source\PSoC6/CapSense_Filter.c ****     uint32 widgetId;
 878              		.loc 1 99 0
 879              		.cfi_startproc
 880              		@ args = 0, pretend = 0, frame = 0
 881              		@ frame_needed = 0, uses_anonymous_args = 0
 882 0000 70B5     		push	{r4, r5, r6, lr}
 883              		.cfi_def_cfa_offset 16
 884              		.cfi_offset 4, -16
 885              		.cfi_offset 5, -12
 886              		.cfi_offset 6, -8
 887              		.cfi_offset 14, -4
 888              	.LVL138:
 101:Generated_Source\PSoC6/CapSense_Filter.c **** 
 889              		.loc 1 101 0
 890 0002 0025     		movs	r5, #0
 103:Generated_Source\PSoC6/CapSense_Filter.c ****     {
 891              		.loc 1 103 0
 892 0004 0323     		movs	r3, #3
ARM GAS  C:\Users\user\AppData\Local\Temp\cc0N1rlz.s 			page 48


 893 0006 04E0     		b	.L51
 894              	.LVL139:
 895              	.L52:
 105:Generated_Source\PSoC6/CapSense_Filter.c ****     }
 896              		.loc 1 105 0
 897 0008 2000     		movs	r0, r4
 898 000a FFF7FEFF 		bl	CapSense_UpdateWidgetBaseline
 899              	.LVL140:
 900 000e 0543     		orrs	r5, r0
 901              	.LVL141:
 103:Generated_Source\PSoC6/CapSense_Filter.c ****     {
 902              		.loc 1 103 0
 903 0010 2300     		movs	r3, r4
 904              	.LVL142:
 905              	.L51:
 103:Generated_Source\PSoC6/CapSense_Filter.c ****     {
 906              		.loc 1 103 0 is_stmt 0 discriminator 1
 907 0012 5C1E     		subs	r4, r3, #1
 908              	.LVL143:
 909 0014 002B     		cmp	r3, #0
 910 0016 F7D1     		bne	.L52
 109:Generated_Source\PSoC6/CapSense_Filter.c **** 
 911              		.loc 1 109 0 is_stmt 1
 912 0018 2800     		movs	r0, r5
 913              		@ sp needed
 914              	.LVL144:
 915              	.LVL145:
 916 001a 70BD     		pop	{r4, r5, r6, pc}
 917              		.cfi_endproc
 918              	.LFE46:
 919              		.size	CapSense_UpdateAllBaselines, .-CapSense_UpdateAllBaselines
 920              		.text
 921              	.Letext0:
 922              		.file 2 "c:\\program files (x86)\\cypress\\psoc creator\\4.4\\psoc creator\\import\\gnu\\arm\\5.4.
 923              		.file 3 "c:\\program files (x86)\\cypress\\psoc creator\\4.4\\psoc creator\\import\\gnu\\arm\\5.4.
 924              		.file 4 "Generated_Source\\PSoC6\\pdl\\drivers/peripheral/syslib/cy_syslib.h"
 925              		.file 5 "Generated_Source\\PSoC6\\CapSense_Configuration.h"
 926              		.file 6 "Generated_Source\\PSoC6\\CapSense_SmartSense_LL.h"
 927              		.file 7 "Generated_Source\\PSoC6\\CapSense_Structure.h"
 928              		.section	.debug_info,"",%progbits
 929              	.Ldebug_info0:
 930 0000 2D0B0000 		.4byte	0xb2d
 931 0004 0400     		.2byte	0x4
 932 0006 00000000 		.4byte	.Ldebug_abbrev0
 933 000a 04       		.byte	0x4
 934 000b 01       		.uleb128 0x1
 935 000c E5050000 		.4byte	.LASF122
 936 0010 0C       		.byte	0xc
 937 0011 9F050000 		.4byte	.LASF123
 938 0015 7F040000 		.4byte	.LASF124
 939 0019 00000000 		.4byte	.Ldebug_ranges0+0
 940 001d 00000000 		.4byte	0
 941 0021 00000000 		.4byte	.Ldebug_line0
 942 0025 02       		.uleb128 0x2
 943 0026 04       		.byte	0x4
 944 0027 05       		.byte	0x5
 945 0028 696E7400 		.ascii	"int\000"
ARM GAS  C:\Users\user\AppData\Local\Temp\cc0N1rlz.s 			page 49


 946 002c 03       		.uleb128 0x3
 947 002d 04       		.byte	0x4
 948 002e 07       		.byte	0x7
 949 002f 9C020000 		.4byte	.LASF0
 950 0033 03       		.uleb128 0x3
 951 0034 08       		.byte	0x8
 952 0035 05       		.byte	0x5
 953 0036 A3010000 		.4byte	.LASF1
 954 003a 03       		.uleb128 0x3
 955 003b 08       		.byte	0x8
 956 003c 04       		.byte	0x4
 957 003d 77060000 		.4byte	.LASF2
 958 0041 03       		.uleb128 0x3
 959 0042 01       		.byte	0x1
 960 0043 06       		.byte	0x6
 961 0044 B1010000 		.4byte	.LASF3
 962 0048 04       		.uleb128 0x4
 963 0049 7B000000 		.4byte	.LASF6
 964 004d 02       		.byte	0x2
 965 004e 1D       		.byte	0x1d
 966 004f 53000000 		.4byte	0x53
 967 0053 03       		.uleb128 0x3
 968 0054 01       		.byte	0x1
 969 0055 08       		.byte	0x8
 970 0056 61070000 		.4byte	.LASF4
 971 005a 03       		.uleb128 0x3
 972 005b 02       		.byte	0x2
 973 005c 05       		.byte	0x5
 974 005d 72030000 		.4byte	.LASF5
 975 0061 04       		.uleb128 0x4
 976 0062 88060000 		.4byte	.LASF7
 977 0066 02       		.byte	0x2
 978 0067 2B       		.byte	0x2b
 979 0068 6C000000 		.4byte	0x6c
 980 006c 03       		.uleb128 0x3
 981 006d 02       		.byte	0x2
 982 006e 07       		.byte	0x7
 983 006f E1020000 		.4byte	.LASF8
 984 0073 03       		.uleb128 0x3
 985 0074 04       		.byte	0x4
 986 0075 05       		.byte	0x5
 987 0076 BD010000 		.4byte	.LASF9
 988 007a 04       		.uleb128 0x4
 989 007b 35020000 		.4byte	.LASF10
 990 007f 02       		.byte	0x2
 991 0080 41       		.byte	0x41
 992 0081 85000000 		.4byte	0x85
 993 0085 03       		.uleb128 0x3
 994 0086 04       		.byte	0x4
 995 0087 07       		.byte	0x7
 996 0088 B8020000 		.4byte	.LASF11
 997 008c 03       		.uleb128 0x3
 998 008d 08       		.byte	0x8
 999 008e 07       		.byte	0x7
 1000 008f D2000000 		.4byte	.LASF12
 1001 0093 04       		.uleb128 0x4
 1002 0094 FB070000 		.4byte	.LASF13
ARM GAS  C:\Users\user\AppData\Local\Temp\cc0N1rlz.s 			page 50


 1003 0098 03       		.byte	0x3
 1004 0099 18       		.byte	0x18
 1005 009a 48000000 		.4byte	0x48
 1006 009e 04       		.uleb128 0x4
 1007 009f DD010000 		.4byte	.LASF14
 1008 00a3 03       		.byte	0x3
 1009 00a4 24       		.byte	0x24
 1010 00a5 61000000 		.4byte	0x61
 1011 00a9 04       		.uleb128 0x4
 1012 00aa DC050000 		.4byte	.LASF15
 1013 00ae 03       		.byte	0x3
 1014 00af 30       		.byte	0x30
 1015 00b0 7A000000 		.4byte	0x7a
 1016 00b4 03       		.uleb128 0x3
 1017 00b5 04       		.byte	0x4
 1018 00b6 07       		.byte	0x7
 1019 00b7 08080000 		.4byte	.LASF16
 1020 00bb 03       		.uleb128 0x3
 1021 00bc 01       		.byte	0x1
 1022 00bd 08       		.byte	0x8
 1023 00be 83060000 		.4byte	.LASF17
 1024 00c2 03       		.uleb128 0x3
 1025 00c3 04       		.byte	0x4
 1026 00c4 04       		.byte	0x4
 1027 00c5 79040000 		.4byte	.LASF18
 1028 00c9 03       		.uleb128 0x3
 1029 00ca 08       		.byte	0x8
 1030 00cb 04       		.byte	0x4
 1031 00cc E6010000 		.4byte	.LASF19
 1032 00d0 05       		.uleb128 0x5
 1033 00d1 F6000000 		.4byte	.LASF20
 1034 00d5 04       		.byte	0x4
 1035 00d6 E703     		.2byte	0x3e7
 1036 00d8 A9000000 		.4byte	0xa9
 1037 00dc 05       		.uleb128 0x5
 1038 00dd D7010000 		.4byte	.LASF21
 1039 00e1 04       		.byte	0x4
 1040 00e2 EA03     		.2byte	0x3ea
 1041 00e4 93000000 		.4byte	0x93
 1042 00e8 05       		.uleb128 0x5
 1043 00e9 00000000 		.4byte	.LASF22
 1044 00ed 04       		.byte	0x4
 1045 00ee EB03     		.2byte	0x3eb
 1046 00f0 9E000000 		.4byte	0x9e
 1047 00f4 05       		.uleb128 0x5
 1048 00f5 23020000 		.4byte	.LASF23
 1049 00f9 04       		.byte	0x4
 1050 00fa EC03     		.2byte	0x3ec
 1051 00fc A9000000 		.4byte	0xa9
 1052 0100 04       		.uleb128 0x4
 1053 0101 40010000 		.4byte	.LASF24
 1054 0105 05       		.byte	0x5
 1055 0106 F2       		.byte	0xf2
 1056 0107 E8000000 		.4byte	0xe8
 1057 010b 04       		.uleb128 0x4
 1058 010c 05010000 		.4byte	.LASF25
 1059 0110 05       		.byte	0x5
ARM GAS  C:\Users\user\AppData\Local\Temp\cc0N1rlz.s 			page 51


 1060 0111 F6       		.byte	0xf6
 1061 0112 DC000000 		.4byte	0xdc
 1062 0116 06       		.uleb128 0x6
 1063 0117 0C       		.byte	0xc
 1064 0118 06       		.byte	0x6
 1065 0119 6E       		.byte	0x6e
 1066 011a 73010000 		.4byte	0x173
 1067 011e 07       		.uleb128 0x7
 1068 011f F4040000 		.4byte	.LASF26
 1069 0123 06       		.byte	0x6
 1070 0124 73       		.byte	0x73
 1071 0125 E8000000 		.4byte	0xe8
 1072 0129 00       		.byte	0
 1073 012a 07       		.uleb128 0x7
 1074 012b FB040000 		.4byte	.LASF27
 1075 012f 06       		.byte	0x6
 1076 0130 77       		.byte	0x77
 1077 0131 E8000000 		.4byte	0xe8
 1078 0135 02       		.byte	0x2
 1079 0136 07       		.uleb128 0x7
 1080 0137 02050000 		.4byte	.LASF28
 1081 013b 06       		.byte	0x6
 1082 013c 7B       		.byte	0x7b
 1083 013d E8000000 		.4byte	0xe8
 1084 0141 04       		.byte	0x4
 1085 0142 07       		.uleb128 0x7
 1086 0143 09050000 		.4byte	.LASF29
 1087 0147 06       		.byte	0x6
 1088 0148 7F       		.byte	0x7f
 1089 0149 E8000000 		.4byte	0xe8
 1090 014d 06       		.byte	0x6
 1091 014e 07       		.uleb128 0x7
 1092 014f 10050000 		.4byte	.LASF30
 1093 0153 06       		.byte	0x6
 1094 0154 83       		.byte	0x83
 1095 0155 E8000000 		.4byte	0xe8
 1096 0159 08       		.byte	0x8
 1097 015a 07       		.uleb128 0x7
 1098 015b 17050000 		.4byte	.LASF31
 1099 015f 06       		.byte	0x6
 1100 0160 87       		.byte	0x87
 1101 0161 DC000000 		.4byte	0xdc
 1102 0165 0A       		.byte	0xa
 1103 0166 07       		.uleb128 0x7
 1104 0167 1E050000 		.4byte	.LASF32
 1105 016b 06       		.byte	0x6
 1106 016c 8B       		.byte	0x8b
 1107 016d DC000000 		.4byte	0xdc
 1108 0171 0B       		.byte	0xb
 1109 0172 00       		.byte	0
 1110 0173 04       		.uleb128 0x4
 1111 0174 B2040000 		.4byte	.LASF33
 1112 0178 06       		.byte	0x6
 1113 0179 8C       		.byte	0x8c
 1114 017a 16010000 		.4byte	0x116
 1115 017e 08       		.uleb128 0x8
 1116 017f 01       		.byte	0x1
ARM GAS  C:\Users\user\AppData\Local\Temp\cc0N1rlz.s 			page 52


 1117 0180 53000000 		.4byte	0x53
 1118 0184 07       		.byte	0x7
 1119 0185 61       		.byte	0x61
 1120 0186 AF010000 		.4byte	0x1af
 1121 018a 09       		.uleb128 0x9
 1122 018b DF040000 		.4byte	.LASF34
 1123 018f 01       		.byte	0x1
 1124 0190 09       		.uleb128 0x9
 1125 0191 58010000 		.4byte	.LASF35
 1126 0195 02       		.byte	0x2
 1127 0196 09       		.uleb128 0x9
 1128 0197 FA060000 		.4byte	.LASF36
 1129 019b 03       		.byte	0x3
 1130 019c 09       		.uleb128 0x9
 1131 019d 7B020000 		.4byte	.LASF37
 1132 01a1 04       		.byte	0x4
 1133 01a2 09       		.uleb128 0x9
 1134 01a3 88050000 		.4byte	.LASF38
 1135 01a7 05       		.byte	0x5
 1136 01a8 09       		.uleb128 0x9
 1137 01a9 42080000 		.4byte	.LASF39
 1138 01ad 06       		.byte	0x6
 1139 01ae 00       		.byte	0
 1140 01af 04       		.uleb128 0x4
 1141 01b0 E4060000 		.4byte	.LASF40
 1142 01b4 07       		.byte	0x7
 1143 01b5 68       		.byte	0x68
 1144 01b6 7E010000 		.4byte	0x17e
 1145 01ba 08       		.uleb128 0x8
 1146 01bb 01       		.byte	0x1
 1147 01bc 53000000 		.4byte	0x53
 1148 01c0 07       		.byte	0x7
 1149 01c1 6F       		.byte	0x6f
 1150 01c2 DF010000 		.4byte	0x1df
 1151 01c6 09       		.uleb128 0x9
 1152 01c7 33030000 		.4byte	.LASF41
 1153 01cb 00       		.byte	0
 1154 01cc 09       		.uleb128 0x9
 1155 01cd 47040000 		.4byte	.LASF42
 1156 01d1 01       		.byte	0x1
 1157 01d2 09       		.uleb128 0x9
 1158 01d3 8F000000 		.4byte	.LASF43
 1159 01d7 02       		.byte	0x2
 1160 01d8 09       		.uleb128 0x9
 1161 01d9 48020000 		.4byte	.LASF44
 1162 01dd 03       		.byte	0x3
 1163 01de 00       		.byte	0
 1164 01df 04       		.uleb128 0x4
 1165 01e0 ED010000 		.4byte	.LASF45
 1166 01e4 07       		.byte	0x7
 1167 01e5 74       		.byte	0x74
 1168 01e6 BA010000 		.4byte	0x1ba
 1169 01ea 06       		.uleb128 0x6
 1170 01eb 14       		.byte	0x14
 1171 01ec 07       		.byte	0x7
 1172 01ed 8C       		.byte	0x8c
 1173 01ee 8F020000 		.4byte	0x28f
ARM GAS  C:\Users\user\AppData\Local\Temp\cc0N1rlz.s 			page 53


 1174 01f2 07       		.uleb128 0x7
 1175 01f3 C3070000 		.4byte	.LASF46
 1176 01f7 07       		.byte	0x7
 1177 01f8 92       		.byte	0x92
 1178 01f9 E8000000 		.4byte	0xe8
 1179 01fd 00       		.byte	0
 1180 01fe 07       		.uleb128 0x7
 1181 01ff 39080000 		.4byte	.LASF47
 1182 0203 07       		.byte	0x7
 1183 0204 97       		.byte	0x97
 1184 0205 00010000 		.4byte	0x100
 1185 0209 02       		.byte	0x2
 1186 020a 07       		.uleb128 0x7
 1187 020b 61080000 		.4byte	.LASF48
 1188 020f 07       		.byte	0x7
 1189 0210 9C       		.byte	0x9c
 1190 0211 DC000000 		.4byte	0xdc
 1191 0215 04       		.byte	0x4
 1192 0216 07       		.uleb128 0x7
 1193 0217 1A040000 		.4byte	.LASF49
 1194 021b 07       		.byte	0x7
 1195 021c A1       		.byte	0xa1
 1196 021d DC000000 		.4byte	0xdc
 1197 0221 05       		.byte	0x5
 1198 0222 07       		.uleb128 0x7
 1199 0223 2A020000 		.4byte	.LASF50
 1200 0227 07       		.byte	0x7
 1201 0228 A6       		.byte	0xa6
 1202 0229 DC000000 		.4byte	0xdc
 1203 022d 06       		.byte	0x6
 1204 022e 07       		.uleb128 0x7
 1205 022f D9060000 		.4byte	.LASF51
 1206 0233 07       		.byte	0x7
 1207 0234 AB       		.byte	0xab
 1208 0235 DC000000 		.4byte	0xdc
 1209 0239 07       		.byte	0x7
 1210 023a 07       		.uleb128 0x7
 1211 023b D6020000 		.4byte	.LASF52
 1212 023f 07       		.byte	0x7
 1213 0240 B2       		.byte	0xb2
 1214 0241 0B010000 		.4byte	0x10b
 1215 0245 08       		.byte	0x8
 1216 0246 07       		.uleb128 0x7
 1217 0247 AD030000 		.4byte	.LASF53
 1218 024b 07       		.byte	0x7
 1219 024c BA       		.byte	0xba
 1220 024d 8F020000 		.4byte	0x28f
 1221 0251 09       		.byte	0x9
 1222 0252 07       		.uleb128 0x7
 1223 0253 93060000 		.4byte	.LASF54
 1224 0257 07       		.byte	0x7
 1225 0258 C3       		.byte	0xc3
 1226 0259 E8000000 		.4byte	0xe8
 1227 025d 0A       		.byte	0xa
 1228 025e 07       		.uleb128 0x7
 1229 025f 11080000 		.4byte	.LASF55
 1230 0263 07       		.byte	0x7
ARM GAS  C:\Users\user\AppData\Local\Temp\cc0N1rlz.s 			page 54


 1231 0264 C8       		.byte	0xc8
 1232 0265 DC000000 		.4byte	0xdc
 1233 0269 0C       		.byte	0xc
 1234 026a 07       		.uleb128 0x7
 1235 026b 85000000 		.4byte	.LASF56
 1236 026f 07       		.byte	0x7
 1237 0270 CF       		.byte	0xcf
 1238 0271 E8000000 		.4byte	0xe8
 1239 0275 0E       		.byte	0xe
 1240 0276 07       		.uleb128 0x7
 1241 0277 23040000 		.4byte	.LASF57
 1242 027b 07       		.byte	0x7
 1243 027c D4       		.byte	0xd4
 1244 027d E8000000 		.4byte	0xe8
 1245 0281 10       		.byte	0x10
 1246 0282 07       		.uleb128 0x7
 1247 0283 E1030000 		.4byte	.LASF58
 1248 0287 07       		.byte	0x7
 1249 0288 D9       		.byte	0xd9
 1250 0289 DC000000 		.4byte	0xdc
 1251 028d 12       		.byte	0x12
 1252 028e 00       		.byte	0
 1253 028f 0A       		.uleb128 0xa
 1254 0290 DC000000 		.4byte	0xdc
 1255 0294 9F020000 		.4byte	0x29f
 1256 0298 0B       		.uleb128 0xb
 1257 0299 B4000000 		.4byte	0xb4
 1258 029d 00       		.byte	0
 1259 029e 00       		.byte	0
 1260 029f 04       		.uleb128 0x4
 1261 02a0 9A060000 		.4byte	.LASF59
 1262 02a4 07       		.byte	0x7
 1263 02a5 DA       		.byte	0xda
 1264 02a6 EA010000 		.4byte	0x1ea
 1265 02aa 0A       		.uleb128 0xa
 1266 02ab E8000000 		.4byte	0xe8
 1267 02af BA020000 		.4byte	0x2ba
 1268 02b3 0B       		.uleb128 0xb
 1269 02b4 B4000000 		.4byte	0xb4
 1270 02b8 00       		.byte	0
 1271 02b9 00       		.byte	0
 1272 02ba 0C       		.uleb128 0xc
 1273 02bb 0A       		.byte	0xa
 1274 02bc 07       		.byte	0x7
 1275 02bd A101     		.2byte	0x1a1
 1276 02bf 12030000 		.4byte	0x312
 1277 02c3 0D       		.uleb128 0xd
 1278 02c4 72617700 		.ascii	"raw\000"
 1279 02c8 07       		.byte	0x7
 1280 02c9 A601     		.2byte	0x1a6
 1281 02cb AA020000 		.4byte	0x2aa
 1282 02cf 00       		.byte	0
 1283 02d0 0E       		.uleb128 0xe
 1284 02d1 97020000 		.4byte	.LASF60
 1285 02d5 07       		.byte	0x7
 1286 02d6 AB01     		.2byte	0x1ab
 1287 02d8 AA020000 		.4byte	0x2aa
ARM GAS  C:\Users\user\AppData\Local\Temp\cc0N1rlz.s 			page 55


 1288 02dc 02       		.byte	0x2
 1289 02dd 0E       		.uleb128 0xe
 1290 02de 40020000 		.4byte	.LASF61
 1291 02e2 07       		.byte	0x7
 1292 02e3 B101     		.2byte	0x1b1
 1293 02e5 8F020000 		.4byte	0x28f
 1294 02e9 04       		.byte	0x4
 1295 02ea 0E       		.uleb128 0xe
 1296 02eb 00010000 		.4byte	.LASF62
 1297 02ef 07       		.byte	0x7
 1298 02f0 B601     		.2byte	0x1b6
 1299 02f2 00010000 		.4byte	0x100
 1300 02f6 06       		.byte	0x6
 1301 02f7 0E       		.uleb128 0xe
 1302 02f8 6F070000 		.4byte	.LASF63
 1303 02fc 07       		.byte	0x7
 1304 02fd BB01     		.2byte	0x1bb
 1305 02ff 12030000 		.4byte	0x312
 1306 0303 08       		.byte	0x8
 1307 0304 0E       		.uleb128 0xe
 1308 0305 38070000 		.4byte	.LASF64
 1309 0309 07       		.byte	0x7
 1310 030a C101     		.2byte	0x1c1
 1311 030c 8F020000 		.4byte	0x28f
 1312 0310 09       		.byte	0x9
 1313 0311 00       		.byte	0
 1314 0312 0A       		.uleb128 0xa
 1315 0313 0B010000 		.4byte	0x10b
 1316 0317 22030000 		.4byte	0x322
 1317 031b 0B       		.uleb128 0xb
 1318 031c B4000000 		.4byte	0xb4
 1319 0320 00       		.byte	0
 1320 0321 00       		.byte	0
 1321 0322 05       		.uleb128 0x5
 1322 0323 BA000000 		.4byte	.LASF65
 1323 0327 07       		.byte	0x7
 1324 0328 C201     		.2byte	0x1c2
 1325 032a BA020000 		.4byte	0x2ba
 1326 032e 0C       		.uleb128 0xc
 1327 032f 30       		.byte	0x30
 1328 0330 07       		.byte	0x7
 1329 0331 9902     		.2byte	0x299
 1330 0333 08040000 		.4byte	0x408
 1331 0337 0E       		.uleb128 0xe
 1332 0338 E9000000 		.4byte	.LASF66
 1333 033c 07       		.byte	0x7
 1334 033d A202     		.2byte	0x2a2
 1335 033f 08040000 		.4byte	0x408
 1336 0343 00       		.byte	0
 1337 0344 0E       		.uleb128 0xe
 1338 0345 66030000 		.4byte	.LASF67
 1339 0349 07       		.byte	0x7
 1340 034a A902     		.2byte	0x2a9
 1341 034c 0F040000 		.4byte	0x40f
 1342 0350 04       		.byte	0x4
 1343 0351 0E       		.uleb128 0xe
 1344 0352 C6010000 		.4byte	.LASF68
ARM GAS  C:\Users\user\AppData\Local\Temp\cc0N1rlz.s 			page 56


 1345 0356 07       		.byte	0x7
 1346 0357 AF02     		.2byte	0x2af
 1347 0359 11040000 		.4byte	0x411
 1348 035d 08       		.byte	0x8
 1349 035e 0E       		.uleb128 0xe
 1350 035f 3E050000 		.4byte	.LASF69
 1351 0363 07       		.byte	0x7
 1352 0364 B402     		.2byte	0x2b4
 1353 0366 0F040000 		.4byte	0x40f
 1354 036a 0C       		.byte	0xc
 1355 036b 0E       		.uleb128 0xe
 1356 036c 9D070000 		.4byte	.LASF70
 1357 0370 07       		.byte	0x7
 1358 0371 BB02     		.2byte	0x2bb
 1359 0373 17040000 		.4byte	0x417
 1360 0377 10       		.byte	0x10
 1361 0378 0E       		.uleb128 0xe
 1362 0379 0D040000 		.4byte	.LASF71
 1363 037d 07       		.byte	0x7
 1364 037e C002     		.2byte	0x2c0
 1365 0380 F4000000 		.4byte	0xf4
 1366 0384 14       		.byte	0x14
 1367 0385 0E       		.uleb128 0xe
 1368 0386 CE070000 		.4byte	.LASF72
 1369 038a 07       		.byte	0x7
 1370 038b C702     		.2byte	0x2c7
 1371 038d E8000000 		.4byte	0xe8
 1372 0391 18       		.byte	0x18
 1373 0392 0E       		.uleb128 0xe
 1374 0393 2A040000 		.4byte	.LASF73
 1375 0397 07       		.byte	0x7
 1376 0398 D202     		.2byte	0x2d2
 1377 039a DC000000 		.4byte	0xdc
 1378 039e 1A       		.byte	0x1a
 1379 039f 0E       		.uleb128 0xe
 1380 03a0 CA020000 		.4byte	.LASF74
 1381 03a4 07       		.byte	0x7
 1382 03a5 D702     		.2byte	0x2d7
 1383 03a7 DC000000 		.4byte	0xdc
 1384 03ab 1B       		.byte	0x1b
 1385 03ac 0E       		.uleb128 0xe
 1386 03ad B5030000 		.4byte	.LASF75
 1387 03b1 07       		.byte	0x7
 1388 03b2 DF02     		.2byte	0x2df
 1389 03b4 DC000000 		.4byte	0xdc
 1390 03b8 1C       		.byte	0x1c
 1391 03b9 0E       		.uleb128 0xe
 1392 03ba 65020000 		.4byte	.LASF76
 1393 03be 07       		.byte	0x7
 1394 03bf E602     		.2byte	0x2e6
 1395 03c1 DC000000 		.4byte	0xdc
 1396 03c5 1D       		.byte	0x1d
 1397 03c6 0E       		.uleb128 0xe
 1398 03c7 08020000 		.4byte	.LASF77
 1399 03cb 07       		.byte	0x7
 1400 03cc EC02     		.2byte	0x2ec
 1401 03ce E8000000 		.4byte	0xe8
ARM GAS  C:\Users\user\AppData\Local\Temp\cc0N1rlz.s 			page 57


 1402 03d2 1E       		.byte	0x1e
 1403 03d3 0E       		.uleb128 0xe
 1404 03d4 33040000 		.4byte	.LASF78
 1405 03d8 07       		.byte	0x7
 1406 03d9 F602     		.2byte	0x2f6
 1407 03db F4000000 		.4byte	0xf4
 1408 03df 20       		.byte	0x20
 1409 03e0 0E       		.uleb128 0xe
 1410 03e1 A9020000 		.4byte	.LASF79
 1411 03e5 07       		.byte	0x7
 1412 03e6 FE02     		.2byte	0x2fe
 1413 03e8 1D040000 		.4byte	0x41d
 1414 03ec 24       		.byte	0x24
 1415 03ed 0E       		.uleb128 0xe
 1416 03ee 07000000 		.4byte	.LASF80
 1417 03f2 07       		.byte	0x7
 1418 03f3 0303     		.2byte	0x303
 1419 03f5 0F040000 		.4byte	0x40f
 1420 03f9 28       		.byte	0x28
 1421 03fa 0E       		.uleb128 0xe
 1422 03fb AB000000 		.4byte	.LASF81
 1423 03ff 07       		.byte	0x7
 1424 0400 0803     		.2byte	0x308
 1425 0402 DC000000 		.4byte	0xdc
 1426 0406 2C       		.byte	0x2c
 1427 0407 00       		.byte	0
 1428 0408 0F       		.uleb128 0xf
 1429 0409 04       		.byte	0x4
 1430 040a 0E040000 		.4byte	0x40e
 1431 040e 10       		.uleb128 0x10
 1432 040f 11       		.uleb128 0x11
 1433 0410 04       		.byte	0x4
 1434 0411 0F       		.uleb128 0xf
 1435 0412 04       		.byte	0x4
 1436 0413 22030000 		.4byte	0x322
 1437 0417 0F       		.uleb128 0xf
 1438 0418 04       		.byte	0x4
 1439 0419 DC000000 		.4byte	0xdc
 1440 041d 0F       		.uleb128 0xf
 1441 041e 04       		.byte	0x4
 1442 041f 73010000 		.4byte	0x173
 1443 0423 05       		.uleb128 0x5
 1444 0424 25050000 		.4byte	.LASF82
 1445 0428 07       		.byte	0x7
 1446 0429 0903     		.2byte	0x309
 1447 042b 2E030000 		.4byte	0x32e
 1448 042f 0C       		.uleb128 0xc
 1449 0430 90       		.byte	0x90
 1450 0431 07       		.byte	0x7
 1451 0432 0F03     		.2byte	0x30f
 1452 0434 46040000 		.4byte	0x446
 1453 0438 0E       		.uleb128 0xe
 1454 0439 DA070000 		.4byte	.LASF83
 1455 043d 07       		.byte	0x7
 1456 043e 1403     		.2byte	0x314
 1457 0440 46040000 		.4byte	0x446
 1458 0444 00       		.byte	0
ARM GAS  C:\Users\user\AppData\Local\Temp\cc0N1rlz.s 			page 58


 1459 0445 00       		.byte	0
 1460 0446 0A       		.uleb128 0xa
 1461 0447 23040000 		.4byte	0x423
 1462 044b 56040000 		.4byte	0x456
 1463 044f 0B       		.uleb128 0xb
 1464 0450 B4000000 		.4byte	0xb4
 1465 0454 02       		.byte	0x2
 1466 0455 00       		.byte	0
 1467 0456 05       		.uleb128 0x5
 1468 0457 AD070000 		.4byte	.LASF84
 1469 045b 07       		.byte	0x7
 1470 045c 1503     		.2byte	0x315
 1471 045e 2F040000 		.4byte	0x42f
 1472 0462 12       		.uleb128 0x12
 1473 0463 0E030000 		.4byte	.LASF88
 1474 0467 01       		.byte	0x1
 1475 0468 2A02     		.2byte	0x22a
 1476 046a 00000000 		.4byte	.LFB54
 1477 046e 1E000000 		.4byte	.LFE54-.LFB54
 1478 0472 01       		.uleb128 0x1
 1479 0473 9C       		.byte	0x9c
 1480 0474 A7040000 		.4byte	0x4a7
 1481 0478 13       		.uleb128 0x13
 1482 0479 1E080000 		.4byte	.LASF85
 1483 047d 01       		.byte	0x1
 1484 047e 2A02     		.2byte	0x22a
 1485 0480 11040000 		.4byte	0x411
 1486 0484 01       		.uleb128 0x1
 1487 0485 50       		.byte	0x50
 1488 0486 14       		.uleb128 0x14
 1489 0487 7C030000 		.4byte	.LASF86
 1490 048b 01       		.byte	0x1
 1491 048c 2A02     		.2byte	0x22a
 1492 048e F4000000 		.4byte	0xf4
 1493 0492 00000000 		.4byte	.LLST0
 1494 0496 14       		.uleb128 0x14
 1495 0497 D4050000 		.4byte	.LASF87
 1496 049b 01       		.byte	0x1
 1497 049c 2A02     		.2byte	0x22a
 1498 049e F4000000 		.4byte	0xf4
 1499 04a2 21000000 		.4byte	.LLST1
 1500 04a6 00       		.byte	0
 1501 04a7 12       		.uleb128 0x12
 1502 04a8 5D000000 		.4byte	.LASF89
 1503 04ac 01       		.byte	0x1
 1504 04ad 0F02     		.2byte	0x20f
 1505 04af 00000000 		.4byte	.LFB53
 1506 04b3 1E000000 		.4byte	.LFE53-.LFB53
 1507 04b7 01       		.uleb128 0x1
 1508 04b8 9C       		.byte	0x9c
 1509 04b9 0A050000 		.4byte	0x50a
 1510 04bd 14       		.uleb128 0x14
 1511 04be 1E080000 		.4byte	.LASF85
 1512 04c2 01       		.byte	0x1
 1513 04c3 0F02     		.2byte	0x20f
 1514 04c5 11040000 		.4byte	0x411
 1515 04c9 42000000 		.4byte	.LLST2
ARM GAS  C:\Users\user\AppData\Local\Temp\cc0N1rlz.s 			page 59


 1516 04cd 14       		.uleb128 0x14
 1517 04ce 7C030000 		.4byte	.LASF86
 1518 04d2 01       		.byte	0x1
 1519 04d3 0F02     		.2byte	0x20f
 1520 04d5 F4000000 		.4byte	0xf4
 1521 04d9 6E000000 		.4byte	.LLST3
 1522 04dd 15       		.uleb128 0x15
 1523 04de C8050000 		.4byte	.LASF93
 1524 04e2 01       		.byte	0x1
 1525 04e3 1102     		.2byte	0x211
 1526 04e5 F4000000 		.4byte	0xf4
 1527 04e9 9A000000 		.4byte	.LLST4
 1528 04ed 16       		.uleb128 0x16
 1529 04ee 14000000 		.4byte	.LVL6
 1530 04f2 62040000 		.4byte	0x462
 1531 04f6 17       		.uleb128 0x17
 1532 04f7 01       		.uleb128 0x1
 1533 04f8 50       		.byte	0x50
 1534 04f9 02       		.uleb128 0x2
 1535 04fa 76       		.byte	0x76
 1536 04fb 00       		.sleb128 0
 1537 04fc 17       		.uleb128 0x17
 1538 04fd 01       		.uleb128 0x1
 1539 04fe 51       		.byte	0x51
 1540 04ff 02       		.uleb128 0x2
 1541 0500 75       		.byte	0x75
 1542 0501 00       		.sleb128 0
 1543 0502 17       		.uleb128 0x17
 1544 0503 01       		.uleb128 0x1
 1545 0504 52       		.byte	0x52
 1546 0505 02       		.uleb128 0x2
 1547 0506 74       		.byte	0x74
 1548 0507 00       		.sleb128 0
 1549 0508 00       		.byte	0
 1550 0509 00       		.byte	0
 1551 050a 12       		.uleb128 0x12
 1552 050b EB030000 		.4byte	.LASF90
 1553 050f 01       		.byte	0x1
 1554 0510 F301     		.2byte	0x1f3
 1555 0512 00000000 		.4byte	.LFB52
 1556 0516 24000000 		.4byte	.LFE52-.LFB52
 1557 051a 01       		.uleb128 0x1
 1558 051b 9C       		.byte	0x9c
 1559 051c 85050000 		.4byte	0x585
 1560 0520 14       		.uleb128 0x14
 1561 0521 8E030000 		.4byte	.LASF91
 1562 0525 01       		.byte	0x1
 1563 0526 F301     		.2byte	0x1f3
 1564 0528 F4000000 		.4byte	0xf4
 1565 052c DC000000 		.4byte	.LLST5
 1566 0530 14       		.uleb128 0x14
 1567 0531 1A020000 		.4byte	.LASF92
 1568 0535 01       		.byte	0x1
 1569 0536 F301     		.2byte	0x1f3
 1570 0538 F4000000 		.4byte	0xf4
 1571 053c FD000000 		.4byte	.LLST6
 1572 0540 15       		.uleb128 0x15
ARM GAS  C:\Users\user\AppData\Local\Temp\cc0N1rlz.s 			page 60


 1573 0541 1E080000 		.4byte	.LASF85
 1574 0545 01       		.byte	0x1
 1575 0546 F501     		.2byte	0x1f5
 1576 0548 11040000 		.4byte	0x411
 1577 054c 1E010000 		.4byte	.LLST7
 1578 0550 18       		.uleb128 0x18
 1579 0551 D7030000 		.4byte	.LASF96
 1580 0555 01       		.byte	0x1
 1581 0556 F601     		.2byte	0x1f6
 1582 0558 85050000 		.4byte	0x585
 1583 055c 16       		.uleb128 0x16
 1584 055d 1C000000 		.4byte	.LVL17
 1585 0561 A7040000 		.4byte	0x4a7
 1586 0565 17       		.uleb128 0x17
 1587 0566 01       		.uleb128 0x1
 1588 0567 50       		.byte	0x50
 1589 0568 0F       		.uleb128 0xf
 1590 0569 F3       		.byte	0xf3
 1591 056a 01       		.uleb128 0x1
 1592 056b 51       		.byte	0x51
 1593 056c 32       		.byte	0x32
 1594 056d 24       		.byte	0x24
 1595 056e F3       		.byte	0xf3
 1596 056f 01       		.uleb128 0x1
 1597 0570 51       		.byte	0x51
 1598 0571 22       		.byte	0x22
 1599 0572 31       		.byte	0x31
 1600 0573 24       		.byte	0x24
 1601 0574 74       		.byte	0x74
 1602 0575 08       		.sleb128 8
 1603 0576 06       		.byte	0x6
 1604 0577 22       		.byte	0x22
 1605 0578 17       		.uleb128 0x17
 1606 0579 01       		.uleb128 0x1
 1607 057a 51       		.byte	0x51
 1608 057b 07       		.uleb128 0x7
 1609 057c 74       		.byte	0x74
 1610 057d 1A       		.sleb128 26
 1611 057e 94       		.byte	0x94
 1612 057f 01       		.byte	0x1
 1613 0580 08       		.byte	0x8
 1614 0581 FF       		.byte	0xff
 1615 0582 1A       		.byte	0x1a
 1616 0583 00       		.byte	0
 1617 0584 00       		.byte	0
 1618 0585 0F       		.uleb128 0xf
 1619 0586 04       		.byte	0x4
 1620 0587 8B050000 		.4byte	0x58b
 1621 058b 19       		.uleb128 0x19
 1622 058c 23040000 		.4byte	0x423
 1623 0590 12       		.uleb128 0x12
 1624 0591 16070000 		.4byte	.LASF94
 1625 0595 01       		.byte	0x1
 1626 0596 C701     		.2byte	0x1c7
 1627 0598 00000000 		.4byte	.LFB51
 1628 059c 28000000 		.4byte	.LFE51-.LFB51
 1629 05a0 01       		.uleb128 0x1
ARM GAS  C:\Users\user\AppData\Local\Temp\cc0N1rlz.s 			page 61


 1630 05a1 9C       		.byte	0x9c
 1631 05a2 F9050000 		.4byte	0x5f9
 1632 05a6 14       		.uleb128 0x14
 1633 05a7 8E030000 		.4byte	.LASF91
 1634 05ab 01       		.byte	0x1
 1635 05ac C701     		.2byte	0x1c7
 1636 05ae F4000000 		.4byte	0xf4
 1637 05b2 7C010000 		.4byte	.LLST8
 1638 05b6 15       		.uleb128 0x15
 1639 05b7 1A020000 		.4byte	.LASF92
 1640 05bb 01       		.byte	0x1
 1641 05bc C901     		.2byte	0x1c9
 1642 05be F4000000 		.4byte	0xf4
 1643 05c2 A8010000 		.4byte	.LLST9
 1644 05c6 15       		.uleb128 0x15
 1645 05c7 6D020000 		.4byte	.LASF95
 1646 05cb 01       		.byte	0x1
 1647 05cc CA01     		.2byte	0x1ca
 1648 05ce F4000000 		.4byte	0xf4
 1649 05d2 E9010000 		.4byte	.LLST10
 1650 05d6 18       		.uleb128 0x18
 1651 05d7 D7030000 		.4byte	.LASF96
 1652 05db 01       		.byte	0x1
 1653 05dc CC01     		.2byte	0x1cc
 1654 05de 85050000 		.4byte	0x585
 1655 05e2 16       		.uleb128 0x16
 1656 05e3 1A000000 		.4byte	.LVL25
 1657 05e7 0A050000 		.4byte	0x50a
 1658 05eb 17       		.uleb128 0x17
 1659 05ec 01       		.uleb128 0x1
 1660 05ed 50       		.byte	0x50
 1661 05ee 02       		.uleb128 0x2
 1662 05ef 75       		.byte	0x75
 1663 05f0 00       		.sleb128 0
 1664 05f1 17       		.uleb128 0x17
 1665 05f2 01       		.uleb128 0x1
 1666 05f3 51       		.byte	0x51
 1667 05f4 02       		.uleb128 0x2
 1668 05f5 74       		.byte	0x74
 1669 05f6 00       		.sleb128 0
 1670 05f7 00       		.byte	0
 1671 05f8 00       		.byte	0
 1672 05f9 12       		.uleb128 0x12
 1673 05fa 7D070000 		.4byte	.LASF97
 1674 05fe 01       		.byte	0x1
 1675 05ff A301     		.2byte	0x1a3
 1676 0601 00000000 		.4byte	.LFB50
 1677 0605 16000000 		.4byte	.LFE50-.LFB50
 1678 0609 01       		.uleb128 0x1
 1679 060a 9C       		.byte	0x9c
 1680 060b 30060000 		.4byte	0x630
 1681 060f 15       		.uleb128 0x15
 1682 0610 8E030000 		.4byte	.LASF91
 1683 0614 01       		.byte	0x1
 1684 0615 A501     		.2byte	0x1a5
 1685 0617 F4000000 		.4byte	0xf4
 1686 061b FC010000 		.4byte	.LLST11
ARM GAS  C:\Users\user\AppData\Local\Temp\cc0N1rlz.s 			page 62


 1687 061f 16       		.uleb128 0x16
 1688 0620 0C000000 		.4byte	.LVL32
 1689 0624 90050000 		.4byte	0x590
 1690 0628 17       		.uleb128 0x17
 1691 0629 01       		.uleb128 0x1
 1692 062a 50       		.byte	0x50
 1693 062b 02       		.uleb128 0x2
 1694 062c 74       		.byte	0x74
 1695 062d 00       		.sleb128 0
 1696 062e 00       		.byte	0
 1697 062f 00       		.byte	0
 1698 0630 12       		.uleb128 0x12
 1699 0631 41070000 		.4byte	.LASF98
 1700 0635 01       		.byte	0x1
 1701 0636 7B02     		.2byte	0x27b
 1702 0638 00000000 		.4byte	.LFB56
 1703 063c 50000000 		.4byte	.LFE56-.LFB56
 1704 0640 01       		.uleb128 0x1
 1705 0641 9C       		.byte	0x9c
 1706 0642 BC060000 		.4byte	0x6bc
 1707 0646 14       		.uleb128 0x14
 1708 0647 8E030000 		.4byte	.LASF91
 1709 064b 01       		.byte	0x1
 1710 064c 7B02     		.2byte	0x27b
 1711 064e F4000000 		.4byte	0xf4
 1712 0652 3E020000 		.4byte	.LLST12
 1713 0656 15       		.uleb128 0x15
 1714 0657 1A020000 		.4byte	.LASF92
 1715 065b 01       		.byte	0x1
 1716 065c 7D02     		.2byte	0x27d
 1717 065e F4000000 		.4byte	0xf4
 1718 0662 6A020000 		.4byte	.LLST13
 1719 0666 15       		.uleb128 0x15
 1720 0667 6D020000 		.4byte	.LASF95
 1721 066b 01       		.byte	0x1
 1722 066c 7E02     		.2byte	0x27e
 1723 066e F4000000 		.4byte	0xf4
 1724 0672 AB020000 		.4byte	.LLST14
 1725 0676 18       		.uleb128 0x18
 1726 0677 D7030000 		.4byte	.LASF96
 1727 067b 01       		.byte	0x1
 1728 067c 8002     		.2byte	0x280
 1729 067e 85050000 		.4byte	0x585
 1730 0682 15       		.uleb128 0x15
 1731 0683 1E080000 		.4byte	.LASF85
 1732 0687 01       		.byte	0x1
 1733 0688 8102     		.2byte	0x281
 1734 068a 11040000 		.4byte	0x411
 1735 068e DD020000 		.4byte	.LLST15
 1736 0692 15       		.uleb128 0x15
 1737 0693 16000000 		.4byte	.LASF99
 1738 0697 01       		.byte	0x1
 1739 0698 8702     		.2byte	0x287
 1740 069a BC060000 		.4byte	0x6bc
 1741 069e 08030000 		.4byte	.LLST16
 1742 06a2 15       		.uleb128 0x15
 1743 06a3 28080000 		.4byte	.LASF100
ARM GAS  C:\Users\user\AppData\Local\Temp\cc0N1rlz.s 			page 63


 1744 06a7 01       		.byte	0x1
 1745 06a8 8802     		.2byte	0x288
 1746 06aa 1D040000 		.4byte	0x41d
 1747 06ae 1B030000 		.4byte	.LLST17
 1748 06b2 1A       		.uleb128 0x1a
 1749 06b3 42000000 		.4byte	.LVL47
 1750 06b7 1A0B0000 		.4byte	0xb1a
 1751 06bb 00       		.byte	0
 1752 06bc 0F       		.uleb128 0xf
 1753 06bd 04       		.byte	0x4
 1754 06be 9F020000 		.4byte	0x29f
 1755 06c2 12       		.uleb128 0x12
 1756 06c3 4E050000 		.4byte	.LASF101
 1757 06c7 01       		.byte	0x1
 1758 06c8 5D02     		.2byte	0x25d
 1759 06ca 00000000 		.4byte	.LFB55
 1760 06ce 16000000 		.4byte	.LFE55-.LFB55
 1761 06d2 01       		.uleb128 0x1
 1762 06d3 9C       		.byte	0x9c
 1763 06d4 F9060000 		.4byte	0x6f9
 1764 06d8 15       		.uleb128 0x15
 1765 06d9 8E030000 		.4byte	.LASF91
 1766 06dd 01       		.byte	0x1
 1767 06de 5F02     		.2byte	0x25f
 1768 06e0 F4000000 		.4byte	0xf4
 1769 06e4 46030000 		.4byte	.LLST18
 1770 06e8 16       		.uleb128 0x16
 1771 06e9 0C000000 		.4byte	.LVL55
 1772 06ed 30060000 		.4byte	0x630
 1773 06f1 17       		.uleb128 0x17
 1774 06f2 01       		.uleb128 0x1
 1775 06f3 50       		.byte	0x50
 1776 06f4 02       		.uleb128 0x2
 1777 06f5 74       		.byte	0x74
 1778 06f6 00       		.sleb128 0
 1779 06f7 00       		.byte	0
 1780 06f8 00       		.byte	0
 1781 06f9 1B       		.uleb128 0x1b
 1782 06fa 63040000 		.4byte	.LASF102
 1783 06fe 01       		.byte	0x1
 1784 06ff 3F       		.byte	0x3f
 1785 0700 00000000 		.4byte	.LFB45
 1786 0704 08000000 		.4byte	.LFE45-.LFB45
 1787 0708 01       		.uleb128 0x1
 1788 0709 9C       		.byte	0x9c
 1789 070a 18070000 		.4byte	0x718
 1790 070e 1A       		.uleb128 0x1a
 1791 070f 06000000 		.4byte	.LVL59
 1792 0713 C2060000 		.4byte	0x6c2
 1793 0717 00       		.byte	0
 1794 0718 12       		.uleb128 0x12
 1795 0719 BD030000 		.4byte	.LASF103
 1796 071d 01       		.byte	0x1
 1797 071e 3C06     		.2byte	0x63c
 1798 0720 00000000 		.4byte	.LFB57
 1799 0724 38000000 		.4byte	.LFE57-.LFB57
 1800 0728 01       		.uleb128 0x1
ARM GAS  C:\Users\user\AppData\Local\Temp\cc0N1rlz.s 			page 64


 1801 0729 9C       		.byte	0x9c
 1802 072a B6070000 		.4byte	0x7b6
 1803 072e 14       		.uleb128 0x14
 1804 072f 8E030000 		.4byte	.LASF91
 1805 0733 01       		.byte	0x1
 1806 0734 3C06     		.2byte	0x63c
 1807 0736 F4000000 		.4byte	0xf4
 1808 073a 88030000 		.4byte	.LLST19
 1809 073e 14       		.uleb128 0x14
 1810 073f 1A020000 		.4byte	.LASF92
 1811 0743 01       		.byte	0x1
 1812 0744 3C06     		.2byte	0x63c
 1813 0746 F4000000 		.4byte	0xf4
 1814 074a A9030000 		.4byte	.LLST20
 1815 074e 18       		.uleb128 0x18
 1816 074f D7030000 		.4byte	.LASF96
 1817 0753 01       		.byte	0x1
 1818 0754 3E06     		.2byte	0x63e
 1819 0756 85050000 		.4byte	0x585
 1820 075a 15       		.uleb128 0x15
 1821 075b 16000000 		.4byte	.LASF99
 1822 075f 01       		.byte	0x1
 1823 0760 3F06     		.2byte	0x63f
 1824 0762 BC060000 		.4byte	0x6bc
 1825 0766 CA030000 		.4byte	.LLST21
 1826 076a 15       		.uleb128 0x15
 1827 076b 1E080000 		.4byte	.LASF85
 1828 076f 01       		.byte	0x1
 1829 0770 4006     		.2byte	0x640
 1830 0772 11040000 		.4byte	0x411
 1831 0776 F7030000 		.4byte	.LLST22
 1832 077a 15       		.uleb128 0x15
 1833 077b 28080000 		.4byte	.LASF100
 1834 077f 01       		.byte	0x1
 1835 0780 4106     		.2byte	0x641
 1836 0782 1D040000 		.4byte	0x41d
 1837 0786 67040000 		.4byte	.LLST23
 1838 078a 16       		.uleb128 0x16
 1839 078b 30000000 		.4byte	.LVL69
 1840 078f 250B0000 		.4byte	0xb25
 1841 0793 17       		.uleb128 0x17
 1842 0794 01       		.uleb128 0x1
 1843 0795 52       		.byte	0x52
 1844 0796 1D       		.uleb128 0x1d
 1845 0797 F3       		.byte	0xf3
 1846 0798 01       		.uleb128 0x1
 1847 0799 51       		.byte	0x51
 1848 079a 31       		.byte	0x31
 1849 079b 24       		.byte	0x24
 1850 079c F3       		.byte	0xf3
 1851 079d 01       		.uleb128 0x1
 1852 079e 51       		.byte	0x51
 1853 079f 22       		.byte	0x22
 1854 07a0 32       		.byte	0x32
 1855 07a1 24       		.byte	0x24
 1856 07a2 F3       		.byte	0xf3
 1857 07a3 01       		.uleb128 0x1
ARM GAS  C:\Users\user\AppData\Local\Temp\cc0N1rlz.s 			page 65


 1858 07a4 50       		.byte	0x50
 1859 07a5 31       		.byte	0x31
 1860 07a6 24       		.byte	0x24
 1861 07a7 F3       		.byte	0xf3
 1862 07a8 01       		.uleb128 0x1
 1863 07a9 50       		.byte	0x50
 1864 07aa 22       		.byte	0x22
 1865 07ab 34       		.byte	0x34
 1866 07ac 24       		.byte	0x24
 1867 07ad 77       		.byte	0x77
 1868 07ae 00       		.sleb128 0
 1869 07af 22       		.byte	0x22
 1870 07b0 23       		.byte	0x23
 1871 07b1 24       		.uleb128 0x24
 1872 07b2 06       		.byte	0x6
 1873 07b3 22       		.byte	0x22
 1874 07b4 00       		.byte	0
 1875 07b5 00       		.byte	0
 1876 07b6 12       		.uleb128 0x12
 1877 07b7 74010000 		.4byte	.LASF104
 1878 07bb 01       		.byte	0x1
 1879 07bc 5B06     		.2byte	0x65b
 1880 07be 00000000 		.4byte	.LFB58
 1881 07c2 38000000 		.4byte	.LFE58-.LFB58
 1882 07c6 01       		.uleb128 0x1
 1883 07c7 9C       		.byte	0x9c
 1884 07c8 54080000 		.4byte	0x854
 1885 07cc 14       		.uleb128 0x14
 1886 07cd 8E030000 		.4byte	.LASF91
 1887 07d1 01       		.byte	0x1
 1888 07d2 5B06     		.2byte	0x65b
 1889 07d4 F4000000 		.4byte	0xf4
 1890 07d8 B9040000 		.4byte	.LLST24
 1891 07dc 14       		.uleb128 0x14
 1892 07dd 1A020000 		.4byte	.LASF92
 1893 07e1 01       		.byte	0x1
 1894 07e2 5B06     		.2byte	0x65b
 1895 07e4 F4000000 		.4byte	0xf4
 1896 07e8 DA040000 		.4byte	.LLST25
 1897 07ec 18       		.uleb128 0x18
 1898 07ed D7030000 		.4byte	.LASF96
 1899 07f1 01       		.byte	0x1
 1900 07f2 5D06     		.2byte	0x65d
 1901 07f4 85050000 		.4byte	0x585
 1902 07f8 15       		.uleb128 0x15
 1903 07f9 16000000 		.4byte	.LASF99
 1904 07fd 01       		.byte	0x1
 1905 07fe 5E06     		.2byte	0x65e
 1906 0800 BC060000 		.4byte	0x6bc
 1907 0804 FB040000 		.4byte	.LLST26
 1908 0808 15       		.uleb128 0x15
 1909 0809 1E080000 		.4byte	.LASF85
 1910 080d 01       		.byte	0x1
 1911 080e 5F06     		.2byte	0x65f
 1912 0810 11040000 		.4byte	0x411
 1913 0814 28050000 		.4byte	.LLST27
 1914 0818 15       		.uleb128 0x15
ARM GAS  C:\Users\user\AppData\Local\Temp\cc0N1rlz.s 			page 66


 1915 0819 28080000 		.4byte	.LASF100
 1916 081d 01       		.byte	0x1
 1917 081e 6006     		.2byte	0x660
 1918 0820 1D040000 		.4byte	0x41d
 1919 0824 98050000 		.4byte	.LLST28
 1920 0828 16       		.uleb128 0x16
 1921 0829 30000000 		.4byte	.LVL83
 1922 082d 1A0B0000 		.4byte	0xb1a
 1923 0831 17       		.uleb128 0x17
 1924 0832 01       		.uleb128 0x1
 1925 0833 52       		.byte	0x52
 1926 0834 1D       		.uleb128 0x1d
 1927 0835 F3       		.byte	0xf3
 1928 0836 01       		.uleb128 0x1
 1929 0837 51       		.byte	0x51
 1930 0838 31       		.byte	0x31
 1931 0839 24       		.byte	0x24
 1932 083a F3       		.byte	0xf3
 1933 083b 01       		.uleb128 0x1
 1934 083c 51       		.byte	0x51
 1935 083d 22       		.byte	0x22
 1936 083e 32       		.byte	0x32
 1937 083f 24       		.byte	0x24
 1938 0840 F3       		.byte	0xf3
 1939 0841 01       		.uleb128 0x1
 1940 0842 50       		.byte	0x50
 1941 0843 31       		.byte	0x31
 1942 0844 24       		.byte	0x24
 1943 0845 F3       		.byte	0xf3
 1944 0846 01       		.uleb128 0x1
 1945 0847 50       		.byte	0x50
 1946 0848 22       		.byte	0x22
 1947 0849 34       		.byte	0x34
 1948 084a 24       		.byte	0x24
 1949 084b 77       		.byte	0x77
 1950 084c 00       		.sleb128 0
 1951 084d 22       		.byte	0x22
 1952 084e 23       		.byte	0x23
 1953 084f 24       		.uleb128 0x24
 1954 0850 06       		.byte	0x6
 1955 0851 22       		.byte	0x22
 1956 0852 00       		.byte	0
 1957 0853 00       		.byte	0
 1958 0854 1C       		.uleb128 0x1c
 1959 0855 E4070000 		.4byte	.LASF109
 1960 0859 01       		.byte	0x1
 1961 085a A506     		.2byte	0x6a5
 1962 085c F4000000 		.4byte	0xf4
 1963 0860 00000000 		.4byte	.LFB59
 1964 0864 12000000 		.4byte	.LFE59-.LFB59
 1965 0868 01       		.uleb128 0x1
 1966 0869 9C       		.byte	0x9c
 1967 086a BB080000 		.4byte	0x8bb
 1968 086e 14       		.uleb128 0x14
 1969 086f D1010000 		.4byte	.LASF105
 1970 0873 01       		.byte	0x1
 1971 0874 A506     		.2byte	0x6a5
ARM GAS  C:\Users\user\AppData\Local\Temp\cc0N1rlz.s 			page 67


 1972 0876 F4000000 		.4byte	0xf4
 1973 087a EA050000 		.4byte	.LLST29
 1974 087e 14       		.uleb128 0x14
 1975 087f 97030000 		.4byte	.LASF106
 1976 0883 01       		.byte	0x1
 1977 0884 A506     		.2byte	0x6a5
 1978 0886 F4000000 		.4byte	0xf4
 1979 088a 0B060000 		.4byte	.LLST30
 1980 088e 1D       		.uleb128 0x1d
 1981 088f 6E00     		.ascii	"n\000"
 1982 0891 01       		.byte	0x1
 1983 0892 A506     		.2byte	0x6a5
 1984 0894 F4000000 		.4byte	0xf4
 1985 0898 2C060000 		.4byte	.LLST31
 1986 089c 14       		.uleb128 0x14
 1987 089d 14020000 		.4byte	.LASF107
 1988 08a1 01       		.byte	0x1
 1989 08a2 A506     		.2byte	0x6a5
 1990 08a4 F4000000 		.4byte	0xf4
 1991 08a8 4D060000 		.4byte	.LLST32
 1992 08ac 1E       		.uleb128 0x1e
 1993 08ad 20010000 		.4byte	.LASF108
 1994 08b1 01       		.byte	0x1
 1995 08b2 A706     		.2byte	0x6a7
 1996 08b4 F4000000 		.4byte	0xf4
 1997 08b8 01       		.uleb128 0x1
 1998 08b9 50       		.byte	0x50
 1999 08ba 00       		.byte	0
 2000 08bb 1F       		.uleb128 0x1f
 2001 08bc F4020000 		.4byte	.LASF110
 2002 08c0 01       		.byte	0x1
 2003 08c1 FF       		.byte	0xff
 2004 08c2 F4000000 		.4byte	0xf4
 2005 08c6 00000000 		.4byte	.LFB49
 2006 08ca 8E000000 		.4byte	.LFE49-.LFB49
 2007 08ce 01       		.uleb128 0x1
 2008 08cf 9C       		.byte	0x9c
 2009 08d0 96090000 		.4byte	0x996
 2010 08d4 14       		.uleb128 0x14
 2011 08d5 16000000 		.4byte	.LASF99
 2012 08d9 01       		.byte	0x1
 2013 08da 0001     		.2byte	0x100
 2014 08dc BC060000 		.4byte	0x6bc
 2015 08e0 6E060000 		.4byte	.LLST33
 2016 08e4 14       		.uleb128 0x14
 2017 08e5 1E080000 		.4byte	.LASF85
 2018 08e9 01       		.byte	0x1
 2019 08ea 0101     		.2byte	0x101
 2020 08ec 11040000 		.4byte	0x411
 2021 08f0 9A060000 		.4byte	.LLST34
 2022 08f4 14       		.uleb128 0x14
 2023 08f5 7C030000 		.4byte	.LASF86
 2024 08f9 01       		.byte	0x1
 2025 08fa 0201     		.2byte	0x102
 2026 08fc F4000000 		.4byte	0xf4
 2027 0900 C6060000 		.4byte	.LLST35
 2028 0904 15       		.uleb128 0x15
ARM GAS  C:\Users\user\AppData\Local\Temp\cc0N1rlz.s 			page 68


 2029 0905 03080000 		.4byte	.LASF111
 2030 0909 01       		.byte	0x1
 2031 090a 0401     		.2byte	0x104
 2032 090c F4000000 		.4byte	0xf4
 2033 0910 F2060000 		.4byte	.LLST36
 2034 0914 15       		.uleb128 0x15
 2035 0915 A2030000 		.4byte	.LASF112
 2036 0919 01       		.byte	0x1
 2037 091a 0501     		.2byte	0x105
 2038 091c F4000000 		.4byte	0xf4
 2039 0920 1D070000 		.4byte	.LLST37
 2040 0924 15       		.uleb128 0x15
 2041 0925 C8050000 		.4byte	.LASF93
 2042 0929 01       		.byte	0x1
 2043 092a 0601     		.2byte	0x106
 2044 092c F4000000 		.4byte	0xf4
 2045 0930 51070000 		.4byte	.LLST38
 2046 0934 15       		.uleb128 0x15
 2047 0935 95010000 		.4byte	.LASF113
 2048 0939 01       		.byte	0x1
 2049 093a 0701     		.2byte	0x107
 2050 093c F4000000 		.4byte	0xf4
 2051 0940 93070000 		.4byte	.LLST39
 2052 0944 20       		.uleb128 0x20
 2053 0945 5A080000 		.4byte	.LASF114
 2054 0949 01       		.byte	0x1
 2055 094a 0801     		.2byte	0x108
 2056 094c F4000000 		.4byte	0xf4
 2057 0950 00       		.byte	0
 2058 0951 15       		.uleb128 0x15
 2059 0952 D7040000 		.4byte	.LASF115
 2060 0956 01       		.byte	0x1
 2061 0957 0B01     		.2byte	0x10b
 2062 0959 F4000000 		.4byte	0xf4
 2063 095d A7070000 		.4byte	.LLST40
 2064 0961 21       		.uleb128 0x21
 2065 0962 4E000000 		.4byte	.LVL103
 2066 0966 62040000 		.4byte	0x462
 2067 096a 81090000 		.4byte	0x981
 2068 096e 17       		.uleb128 0x17
 2069 096f 01       		.uleb128 0x1
 2070 0970 50       		.byte	0x50
 2071 0971 02       		.uleb128 0x2
 2072 0972 76       		.byte	0x76
 2073 0973 00       		.sleb128 0
 2074 0974 17       		.uleb128 0x17
 2075 0975 01       		.uleb128 0x1
 2076 0976 51       		.byte	0x51
 2077 0977 02       		.uleb128 0x2
 2078 0978 75       		.byte	0x75
 2079 0979 00       		.sleb128 0
 2080 097a 17       		.uleb128 0x17
 2081 097b 01       		.uleb128 0x1
 2082 097c 52       		.byte	0x52
 2083 097d 02       		.uleb128 0x2
 2084 097e 74       		.byte	0x74
 2085 097f 00       		.sleb128 0
ARM GAS  C:\Users\user\AppData\Local\Temp\cc0N1rlz.s 			page 69


 2086 0980 00       		.byte	0
 2087 0981 16       		.uleb128 0x16
 2088 0982 72000000 		.4byte	.LVL107
 2089 0986 54080000 		.4byte	0x854
 2090 098a 17       		.uleb128 0x17
 2091 098b 01       		.uleb128 0x1
 2092 098c 52       		.byte	0x52
 2093 098d 01       		.uleb128 0x1
 2094 098e 31       		.byte	0x31
 2095 098f 17       		.uleb128 0x17
 2096 0990 01       		.uleb128 0x1
 2097 0991 53       		.byte	0x53
 2098 0992 01       		.uleb128 0x1
 2099 0993 38       		.byte	0x38
 2100 0994 00       		.byte	0
 2101 0995 00       		.byte	0
 2102 0996 1F       		.uleb128 0x1f
 2103 0997 48030000 		.4byte	.LASF116
 2104 099b 01       		.byte	0x1
 2105 099c C8       		.byte	0xc8
 2106 099d D0000000 		.4byte	0xd0
 2107 09a1 00000000 		.4byte	.LFB48
 2108 09a5 2C000000 		.4byte	.LFE48-.LFB48
 2109 09a9 01       		.uleb128 0x1
 2110 09aa 9C       		.byte	0x9c
 2111 09ab 4A0A0000 		.4byte	0xa4a
 2112 09af 22       		.uleb128 0x22
 2113 09b0 8E030000 		.4byte	.LASF91
 2114 09b4 01       		.byte	0x1
 2115 09b5 C8       		.byte	0xc8
 2116 09b6 F4000000 		.4byte	0xf4
 2117 09ba C5070000 		.4byte	.LLST41
 2118 09be 22       		.uleb128 0x22
 2119 09bf 1A020000 		.4byte	.LASF92
 2120 09c3 01       		.byte	0x1
 2121 09c4 C8       		.byte	0xc8
 2122 09c5 F4000000 		.4byte	0xf4
 2123 09c9 F1070000 		.4byte	.LLST42
 2124 09cd 23       		.uleb128 0x23
 2125 09ce 5A080000 		.4byte	.LASF114
 2126 09d2 01       		.byte	0x1
 2127 09d3 CA       		.byte	0xca
 2128 09d4 F4000000 		.4byte	0xf4
 2129 09d8 12080000 		.4byte	.LLST43
 2130 09dc 23       		.uleb128 0x23
 2131 09dd 1E080000 		.4byte	.LASF85
 2132 09e1 01       		.byte	0x1
 2133 09e2 CC       		.byte	0xcc
 2134 09e3 11040000 		.4byte	0x411
 2135 09e7 31080000 		.4byte	.LLST44
 2136 09eb 24       		.uleb128 0x24
 2137 09ec D7030000 		.4byte	.LASF96
 2138 09f0 01       		.byte	0x1
 2139 09f1 CD       		.byte	0xcd
 2140 09f2 85050000 		.4byte	0x585
 2141 09f6 23       		.uleb128 0x23
 2142 09f7 16000000 		.4byte	.LASF99
ARM GAS  C:\Users\user\AppData\Local\Temp\cc0N1rlz.s 			page 70


 2143 09fb 01       		.byte	0x1
 2144 09fc CE       		.byte	0xce
 2145 09fd BC060000 		.4byte	0x6bc
 2146 0a01 74080000 		.4byte	.LLST45
 2147 0a05 16       		.uleb128 0x16
 2148 0a06 26000000 		.4byte	.LVL123
 2149 0a0a BB080000 		.4byte	0x8bb
 2150 0a0e 17       		.uleb128 0x17
 2151 0a0f 01       		.uleb128 0x1
 2152 0a10 50       		.byte	0x50
 2153 0a11 0E       		.uleb128 0xe
 2154 0a12 75       		.byte	0x75
 2155 0a13 00       		.sleb128 0
 2156 0a14 F3       		.byte	0xf3
 2157 0a15 01       		.uleb128 0x1
 2158 0a16 50       		.byte	0x50
 2159 0a17 22       		.byte	0x22
 2160 0a18 34       		.byte	0x34
 2161 0a19 24       		.byte	0x24
 2162 0a1a 74       		.byte	0x74
 2163 0a1b 00       		.sleb128 0
 2164 0a1c 22       		.byte	0x22
 2165 0a1d 23       		.byte	0x23
 2166 0a1e 04       		.uleb128 0x4
 2167 0a1f 06       		.byte	0x6
 2168 0a20 17       		.uleb128 0x17
 2169 0a21 01       		.uleb128 0x1
 2170 0a22 51       		.byte	0x51
 2171 0a23 0E       		.uleb128 0xe
 2172 0a24 F3       		.byte	0xf3
 2173 0a25 01       		.uleb128 0x1
 2174 0a26 51       		.byte	0x51
 2175 0a27 32       		.byte	0x32
 2176 0a28 24       		.byte	0x24
 2177 0a29 F3       		.byte	0xf3
 2178 0a2a 01       		.uleb128 0x1
 2179 0a2b 51       		.byte	0x51
 2180 0a2c 22       		.byte	0x22
 2181 0a2d 31       		.byte	0x31
 2182 0a2e 24       		.byte	0x24
 2183 0a2f 76       		.byte	0x76
 2184 0a30 00       		.sleb128 0
 2185 0a31 22       		.byte	0x22
 2186 0a32 17       		.uleb128 0x17
 2187 0a33 01       		.uleb128 0x1
 2188 0a34 52       		.byte	0x52
 2189 0a35 12       		.uleb128 0x12
 2190 0a36 75       		.byte	0x75
 2191 0a37 00       		.sleb128 0
 2192 0a38 F3       		.byte	0xf3
 2193 0a39 01       		.uleb128 0x1
 2194 0a3a 50       		.byte	0x50
 2195 0a3b 22       		.byte	0x22
 2196 0a3c 34       		.byte	0x34
 2197 0a3d 24       		.byte	0x24
 2198 0a3e 74       		.byte	0x74
 2199 0a3f 00       		.sleb128 0
ARM GAS  C:\Users\user\AppData\Local\Temp\cc0N1rlz.s 			page 71


 2200 0a40 22       		.byte	0x22
 2201 0a41 23       		.byte	0x23
 2202 0a42 1A       		.uleb128 0x1a
 2203 0a43 94       		.byte	0x94
 2204 0a44 01       		.byte	0x1
 2205 0a45 08       		.byte	0x8
 2206 0a46 FF       		.byte	0xff
 2207 0a47 1A       		.byte	0x1a
 2208 0a48 00       		.byte	0
 2209 0a49 00       		.byte	0
 2210 0a4a 1F       		.uleb128 0x1f
 2211 0a4b 3F000000 		.4byte	.LASF117
 2212 0a4f 01       		.byte	0x1
 2213 0a50 8F       		.byte	0x8f
 2214 0a51 D0000000 		.4byte	0xd0
 2215 0a55 00000000 		.4byte	.LFB47
 2216 0a59 30000000 		.4byte	.LFE47-.LFB47
 2217 0a5d 01       		.uleb128 0x1
 2218 0a5e 9C       		.byte	0x9c
 2219 0a5f C10A0000 		.4byte	0xac1
 2220 0a63 22       		.uleb128 0x22
 2221 0a64 8E030000 		.4byte	.LASF91
 2222 0a68 01       		.byte	0x1
 2223 0a69 8F       		.byte	0x8f
 2224 0a6a F4000000 		.4byte	0xf4
 2225 0a6e 9E080000 		.4byte	.LLST46
 2226 0a72 23       		.uleb128 0x23
 2227 0a73 1A020000 		.4byte	.LASF92
 2228 0a77 01       		.byte	0x1
 2229 0a78 91       		.byte	0x91
 2230 0a79 F4000000 		.4byte	0xf4
 2231 0a7d CA080000 		.4byte	.LLST47
 2232 0a81 23       		.uleb128 0x23
 2233 0a82 6D020000 		.4byte	.LASF95
 2234 0a86 01       		.byte	0x1
 2235 0a87 92       		.byte	0x92
 2236 0a88 F4000000 		.4byte	0xf4
 2237 0a8c 0B090000 		.4byte	.LLST48
 2238 0a90 24       		.uleb128 0x24
 2239 0a91 D7030000 		.4byte	.LASF96
 2240 0a95 01       		.byte	0x1
 2241 0a96 94       		.byte	0x94
 2242 0a97 85050000 		.4byte	0x585
 2243 0a9b 23       		.uleb128 0x23
 2244 0a9c 83030000 		.4byte	.LASF118
 2245 0aa0 01       		.byte	0x1
 2246 0aa1 95       		.byte	0x95
 2247 0aa2 D0000000 		.4byte	0xd0
 2248 0aa6 1E090000 		.4byte	.LLST49
 2249 0aaa 16       		.uleb128 0x16
 2250 0aab 1C000000 		.4byte	.LVL131
 2251 0aaf 96090000 		.4byte	0x996
 2252 0ab3 17       		.uleb128 0x17
 2253 0ab4 01       		.uleb128 0x1
 2254 0ab5 50       		.byte	0x50
 2255 0ab6 02       		.uleb128 0x2
 2256 0ab7 76       		.byte	0x76
ARM GAS  C:\Users\user\AppData\Local\Temp\cc0N1rlz.s 			page 72


 2257 0ab8 00       		.sleb128 0
 2258 0ab9 17       		.uleb128 0x17
 2259 0aba 01       		.uleb128 0x1
 2260 0abb 51       		.byte	0x51
 2261 0abc 02       		.uleb128 0x2
 2262 0abd 74       		.byte	0x74
 2263 0abe 00       		.sleb128 0
 2264 0abf 00       		.byte	0
 2265 0ac0 00       		.byte	0
 2266 0ac1 1F       		.uleb128 0x1f
 2267 0ac2 6C050000 		.4byte	.LASF119
 2268 0ac6 01       		.byte	0x1
 2269 0ac7 62       		.byte	0x62
 2270 0ac8 D0000000 		.4byte	0xd0
 2271 0acc 00000000 		.4byte	.LFB46
 2272 0ad0 1C000000 		.4byte	.LFE46-.LFB46
 2273 0ad4 01       		.uleb128 0x1
 2274 0ad5 9C       		.byte	0x9c
 2275 0ad6 090B0000 		.4byte	0xb09
 2276 0ada 23       		.uleb128 0x23
 2277 0adb 8E030000 		.4byte	.LASF91
 2278 0adf 01       		.byte	0x1
 2279 0ae0 64       		.byte	0x64
 2280 0ae1 F4000000 		.4byte	0xf4
 2281 0ae5 48090000 		.4byte	.LLST50
 2282 0ae9 23       		.uleb128 0x23
 2283 0aea 83030000 		.4byte	.LASF118
 2284 0aee 01       		.byte	0x1
 2285 0aef 65       		.byte	0x65
 2286 0af0 D0000000 		.4byte	0xd0
 2287 0af4 8A090000 		.4byte	.LLST51
 2288 0af8 16       		.uleb128 0x16
 2289 0af9 0E000000 		.4byte	.LVL140
 2290 0afd 4A0A0000 		.4byte	0xa4a
 2291 0b01 17       		.uleb128 0x17
 2292 0b02 01       		.uleb128 0x1
 2293 0b03 50       		.byte	0x50
 2294 0b04 02       		.uleb128 0x2
 2295 0b05 74       		.byte	0x74
 2296 0b06 00       		.sleb128 0
 2297 0b07 00       		.byte	0
 2298 0b08 00       		.byte	0
 2299 0b09 25       		.uleb128 0x25
 2300 0b0a 2F010000 		.4byte	.LASF125
 2301 0b0e 07       		.byte	0x7
 2302 0b0f A304     		.2byte	0x4a3
 2303 0b11 150B0000 		.4byte	0xb15
 2304 0b15 19       		.uleb128 0x19
 2305 0b16 56040000 		.4byte	0x456
 2306 0b1a 26       		.uleb128 0x26
 2307 0b1b B6060000 		.4byte	.LASF120
 2308 0b1f B6060000 		.4byte	.LASF120
 2309 0b23 06       		.byte	0x6
 2310 0b24 B8       		.byte	0xb8
 2311 0b25 26       		.uleb128 0x26
 2312 0b26 23000000 		.4byte	.LASF121
 2313 0b2a 23000000 		.4byte	.LASF121
ARM GAS  C:\Users\user\AppData\Local\Temp\cc0N1rlz.s 			page 73


 2314 0b2e 06       		.byte	0x6
 2315 0b2f BC       		.byte	0xbc
 2316 0b30 00       		.byte	0
 2317              		.section	.debug_abbrev,"",%progbits
 2318              	.Ldebug_abbrev0:
 2319 0000 01       		.uleb128 0x1
 2320 0001 11       		.uleb128 0x11
 2321 0002 01       		.byte	0x1
 2322 0003 25       		.uleb128 0x25
 2323 0004 0E       		.uleb128 0xe
 2324 0005 13       		.uleb128 0x13
 2325 0006 0B       		.uleb128 0xb
 2326 0007 03       		.uleb128 0x3
 2327 0008 0E       		.uleb128 0xe
 2328 0009 1B       		.uleb128 0x1b
 2329 000a 0E       		.uleb128 0xe
 2330 000b 55       		.uleb128 0x55
 2331 000c 17       		.uleb128 0x17
 2332 000d 11       		.uleb128 0x11
 2333 000e 01       		.uleb128 0x1
 2334 000f 10       		.uleb128 0x10
 2335 0010 17       		.uleb128 0x17
 2336 0011 00       		.byte	0
 2337 0012 00       		.byte	0
 2338 0013 02       		.uleb128 0x2
 2339 0014 24       		.uleb128 0x24
 2340 0015 00       		.byte	0
 2341 0016 0B       		.uleb128 0xb
 2342 0017 0B       		.uleb128 0xb
 2343 0018 3E       		.uleb128 0x3e
 2344 0019 0B       		.uleb128 0xb
 2345 001a 03       		.uleb128 0x3
 2346 001b 08       		.uleb128 0x8
 2347 001c 00       		.byte	0
 2348 001d 00       		.byte	0
 2349 001e 03       		.uleb128 0x3
 2350 001f 24       		.uleb128 0x24
 2351 0020 00       		.byte	0
 2352 0021 0B       		.uleb128 0xb
 2353 0022 0B       		.uleb128 0xb
 2354 0023 3E       		.uleb128 0x3e
 2355 0024 0B       		.uleb128 0xb
 2356 0025 03       		.uleb128 0x3
 2357 0026 0E       		.uleb128 0xe
 2358 0027 00       		.byte	0
 2359 0028 00       		.byte	0
 2360 0029 04       		.uleb128 0x4
 2361 002a 16       		.uleb128 0x16
 2362 002b 00       		.byte	0
 2363 002c 03       		.uleb128 0x3
 2364 002d 0E       		.uleb128 0xe
 2365 002e 3A       		.uleb128 0x3a
 2366 002f 0B       		.uleb128 0xb
 2367 0030 3B       		.uleb128 0x3b
 2368 0031 0B       		.uleb128 0xb
 2369 0032 49       		.uleb128 0x49
 2370 0033 13       		.uleb128 0x13
ARM GAS  C:\Users\user\AppData\Local\Temp\cc0N1rlz.s 			page 74


 2371 0034 00       		.byte	0
 2372 0035 00       		.byte	0
 2373 0036 05       		.uleb128 0x5
 2374 0037 16       		.uleb128 0x16
 2375 0038 00       		.byte	0
 2376 0039 03       		.uleb128 0x3
 2377 003a 0E       		.uleb128 0xe
 2378 003b 3A       		.uleb128 0x3a
 2379 003c 0B       		.uleb128 0xb
 2380 003d 3B       		.uleb128 0x3b
 2381 003e 05       		.uleb128 0x5
 2382 003f 49       		.uleb128 0x49
 2383 0040 13       		.uleb128 0x13
 2384 0041 00       		.byte	0
 2385 0042 00       		.byte	0
 2386 0043 06       		.uleb128 0x6
 2387 0044 13       		.uleb128 0x13
 2388 0045 01       		.byte	0x1
 2389 0046 0B       		.uleb128 0xb
 2390 0047 0B       		.uleb128 0xb
 2391 0048 3A       		.uleb128 0x3a
 2392 0049 0B       		.uleb128 0xb
 2393 004a 3B       		.uleb128 0x3b
 2394 004b 0B       		.uleb128 0xb
 2395 004c 01       		.uleb128 0x1
 2396 004d 13       		.uleb128 0x13
 2397 004e 00       		.byte	0
 2398 004f 00       		.byte	0
 2399 0050 07       		.uleb128 0x7
 2400 0051 0D       		.uleb128 0xd
 2401 0052 00       		.byte	0
 2402 0053 03       		.uleb128 0x3
 2403 0054 0E       		.uleb128 0xe
 2404 0055 3A       		.uleb128 0x3a
 2405 0056 0B       		.uleb128 0xb
 2406 0057 3B       		.uleb128 0x3b
 2407 0058 0B       		.uleb128 0xb
 2408 0059 49       		.uleb128 0x49
 2409 005a 13       		.uleb128 0x13
 2410 005b 38       		.uleb128 0x38
 2411 005c 0B       		.uleb128 0xb
 2412 005d 00       		.byte	0
 2413 005e 00       		.byte	0
 2414 005f 08       		.uleb128 0x8
 2415 0060 04       		.uleb128 0x4
 2416 0061 01       		.byte	0x1
 2417 0062 0B       		.uleb128 0xb
 2418 0063 0B       		.uleb128 0xb
 2419 0064 49       		.uleb128 0x49
 2420 0065 13       		.uleb128 0x13
 2421 0066 3A       		.uleb128 0x3a
 2422 0067 0B       		.uleb128 0xb
 2423 0068 3B       		.uleb128 0x3b
 2424 0069 0B       		.uleb128 0xb
 2425 006a 01       		.uleb128 0x1
 2426 006b 13       		.uleb128 0x13
 2427 006c 00       		.byte	0
ARM GAS  C:\Users\user\AppData\Local\Temp\cc0N1rlz.s 			page 75


 2428 006d 00       		.byte	0
 2429 006e 09       		.uleb128 0x9
 2430 006f 28       		.uleb128 0x28
 2431 0070 00       		.byte	0
 2432 0071 03       		.uleb128 0x3
 2433 0072 0E       		.uleb128 0xe
 2434 0073 1C       		.uleb128 0x1c
 2435 0074 0B       		.uleb128 0xb
 2436 0075 00       		.byte	0
 2437 0076 00       		.byte	0
 2438 0077 0A       		.uleb128 0xa
 2439 0078 01       		.uleb128 0x1
 2440 0079 01       		.byte	0x1
 2441 007a 49       		.uleb128 0x49
 2442 007b 13       		.uleb128 0x13
 2443 007c 01       		.uleb128 0x1
 2444 007d 13       		.uleb128 0x13
 2445 007e 00       		.byte	0
 2446 007f 00       		.byte	0
 2447 0080 0B       		.uleb128 0xb
 2448 0081 21       		.uleb128 0x21
 2449 0082 00       		.byte	0
 2450 0083 49       		.uleb128 0x49
 2451 0084 13       		.uleb128 0x13
 2452 0085 2F       		.uleb128 0x2f
 2453 0086 0B       		.uleb128 0xb
 2454 0087 00       		.byte	0
 2455 0088 00       		.byte	0
 2456 0089 0C       		.uleb128 0xc
 2457 008a 13       		.uleb128 0x13
 2458 008b 01       		.byte	0x1
 2459 008c 0B       		.uleb128 0xb
 2460 008d 0B       		.uleb128 0xb
 2461 008e 3A       		.uleb128 0x3a
 2462 008f 0B       		.uleb128 0xb
 2463 0090 3B       		.uleb128 0x3b
 2464 0091 05       		.uleb128 0x5
 2465 0092 01       		.uleb128 0x1
 2466 0093 13       		.uleb128 0x13
 2467 0094 00       		.byte	0
 2468 0095 00       		.byte	0
 2469 0096 0D       		.uleb128 0xd
 2470 0097 0D       		.uleb128 0xd
 2471 0098 00       		.byte	0
 2472 0099 03       		.uleb128 0x3
 2473 009a 08       		.uleb128 0x8
 2474 009b 3A       		.uleb128 0x3a
 2475 009c 0B       		.uleb128 0xb
 2476 009d 3B       		.uleb128 0x3b
 2477 009e 05       		.uleb128 0x5
 2478 009f 49       		.uleb128 0x49
 2479 00a0 13       		.uleb128 0x13
 2480 00a1 38       		.uleb128 0x38
 2481 00a2 0B       		.uleb128 0xb
 2482 00a3 00       		.byte	0
 2483 00a4 00       		.byte	0
 2484 00a5 0E       		.uleb128 0xe
ARM GAS  C:\Users\user\AppData\Local\Temp\cc0N1rlz.s 			page 76


 2485 00a6 0D       		.uleb128 0xd
 2486 00a7 00       		.byte	0
 2487 00a8 03       		.uleb128 0x3
 2488 00a9 0E       		.uleb128 0xe
 2489 00aa 3A       		.uleb128 0x3a
 2490 00ab 0B       		.uleb128 0xb
 2491 00ac 3B       		.uleb128 0x3b
 2492 00ad 05       		.uleb128 0x5
 2493 00ae 49       		.uleb128 0x49
 2494 00af 13       		.uleb128 0x13
 2495 00b0 38       		.uleb128 0x38
 2496 00b1 0B       		.uleb128 0xb
 2497 00b2 00       		.byte	0
 2498 00b3 00       		.byte	0
 2499 00b4 0F       		.uleb128 0xf
 2500 00b5 0F       		.uleb128 0xf
 2501 00b6 00       		.byte	0
 2502 00b7 0B       		.uleb128 0xb
 2503 00b8 0B       		.uleb128 0xb
 2504 00b9 49       		.uleb128 0x49
 2505 00ba 13       		.uleb128 0x13
 2506 00bb 00       		.byte	0
 2507 00bc 00       		.byte	0
 2508 00bd 10       		.uleb128 0x10
 2509 00be 26       		.uleb128 0x26
 2510 00bf 00       		.byte	0
 2511 00c0 00       		.byte	0
 2512 00c1 00       		.byte	0
 2513 00c2 11       		.uleb128 0x11
 2514 00c3 0F       		.uleb128 0xf
 2515 00c4 00       		.byte	0
 2516 00c5 0B       		.uleb128 0xb
 2517 00c6 0B       		.uleb128 0xb
 2518 00c7 00       		.byte	0
 2519 00c8 00       		.byte	0
 2520 00c9 12       		.uleb128 0x12
 2521 00ca 2E       		.uleb128 0x2e
 2522 00cb 01       		.byte	0x1
 2523 00cc 3F       		.uleb128 0x3f
 2524 00cd 19       		.uleb128 0x19
 2525 00ce 03       		.uleb128 0x3
 2526 00cf 0E       		.uleb128 0xe
 2527 00d0 3A       		.uleb128 0x3a
 2528 00d1 0B       		.uleb128 0xb
 2529 00d2 3B       		.uleb128 0x3b
 2530 00d3 05       		.uleb128 0x5
 2531 00d4 27       		.uleb128 0x27
 2532 00d5 19       		.uleb128 0x19
 2533 00d6 11       		.uleb128 0x11
 2534 00d7 01       		.uleb128 0x1
 2535 00d8 12       		.uleb128 0x12
 2536 00d9 06       		.uleb128 0x6
 2537 00da 40       		.uleb128 0x40
 2538 00db 18       		.uleb128 0x18
 2539 00dc 9742     		.uleb128 0x2117
 2540 00de 19       		.uleb128 0x19
 2541 00df 01       		.uleb128 0x1
ARM GAS  C:\Users\user\AppData\Local\Temp\cc0N1rlz.s 			page 77


 2542 00e0 13       		.uleb128 0x13
 2543 00e1 00       		.byte	0
 2544 00e2 00       		.byte	0
 2545 00e3 13       		.uleb128 0x13
 2546 00e4 05       		.uleb128 0x5
 2547 00e5 00       		.byte	0
 2548 00e6 03       		.uleb128 0x3
 2549 00e7 0E       		.uleb128 0xe
 2550 00e8 3A       		.uleb128 0x3a
 2551 00e9 0B       		.uleb128 0xb
 2552 00ea 3B       		.uleb128 0x3b
 2553 00eb 05       		.uleb128 0x5
 2554 00ec 49       		.uleb128 0x49
 2555 00ed 13       		.uleb128 0x13
 2556 00ee 02       		.uleb128 0x2
 2557 00ef 18       		.uleb128 0x18
 2558 00f0 00       		.byte	0
 2559 00f1 00       		.byte	0
 2560 00f2 14       		.uleb128 0x14
 2561 00f3 05       		.uleb128 0x5
 2562 00f4 00       		.byte	0
 2563 00f5 03       		.uleb128 0x3
 2564 00f6 0E       		.uleb128 0xe
 2565 00f7 3A       		.uleb128 0x3a
 2566 00f8 0B       		.uleb128 0xb
 2567 00f9 3B       		.uleb128 0x3b
 2568 00fa 05       		.uleb128 0x5
 2569 00fb 49       		.uleb128 0x49
 2570 00fc 13       		.uleb128 0x13
 2571 00fd 02       		.uleb128 0x2
 2572 00fe 17       		.uleb128 0x17
 2573 00ff 00       		.byte	0
 2574 0100 00       		.byte	0
 2575 0101 15       		.uleb128 0x15
 2576 0102 34       		.uleb128 0x34
 2577 0103 00       		.byte	0
 2578 0104 03       		.uleb128 0x3
 2579 0105 0E       		.uleb128 0xe
 2580 0106 3A       		.uleb128 0x3a
 2581 0107 0B       		.uleb128 0xb
 2582 0108 3B       		.uleb128 0x3b
 2583 0109 05       		.uleb128 0x5
 2584 010a 49       		.uleb128 0x49
 2585 010b 13       		.uleb128 0x13
 2586 010c 02       		.uleb128 0x2
 2587 010d 17       		.uleb128 0x17
 2588 010e 00       		.byte	0
 2589 010f 00       		.byte	0
 2590 0110 16       		.uleb128 0x16
 2591 0111 898201   		.uleb128 0x4109
 2592 0114 01       		.byte	0x1
 2593 0115 11       		.uleb128 0x11
 2594 0116 01       		.uleb128 0x1
 2595 0117 31       		.uleb128 0x31
 2596 0118 13       		.uleb128 0x13
 2597 0119 00       		.byte	0
 2598 011a 00       		.byte	0
ARM GAS  C:\Users\user\AppData\Local\Temp\cc0N1rlz.s 			page 78


 2599 011b 17       		.uleb128 0x17
 2600 011c 8A8201   		.uleb128 0x410a
 2601 011f 00       		.byte	0
 2602 0120 02       		.uleb128 0x2
 2603 0121 18       		.uleb128 0x18
 2604 0122 9142     		.uleb128 0x2111
 2605 0124 18       		.uleb128 0x18
 2606 0125 00       		.byte	0
 2607 0126 00       		.byte	0
 2608 0127 18       		.uleb128 0x18
 2609 0128 34       		.uleb128 0x34
 2610 0129 00       		.byte	0
 2611 012a 03       		.uleb128 0x3
 2612 012b 0E       		.uleb128 0xe
 2613 012c 3A       		.uleb128 0x3a
 2614 012d 0B       		.uleb128 0xb
 2615 012e 3B       		.uleb128 0x3b
 2616 012f 05       		.uleb128 0x5
 2617 0130 49       		.uleb128 0x49
 2618 0131 13       		.uleb128 0x13
 2619 0132 00       		.byte	0
 2620 0133 00       		.byte	0
 2621 0134 19       		.uleb128 0x19
 2622 0135 26       		.uleb128 0x26
 2623 0136 00       		.byte	0
 2624 0137 49       		.uleb128 0x49
 2625 0138 13       		.uleb128 0x13
 2626 0139 00       		.byte	0
 2627 013a 00       		.byte	0
 2628 013b 1A       		.uleb128 0x1a
 2629 013c 898201   		.uleb128 0x4109
 2630 013f 00       		.byte	0
 2631 0140 11       		.uleb128 0x11
 2632 0141 01       		.uleb128 0x1
 2633 0142 31       		.uleb128 0x31
 2634 0143 13       		.uleb128 0x13
 2635 0144 00       		.byte	0
 2636 0145 00       		.byte	0
 2637 0146 1B       		.uleb128 0x1b
 2638 0147 2E       		.uleb128 0x2e
 2639 0148 01       		.byte	0x1
 2640 0149 3F       		.uleb128 0x3f
 2641 014a 19       		.uleb128 0x19
 2642 014b 03       		.uleb128 0x3
 2643 014c 0E       		.uleb128 0xe
 2644 014d 3A       		.uleb128 0x3a
 2645 014e 0B       		.uleb128 0xb
 2646 014f 3B       		.uleb128 0x3b
 2647 0150 0B       		.uleb128 0xb
 2648 0151 27       		.uleb128 0x27
 2649 0152 19       		.uleb128 0x19
 2650 0153 11       		.uleb128 0x11
 2651 0154 01       		.uleb128 0x1
 2652 0155 12       		.uleb128 0x12
 2653 0156 06       		.uleb128 0x6
 2654 0157 40       		.uleb128 0x40
 2655 0158 18       		.uleb128 0x18
ARM GAS  C:\Users\user\AppData\Local\Temp\cc0N1rlz.s 			page 79


 2656 0159 9742     		.uleb128 0x2117
 2657 015b 19       		.uleb128 0x19
 2658 015c 01       		.uleb128 0x1
 2659 015d 13       		.uleb128 0x13
 2660 015e 00       		.byte	0
 2661 015f 00       		.byte	0
 2662 0160 1C       		.uleb128 0x1c
 2663 0161 2E       		.uleb128 0x2e
 2664 0162 01       		.byte	0x1
 2665 0163 3F       		.uleb128 0x3f
 2666 0164 19       		.uleb128 0x19
 2667 0165 03       		.uleb128 0x3
 2668 0166 0E       		.uleb128 0xe
 2669 0167 3A       		.uleb128 0x3a
 2670 0168 0B       		.uleb128 0xb
 2671 0169 3B       		.uleb128 0x3b
 2672 016a 05       		.uleb128 0x5
 2673 016b 27       		.uleb128 0x27
 2674 016c 19       		.uleb128 0x19
 2675 016d 49       		.uleb128 0x49
 2676 016e 13       		.uleb128 0x13
 2677 016f 11       		.uleb128 0x11
 2678 0170 01       		.uleb128 0x1
 2679 0171 12       		.uleb128 0x12
 2680 0172 06       		.uleb128 0x6
 2681 0173 40       		.uleb128 0x40
 2682 0174 18       		.uleb128 0x18
 2683 0175 9742     		.uleb128 0x2117
 2684 0177 19       		.uleb128 0x19
 2685 0178 01       		.uleb128 0x1
 2686 0179 13       		.uleb128 0x13
 2687 017a 00       		.byte	0
 2688 017b 00       		.byte	0
 2689 017c 1D       		.uleb128 0x1d
 2690 017d 05       		.uleb128 0x5
 2691 017e 00       		.byte	0
 2692 017f 03       		.uleb128 0x3
 2693 0180 08       		.uleb128 0x8
 2694 0181 3A       		.uleb128 0x3a
 2695 0182 0B       		.uleb128 0xb
 2696 0183 3B       		.uleb128 0x3b
 2697 0184 05       		.uleb128 0x5
 2698 0185 49       		.uleb128 0x49
 2699 0186 13       		.uleb128 0x13
 2700 0187 02       		.uleb128 0x2
 2701 0188 17       		.uleb128 0x17
 2702 0189 00       		.byte	0
 2703 018a 00       		.byte	0
 2704 018b 1E       		.uleb128 0x1e
 2705 018c 34       		.uleb128 0x34
 2706 018d 00       		.byte	0
 2707 018e 03       		.uleb128 0x3
 2708 018f 0E       		.uleb128 0xe
 2709 0190 3A       		.uleb128 0x3a
 2710 0191 0B       		.uleb128 0xb
 2711 0192 3B       		.uleb128 0x3b
 2712 0193 05       		.uleb128 0x5
ARM GAS  C:\Users\user\AppData\Local\Temp\cc0N1rlz.s 			page 80


 2713 0194 49       		.uleb128 0x49
 2714 0195 13       		.uleb128 0x13
 2715 0196 02       		.uleb128 0x2
 2716 0197 18       		.uleb128 0x18
 2717 0198 00       		.byte	0
 2718 0199 00       		.byte	0
 2719 019a 1F       		.uleb128 0x1f
 2720 019b 2E       		.uleb128 0x2e
 2721 019c 01       		.byte	0x1
 2722 019d 3F       		.uleb128 0x3f
 2723 019e 19       		.uleb128 0x19
 2724 019f 03       		.uleb128 0x3
 2725 01a0 0E       		.uleb128 0xe
 2726 01a1 3A       		.uleb128 0x3a
 2727 01a2 0B       		.uleb128 0xb
 2728 01a3 3B       		.uleb128 0x3b
 2729 01a4 0B       		.uleb128 0xb
 2730 01a5 27       		.uleb128 0x27
 2731 01a6 19       		.uleb128 0x19
 2732 01a7 49       		.uleb128 0x49
 2733 01a8 13       		.uleb128 0x13
 2734 01a9 11       		.uleb128 0x11
 2735 01aa 01       		.uleb128 0x1
 2736 01ab 12       		.uleb128 0x12
 2737 01ac 06       		.uleb128 0x6
 2738 01ad 40       		.uleb128 0x40
 2739 01ae 18       		.uleb128 0x18
 2740 01af 9742     		.uleb128 0x2117
 2741 01b1 19       		.uleb128 0x19
 2742 01b2 01       		.uleb128 0x1
 2743 01b3 13       		.uleb128 0x13
 2744 01b4 00       		.byte	0
 2745 01b5 00       		.byte	0
 2746 01b6 20       		.uleb128 0x20
 2747 01b7 34       		.uleb128 0x34
 2748 01b8 00       		.byte	0
 2749 01b9 03       		.uleb128 0x3
 2750 01ba 0E       		.uleb128 0xe
 2751 01bb 3A       		.uleb128 0x3a
 2752 01bc 0B       		.uleb128 0xb
 2753 01bd 3B       		.uleb128 0x3b
 2754 01be 05       		.uleb128 0x5
 2755 01bf 49       		.uleb128 0x49
 2756 01c0 13       		.uleb128 0x13
 2757 01c1 1C       		.uleb128 0x1c
 2758 01c2 0B       		.uleb128 0xb
 2759 01c3 00       		.byte	0
 2760 01c4 00       		.byte	0
 2761 01c5 21       		.uleb128 0x21
 2762 01c6 898201   		.uleb128 0x4109
 2763 01c9 01       		.byte	0x1
 2764 01ca 11       		.uleb128 0x11
 2765 01cb 01       		.uleb128 0x1
 2766 01cc 31       		.uleb128 0x31
 2767 01cd 13       		.uleb128 0x13
 2768 01ce 01       		.uleb128 0x1
 2769 01cf 13       		.uleb128 0x13
ARM GAS  C:\Users\user\AppData\Local\Temp\cc0N1rlz.s 			page 81


 2770 01d0 00       		.byte	0
 2771 01d1 00       		.byte	0
 2772 01d2 22       		.uleb128 0x22
 2773 01d3 05       		.uleb128 0x5
 2774 01d4 00       		.byte	0
 2775 01d5 03       		.uleb128 0x3
 2776 01d6 0E       		.uleb128 0xe
 2777 01d7 3A       		.uleb128 0x3a
 2778 01d8 0B       		.uleb128 0xb
 2779 01d9 3B       		.uleb128 0x3b
 2780 01da 0B       		.uleb128 0xb
 2781 01db 49       		.uleb128 0x49
 2782 01dc 13       		.uleb128 0x13
 2783 01dd 02       		.uleb128 0x2
 2784 01de 17       		.uleb128 0x17
 2785 01df 00       		.byte	0
 2786 01e0 00       		.byte	0
 2787 01e1 23       		.uleb128 0x23
 2788 01e2 34       		.uleb128 0x34
 2789 01e3 00       		.byte	0
 2790 01e4 03       		.uleb128 0x3
 2791 01e5 0E       		.uleb128 0xe
 2792 01e6 3A       		.uleb128 0x3a
 2793 01e7 0B       		.uleb128 0xb
 2794 01e8 3B       		.uleb128 0x3b
 2795 01e9 0B       		.uleb128 0xb
 2796 01ea 49       		.uleb128 0x49
 2797 01eb 13       		.uleb128 0x13
 2798 01ec 02       		.uleb128 0x2
 2799 01ed 17       		.uleb128 0x17
 2800 01ee 00       		.byte	0
 2801 01ef 00       		.byte	0
 2802 01f0 24       		.uleb128 0x24
 2803 01f1 34       		.uleb128 0x34
 2804 01f2 00       		.byte	0
 2805 01f3 03       		.uleb128 0x3
 2806 01f4 0E       		.uleb128 0xe
 2807 01f5 3A       		.uleb128 0x3a
 2808 01f6 0B       		.uleb128 0xb
 2809 01f7 3B       		.uleb128 0x3b
 2810 01f8 0B       		.uleb128 0xb
 2811 01f9 49       		.uleb128 0x49
 2812 01fa 13       		.uleb128 0x13
 2813 01fb 00       		.byte	0
 2814 01fc 00       		.byte	0
 2815 01fd 25       		.uleb128 0x25
 2816 01fe 34       		.uleb128 0x34
 2817 01ff 00       		.byte	0
 2818 0200 03       		.uleb128 0x3
 2819 0201 0E       		.uleb128 0xe
 2820 0202 3A       		.uleb128 0x3a
 2821 0203 0B       		.uleb128 0xb
 2822 0204 3B       		.uleb128 0x3b
 2823 0205 05       		.uleb128 0x5
 2824 0206 49       		.uleb128 0x49
 2825 0207 13       		.uleb128 0x13
 2826 0208 3F       		.uleb128 0x3f
ARM GAS  C:\Users\user\AppData\Local\Temp\cc0N1rlz.s 			page 82


 2827 0209 19       		.uleb128 0x19
 2828 020a 3C       		.uleb128 0x3c
 2829 020b 19       		.uleb128 0x19
 2830 020c 00       		.byte	0
 2831 020d 00       		.byte	0
 2832 020e 26       		.uleb128 0x26
 2833 020f 2E       		.uleb128 0x2e
 2834 0210 00       		.byte	0
 2835 0211 3F       		.uleb128 0x3f
 2836 0212 19       		.uleb128 0x19
 2837 0213 3C       		.uleb128 0x3c
 2838 0214 19       		.uleb128 0x19
 2839 0215 6E       		.uleb128 0x6e
 2840 0216 0E       		.uleb128 0xe
 2841 0217 03       		.uleb128 0x3
 2842 0218 0E       		.uleb128 0xe
 2843 0219 3A       		.uleb128 0x3a
 2844 021a 0B       		.uleb128 0xb
 2845 021b 3B       		.uleb128 0x3b
 2846 021c 0B       		.uleb128 0xb
 2847 021d 00       		.byte	0
 2848 021e 00       		.byte	0
 2849 021f 00       		.byte	0
 2850              		.section	.debug_loc,"",%progbits
 2851              	.Ldebug_loc0:
 2852              	.LLST0:
 2853 0000 00000000 		.4byte	.LVL0
 2854 0004 04000000 		.4byte	.LVL1
 2855 0008 0100     		.2byte	0x1
 2856 000a 51       		.byte	0x51
 2857 000b 04000000 		.4byte	.LVL1
 2858 000f 1E000000 		.4byte	.LFE54
 2859 0013 0400     		.2byte	0x4
 2860 0015 F3       		.byte	0xf3
 2861 0016 01       		.uleb128 0x1
 2862 0017 51       		.byte	0x51
 2863 0018 9F       		.byte	0x9f
 2864 0019 00000000 		.4byte	0
 2865 001d 00000000 		.4byte	0
 2866              	.LLST1:
 2867 0021 00000000 		.4byte	.LVL0
 2868 0025 18000000 		.4byte	.LVL2
 2869 0029 0100     		.2byte	0x1
 2870 002b 52       		.byte	0x52
 2871 002c 18000000 		.4byte	.LVL2
 2872 0030 1E000000 		.4byte	.LFE54
 2873 0034 0400     		.2byte	0x4
 2874 0036 F3       		.byte	0xf3
 2875 0037 01       		.uleb128 0x1
 2876 0038 52       		.byte	0x52
 2877 0039 9F       		.byte	0x9f
 2878 003a 00000000 		.4byte	0
 2879 003e 00000000 		.4byte	0
 2880              	.LLST2:
 2881 0042 00000000 		.4byte	.LVL3
 2882 0046 0A000000 		.4byte	.LVL5
 2883 004a 0100     		.2byte	0x1
ARM GAS  C:\Users\user\AppData\Local\Temp\cc0N1rlz.s 			page 83


 2884 004c 50       		.byte	0x50
 2885 004d 0A000000 		.4byte	.LVL5
 2886 0051 1C000000 		.4byte	.LVL11
 2887 0055 0100     		.2byte	0x1
 2888 0057 56       		.byte	0x56
 2889 0058 1C000000 		.4byte	.LVL11
 2890 005c 1E000000 		.4byte	.LFE53
 2891 0060 0400     		.2byte	0x4
 2892 0062 F3       		.byte	0xf3
 2893 0063 01       		.uleb128 0x1
 2894 0064 50       		.byte	0x50
 2895 0065 9F       		.byte	0x9f
 2896 0066 00000000 		.4byte	0
 2897 006a 00000000 		.4byte	0
 2898              	.LLST3:
 2899 006e 00000000 		.4byte	.LVL3
 2900 0072 0A000000 		.4byte	.LVL5
 2901 0076 0100     		.2byte	0x1
 2902 0078 51       		.byte	0x51
 2903 0079 0A000000 		.4byte	.LVL5
 2904 007d 1C000000 		.4byte	.LVL10
 2905 0081 0100     		.2byte	0x1
 2906 0083 55       		.byte	0x55
 2907 0084 1C000000 		.4byte	.LVL10
 2908 0088 1E000000 		.4byte	.LFE53
 2909 008c 0400     		.2byte	0x4
 2910 008e F3       		.byte	0xf3
 2911 008f 01       		.uleb128 0x1
 2912 0090 51       		.byte	0x51
 2913 0091 9F       		.byte	0x9f
 2914 0092 00000000 		.4byte	0
 2915 0096 00000000 		.4byte	0
 2916              	.LLST4:
 2917 009a 06000000 		.4byte	.LVL4
 2918 009e 0A000000 		.4byte	.LVL5
 2919 00a2 0200     		.2byte	0x2
 2920 00a4 31       		.byte	0x31
 2921 00a5 9F       		.byte	0x9f
 2922 00a6 0A000000 		.4byte	.LVL5
 2923 00aa 16000000 		.4byte	.LVL7
 2924 00ae 0100     		.2byte	0x1
 2925 00b0 54       		.byte	0x54
 2926 00b1 16000000 		.4byte	.LVL7
 2927 00b5 18000000 		.4byte	.LVL8
 2928 00b9 0100     		.2byte	0x1
 2929 00bb 53       		.byte	0x53
 2930 00bc 18000000 		.4byte	.LVL8
 2931 00c0 1C000000 		.4byte	.LVL9
 2932 00c4 0100     		.2byte	0x1
 2933 00c6 54       		.byte	0x54
 2934 00c7 1C000000 		.4byte	.LVL9
 2935 00cb 1E000000 		.4byte	.LFE53
 2936 00cf 0300     		.2byte	0x3
 2937 00d1 73       		.byte	0x73
 2938 00d2 7F       		.sleb128 -1
 2939 00d3 9F       		.byte	0x9f
 2940 00d4 00000000 		.4byte	0
ARM GAS  C:\Users\user\AppData\Local\Temp\cc0N1rlz.s 			page 84


 2941 00d8 00000000 		.4byte	0
 2942              	.LLST5:
 2943 00dc 00000000 		.4byte	.LVL12
 2944 00e0 0E000000 		.4byte	.LVL14
 2945 00e4 0100     		.2byte	0x1
 2946 00e6 50       		.byte	0x50
 2947 00e7 0E000000 		.4byte	.LVL14
 2948 00eb 24000000 		.4byte	.LFE52
 2949 00ef 0400     		.2byte	0x4
 2950 00f1 F3       		.byte	0xf3
 2951 00f2 01       		.uleb128 0x1
 2952 00f3 50       		.byte	0x50
 2953 00f4 9F       		.byte	0x9f
 2954 00f5 00000000 		.4byte	0
 2955 00f9 00000000 		.4byte	0
 2956              	.LLST6:
 2957 00fd 00000000 		.4byte	.LVL12
 2958 0101 12000000 		.4byte	.LVL15
 2959 0105 0100     		.2byte	0x1
 2960 0107 51       		.byte	0x51
 2961 0108 12000000 		.4byte	.LVL15
 2962 010c 24000000 		.4byte	.LFE52
 2963 0110 0400     		.2byte	0x4
 2964 0112 F3       		.byte	0xf3
 2965 0113 01       		.uleb128 0x1
 2966 0114 51       		.byte	0x51
 2967 0115 9F       		.byte	0x9f
 2968 0116 00000000 		.4byte	0
 2969 011a 00000000 		.4byte	0
 2970              	.LLST7:
 2971 011e 02000000 		.4byte	.LVL13
 2972 0122 0E000000 		.4byte	.LVL14
 2973 0126 0200     		.2byte	0x2
 2974 0128 30       		.byte	0x30
 2975 0129 9F       		.byte	0x9f
 2976 012a 0E000000 		.4byte	.LVL14
 2977 012e 1B000000 		.4byte	.LVL17-1
 2978 0132 0100     		.2byte	0x1
 2979 0134 50       		.byte	0x50
 2980 0135 1B000000 		.4byte	.LVL17-1
 2981 0139 1C000000 		.4byte	.LVL18
 2982 013d 1000     		.2byte	0x10
 2983 013f F3       		.byte	0xf3
 2984 0140 01       		.uleb128 0x1
 2985 0141 51       		.byte	0x51
 2986 0142 32       		.byte	0x32
 2987 0143 24       		.byte	0x24
 2988 0144 F3       		.byte	0xf3
 2989 0145 01       		.uleb128 0x1
 2990 0146 51       		.byte	0x51
 2991 0147 22       		.byte	0x22
 2992 0148 31       		.byte	0x31
 2993 0149 24       		.byte	0x24
 2994 014a 74       		.byte	0x74
 2995 014b 08       		.sleb128 8
 2996 014c 06       		.byte	0x6
 2997 014d 22       		.byte	0x22
ARM GAS  C:\Users\user\AppData\Local\Temp\cc0N1rlz.s 			page 85


 2998 014e 9F       		.byte	0x9f
 2999 014f 1C000000 		.4byte	.LVL18
 3000 0153 1C000000 		.4byte	.LVL19
 3001 0157 1B00     		.2byte	0x1b
 3002 0159 F3       		.byte	0xf3
 3003 015a 01       		.uleb128 0x1
 3004 015b 51       		.byte	0x51
 3005 015c 32       		.byte	0x32
 3006 015d 24       		.byte	0x24
 3007 015e F3       		.byte	0xf3
 3008 015f 01       		.uleb128 0x1
 3009 0160 51       		.byte	0x51
 3010 0161 22       		.byte	0x22
 3011 0162 31       		.byte	0x31
 3012 0163 24       		.byte	0x24
 3013 0164 76       		.byte	0x76
 3014 0165 00       		.sleb128 0
 3015 0166 F3       		.byte	0xf3
 3016 0167 01       		.uleb128 0x1
 3017 0168 50       		.byte	0x50
 3018 0169 22       		.byte	0x22
 3019 016a 34       		.byte	0x34
 3020 016b 24       		.byte	0x24
 3021 016c 75       		.byte	0x75
 3022 016d 00       		.sleb128 0
 3023 016e 22       		.byte	0x22
 3024 016f 23       		.byte	0x23
 3025 0170 08       		.uleb128 0x8
 3026 0171 06       		.byte	0x6
 3027 0172 22       		.byte	0x22
 3028 0173 9F       		.byte	0x9f
 3029 0174 00000000 		.4byte	0
 3030 0178 00000000 		.4byte	0
 3031              	.LLST8:
 3032 017c 00000000 		.4byte	.LVL21
 3033 0180 12000000 		.4byte	.LVL24
 3034 0184 0100     		.2byte	0x1
 3035 0186 50       		.byte	0x50
 3036 0187 12000000 		.4byte	.LVL24
 3037 018b 22000000 		.4byte	.LVL29
 3038 018f 0100     		.2byte	0x1
 3039 0191 55       		.byte	0x55
 3040 0192 22000000 		.4byte	.LVL29
 3041 0196 28000000 		.4byte	.LFE51
 3042 019a 0400     		.2byte	0x4
 3043 019c F3       		.byte	0xf3
 3044 019d 01       		.uleb128 0x1
 3045 019e 50       		.byte	0x50
 3046 019f 9F       		.byte	0x9f
 3047 01a0 00000000 		.4byte	0
 3048 01a4 00000000 		.4byte	0
 3049              	.LLST9:
 3050 01a8 10000000 		.4byte	.LVL23
 3051 01ac 12000000 		.4byte	.LVL24
 3052 01b0 0100     		.2byte	0x1
 3053 01b2 53       		.byte	0x53
 3054 01b3 12000000 		.4byte	.LVL24
ARM GAS  C:\Users\user\AppData\Local\Temp\cc0N1rlz.s 			page 86


 3055 01b7 1C000000 		.4byte	.LVL26
 3056 01bb 0100     		.2byte	0x1
 3057 01bd 54       		.byte	0x54
 3058 01be 1C000000 		.4byte	.LVL26
 3059 01c2 1E000000 		.4byte	.LVL27
 3060 01c6 0100     		.2byte	0x1
 3061 01c8 53       		.byte	0x53
 3062 01c9 1E000000 		.4byte	.LVL27
 3063 01cd 22000000 		.4byte	.LVL28
 3064 01d1 0100     		.2byte	0x1
 3065 01d3 54       		.byte	0x54
 3066 01d4 22000000 		.4byte	.LVL28
 3067 01d8 28000000 		.4byte	.LFE51
 3068 01dc 0300     		.2byte	0x3
 3069 01de 73       		.byte	0x73
 3070 01df 7F       		.sleb128 -1
 3071 01e0 9F       		.byte	0x9f
 3072 01e1 00000000 		.4byte	0
 3073 01e5 00000000 		.4byte	0
 3074              	.LLST10:
 3075 01e9 10000000 		.4byte	.LVL23
 3076 01ed 12000000 		.4byte	.LVL24
 3077 01f1 0100     		.2byte	0x1
 3078 01f3 53       		.byte	0x53
 3079 01f4 00000000 		.4byte	0
 3080 01f8 00000000 		.4byte	0
 3081              	.LLST11:
 3082 01fc 02000000 		.4byte	.LVL30
 3083 0200 06000000 		.4byte	.LVL31
 3084 0204 0200     		.2byte	0x2
 3085 0206 33       		.byte	0x33
 3086 0207 9F       		.byte	0x9f
 3087 0208 06000000 		.4byte	.LVL31
 3088 020c 0E000000 		.4byte	.LVL33
 3089 0210 0100     		.2byte	0x1
 3090 0212 54       		.byte	0x54
 3091 0213 0E000000 		.4byte	.LVL33
 3092 0217 10000000 		.4byte	.LVL34
 3093 021b 0100     		.2byte	0x1
 3094 021d 53       		.byte	0x53
 3095 021e 10000000 		.4byte	.LVL34
 3096 0222 14000000 		.4byte	.LVL35
 3097 0226 0100     		.2byte	0x1
 3098 0228 54       		.byte	0x54
 3099 0229 14000000 		.4byte	.LVL35
 3100 022d 16000000 		.4byte	.LFE50
 3101 0231 0300     		.2byte	0x3
 3102 0233 73       		.byte	0x73
 3103 0234 7F       		.sleb128 -1
 3104 0235 9F       		.byte	0x9f
 3105 0236 00000000 		.4byte	0
 3106 023a 00000000 		.4byte	0
 3107              	.LLST12:
 3108 023e 00000000 		.4byte	.LVL36
 3109 0242 14000000 		.4byte	.LVL40
 3110 0246 0100     		.2byte	0x1
 3111 0248 50       		.byte	0x50
ARM GAS  C:\Users\user\AppData\Local\Temp\cc0N1rlz.s 			page 87


 3112 0249 14000000 		.4byte	.LVL40
 3113 024d 4A000000 		.4byte	.LVL51
 3114 0251 0100     		.2byte	0x1
 3115 0253 55       		.byte	0x55
 3116 0254 4A000000 		.4byte	.LVL51
 3117 0258 50000000 		.4byte	.LFE56
 3118 025c 0400     		.2byte	0x4
 3119 025e F3       		.byte	0xf3
 3120 025f 01       		.uleb128 0x1
 3121 0260 50       		.byte	0x50
 3122 0261 9F       		.byte	0x9f
 3123 0262 00000000 		.4byte	0
 3124 0266 00000000 		.4byte	0
 3125              	.LLST13:
 3126 026a 12000000 		.4byte	.LVL39
 3127 026e 14000000 		.4byte	.LVL40
 3128 0272 0100     		.2byte	0x1
 3129 0274 53       		.byte	0x53
 3130 0275 14000000 		.4byte	.LVL40
 3131 0279 44000000 		.4byte	.LVL48
 3132 027d 0100     		.2byte	0x1
 3133 027f 54       		.byte	0x54
 3134 0280 44000000 		.4byte	.LVL48
 3135 0284 46000000 		.4byte	.LVL49
 3136 0288 0100     		.2byte	0x1
 3137 028a 53       		.byte	0x53
 3138 028b 46000000 		.4byte	.LVL49
 3139 028f 4A000000 		.4byte	.LVL50
 3140 0293 0100     		.2byte	0x1
 3141 0295 54       		.byte	0x54
 3142 0296 4A000000 		.4byte	.LVL50
 3143 029a 50000000 		.4byte	.LFE56
 3144 029e 0300     		.2byte	0x3
 3145 02a0 73       		.byte	0x73
 3146 02a1 7F       		.sleb128 -1
 3147 02a2 9F       		.byte	0x9f
 3148 02a3 00000000 		.4byte	0
 3149 02a7 00000000 		.4byte	0
 3150              	.LLST14:
 3151 02ab 12000000 		.4byte	.LVL39
 3152 02af 14000000 		.4byte	.LVL40
 3153 02b3 0100     		.2byte	0x1
 3154 02b5 53       		.byte	0x53
 3155 02b6 1C000000 		.4byte	.LVL41
 3156 02ba 20000000 		.4byte	.LVL43
 3157 02be 1500     		.2byte	0x15
 3158 02c0 75       		.byte	0x75
 3159 02c1 00       		.sleb128 0
 3160 02c2 31       		.byte	0x31
 3161 02c3 24       		.byte	0x24
 3162 02c4 75       		.byte	0x75
 3163 02c5 00       		.sleb128 0
 3164 02c6 22       		.byte	0x22
 3165 02c7 34       		.byte	0x34
 3166 02c8 24       		.byte	0x24
 3167 02c9 72       		.byte	0x72
 3168 02ca 00       		.sleb128 0
ARM GAS  C:\Users\user\AppData\Local\Temp\cc0N1rlz.s 			page 88


 3169 02cb 22       		.byte	0x22
 3170 02cc 23       		.byte	0x23
 3171 02cd 18       		.uleb128 0x18
 3172 02ce 94       		.byte	0x94
 3173 02cf 02       		.byte	0x2
 3174 02d0 0A       		.byte	0xa
 3175 02d1 FFFF     		.2byte	0xffff
 3176 02d3 1A       		.byte	0x1a
 3177 02d4 9F       		.byte	0x9f
 3178 02d5 00000000 		.4byte	0
 3179 02d9 00000000 		.4byte	0
 3180              	.LLST15:
 3181 02dd 04000000 		.4byte	.LVL37
 3182 02e1 14000000 		.4byte	.LVL40
 3183 02e5 0200     		.2byte	0x2
 3184 02e7 30       		.byte	0x30
 3185 02e8 9F       		.byte	0x9f
 3186 02e9 1E000000 		.4byte	.LVL42
 3187 02ed 28000000 		.4byte	.LVL44
 3188 02f1 0200     		.2byte	0x2
 3189 02f3 73       		.byte	0x73
 3190 02f4 08       		.sleb128 8
 3191 02f5 28000000 		.4byte	.LVL44
 3192 02f9 3E000000 		.4byte	.LVL46
 3193 02fd 0100     		.2byte	0x1
 3194 02ff 50       		.byte	0x50
 3195 0300 00000000 		.4byte	0
 3196 0304 00000000 		.4byte	0
 3197              	.LLST16:
 3198 0308 10000000 		.4byte	.LVL38
 3199 030c 4A000000 		.4byte	.LVL52
 3200 0310 0100     		.2byte	0x1
 3201 0312 56       		.byte	0x56
 3202 0313 00000000 		.4byte	0
 3203 0317 00000000 		.4byte	0
 3204              	.LLST17:
 3205 031b 04000000 		.4byte	.LVL37
 3206 031f 14000000 		.4byte	.LVL40
 3207 0323 0200     		.2byte	0x2
 3208 0325 30       		.byte	0x30
 3209 0326 9F       		.byte	0x9f
 3210 0327 28000000 		.4byte	.LVL44
 3211 032b 34000000 		.4byte	.LVL45
 3212 032f 0200     		.2byte	0x2
 3213 0331 73       		.byte	0x73
 3214 0332 24       		.sleb128 36
 3215 0333 34000000 		.4byte	.LVL45
 3216 0337 41000000 		.4byte	.LVL47-1
 3217 033b 0100     		.2byte	0x1
 3218 033d 52       		.byte	0x52
 3219 033e 00000000 		.4byte	0
 3220 0342 00000000 		.4byte	0
 3221              	.LLST18:
 3222 0346 02000000 		.4byte	.LVL53
 3223 034a 06000000 		.4byte	.LVL54
 3224 034e 0200     		.2byte	0x2
 3225 0350 33       		.byte	0x33
ARM GAS  C:\Users\user\AppData\Local\Temp\cc0N1rlz.s 			page 89


 3226 0351 9F       		.byte	0x9f
 3227 0352 06000000 		.4byte	.LVL54
 3228 0356 0E000000 		.4byte	.LVL56
 3229 035a 0100     		.2byte	0x1
 3230 035c 54       		.byte	0x54
 3231 035d 0E000000 		.4byte	.LVL56
 3232 0361 10000000 		.4byte	.LVL57
 3233 0365 0100     		.2byte	0x1
 3234 0367 53       		.byte	0x53
 3235 0368 10000000 		.4byte	.LVL57
 3236 036c 14000000 		.4byte	.LVL58
 3237 0370 0100     		.2byte	0x1
 3238 0372 54       		.byte	0x54
 3239 0373 14000000 		.4byte	.LVL58
 3240 0377 16000000 		.4byte	.LFE55
 3241 037b 0300     		.2byte	0x3
 3242 037d 73       		.byte	0x73
 3243 037e 7F       		.sleb128 -1
 3244 037f 9F       		.byte	0x9f
 3245 0380 00000000 		.4byte	0
 3246 0384 00000000 		.4byte	0
 3247              	.LLST19:
 3248 0388 00000000 		.4byte	.LVL60
 3249 038c 1A000000 		.4byte	.LVL65
 3250 0390 0100     		.2byte	0x1
 3251 0392 50       		.byte	0x50
 3252 0393 1A000000 		.4byte	.LVL65
 3253 0397 38000000 		.4byte	.LFE57
 3254 039b 0400     		.2byte	0x4
 3255 039d F3       		.byte	0xf3
 3256 039e 01       		.uleb128 0x1
 3257 039f 50       		.byte	0x50
 3258 03a0 9F       		.byte	0x9f
 3259 03a1 00000000 		.4byte	0
 3260 03a5 00000000 		.4byte	0
 3261              	.LLST20:
 3262 03a9 00000000 		.4byte	.LVL60
 3263 03ad 24000000 		.4byte	.LVL67
 3264 03b1 0100     		.2byte	0x1
 3265 03b3 51       		.byte	0x51
 3266 03b4 24000000 		.4byte	.LVL67
 3267 03b8 38000000 		.4byte	.LFE57
 3268 03bc 0400     		.2byte	0x4
 3269 03be F3       		.byte	0xf3
 3270 03bf 01       		.uleb128 0x1
 3271 03c0 51       		.byte	0x51
 3272 03c1 9F       		.byte	0x9f
 3273 03c2 00000000 		.4byte	0
 3274 03c6 00000000 		.4byte	0
 3275              	.LLST21:
 3276 03ca 10000000 		.4byte	.LVL62
 3277 03ce 30000000 		.4byte	.LVL71
 3278 03d2 0100     		.2byte	0x1
 3279 03d4 55       		.byte	0x55
 3280 03d5 30000000 		.4byte	.LVL71
 3281 03d9 30000000 		.4byte	.LVL73
 3282 03dd 1000     		.2byte	0x10
ARM GAS  C:\Users\user\AppData\Local\Temp\cc0N1rlz.s 			page 90


 3283 03df F3       		.byte	0xf3
 3284 03e0 01       		.uleb128 0x1
 3285 03e1 50       		.byte	0x50
 3286 03e2 31       		.byte	0x31
 3287 03e3 24       		.byte	0x24
 3288 03e4 F3       		.byte	0xf3
 3289 03e5 01       		.uleb128 0x1
 3290 03e6 50       		.byte	0x50
 3291 03e7 22       		.byte	0x22
 3292 03e8 34       		.byte	0x34
 3293 03e9 24       		.byte	0x24
 3294 03ea 77       		.byte	0x77
 3295 03eb 00       		.sleb128 0
 3296 03ec 22       		.byte	0x22
 3297 03ed 23       		.byte	0x23
 3298 03ee 04       		.uleb128 0x4
 3299 03ef 00000000 		.4byte	0
 3300 03f3 00000000 		.4byte	0
 3301              	.LLST22:
 3302 03f7 10000000 		.4byte	.LVL62
 3303 03fb 12000000 		.4byte	.LVL63
 3304 03ff 0200     		.2byte	0x2
 3305 0401 30       		.byte	0x30
 3306 0402 9F       		.byte	0x9f
 3307 0403 12000000 		.4byte	.LVL63
 3308 0407 18000000 		.4byte	.LVL64
 3309 040b 0100     		.2byte	0x1
 3310 040d 56       		.byte	0x56
 3311 040e 18000000 		.4byte	.LVL64
 3312 0412 30000000 		.4byte	.LVL70
 3313 0416 0600     		.2byte	0x6
 3314 0418 76       		.byte	0x76
 3315 0419 00       		.sleb128 0
 3316 041a 74       		.byte	0x74
 3317 041b 00       		.sleb128 0
 3318 041c 22       		.byte	0x22
 3319 041d 9F       		.byte	0x9f
 3320 041e 30000000 		.4byte	.LVL70
 3321 0422 30000000 		.4byte	.LVL72
 3322 0426 0F00     		.2byte	0xf
 3323 0428 F3       		.byte	0xf3
 3324 0429 01       		.uleb128 0x1
 3325 042a 51       		.byte	0x51
 3326 042b 32       		.byte	0x32
 3327 042c 24       		.byte	0x24
 3328 042d F3       		.byte	0xf3
 3329 042e 01       		.uleb128 0x1
 3330 042f 51       		.byte	0x51
 3331 0430 22       		.byte	0x22
 3332 0431 31       		.byte	0x31
 3333 0432 24       		.byte	0x24
 3334 0433 76       		.byte	0x76
 3335 0434 00       		.sleb128 0
 3336 0435 22       		.byte	0x22
 3337 0436 9F       		.byte	0x9f
 3338 0437 30000000 		.4byte	.LVL72
 3339 043b 30000000 		.4byte	.LVL73
ARM GAS  C:\Users\user\AppData\Local\Temp\cc0N1rlz.s 			page 91


 3340 043f 1E00     		.2byte	0x1e
 3341 0441 F3       		.byte	0xf3
 3342 0442 01       		.uleb128 0x1
 3343 0443 51       		.byte	0x51
 3344 0444 32       		.byte	0x32
 3345 0445 24       		.byte	0x24
 3346 0446 F3       		.byte	0xf3
 3347 0447 01       		.uleb128 0x1
 3348 0448 51       		.byte	0x51
 3349 0449 22       		.byte	0x22
 3350 044a 31       		.byte	0x31
 3351 044b 24       		.byte	0x24
 3352 044c F3       		.byte	0xf3
 3353 044d 01       		.uleb128 0x1
 3354 044e 50       		.byte	0x50
 3355 044f 31       		.byte	0x31
 3356 0450 24       		.byte	0x24
 3357 0451 F3       		.byte	0xf3
 3358 0452 01       		.uleb128 0x1
 3359 0453 50       		.byte	0x50
 3360 0454 22       		.byte	0x22
 3361 0455 34       		.byte	0x34
 3362 0456 24       		.byte	0x24
 3363 0457 77       		.byte	0x77
 3364 0458 00       		.sleb128 0
 3365 0459 22       		.byte	0x22
 3366 045a 23       		.byte	0x23
 3367 045b 08       		.uleb128 0x8
 3368 045c 06       		.byte	0x6
 3369 045d 22       		.byte	0x22
 3370 045e 9F       		.byte	0x9f
 3371 045f 00000000 		.4byte	0
 3372 0463 00000000 		.4byte	0
 3373              	.LLST23:
 3374 0467 10000000 		.4byte	.LVL62
 3375 046b 20000000 		.4byte	.LVL66
 3376 046f 0200     		.2byte	0x2
 3377 0471 30       		.byte	0x30
 3378 0472 9F       		.byte	0x9f
 3379 0473 20000000 		.4byte	.LVL66
 3380 0477 28000000 		.4byte	.LVL68
 3381 047b 0100     		.2byte	0x1
 3382 047d 53       		.byte	0x53
 3383 047e 28000000 		.4byte	.LVL68
 3384 0482 2F000000 		.4byte	.LVL69-1
 3385 0486 0100     		.2byte	0x1
 3386 0488 52       		.byte	0x52
 3387 0489 2F000000 		.4byte	.LVL69-1
 3388 048d 30000000 		.4byte	.LVL73
 3389 0491 1E00     		.2byte	0x1e
 3390 0493 F3       		.byte	0xf3
 3391 0494 01       		.uleb128 0x1
 3392 0495 51       		.byte	0x51
 3393 0496 31       		.byte	0x31
 3394 0497 24       		.byte	0x24
 3395 0498 F3       		.byte	0xf3
 3396 0499 01       		.uleb128 0x1
ARM GAS  C:\Users\user\AppData\Local\Temp\cc0N1rlz.s 			page 92


 3397 049a 51       		.byte	0x51
 3398 049b 22       		.byte	0x22
 3399 049c 32       		.byte	0x32
 3400 049d 24       		.byte	0x24
 3401 049e F3       		.byte	0xf3
 3402 049f 01       		.uleb128 0x1
 3403 04a0 50       		.byte	0x50
 3404 04a1 31       		.byte	0x31
 3405 04a2 24       		.byte	0x24
 3406 04a3 F3       		.byte	0xf3
 3407 04a4 01       		.uleb128 0x1
 3408 04a5 50       		.byte	0x50
 3409 04a6 22       		.byte	0x22
 3410 04a7 34       		.byte	0x34
 3411 04a8 24       		.byte	0x24
 3412 04a9 77       		.byte	0x77
 3413 04aa 00       		.sleb128 0
 3414 04ab 22       		.byte	0x22
 3415 04ac 23       		.byte	0x23
 3416 04ad 24       		.uleb128 0x24
 3417 04ae 06       		.byte	0x6
 3418 04af 22       		.byte	0x22
 3419 04b0 9F       		.byte	0x9f
 3420 04b1 00000000 		.4byte	0
 3421 04b5 00000000 		.4byte	0
 3422              	.LLST24:
 3423 04b9 00000000 		.4byte	.LVL74
 3424 04bd 1A000000 		.4byte	.LVL79
 3425 04c1 0100     		.2byte	0x1
 3426 04c3 50       		.byte	0x50
 3427 04c4 1A000000 		.4byte	.LVL79
 3428 04c8 38000000 		.4byte	.LFE58
 3429 04cc 0400     		.2byte	0x4
 3430 04ce F3       		.byte	0xf3
 3431 04cf 01       		.uleb128 0x1
 3432 04d0 50       		.byte	0x50
 3433 04d1 9F       		.byte	0x9f
 3434 04d2 00000000 		.4byte	0
 3435 04d6 00000000 		.4byte	0
 3436              	.LLST25:
 3437 04da 00000000 		.4byte	.LVL74
 3438 04de 24000000 		.4byte	.LVL81
 3439 04e2 0100     		.2byte	0x1
 3440 04e4 51       		.byte	0x51
 3441 04e5 24000000 		.4byte	.LVL81
 3442 04e9 38000000 		.4byte	.LFE58
 3443 04ed 0400     		.2byte	0x4
 3444 04ef F3       		.byte	0xf3
 3445 04f0 01       		.uleb128 0x1
 3446 04f1 51       		.byte	0x51
 3447 04f2 9F       		.byte	0x9f
 3448 04f3 00000000 		.4byte	0
 3449 04f7 00000000 		.4byte	0
 3450              	.LLST26:
 3451 04fb 10000000 		.4byte	.LVL76
 3452 04ff 30000000 		.4byte	.LVL85
 3453 0503 0100     		.2byte	0x1
ARM GAS  C:\Users\user\AppData\Local\Temp\cc0N1rlz.s 			page 93


 3454 0505 55       		.byte	0x55
 3455 0506 30000000 		.4byte	.LVL85
 3456 050a 30000000 		.4byte	.LVL87
 3457 050e 1000     		.2byte	0x10
 3458 0510 F3       		.byte	0xf3
 3459 0511 01       		.uleb128 0x1
 3460 0512 50       		.byte	0x50
 3461 0513 31       		.byte	0x31
 3462 0514 24       		.byte	0x24
 3463 0515 F3       		.byte	0xf3
 3464 0516 01       		.uleb128 0x1
 3465 0517 50       		.byte	0x50
 3466 0518 22       		.byte	0x22
 3467 0519 34       		.byte	0x34
 3468 051a 24       		.byte	0x24
 3469 051b 77       		.byte	0x77
 3470 051c 00       		.sleb128 0
 3471 051d 22       		.byte	0x22
 3472 051e 23       		.byte	0x23
 3473 051f 04       		.uleb128 0x4
 3474 0520 00000000 		.4byte	0
 3475 0524 00000000 		.4byte	0
 3476              	.LLST27:
 3477 0528 10000000 		.4byte	.LVL76
 3478 052c 12000000 		.4byte	.LVL77
 3479 0530 0200     		.2byte	0x2
 3480 0532 30       		.byte	0x30
 3481 0533 9F       		.byte	0x9f
 3482 0534 12000000 		.4byte	.LVL77
 3483 0538 18000000 		.4byte	.LVL78
 3484 053c 0100     		.2byte	0x1
 3485 053e 56       		.byte	0x56
 3486 053f 18000000 		.4byte	.LVL78
 3487 0543 30000000 		.4byte	.LVL84
 3488 0547 0600     		.2byte	0x6
 3489 0549 76       		.byte	0x76
 3490 054a 00       		.sleb128 0
 3491 054b 74       		.byte	0x74
 3492 054c 00       		.sleb128 0
 3493 054d 22       		.byte	0x22
 3494 054e 9F       		.byte	0x9f
 3495 054f 30000000 		.4byte	.LVL84
 3496 0553 30000000 		.4byte	.LVL86
 3497 0557 0F00     		.2byte	0xf
 3498 0559 F3       		.byte	0xf3
 3499 055a 01       		.uleb128 0x1
 3500 055b 51       		.byte	0x51
 3501 055c 32       		.byte	0x32
 3502 055d 24       		.byte	0x24
 3503 055e F3       		.byte	0xf3
 3504 055f 01       		.uleb128 0x1
 3505 0560 51       		.byte	0x51
 3506 0561 22       		.byte	0x22
 3507 0562 31       		.byte	0x31
 3508 0563 24       		.byte	0x24
 3509 0564 76       		.byte	0x76
 3510 0565 00       		.sleb128 0
ARM GAS  C:\Users\user\AppData\Local\Temp\cc0N1rlz.s 			page 94


 3511 0566 22       		.byte	0x22
 3512 0567 9F       		.byte	0x9f
 3513 0568 30000000 		.4byte	.LVL86
 3514 056c 30000000 		.4byte	.LVL87
 3515 0570 1E00     		.2byte	0x1e
 3516 0572 F3       		.byte	0xf3
 3517 0573 01       		.uleb128 0x1
 3518 0574 51       		.byte	0x51
 3519 0575 32       		.byte	0x32
 3520 0576 24       		.byte	0x24
 3521 0577 F3       		.byte	0xf3
 3522 0578 01       		.uleb128 0x1
 3523 0579 51       		.byte	0x51
 3524 057a 22       		.byte	0x22
 3525 057b 31       		.byte	0x31
 3526 057c 24       		.byte	0x24
 3527 057d F3       		.byte	0xf3
 3528 057e 01       		.uleb128 0x1
 3529 057f 50       		.byte	0x50
 3530 0580 31       		.byte	0x31
 3531 0581 24       		.byte	0x24
 3532 0582 F3       		.byte	0xf3
 3533 0583 01       		.uleb128 0x1
 3534 0584 50       		.byte	0x50
 3535 0585 22       		.byte	0x22
 3536 0586 34       		.byte	0x34
 3537 0587 24       		.byte	0x24
 3538 0588 77       		.byte	0x77
 3539 0589 00       		.sleb128 0
 3540 058a 22       		.byte	0x22
 3541 058b 23       		.byte	0x23
 3542 058c 08       		.uleb128 0x8
 3543 058d 06       		.byte	0x6
 3544 058e 22       		.byte	0x22
 3545 058f 9F       		.byte	0x9f
 3546 0590 00000000 		.4byte	0
 3547 0594 00000000 		.4byte	0
 3548              	.LLST28:
 3549 0598 10000000 		.4byte	.LVL76
 3550 059c 20000000 		.4byte	.LVL80
 3551 05a0 0200     		.2byte	0x2
 3552 05a2 30       		.byte	0x30
 3553 05a3 9F       		.byte	0x9f
 3554 05a4 20000000 		.4byte	.LVL80
 3555 05a8 28000000 		.4byte	.LVL82
 3556 05ac 0100     		.2byte	0x1
 3557 05ae 53       		.byte	0x53
 3558 05af 28000000 		.4byte	.LVL82
 3559 05b3 2F000000 		.4byte	.LVL83-1
 3560 05b7 0100     		.2byte	0x1
 3561 05b9 52       		.byte	0x52
 3562 05ba 2F000000 		.4byte	.LVL83-1
 3563 05be 30000000 		.4byte	.LVL87
 3564 05c2 1E00     		.2byte	0x1e
 3565 05c4 F3       		.byte	0xf3
 3566 05c5 01       		.uleb128 0x1
 3567 05c6 51       		.byte	0x51
ARM GAS  C:\Users\user\AppData\Local\Temp\cc0N1rlz.s 			page 95


 3568 05c7 31       		.byte	0x31
 3569 05c8 24       		.byte	0x24
 3570 05c9 F3       		.byte	0xf3
 3571 05ca 01       		.uleb128 0x1
 3572 05cb 51       		.byte	0x51
 3573 05cc 22       		.byte	0x22
 3574 05cd 32       		.byte	0x32
 3575 05ce 24       		.byte	0x24
 3576 05cf F3       		.byte	0xf3
 3577 05d0 01       		.uleb128 0x1
 3578 05d1 50       		.byte	0x50
 3579 05d2 31       		.byte	0x31
 3580 05d3 24       		.byte	0x24
 3581 05d4 F3       		.byte	0xf3
 3582 05d5 01       		.uleb128 0x1
 3583 05d6 50       		.byte	0x50
 3584 05d7 22       		.byte	0x22
 3585 05d8 34       		.byte	0x34
 3586 05d9 24       		.byte	0x24
 3587 05da 77       		.byte	0x77
 3588 05db 00       		.sleb128 0
 3589 05dc 22       		.byte	0x22
 3590 05dd 23       		.byte	0x23
 3591 05de 24       		.uleb128 0x24
 3592 05df 06       		.byte	0x6
 3593 05e0 22       		.byte	0x22
 3594 05e1 9F       		.byte	0x9f
 3595 05e2 00000000 		.4byte	0
 3596 05e6 00000000 		.4byte	0
 3597              	.LLST29:
 3598 05ea 00000000 		.4byte	.LVL88
 3599 05ee 02000000 		.4byte	.LVL89
 3600 05f2 0100     		.2byte	0x1
 3601 05f4 50       		.byte	0x50
 3602 05f5 02000000 		.4byte	.LVL89
 3603 05f9 12000000 		.4byte	.LFE59
 3604 05fd 0400     		.2byte	0x4
 3605 05ff F3       		.byte	0xf3
 3606 0600 01       		.uleb128 0x1
 3607 0601 50       		.byte	0x50
 3608 0602 9F       		.byte	0x9f
 3609 0603 00000000 		.4byte	0
 3610 0607 00000000 		.4byte	0
 3611              	.LLST30:
 3612 060b 00000000 		.4byte	.LVL88
 3613 060f 0C000000 		.4byte	.LVL92
 3614 0613 0100     		.2byte	0x1
 3615 0615 51       		.byte	0x51
 3616 0616 0C000000 		.4byte	.LVL92
 3617 061a 12000000 		.4byte	.LFE59
 3618 061e 0400     		.2byte	0x4
 3619 0620 F3       		.byte	0xf3
 3620 0621 01       		.uleb128 0x1
 3621 0622 51       		.byte	0x51
 3622 0623 9F       		.byte	0x9f
 3623 0624 00000000 		.4byte	0
 3624 0628 00000000 		.4byte	0
ARM GAS  C:\Users\user\AppData\Local\Temp\cc0N1rlz.s 			page 96


 3625              	.LLST31:
 3626 062c 00000000 		.4byte	.LVL88
 3627 0630 0A000000 		.4byte	.LVL91
 3628 0634 0100     		.2byte	0x1
 3629 0636 52       		.byte	0x52
 3630 0637 0A000000 		.4byte	.LVL91
 3631 063b 12000000 		.4byte	.LFE59
 3632 063f 0400     		.2byte	0x4
 3633 0641 F3       		.byte	0xf3
 3634 0642 01       		.uleb128 0x1
 3635 0643 52       		.byte	0x52
 3636 0644 9F       		.byte	0x9f
 3637 0645 00000000 		.4byte	0
 3638 0649 00000000 		.4byte	0
 3639              	.LLST32:
 3640 064d 00000000 		.4byte	.LVL88
 3641 0651 06000000 		.4byte	.LVL90
 3642 0655 0100     		.2byte	0x1
 3643 0657 53       		.byte	0x53
 3644 0658 06000000 		.4byte	.LVL90
 3645 065c 12000000 		.4byte	.LFE59
 3646 0660 0400     		.2byte	0x4
 3647 0662 F3       		.byte	0xf3
 3648 0663 01       		.uleb128 0x1
 3649 0664 53       		.byte	0x53
 3650 0665 9F       		.byte	0x9f
 3651 0666 00000000 		.4byte	0
 3652 066a 00000000 		.4byte	0
 3653              	.LLST33:
 3654 066e 00000000 		.4byte	.LVL94
 3655 0672 10000000 		.4byte	.LVL96
 3656 0676 0100     		.2byte	0x1
 3657 0678 50       		.byte	0x50
 3658 0679 10000000 		.4byte	.LVL96
 3659 067d 88000000 		.4byte	.LVL114
 3660 0681 0100     		.2byte	0x1
 3661 0683 57       		.byte	0x57
 3662 0684 88000000 		.4byte	.LVL114
 3663 0688 8E000000 		.4byte	.LFE49
 3664 068c 0400     		.2byte	0x4
 3665 068e F3       		.byte	0xf3
 3666 068f 01       		.uleb128 0x1
 3667 0690 50       		.byte	0x50
 3668 0691 9F       		.byte	0x9f
 3669 0692 00000000 		.4byte	0
 3670 0696 00000000 		.4byte	0
 3671              	.LLST34:
 3672 069a 00000000 		.4byte	.LVL94
 3673 069e 10000000 		.4byte	.LVL96
 3674 06a2 0100     		.2byte	0x1
 3675 06a4 51       		.byte	0x51
 3676 06a5 10000000 		.4byte	.LVL96
 3677 06a9 88000000 		.4byte	.LVL113
 3678 06ad 0100     		.2byte	0x1
 3679 06af 56       		.byte	0x56
 3680 06b0 88000000 		.4byte	.LVL113
 3681 06b4 8E000000 		.4byte	.LFE49
ARM GAS  C:\Users\user\AppData\Local\Temp\cc0N1rlz.s 			page 97


 3682 06b8 0400     		.2byte	0x4
 3683 06ba F3       		.byte	0xf3
 3684 06bb 01       		.uleb128 0x1
 3685 06bc 51       		.byte	0x51
 3686 06bd 9F       		.byte	0x9f
 3687 06be 00000000 		.4byte	0
 3688 06c2 00000000 		.4byte	0
 3689              	.LLST35:
 3690 06c6 00000000 		.4byte	.LVL94
 3691 06ca 10000000 		.4byte	.LVL96
 3692 06ce 0100     		.2byte	0x1
 3693 06d0 52       		.byte	0x52
 3694 06d1 10000000 		.4byte	.LVL96
 3695 06d5 88000000 		.4byte	.LVL112
 3696 06d9 0100     		.2byte	0x1
 3697 06db 55       		.byte	0x55
 3698 06dc 88000000 		.4byte	.LVL112
 3699 06e0 8E000000 		.4byte	.LFE49
 3700 06e4 0400     		.2byte	0x4
 3701 06e6 F3       		.byte	0xf3
 3702 06e7 01       		.uleb128 0x1
 3703 06e8 52       		.byte	0x52
 3704 06e9 9F       		.byte	0x9f
 3705 06ea 00000000 		.4byte	0
 3706 06ee 00000000 		.4byte	0
 3707              	.LLST36:
 3708 06f2 20000000 		.4byte	.LVL97
 3709 06f6 2A000000 		.4byte	.LVL99
 3710 06fa 0200     		.2byte	0x2
 3711 06fc 31       		.byte	0x31
 3712 06fd 9F       		.byte	0x9f
 3713 06fe 2E000000 		.4byte	.LVL100
 3714 0702 30000000 		.4byte	.LVL101
 3715 0706 0200     		.2byte	0x2
 3716 0708 30       		.byte	0x30
 3717 0709 9F       		.byte	0x9f
 3718 070a 30000000 		.4byte	.LVL101
 3719 070e 36000000 		.4byte	.LVL102
 3720 0712 0100     		.2byte	0x1
 3721 0714 53       		.byte	0x53
 3722 0715 00000000 		.4byte	0
 3723 0719 00000000 		.4byte	0
 3724              	.LLST37:
 3725 071d 20000000 		.4byte	.LVL97
 3726 0721 22000000 		.4byte	.LVL98
 3727 0725 0100     		.2byte	0x1
 3728 0727 53       		.byte	0x53
 3729 0728 22000000 		.4byte	.LVL98
 3730 072c 2A000000 		.4byte	.LVL99
 3731 0730 0100     		.2byte	0x1
 3732 0732 58       		.byte	0x58
 3733 0733 2E000000 		.4byte	.LVL100
 3734 0737 30000000 		.4byte	.LVL101
 3735 073b 0100     		.2byte	0x1
 3736 073d 53       		.byte	0x53
 3737 073e 30000000 		.4byte	.LVL101
 3738 0742 66000000 		.4byte	.LVL105
ARM GAS  C:\Users\user\AppData\Local\Temp\cc0N1rlz.s 			page 98


 3739 0746 0100     		.2byte	0x1
 3740 0748 58       		.byte	0x58
 3741 0749 00000000 		.4byte	0
 3742 074d 00000000 		.4byte	0
 3743              	.LLST38:
 3744 0751 0C000000 		.4byte	.LVL95
 3745 0755 10000000 		.4byte	.LVL96
 3746 0759 0200     		.2byte	0x2
 3747 075b 31       		.byte	0x31
 3748 075c 9F       		.byte	0x9f
 3749 075d 10000000 		.4byte	.LVL96
 3750 0761 80000000 		.4byte	.LVL109
 3751 0765 0100     		.2byte	0x1
 3752 0767 54       		.byte	0x54
 3753 0768 80000000 		.4byte	.LVL109
 3754 076c 82000000 		.4byte	.LVL110
 3755 0770 0100     		.2byte	0x1
 3756 0772 53       		.byte	0x53
 3757 0773 82000000 		.4byte	.LVL110
 3758 0777 88000000 		.4byte	.LVL111
 3759 077b 0100     		.2byte	0x1
 3760 077d 54       		.byte	0x54
 3761 077e 88000000 		.4byte	.LVL111
 3762 0782 8E000000 		.4byte	.LFE49
 3763 0786 0300     		.2byte	0x3
 3764 0788 73       		.byte	0x73
 3765 0789 7F       		.sleb128 -1
 3766 078a 9F       		.byte	0x9f
 3767 078b 00000000 		.4byte	0
 3768 078f 00000000 		.4byte	0
 3769              	.LLST39:
 3770 0793 6A000000 		.4byte	.LVL106
 3771 0797 7E000000 		.4byte	.LVL108
 3772 079b 0200     		.2byte	0x2
 3773 079d 31       		.byte	0x31
 3774 079e 9F       		.byte	0x9f
 3775 079f 00000000 		.4byte	0
 3776 07a3 00000000 		.4byte	0
 3777              	.LLST40:
 3778 07a7 62000000 		.4byte	.LVL104
 3779 07ab 71000000 		.4byte	.LVL107-1
 3780 07af 0100     		.2byte	0x1
 3781 07b1 51       		.byte	0x51
 3782 07b2 72000000 		.4byte	.LVL107
 3783 07b6 7E000000 		.4byte	.LVL108
 3784 07ba 0100     		.2byte	0x1
 3785 07bc 50       		.byte	0x50
 3786 07bd 00000000 		.4byte	0
 3787 07c1 00000000 		.4byte	0
 3788              	.LLST41:
 3789 07c5 00000000 		.4byte	.LVL115
 3790 07c9 0A000000 		.4byte	.LVL117
 3791 07cd 0100     		.2byte	0x1
 3792 07cf 50       		.byte	0x50
 3793 07d0 0A000000 		.4byte	.LVL117
 3794 07d4 1C000000 		.4byte	.LVL122
 3795 07d8 0100     		.2byte	0x1
ARM GAS  C:\Users\user\AppData\Local\Temp\cc0N1rlz.s 			page 99


 3796 07da 53       		.byte	0x53
 3797 07db 1C000000 		.4byte	.LVL122
 3798 07df 2C000000 		.4byte	.LFE48
 3799 07e3 0400     		.2byte	0x4
 3800 07e5 F3       		.byte	0xf3
 3801 07e6 01       		.uleb128 0x1
 3802 07e7 50       		.byte	0x50
 3803 07e8 9F       		.byte	0x9f
 3804 07e9 00000000 		.4byte	0
 3805 07ed 00000000 		.4byte	0
 3806              	.LLST42:
 3807 07f1 00000000 		.4byte	.LVL115
 3808 07f5 18000000 		.4byte	.LVL120
 3809 07f9 0100     		.2byte	0x1
 3810 07fb 51       		.byte	0x51
 3811 07fc 18000000 		.4byte	.LVL120
 3812 0800 2C000000 		.4byte	.LFE48
 3813 0804 0400     		.2byte	0x4
 3814 0806 F3       		.byte	0xf3
 3815 0807 01       		.uleb128 0x1
 3816 0808 51       		.byte	0x51
 3817 0809 9F       		.byte	0x9f
 3818 080a 00000000 		.4byte	0
 3819 080e 00000000 		.4byte	0
 3820              	.LLST43:
 3821 0812 04000000 		.4byte	.LVL116
 3822 0816 26000000 		.4byte	.LVL123
 3823 081a 0200     		.2byte	0x2
 3824 081c 30       		.byte	0x30
 3825 081d 9F       		.byte	0x9f
 3826 081e 26000000 		.4byte	.LVL123
 3827 0822 2C000000 		.4byte	.LFE48
 3828 0826 0100     		.2byte	0x1
 3829 0828 50       		.byte	0x50
 3830 0829 00000000 		.4byte	0
 3831 082d 00000000 		.4byte	0
 3832              	.LLST44:
 3833 0831 04000000 		.4byte	.LVL116
 3834 0835 12000000 		.4byte	.LVL119
 3835 0839 0200     		.2byte	0x2
 3836 083b 30       		.byte	0x30
 3837 083c 9F       		.byte	0x9f
 3838 083d 12000000 		.4byte	.LVL119
 3839 0841 1A000000 		.4byte	.LVL121
 3840 0845 0100     		.2byte	0x1
 3841 0847 56       		.byte	0x56
 3842 0848 1A000000 		.4byte	.LVL121
 3843 084c 25000000 		.4byte	.LVL123-1
 3844 0850 0100     		.2byte	0x1
 3845 0852 51       		.byte	0x51
 3846 0853 25000000 		.4byte	.LVL123-1
 3847 0857 26000000 		.4byte	.LVL126
 3848 085b 0F00     		.2byte	0xf
 3849 085d F3       		.byte	0xf3
 3850 085e 01       		.uleb128 0x1
 3851 085f 51       		.byte	0x51
 3852 0860 32       		.byte	0x32
ARM GAS  C:\Users\user\AppData\Local\Temp\cc0N1rlz.s 			page 100


 3853 0861 24       		.byte	0x24
 3854 0862 F3       		.byte	0xf3
 3855 0863 01       		.uleb128 0x1
 3856 0864 51       		.byte	0x51
 3857 0865 22       		.byte	0x22
 3858 0866 31       		.byte	0x31
 3859 0867 24       		.byte	0x24
 3860 0868 76       		.byte	0x76
 3861 0869 00       		.sleb128 0
 3862 086a 22       		.byte	0x22
 3863 086b 9F       		.byte	0x9f
 3864 086c 00000000 		.4byte	0
 3865 0870 00000000 		.4byte	0
 3866              	.LLST45:
 3867 0874 10000000 		.4byte	.LVL118
 3868 0878 25000000 		.4byte	.LVL123-1
 3869 087c 0100     		.2byte	0x1
 3870 087e 50       		.byte	0x50
 3871 087f 25000000 		.4byte	.LVL123-1
 3872 0883 26000000 		.4byte	.LVL124
 3873 0887 0D00     		.2byte	0xd
 3874 0889 75       		.byte	0x75
 3875 088a 00       		.sleb128 0
 3876 088b F3       		.byte	0xf3
 3877 088c 01       		.uleb128 0x1
 3878 088d 50       		.byte	0x50
 3879 088e 22       		.byte	0x22
 3880 088f 34       		.byte	0x34
 3881 0890 24       		.byte	0x24
 3882 0891 74       		.byte	0x74
 3883 0892 00       		.sleb128 0
 3884 0893 22       		.byte	0x22
 3885 0894 23       		.byte	0x23
 3886 0895 04       		.uleb128 0x4
 3887 0896 00000000 		.4byte	0
 3888 089a 00000000 		.4byte	0
 3889              	.LLST46:
 3890 089e 00000000 		.4byte	.LVL127
 3891 08a2 14000000 		.4byte	.LVL130
 3892 08a6 0100     		.2byte	0x1
 3893 08a8 50       		.byte	0x50
 3894 08a9 14000000 		.4byte	.LVL130
 3895 08ad 28000000 		.4byte	.LVL137
 3896 08b1 0100     		.2byte	0x1
 3897 08b3 56       		.byte	0x56
 3898 08b4 28000000 		.4byte	.LVL137
 3899 08b8 30000000 		.4byte	.LFE47
 3900 08bc 0400     		.2byte	0x4
 3901 08be F3       		.byte	0xf3
 3902 08bf 01       		.uleb128 0x1
 3903 08c0 50       		.byte	0x50
 3904 08c1 9F       		.byte	0x9f
 3905 08c2 00000000 		.4byte	0
 3906 08c6 00000000 		.4byte	0
 3907              	.LLST47:
 3908 08ca 10000000 		.4byte	.LVL129
 3909 08ce 14000000 		.4byte	.LVL130
ARM GAS  C:\Users\user\AppData\Local\Temp\cc0N1rlz.s 			page 101


 3910 08d2 0100     		.2byte	0x1
 3911 08d4 53       		.byte	0x53
 3912 08d5 14000000 		.4byte	.LVL130
 3913 08d9 20000000 		.4byte	.LVL133
 3914 08dd 0100     		.2byte	0x1
 3915 08df 54       		.byte	0x54
 3916 08e0 20000000 		.4byte	.LVL133
 3917 08e4 22000000 		.4byte	.LVL134
 3918 08e8 0100     		.2byte	0x1
 3919 08ea 53       		.byte	0x53
 3920 08eb 22000000 		.4byte	.LVL134
 3921 08ef 28000000 		.4byte	.LVL135
 3922 08f3 0100     		.2byte	0x1
 3923 08f5 54       		.byte	0x54
 3924 08f6 28000000 		.4byte	.LVL135
 3925 08fa 30000000 		.4byte	.LFE47
 3926 08fe 0300     		.2byte	0x3
 3927 0900 73       		.byte	0x73
 3928 0901 7F       		.sleb128 -1
 3929 0902 9F       		.byte	0x9f
 3930 0903 00000000 		.4byte	0
 3931 0907 00000000 		.4byte	0
 3932              	.LLST48:
 3933 090b 10000000 		.4byte	.LVL129
 3934 090f 14000000 		.4byte	.LVL130
 3935 0913 0100     		.2byte	0x1
 3936 0915 53       		.byte	0x53
 3937 0916 00000000 		.4byte	0
 3938 091a 00000000 		.4byte	0
 3939              	.LLST49:
 3940 091e 04000000 		.4byte	.LVL128
 3941 0922 14000000 		.4byte	.LVL130
 3942 0926 0200     		.2byte	0x2
 3943 0928 30       		.byte	0x30
 3944 0929 9F       		.byte	0x9f
 3945 092a 14000000 		.4byte	.LVL130
 3946 092e 28000000 		.4byte	.LVL136
 3947 0932 0100     		.2byte	0x1
 3948 0934 55       		.byte	0x55
 3949 0935 28000000 		.4byte	.LVL136
 3950 0939 30000000 		.4byte	.LFE47
 3951 093d 0100     		.2byte	0x1
 3952 093f 50       		.byte	0x50
 3953 0940 00000000 		.4byte	0
 3954 0944 00000000 		.4byte	0
 3955              	.LLST50:
 3956 0948 02000000 		.4byte	.LVL138
 3957 094c 08000000 		.4byte	.LVL139
 3958 0950 0200     		.2byte	0x2
 3959 0952 33       		.byte	0x33
 3960 0953 9F       		.byte	0x9f
 3961 0954 08000000 		.4byte	.LVL139
 3962 0958 12000000 		.4byte	.LVL142
 3963 095c 0100     		.2byte	0x1
 3964 095e 54       		.byte	0x54
 3965 095f 12000000 		.4byte	.LVL142
 3966 0963 14000000 		.4byte	.LVL143
ARM GAS  C:\Users\user\AppData\Local\Temp\cc0N1rlz.s 			page 102


 3967 0967 0100     		.2byte	0x1
 3968 0969 53       		.byte	0x53
 3969 096a 14000000 		.4byte	.LVL143
 3970 096e 1A000000 		.4byte	.LVL144
 3971 0972 0100     		.2byte	0x1
 3972 0974 54       		.byte	0x54
 3973 0975 1A000000 		.4byte	.LVL144
 3974 0979 1C000000 		.4byte	.LFE46
 3975 097d 0300     		.2byte	0x3
 3976 097f 73       		.byte	0x73
 3977 0980 7F       		.sleb128 -1
 3978 0981 9F       		.byte	0x9f
 3979 0982 00000000 		.4byte	0
 3980 0986 00000000 		.4byte	0
 3981              	.LLST51:
 3982 098a 02000000 		.4byte	.LVL138
 3983 098e 08000000 		.4byte	.LVL139
 3984 0992 0200     		.2byte	0x2
 3985 0994 30       		.byte	0x30
 3986 0995 9F       		.byte	0x9f
 3987 0996 08000000 		.4byte	.LVL139
 3988 099a 1A000000 		.4byte	.LVL145
 3989 099e 0100     		.2byte	0x1
 3990 09a0 55       		.byte	0x55
 3991 09a1 1A000000 		.4byte	.LVL145
 3992 09a5 1C000000 		.4byte	.LFE46
 3993 09a9 0100     		.2byte	0x1
 3994 09ab 50       		.byte	0x50
 3995 09ac 00000000 		.4byte	0
 3996 09b0 00000000 		.4byte	0
 3997              		.section	.debug_aranges,"",%progbits
 3998 0000 8C000000 		.4byte	0x8c
 3999 0004 0200     		.2byte	0x2
 4000 0006 00000000 		.4byte	.Ldebug_info0
 4001 000a 04       		.byte	0x4
 4002 000b 00       		.byte	0
 4003 000c 0000     		.2byte	0
 4004 000e 0000     		.2byte	0
 4005 0010 00000000 		.4byte	.LFB54
 4006 0014 1E000000 		.4byte	.LFE54-.LFB54
 4007 0018 00000000 		.4byte	.LFB53
 4008 001c 1E000000 		.4byte	.LFE53-.LFB53
 4009 0020 00000000 		.4byte	.LFB52
 4010 0024 24000000 		.4byte	.LFE52-.LFB52
 4011 0028 00000000 		.4byte	.LFB51
 4012 002c 28000000 		.4byte	.LFE51-.LFB51
 4013 0030 00000000 		.4byte	.LFB50
 4014 0034 16000000 		.4byte	.LFE50-.LFB50
 4015 0038 00000000 		.4byte	.LFB56
 4016 003c 50000000 		.4byte	.LFE56-.LFB56
 4017 0040 00000000 		.4byte	.LFB55
 4018 0044 16000000 		.4byte	.LFE55-.LFB55
 4019 0048 00000000 		.4byte	.LFB45
 4020 004c 08000000 		.4byte	.LFE45-.LFB45
 4021 0050 00000000 		.4byte	.LFB57
 4022 0054 38000000 		.4byte	.LFE57-.LFB57
 4023 0058 00000000 		.4byte	.LFB58
ARM GAS  C:\Users\user\AppData\Local\Temp\cc0N1rlz.s 			page 103


 4024 005c 38000000 		.4byte	.LFE58-.LFB58
 4025 0060 00000000 		.4byte	.LFB59
 4026 0064 12000000 		.4byte	.LFE59-.LFB59
 4027 0068 00000000 		.4byte	.LFB49
 4028 006c 8E000000 		.4byte	.LFE49-.LFB49
 4029 0070 00000000 		.4byte	.LFB48
 4030 0074 2C000000 		.4byte	.LFE48-.LFB48
 4031 0078 00000000 		.4byte	.LFB47
 4032 007c 30000000 		.4byte	.LFE47-.LFB47
 4033 0080 00000000 		.4byte	.LFB46
 4034 0084 1C000000 		.4byte	.LFE46-.LFB46
 4035 0088 00000000 		.4byte	0
 4036 008c 00000000 		.4byte	0
 4037              		.section	.debug_ranges,"",%progbits
 4038              	.Ldebug_ranges0:
 4039 0000 00000000 		.4byte	.LFB54
 4040 0004 1E000000 		.4byte	.LFE54
 4041 0008 00000000 		.4byte	.LFB53
 4042 000c 1E000000 		.4byte	.LFE53
 4043 0010 00000000 		.4byte	.LFB52
 4044 0014 24000000 		.4byte	.LFE52
 4045 0018 00000000 		.4byte	.LFB51
 4046 001c 28000000 		.4byte	.LFE51
 4047 0020 00000000 		.4byte	.LFB50
 4048 0024 16000000 		.4byte	.LFE50
 4049 0028 00000000 		.4byte	.LFB56
 4050 002c 50000000 		.4byte	.LFE56
 4051 0030 00000000 		.4byte	.LFB55
 4052 0034 16000000 		.4byte	.LFE55
 4053 0038 00000000 		.4byte	.LFB45
 4054 003c 08000000 		.4byte	.LFE45
 4055 0040 00000000 		.4byte	.LFB57
 4056 0044 38000000 		.4byte	.LFE57
 4057 0048 00000000 		.4byte	.LFB58
 4058 004c 38000000 		.4byte	.LFE58
 4059 0050 00000000 		.4byte	.LFB59
 4060 0054 12000000 		.4byte	.LFE59
 4061 0058 00000000 		.4byte	.LFB49
 4062 005c 8E000000 		.4byte	.LFE49
 4063 0060 00000000 		.4byte	.LFB48
 4064 0064 2C000000 		.4byte	.LFE48
 4065 0068 00000000 		.4byte	.LFB47
 4066 006c 30000000 		.4byte	.LFE47
 4067 0070 00000000 		.4byte	.LFB46
 4068 0074 1C000000 		.4byte	.LFE46
 4069 0078 00000000 		.4byte	0
 4070 007c 00000000 		.4byte	0
 4071              		.section	.debug_line,"",%progbits
 4072              	.Ldebug_line0:
 4073 0000 74030000 		.section	.debug_str,"MS",%progbits,1
 4073      0200D001 
 4073      00000201 
 4073      FB0E0D00 
 4073      01010101 
 4074              	.LASF22:
 4075 0000 75696E74 		.ascii	"uint16\000"
 4075      313600
ARM GAS  C:\Users\user\AppData\Local\Temp\cc0N1rlz.s 			page 104


 4076              	.LASF80:
 4077 0007 70747232 		.ascii	"ptr2PosHistory\000"
 4077      506F7348 
 4077      6973746F 
 4077      727900
 4078              	.LASF99:
 4079 0016 70747257 		.ascii	"ptrWidgetRam\000"
 4079      69646765 
 4079      7452616D 
 4079      00
 4080              	.LASF121:
 4081 0023 536D6172 		.ascii	"SmartSense_RunNoiseEnvelope\000"
 4081      7453656E 
 4081      73655F52 
 4081      756E4E6F 
 4081      69736545 
 4082              	.LASF117:
 4083 003f 43617053 		.ascii	"CapSense_UpdateWidgetBaseline\000"
 4083      656E7365 
 4083      5F557064 
 4083      61746557 
 4083      69646765 
 4084              	.LASF89:
 4085 005d 43617053 		.ascii	"CapSense_FtInitializeBaseline\000"
 4085      656E7365 
 4085      5F467449 
 4085      6E697469 
 4085      616C697A 
 4086              	.LASF6:
 4087 007b 5F5F7569 		.ascii	"__uint8_t\000"
 4087      6E74385F 
 4087      7400
 4088              	.LASF56:
 4089 0085 66696E67 		.ascii	"fingerCap\000"
 4089      65724361 
 4089      7000
 4090              	.LASF43:
 4091 008f 43617053 		.ascii	"CapSense_SENSE_METHOD_CSX_E\000"
 4091      656E7365 
 4091      5F53454E 
 4091      53455F4D 
 4091      4554484F 
 4092              	.LASF81:
 4093 00ab 69697246 		.ascii	"iirFilterCoeff\000"
 4093      696C7465 
 4093      72436F65 
 4093      666600
 4094              	.LASF65:
 4095 00ba 43617053 		.ascii	"CapSense_RAM_SNS_STRUCT\000"
 4095      656E7365 
 4095      5F52414D 
 4095      5F534E53 
 4095      5F535452 
 4096              	.LASF12:
 4097 00d2 6C6F6E67 		.ascii	"long long unsigned int\000"
 4097      206C6F6E 
 4097      6720756E 
ARM GAS  C:\Users\user\AppData\Local\Temp\cc0N1rlz.s 			page 105


 4097      7369676E 
 4097      65642069 
 4098              	.LASF66:
 4099 00e9 70747232 		.ascii	"ptr2SnsFlash\000"
 4099      536E7346 
 4099      6C617368 
 4099      00
 4100              	.LASF20:
 4101 00f6 63795F73 		.ascii	"cy_status\000"
 4101      74617475 
 4101      7300
 4102              	.LASF62:
 4103 0100 64696666 		.ascii	"diff\000"
 4103      00
 4104              	.LASF25:
 4105 0105 43617053 		.ascii	"CapSense_LOW_BSLN_RST_TYPE\000"
 4105      656E7365 
 4105      5F4C4F57 
 4105      5F42534C 
 4105      4E5F5253 
 4106              	.LASF108:
 4107 0120 66696C74 		.ascii	"filteredOutput\000"
 4107      65726564 
 4107      4F757470 
 4107      757400
 4108              	.LASF125:
 4109 012f 43617053 		.ascii	"CapSense_dsFlash\000"
 4109      656E7365 
 4109      5F647346 
 4109      6C617368 
 4109      00
 4110              	.LASF24:
 4111 0140 43617053 		.ascii	"CapSense_THRESHOLD_TYPE\000"
 4111      656E7365 
 4111      5F544852 
 4111      4553484F 
 4111      4C445F54 
 4112              	.LASF35:
 4113 0158 43617053 		.ascii	"CapSense_WD_LINEAR_SLIDER_E\000"
 4113      656E7365 
 4113      5F57445F 
 4113      4C494E45 
 4113      41525F53 
 4114              	.LASF104:
 4115 0174 43617053 		.ascii	"CapSense_InitializeNoiseEnvelope\000"
 4115      656E7365 
 4115      5F496E69 
 4115      7469616C 
 4115      697A654E 
 4116              	.LASF113:
 4117 0195 62617365 		.ascii	"baselineCoeff\000"
 4117      6C696E65 
 4117      436F6566 
 4117      6600
 4118              	.LASF1:
 4119 01a3 6C6F6E67 		.ascii	"long long int\000"
 4119      206C6F6E 
ARM GAS  C:\Users\user\AppData\Local\Temp\cc0N1rlz.s 			page 106


 4119      6720696E 
 4119      7400
 4120              	.LASF3:
 4121 01b1 7369676E 		.ascii	"signed char\000"
 4121      65642063 
 4121      68617200 
 4122              	.LASF9:
 4123 01bd 6C6F6E67 		.ascii	"long int\000"
 4123      20696E74 
 4123      00
 4124              	.LASF68:
 4125 01c6 70747232 		.ascii	"ptr2SnsRam\000"
 4125      536E7352 
 4125      616D00
 4126              	.LASF105:
 4127 01d1 696E7075 		.ascii	"input\000"
 4127      7400
 4128              	.LASF21:
 4129 01d7 75696E74 		.ascii	"uint8\000"
 4129      3800
 4130              	.LASF14:
 4131 01dd 75696E74 		.ascii	"uint16_t\000"
 4131      31365F74 
 4131      00
 4132              	.LASF19:
 4133 01e6 646F7562 		.ascii	"double\000"
 4133      6C6500
 4134              	.LASF45:
 4135 01ed 43617053 		.ascii	"CapSense_SENSE_METHOD_ENUM\000"
 4135      656E7365 
 4135      5F53454E 
 4135      53455F4D 
 4135      4554484F 
 4136              	.LASF77:
 4137 0208 78526573 		.ascii	"xResolution\000"
 4137      6F6C7574 
 4137      696F6E00 
 4138              	.LASF107:
 4139 0214 73686966 		.ascii	"shift\000"
 4139      7400
 4140              	.LASF92:
 4141 021a 73656E73 		.ascii	"sensorId\000"
 4141      6F724964 
 4141      00
 4142              	.LASF23:
 4143 0223 75696E74 		.ascii	"uint32\000"
 4143      333200
 4144              	.LASF50:
 4145 022a 68797374 		.ascii	"hysteresis\000"
 4145      65726573 
 4145      697300
 4146              	.LASF10:
 4147 0235 5F5F7569 		.ascii	"__uint32_t\000"
 4147      6E743332 
 4147      5F7400
 4148              	.LASF61:
 4149 0240 62736C6E 		.ascii	"bslnExt\000"
ARM GAS  C:\Users\user\AppData\Local\Temp\cc0N1rlz.s 			page 107


 4149      45787400 
 4150              	.LASF44:
 4151 0248 43617053 		.ascii	"CapSense_SENSE_METHOD_BIST_E\000"
 4151      656E7365 
 4151      5F53454E 
 4151      53455F4D 
 4151      4554484F 
 4152              	.LASF76:
 4153 0265 6E756D52 		.ascii	"numRows\000"
 4153      6F777300 
 4154              	.LASF95:
 4155 026d 73656E73 		.ascii	"sensorsNumber\000"
 4155      6F72734E 
 4155      756D6265 
 4155      7200
 4156              	.LASF37:
 4157 027b 43617053 		.ascii	"CapSense_WD_MATRIX_BUTTON_E\000"
 4157      656E7365 
 4157      5F57445F 
 4157      4D415452 
 4157      49585F42 
 4158              	.LASF60:
 4159 0297 62736C6E 		.ascii	"bsln\000"
 4159      00
 4160              	.LASF0:
 4161 029c 756E7369 		.ascii	"unsigned int\000"
 4161      676E6564 
 4161      20696E74 
 4161      00
 4162              	.LASF79:
 4163 02a9 70747232 		.ascii	"ptr2NoiseEnvlp\000"
 4163      4E6F6973 
 4163      65456E76 
 4163      6C7000
 4164              	.LASF11:
 4165 02b8 6C6F6E67 		.ascii	"long unsigned int\000"
 4165      20756E73 
 4165      69676E65 
 4165      6420696E 
 4165      7400
 4166              	.LASF74:
 4167 02ca 73656E73 		.ascii	"senseMethod\000"
 4167      654D6574 
 4167      686F6400 
 4168              	.LASF52:
 4169 02d6 6C6F7742 		.ascii	"lowBslnRst\000"
 4169      736C6E52 
 4169      737400
 4170              	.LASF8:
 4171 02e1 73686F72 		.ascii	"short unsigned int\000"
 4171      7420756E 
 4171      7369676E 
 4171      65642069 
 4171      6E7400
 4172              	.LASF110:
 4173 02f4 43617053 		.ascii	"CapSense_FtUpdateBaseline\000"
 4173      656E7365 
ARM GAS  C:\Users\user\AppData\Local\Temp\cc0N1rlz.s 			page 108


 4173      5F467455 
 4173      70646174 
 4173      65426173 
 4174              	.LASF88:
 4175 030e 43617053 		.ascii	"CapSense_FtInitializeBaselineChannel\000"
 4175      656E7365 
 4175      5F467449 
 4175      6E697469 
 4175      616C697A 
 4176              	.LASF41:
 4177 0333 43617053 		.ascii	"CapSense_UNDEFINED_E\000"
 4177      656E7365 
 4177      5F554E44 
 4177      4546494E 
 4177      45445F45 
 4178              	.LASF116:
 4179 0348 43617053 		.ascii	"CapSense_UpdateSensorBaseline\000"
 4179      656E7365 
 4179      5F557064 
 4179      61746553 
 4179      656E736F 
 4180              	.LASF67:
 4181 0366 70747232 		.ascii	"ptr2WdgtRam\000"
 4181      57646774 
 4181      52616D00 
 4182              	.LASF5:
 4183 0372 73686F72 		.ascii	"short int\000"
 4183      7420696E 
 4183      7400
 4184              	.LASF86:
 4185 037c 77645479 		.ascii	"wdType\000"
 4185      706500
 4186              	.LASF118:
 4187 0383 62736C6E 		.ascii	"bslnStatus\000"
 4187      53746174 
 4187      757300
 4188              	.LASF91:
 4189 038e 77696467 		.ascii	"widgetId\000"
 4189      65744964 
 4189      00
 4190              	.LASF106:
 4191 0397 70726576 		.ascii	"prevOutput\000"
 4191      4F757470 
 4191      757400
 4192              	.LASF112:
 4193 03a2 64696666 		.ascii	"difference\000"
 4193      6572656E 
 4193      636500
 4194              	.LASF53:
 4195 03ad 69646163 		.ascii	"idacMod\000"
 4195      4D6F6400 
 4196              	.LASF75:
 4197 03b5 6E756D43 		.ascii	"numCols\000"
 4197      6F6C7300 
 4198              	.LASF103:
 4199 03bd 43617053 		.ascii	"CapSense_RunNoiseEnvelope\000"
 4199      656E7365 
ARM GAS  C:\Users\user\AppData\Local\Temp\cc0N1rlz.s 			page 109


 4199      5F52756E 
 4199      4E6F6973 
 4199      65456E76 
 4200              	.LASF96:
 4201 03d7 70747257 		.ascii	"ptrWidget\000"
 4201      69646765 
 4201      7400
 4202              	.LASF58:
 4203 03e1 67657374 		.ascii	"gestureId\000"
 4203      75726549 
 4203      6400
 4204              	.LASF90:
 4205 03eb 43617053 		.ascii	"CapSense_InitializeSensorBaseline\000"
 4205      656E7365 
 4205      5F496E69 
 4205      7469616C 
 4205      697A6553 
 4206              	.LASF71:
 4207 040d 73746174 		.ascii	"staticConfig\000"
 4207      6963436F 
 4207      6E666967 
 4207      00
 4208              	.LASF49:
 4209 041a 6E4E6F69 		.ascii	"nNoiseTh\000"
 4209      73655468 
 4209      00
 4210              	.LASF57:
 4211 0423 73696750 		.ascii	"sigPFC\000"
 4211      464300
 4212              	.LASF73:
 4213 042a 77646774 		.ascii	"wdgtType\000"
 4213      54797065 
 4213      00
 4214              	.LASF78:
 4215 0433 7843656E 		.ascii	"xCentroidMultiplier\000"
 4215      74726F69 
 4215      644D756C 
 4215      7469706C 
 4215      69657200 
 4216              	.LASF42:
 4217 0447 43617053 		.ascii	"CapSense_SENSE_METHOD_CSD_E\000"
 4217      656E7365 
 4217      5F53454E 
 4217      53455F4D 
 4217      4554484F 
 4218              	.LASF102:
 4219 0463 43617053 		.ascii	"CapSense_FtInitialize\000"
 4219      656E7365 
 4219      5F467449 
 4219      6E697469 
 4219      616C697A 
 4220              	.LASF18:
 4221 0479 666C6F61 		.ascii	"float\000"
 4221      7400
 4222              	.LASF124:
 4223 047f 433A5C55 		.ascii	"C:\\Users\\user\\Downloads\\ESSAI_3\\Laboratoire3.c"
 4223      73657273 
ARM GAS  C:\Users\user\AppData\Local\Temp\cc0N1rlz.s 			page 110


 4223      5C757365 
 4223      725C446F 
 4223      776E6C6F 
 4224 04ad 7964736E 		.ascii	"ydsn\000"
 4224      00
 4225              	.LASF33:
 4226 04b2 534D4152 		.ascii	"SMARTSENSE_CSD_NOISE_ENVELOPE_STRUCT\000"
 4226      5453454E 
 4226      53455F43 
 4226      53445F4E 
 4226      4F495345 
 4227              	.LASF115:
 4228 04d7 68697374 		.ascii	"history\000"
 4228      6F727900 
 4229              	.LASF34:
 4230 04df 43617053 		.ascii	"CapSense_WD_BUTTON_E\000"
 4230      656E7365 
 4230      5F57445F 
 4230      42555454 
 4230      4F4E5F45 
 4231              	.LASF26:
 4232 04f4 70617261 		.ascii	"param0\000"
 4232      6D3000
 4233              	.LASF27:
 4234 04fb 70617261 		.ascii	"param1\000"
 4234      6D3100
 4235              	.LASF28:
 4236 0502 70617261 		.ascii	"param2\000"
 4236      6D3200
 4237              	.LASF29:
 4238 0509 70617261 		.ascii	"param3\000"
 4238      6D3300
 4239              	.LASF30:
 4240 0510 70617261 		.ascii	"param4\000"
 4240      6D3400
 4241              	.LASF31:
 4242 0517 70617261 		.ascii	"param5\000"
 4242      6D3500
 4243              	.LASF32:
 4244 051e 70617261 		.ascii	"param6\000"
 4244      6D3600
 4245              	.LASF82:
 4246 0525 43617053 		.ascii	"CapSense_FLASH_WD_STRUCT\000"
 4246      656E7365 
 4246      5F464C41 
 4246      53485F57 
 4246      445F5354 
 4247              	.LASF69:
 4248 053e 70747232 		.ascii	"ptr2FltrHistory\000"
 4248      466C7472 
 4248      48697374 
 4248      6F727900 
 4249              	.LASF101:
 4250 054e 43617053 		.ascii	"CapSense_InitializeAllFilters\000"
 4250      656E7365 
 4250      5F496E69 
 4250      7469616C 
ARM GAS  C:\Users\user\AppData\Local\Temp\cc0N1rlz.s 			page 111


 4250      697A6541 
 4251              	.LASF119:
 4252 056c 43617053 		.ascii	"CapSense_UpdateAllBaselines\000"
 4252      656E7365 
 4252      5F557064 
 4252      61746541 
 4252      6C6C4261 
 4253              	.LASF38:
 4254 0588 43617053 		.ascii	"CapSense_WD_TOUCHPAD_E\000"
 4254      656E7365 
 4254      5F57445F 
 4254      544F5543 
 4254      48504144 
 4255              	.LASF123:
 4256 059f 47656E65 		.ascii	"Generated_Source\\PSoC6\\CapSense_Filter.c\000"
 4256      72617465 
 4256      645F536F 
 4256      75726365 
 4256      5C50536F 
 4257              	.LASF93:
 4258 05c8 66726571 		.ascii	"freqChannel\000"
 4258      4368616E 
 4258      6E656C00 
 4259              	.LASF87:
 4260 05d4 6368616E 		.ascii	"channel\000"
 4260      6E656C00 
 4261              	.LASF15:
 4262 05dc 75696E74 		.ascii	"uint32_t\000"
 4262      33325F74 
 4262      00
 4263              	.LASF122:
 4264 05e5 474E5520 		.ascii	"GNU C11 5.4.1 20160609 (release) [ARM/embedded-5-br"
 4264      43313120 
 4264      352E342E 
 4264      31203230 
 4264      31363036 
 4265 0618 616E6368 		.ascii	"anch revision 237715] -mcpu=cortex-m0plus -mthumb -"
 4265      20726576 
 4265      6973696F 
 4265      6E203233 
 4265      37373135 
 4266 064b 67202D4F 		.ascii	"g -Og -ffunction-sections -ffat-lto-objects\000"
 4266      67202D66 
 4266      66756E63 
 4266      74696F6E 
 4266      2D736563 
 4267              	.LASF2:
 4268 0677 6C6F6E67 		.ascii	"long double\000"
 4268      20646F75 
 4268      626C6500 
 4269              	.LASF17:
 4270 0683 63686172 		.ascii	"char\000"
 4270      00
 4271              	.LASF7:
 4272 0688 5F5F7569 		.ascii	"__uint16_t\000"
 4272      6E743136 
 4272      5F7400
ARM GAS  C:\Users\user\AppData\Local\Temp\cc0N1rlz.s 			page 112


 4273              	.LASF54:
 4274 0693 736E7343 		.ascii	"snsClk\000"
 4274      6C6B00
 4275              	.LASF59:
 4276 069a 43617053 		.ascii	"CapSense_RAM_WD_BASE_STRUCT\000"
 4276      656E7365 
 4276      5F52414D 
 4276      5F57445F 
 4276      42415345 
 4277              	.LASF120:
 4278 06b6 536D6172 		.ascii	"SmartSense_InitializeNoiseEnvelope\000"
 4278      7453656E 
 4278      73655F49 
 4278      6E697469 
 4278      616C697A 
 4279              	.LASF51:
 4280 06d9 6F6E4465 		.ascii	"onDebounce\000"
 4280      626F756E 
 4280      636500
 4281              	.LASF40:
 4282 06e4 43617053 		.ascii	"CapSense_WD_TYPE_ENUM\000"
 4282      656E7365 
 4282      5F57445F 
 4282      54595045 
 4282      5F454E55 
 4283              	.LASF36:
 4284 06fa 43617053 		.ascii	"CapSense_WD_RADIAL_SLIDER_E\000"
 4284      656E7365 
 4284      5F57445F 
 4284      52414449 
 4284      414C5F53 
 4285              	.LASF94:
 4286 0716 43617053 		.ascii	"CapSense_InitializeWidgetBaseline\000"
 4286      656E7365 
 4286      5F496E69 
 4286      7469616C 
 4286      697A6557 
 4287              	.LASF64:
 4288 0738 69646163 		.ascii	"idacComp\000"
 4288      436F6D70 
 4288      00
 4289              	.LASF98:
 4290 0741 43617053 		.ascii	"CapSense_InitializeWidgetFilter\000"
 4290      656E7365 
 4290      5F496E69 
 4290      7469616C 
 4290      697A6557 
 4291              	.LASF4:
 4292 0761 756E7369 		.ascii	"unsigned char\000"
 4292      676E6564 
 4292      20636861 
 4292      7200
 4293              	.LASF63:
 4294 076f 6E656742 		.ascii	"negBslnRstCnt\000"
 4294      736C6E52 
 4294      7374436E 
 4294      7400
ARM GAS  C:\Users\user\AppData\Local\Temp\cc0N1rlz.s 			page 113


 4295              	.LASF97:
 4296 077d 43617053 		.ascii	"CapSense_InitializeAllBaselines\000"
 4296      656E7365 
 4296      5F496E69 
 4296      7469616C 
 4296      697A6541 
 4297              	.LASF70:
 4298 079d 70747232 		.ascii	"ptr2DebounceArr\000"
 4298      4465626F 
 4298      756E6365 
 4298      41727200 
 4299              	.LASF84:
 4300 07ad 43617053 		.ascii	"CapSense_FLASH_STRUCT\000"
 4300      656E7365 
 4300      5F464C41 
 4300      53485F53 
 4300      54525543 
 4301              	.LASF46:
 4302 07c3 7265736F 		.ascii	"resolution\000"
 4302      6C757469 
 4302      6F6E00
 4303              	.LASF72:
 4304 07ce 746F7461 		.ascii	"totalNumSns\000"
 4304      6C4E756D 
 4304      536E7300 
 4305              	.LASF83:
 4306 07da 77646774 		.ascii	"wdgtArray\000"
 4306      41727261 
 4306      7900
 4307              	.LASF109:
 4308 07e4 43617053 		.ascii	"CapSense_FtIIR1stOrder\000"
 4308      656E7365 
 4308      5F467449 
 4308      49523173 
 4308      744F7264 
 4309              	.LASF13:
 4310 07fb 75696E74 		.ascii	"uint8_t\000"
 4310      385F7400 
 4311              	.LASF111:
 4312 0803 7369676E 		.ascii	"sign\000"
 4312      00
 4313              	.LASF16:
 4314 0808 73697A65 		.ascii	"sizetype\000"
 4314      74797065 
 4314      00
 4315              	.LASF55:
 4316 0811 736E7343 		.ascii	"snsClkSource\000"
 4316      6C6B536F 
 4316      75726365 
 4316      00
 4317              	.LASF85:
 4318 081e 70747253 		.ascii	"ptrSensor\000"
 4318      656E736F 
 4318      7200
 4319              	.LASF100:
 4320 0828 7074724E 		.ascii	"ptrNoiseEnvelope\000"
 4320      6F697365 
ARM GAS  C:\Users\user\AppData\Local\Temp\cc0N1rlz.s 			page 114


 4320      456E7665 
 4320      6C6F7065 
 4320      00
 4321              	.LASF47:
 4322 0839 66696E67 		.ascii	"fingerTh\000"
 4322      65725468 
 4322      00
 4323              	.LASF39:
 4324 0842 43617053 		.ascii	"CapSense_WD_PROXIMITY_E\000"
 4324      656E7365 
 4324      5F57445F 
 4324      50524F58 
 4324      494D4954 
 4325              	.LASF114:
 4326 085a 72657375 		.ascii	"result\000"
 4326      6C7400
 4327              	.LASF48:
 4328 0861 6E6F6973 		.ascii	"noiseTh\000"
 4328      65546800 
 4329              		.ident	"GCC: (GNU Tools for ARM Embedded Processors) 5.4.1 20160609 (release) [ARM/embedded-5-bran
